ARM GAS  C:\Users\MICHA_~1\AppData\Local\Temp\ccX8T6Q1.s 			page 1


   1              		.syntax unified
   2              		.cpu cortex-m3
   3              		.fpu softvfp
   4              		.eabi_attribute 20, 1
   5              		.eabi_attribute 21, 1
   6              		.eabi_attribute 23, 3
   7              		.eabi_attribute 24, 1
   8              		.eabi_attribute 25, 1
   9              		.eabi_attribute 26, 1
  10              		.eabi_attribute 30, 4
  11              		.eabi_attribute 34, 1
  12              		.eabi_attribute 18, 4
  13              		.thumb
  14              		.file	"BL.c"
  15              		.text
  16              	.Ltext0:
  17              		.cfi_sections	.debug_frame
  18              		.section	.text.BL_LaunchBootloadable,"ax",%progbits
  19              		.align	1
  20              		.thumb
  21              		.thumb_func
  22              		.type	BL_LaunchBootloadable, %function
  23              	BL_LaunchBootloadable:
  24              	.LFB62:
  25              		.file 1 ".\\Generated_Source\\PSoC5\\BL.c"
   1:.\Generated_Source\PSoC5/BL.c **** /*******************************************************************************
   2:.\Generated_Source\PSoC5/BL.c **** * File Name: BL.c
   3:.\Generated_Source\PSoC5/BL.c **** * Version 1.20
   4:.\Generated_Source\PSoC5/BL.c **** *
   5:.\Generated_Source\PSoC5/BL.c **** *  Description:
   6:.\Generated_Source\PSoC5/BL.c **** *   Provides an API for the Bootloader component. The API includes functions
   7:.\Generated_Source\PSoC5/BL.c **** *   for starting boot loading operations, validating the application and
   8:.\Generated_Source\PSoC5/BL.c **** *   jumping to the application.
   9:.\Generated_Source\PSoC5/BL.c **** *
  10:.\Generated_Source\PSoC5/BL.c **** ********************************************************************************
  11:.\Generated_Source\PSoC5/BL.c **** * Copyright 2008-2013, Cypress Semiconductor Corporation.  All rights reserved.
  12:.\Generated_Source\PSoC5/BL.c **** * You may use this file only in accordance with the license, terms, conditions,
  13:.\Generated_Source\PSoC5/BL.c **** * disclaimers, and limitations in the end user license agreement accompanying
  14:.\Generated_Source\PSoC5/BL.c **** * the software package with which this file was provided.
  15:.\Generated_Source\PSoC5/BL.c **** *******************************************************************************/
  16:.\Generated_Source\PSoC5/BL.c **** 
  17:.\Generated_Source\PSoC5/BL.c **** #include "BL_PVT.h"
  18:.\Generated_Source\PSoC5/BL.c **** 
  19:.\Generated_Source\PSoC5/BL.c **** #include "project.h"
  20:.\Generated_Source\PSoC5/BL.c **** #include <string.h>
  21:.\Generated_Source\PSoC5/BL.c **** 
  22:.\Generated_Source\PSoC5/BL.c **** 
  23:.\Generated_Source\PSoC5/BL.c **** /*******************************************************************************
  24:.\Generated_Source\PSoC5/BL.c **** * The Checksum and SizeBytes are forcefully set in code. We then post process
  25:.\Generated_Source\PSoC5/BL.c **** * the hex file from the linker and inject their values then. When the hex file
  26:.\Generated_Source\PSoC5/BL.c **** * is loaded onto the device these two variables should have valid values.
  27:.\Generated_Source\PSoC5/BL.c **** * Because the compiler can do optimizations remove the constant
  28:.\Generated_Source\PSoC5/BL.c **** * accesses, these should not be accessed directly. Instead, the variables
  29:.\Generated_Source\PSoC5/BL.c **** * CyBtldr_ChecksumAccess & CyBtldr_SizeBytesAccess should be used to get the
  30:.\Generated_Source\PSoC5/BL.c **** * proper values at runtime.
  31:.\Generated_Source\PSoC5/BL.c **** *******************************************************************************/
  32:.\Generated_Source\PSoC5/BL.c **** #if defined(__ARMCC_VERSION) || defined (__GNUC__)
ARM GAS  C:\Users\MICHA_~1\AppData\Local\Temp\ccX8T6Q1.s 			page 2


  33:.\Generated_Source\PSoC5/BL.c ****     __attribute__((section (".bootloader")))
  34:.\Generated_Source\PSoC5/BL.c **** #elif defined (__ICCARM__)
  35:.\Generated_Source\PSoC5/BL.c ****     #pragma location=".bootloader"
  36:.\Generated_Source\PSoC5/BL.c **** #endif  /* defined(__ARMCC_VERSION) || defined (__GNUC__) */
  37:.\Generated_Source\PSoC5/BL.c **** 
  38:.\Generated_Source\PSoC5/BL.c **** const uint8  CYCODE BL_Checksum = 0u;
  39:.\Generated_Source\PSoC5/BL.c **** const uint8  CYCODE *BL_ChecksumAccess  = (const uint8  CYCODE *)(&BL_Checksum);
  40:.\Generated_Source\PSoC5/BL.c **** 
  41:.\Generated_Source\PSoC5/BL.c **** #if defined(__ARMCC_VERSION) || defined (__GNUC__)
  42:.\Generated_Source\PSoC5/BL.c ****     __attribute__((section (".bootloader")))
  43:.\Generated_Source\PSoC5/BL.c **** #elif defined (__ICCARM__)
  44:.\Generated_Source\PSoC5/BL.c ****     #pragma location=".bootloader"
  45:.\Generated_Source\PSoC5/BL.c **** #endif  /* defined(__ARMCC_VERSION) || defined (__GNUC__) */
  46:.\Generated_Source\PSoC5/BL.c **** 
  47:.\Generated_Source\PSoC5/BL.c **** const uint32 CYCODE BL_SizeBytes = 0xFFFFFFFFu;
  48:.\Generated_Source\PSoC5/BL.c **** const uint32 CYCODE *BL_SizeBytesAccess = (const uint32 CYCODE *)(&BL_SizeBytes);
  49:.\Generated_Source\PSoC5/BL.c **** 
  50:.\Generated_Source\PSoC5/BL.c **** 
  51:.\Generated_Source\PSoC5/BL.c **** #if(0u != BL_DUAL_APP_BOOTLOADER)
  52:.\Generated_Source\PSoC5/BL.c ****     uint8 BL_activeApp = BL_MD_BTLDB_ACTIVE_NONE;
  53:.\Generated_Source\PSoC5/BL.c **** #else
  54:.\Generated_Source\PSoC5/BL.c ****     #define BL_activeApp      (BL_MD_BTLDB_ACTIVE_0)
  55:.\Generated_Source\PSoC5/BL.c **** #endif  /* (0u != BL_DUAL_APP_BOOTLOADER) */
  56:.\Generated_Source\PSoC5/BL.c **** 
  57:.\Generated_Source\PSoC5/BL.c **** 
  58:.\Generated_Source\PSoC5/BL.c **** /***************************************
  59:.\Generated_Source\PSoC5/BL.c **** *     Function Prototypes
  60:.\Generated_Source\PSoC5/BL.c **** ***************************************/
  61:.\Generated_Source\PSoC5/BL.c **** static cystatus BL_WritePacket(uint8 status, uint8 buffer[], uint16 size) CYSMALL \
  62:.\Generated_Source\PSoC5/BL.c ****                                     ;
  63:.\Generated_Source\PSoC5/BL.c **** 
  64:.\Generated_Source\PSoC5/BL.c **** static uint16   BL_CalcPacketChecksum(const uint8 buffer[], uint16 size) CYSMALL \
  65:.\Generated_Source\PSoC5/BL.c ****                                     ;
  66:.\Generated_Source\PSoC5/BL.c **** 
  67:.\Generated_Source\PSoC5/BL.c **** static uint8    BL_Calc8BitFlashSum(uint32 start, uint32 size) CYSMALL \
  68:.\Generated_Source\PSoC5/BL.c ****                                     ;
  69:.\Generated_Source\PSoC5/BL.c **** #if(!CY_PSOC4)
  70:.\Generated_Source\PSoC5/BL.c **** static uint8    BL_Calc8BitEepromSum(uint32 start, uint32 size) CYSMALL \
  71:.\Generated_Source\PSoC5/BL.c ****                                     ;
  72:.\Generated_Source\PSoC5/BL.c **** #endif /* (!CY_PSOC4) */
  73:.\Generated_Source\PSoC5/BL.c **** 
  74:.\Generated_Source\PSoC5/BL.c **** static void     BL_HostLink(uint8 timeOut) \
  75:.\Generated_Source\PSoC5/BL.c ****                                     ;
  76:.\Generated_Source\PSoC5/BL.c **** 
  77:.\Generated_Source\PSoC5/BL.c **** static void     BL_LaunchApplication(void) CYSMALL \
  78:.\Generated_Source\PSoC5/BL.c ****                                     ;
  79:.\Generated_Source\PSoC5/BL.c **** 
  80:.\Generated_Source\PSoC5/BL.c **** static cystatus BL_ValidateBootloadable(uint8 appId) CYSMALL \
  81:.\Generated_Source\PSoC5/BL.c ****                                     ;
  82:.\Generated_Source\PSoC5/BL.c **** 
  83:.\Generated_Source\PSoC5/BL.c **** static uint32   BL_GetMetadata(uint8 fieldName, uint8 appId)\
  84:.\Generated_Source\PSoC5/BL.c ****                                     ;
  85:.\Generated_Source\PSoC5/BL.c **** 
  86:.\Generated_Source\PSoC5/BL.c **** #if(!CY_PSOC3)
  87:.\Generated_Source\PSoC5/BL.c ****     /* Implementation for the PSoC 3 resides in a BL_psoc3.a51 file.  */
  88:.\Generated_Source\PSoC5/BL.c ****     static void     BL_LaunchBootloadable(uint32 appAddr);
  89:.\Generated_Source\PSoC5/BL.c **** #endif  /* (!CY_PSOC3) */
ARM GAS  C:\Users\MICHA_~1\AppData\Local\Temp\ccX8T6Q1.s 			page 3


  90:.\Generated_Source\PSoC5/BL.c **** 
  91:.\Generated_Source\PSoC5/BL.c **** 
  92:.\Generated_Source\PSoC5/BL.c **** /*******************************************************************************
  93:.\Generated_Source\PSoC5/BL.c **** * Function Name: BL_CalcPacketChecksum
  94:.\Generated_Source\PSoC5/BL.c **** ********************************************************************************
  95:.\Generated_Source\PSoC5/BL.c **** *
  96:.\Generated_Source\PSoC5/BL.c **** * Summary:
  97:.\Generated_Source\PSoC5/BL.c **** *  This computes the 16 bit checksum for the provided number of bytes contained
  98:.\Generated_Source\PSoC5/BL.c **** *  in the provided buffer
  99:.\Generated_Source\PSoC5/BL.c **** *
 100:.\Generated_Source\PSoC5/BL.c **** * Parameters:
 101:.\Generated_Source\PSoC5/BL.c **** *  buffer:
 102:.\Generated_Source\PSoC5/BL.c **** *     The buffer containing the data to compute the checksum for
 103:.\Generated_Source\PSoC5/BL.c **** *  size:
 104:.\Generated_Source\PSoC5/BL.c **** *     The number of bytes in buffer to compute the checksum for
 105:.\Generated_Source\PSoC5/BL.c **** *
 106:.\Generated_Source\PSoC5/BL.c **** * Returns:
 107:.\Generated_Source\PSoC5/BL.c **** *  16 bit checksum for the provided data
 108:.\Generated_Source\PSoC5/BL.c **** *
 109:.\Generated_Source\PSoC5/BL.c **** *******************************************************************************/
 110:.\Generated_Source\PSoC5/BL.c **** static uint16 BL_CalcPacketChecksum(const uint8 buffer[], uint16 size) \
 111:.\Generated_Source\PSoC5/BL.c ****                     CYSMALL 
 112:.\Generated_Source\PSoC5/BL.c **** {
 113:.\Generated_Source\PSoC5/BL.c ****     #if(0u != BL_PACKET_CHECKSUM_CRC)
 114:.\Generated_Source\PSoC5/BL.c **** 
 115:.\Generated_Source\PSoC5/BL.c ****         uint16 CYDATA crc = BL_CRC_CCITT_INITIAL_VALUE;
 116:.\Generated_Source\PSoC5/BL.c ****         uint16 CYDATA tmp;
 117:.\Generated_Source\PSoC5/BL.c ****         uint8  CYDATA i;
 118:.\Generated_Source\PSoC5/BL.c ****         uint16 CYDATA tmpIndex = size;
 119:.\Generated_Source\PSoC5/BL.c **** 
 120:.\Generated_Source\PSoC5/BL.c ****         if(0u == size)
 121:.\Generated_Source\PSoC5/BL.c ****         {
 122:.\Generated_Source\PSoC5/BL.c ****             crc = ~crc;
 123:.\Generated_Source\PSoC5/BL.c ****         }
 124:.\Generated_Source\PSoC5/BL.c ****         else
 125:.\Generated_Source\PSoC5/BL.c ****         {
 126:.\Generated_Source\PSoC5/BL.c ****             do
 127:.\Generated_Source\PSoC5/BL.c ****             {
 128:.\Generated_Source\PSoC5/BL.c ****                 tmp = buffer[tmpIndex - size];
 129:.\Generated_Source\PSoC5/BL.c **** 
 130:.\Generated_Source\PSoC5/BL.c ****                 for (i = 0u; i < 8u; i++)
 131:.\Generated_Source\PSoC5/BL.c ****                 {
 132:.\Generated_Source\PSoC5/BL.c ****                     if (0u != ((crc & 0x0001u) ^ (tmp & 0x0001u)))
 133:.\Generated_Source\PSoC5/BL.c ****                     {
 134:.\Generated_Source\PSoC5/BL.c ****                         crc = (crc >> 1u) ^ BL_CRC_CCITT_POLYNOMIAL;
 135:.\Generated_Source\PSoC5/BL.c ****                     }
 136:.\Generated_Source\PSoC5/BL.c ****                     else
 137:.\Generated_Source\PSoC5/BL.c ****                     {
 138:.\Generated_Source\PSoC5/BL.c ****                         crc >>= 1u;
 139:.\Generated_Source\PSoC5/BL.c ****                     }
 140:.\Generated_Source\PSoC5/BL.c **** 
 141:.\Generated_Source\PSoC5/BL.c ****                     tmp >>= 1u;
 142:.\Generated_Source\PSoC5/BL.c ****                 }
 143:.\Generated_Source\PSoC5/BL.c **** 
 144:.\Generated_Source\PSoC5/BL.c ****                 size--;
 145:.\Generated_Source\PSoC5/BL.c ****             }
 146:.\Generated_Source\PSoC5/BL.c ****             while(0u != size);
ARM GAS  C:\Users\MICHA_~1\AppData\Local\Temp\ccX8T6Q1.s 			page 4


 147:.\Generated_Source\PSoC5/BL.c **** 
 148:.\Generated_Source\PSoC5/BL.c ****             crc = ~crc;
 149:.\Generated_Source\PSoC5/BL.c ****             tmp = crc;
 150:.\Generated_Source\PSoC5/BL.c ****             crc = ( uint16 )(crc << 8u) | (tmp >> 8u);
 151:.\Generated_Source\PSoC5/BL.c ****         }
 152:.\Generated_Source\PSoC5/BL.c **** 
 153:.\Generated_Source\PSoC5/BL.c ****         return(crc);
 154:.\Generated_Source\PSoC5/BL.c **** 
 155:.\Generated_Source\PSoC5/BL.c ****     #else
 156:.\Generated_Source\PSoC5/BL.c **** 
 157:.\Generated_Source\PSoC5/BL.c ****         uint16 CYDATA sum = 0u;
 158:.\Generated_Source\PSoC5/BL.c **** 
 159:.\Generated_Source\PSoC5/BL.c ****         while (size > 0u)
 160:.\Generated_Source\PSoC5/BL.c ****         {
 161:.\Generated_Source\PSoC5/BL.c ****             sum += buffer[size - 1u];
 162:.\Generated_Source\PSoC5/BL.c ****             size--;
 163:.\Generated_Source\PSoC5/BL.c ****         }
 164:.\Generated_Source\PSoC5/BL.c **** 
 165:.\Generated_Source\PSoC5/BL.c ****         return(( uint16 )1u + ( uint16 )(~sum));
 166:.\Generated_Source\PSoC5/BL.c **** 
 167:.\Generated_Source\PSoC5/BL.c ****     #endif /* (0u != BL_PACKET_CHECKSUM_CRC) */
 168:.\Generated_Source\PSoC5/BL.c **** }
 169:.\Generated_Source\PSoC5/BL.c **** 
 170:.\Generated_Source\PSoC5/BL.c **** 
 171:.\Generated_Source\PSoC5/BL.c **** /*******************************************************************************
 172:.\Generated_Source\PSoC5/BL.c **** * Function Name: BL_Calc8BitFlashSum
 173:.\Generated_Source\PSoC5/BL.c **** ********************************************************************************
 174:.\Generated_Source\PSoC5/BL.c **** *
 175:.\Generated_Source\PSoC5/BL.c **** * Summary:
 176:.\Generated_Source\PSoC5/BL.c **** *  This computes the 8 bit sum for the provided number of bytes contained in
 177:.\Generated_Source\PSoC5/BL.c **** *  flash.
 178:.\Generated_Source\PSoC5/BL.c **** *
 179:.\Generated_Source\PSoC5/BL.c **** * Parameters:
 180:.\Generated_Source\PSoC5/BL.c **** *  start:
 181:.\Generated_Source\PSoC5/BL.c **** *     The starting address to start summing data for
 182:.\Generated_Source\PSoC5/BL.c **** *  size:
 183:.\Generated_Source\PSoC5/BL.c **** *     The number of bytes to read and compute the sum for
 184:.\Generated_Source\PSoC5/BL.c **** *
 185:.\Generated_Source\PSoC5/BL.c **** * Returns:
 186:.\Generated_Source\PSoC5/BL.c **** *   8 bit sum for the provided data
 187:.\Generated_Source\PSoC5/BL.c **** *
 188:.\Generated_Source\PSoC5/BL.c **** *******************************************************************************/
 189:.\Generated_Source\PSoC5/BL.c **** static uint8 BL_Calc8BitFlashSum(uint32 start, uint32 size) \
 190:.\Generated_Source\PSoC5/BL.c ****                 CYSMALL 
 191:.\Generated_Source\PSoC5/BL.c **** {
 192:.\Generated_Source\PSoC5/BL.c ****     uint8 CYDATA sum = 0u;
 193:.\Generated_Source\PSoC5/BL.c **** 
 194:.\Generated_Source\PSoC5/BL.c ****     while (size > 0u)
 195:.\Generated_Source\PSoC5/BL.c ****     {
 196:.\Generated_Source\PSoC5/BL.c ****         size--;
 197:.\Generated_Source\PSoC5/BL.c ****         sum += BL_GET_CODE_BYTE(start + size);
 198:.\Generated_Source\PSoC5/BL.c ****     }
 199:.\Generated_Source\PSoC5/BL.c **** 
 200:.\Generated_Source\PSoC5/BL.c ****     return(sum);
 201:.\Generated_Source\PSoC5/BL.c **** }
 202:.\Generated_Source\PSoC5/BL.c **** 
 203:.\Generated_Source\PSoC5/BL.c **** 
ARM GAS  C:\Users\MICHA_~1\AppData\Local\Temp\ccX8T6Q1.s 			page 5


 204:.\Generated_Source\PSoC5/BL.c **** #if(!CY_PSOC4)
 205:.\Generated_Source\PSoC5/BL.c **** 
 206:.\Generated_Source\PSoC5/BL.c ****     /*******************************************************************************
 207:.\Generated_Source\PSoC5/BL.c ****     * Function Name: BL_Calc8BitEepromSum
 208:.\Generated_Source\PSoC5/BL.c ****     ********************************************************************************
 209:.\Generated_Source\PSoC5/BL.c ****     *
 210:.\Generated_Source\PSoC5/BL.c ****     * Summary:
 211:.\Generated_Source\PSoC5/BL.c ****     *  This computes the 8 bit sum for the provided number of bytes contained in
 212:.\Generated_Source\PSoC5/BL.c ****     *  EEPROM.
 213:.\Generated_Source\PSoC5/BL.c ****     *
 214:.\Generated_Source\PSoC5/BL.c ****     * Parameters:
 215:.\Generated_Source\PSoC5/BL.c ****     *  start:
 216:.\Generated_Source\PSoC5/BL.c ****     *     The starting address to start summing data for
 217:.\Generated_Source\PSoC5/BL.c ****     *  size:
 218:.\Generated_Source\PSoC5/BL.c ****     *     The number of bytes to read and compute the sum for
 219:.\Generated_Source\PSoC5/BL.c ****     *
 220:.\Generated_Source\PSoC5/BL.c ****     * Returns:
 221:.\Generated_Source\PSoC5/BL.c ****     *   8 bit sum for the provided data
 222:.\Generated_Source\PSoC5/BL.c ****     *
 223:.\Generated_Source\PSoC5/BL.c ****     *******************************************************************************/
 224:.\Generated_Source\PSoC5/BL.c ****     static uint8 BL_Calc8BitEepromSum(uint32 start, uint32 size) \
 225:.\Generated_Source\PSoC5/BL.c ****                     CYSMALL 
 226:.\Generated_Source\PSoC5/BL.c ****     {
 227:.\Generated_Source\PSoC5/BL.c ****         uint8 CYDATA sum = 0u;
 228:.\Generated_Source\PSoC5/BL.c **** 
 229:.\Generated_Source\PSoC5/BL.c ****         while (size > 0u)
 230:.\Generated_Source\PSoC5/BL.c ****         {
 231:.\Generated_Source\PSoC5/BL.c ****             size--;
 232:.\Generated_Source\PSoC5/BL.c ****             sum += BL_GET_EEPROM_BYTE(start + size);
 233:.\Generated_Source\PSoC5/BL.c ****         }
 234:.\Generated_Source\PSoC5/BL.c **** 
 235:.\Generated_Source\PSoC5/BL.c ****         return(sum);
 236:.\Generated_Source\PSoC5/BL.c ****     }
 237:.\Generated_Source\PSoC5/BL.c **** 
 238:.\Generated_Source\PSoC5/BL.c **** #endif  /* (!CY_PSOC4) */
 239:.\Generated_Source\PSoC5/BL.c **** 
 240:.\Generated_Source\PSoC5/BL.c **** 
 241:.\Generated_Source\PSoC5/BL.c **** /*******************************************************************************
 242:.\Generated_Source\PSoC5/BL.c **** * Function Name: BL_Start
 243:.\Generated_Source\PSoC5/BL.c **** ********************************************************************************
 244:.\Generated_Source\PSoC5/BL.c **** * Summary:
 245:.\Generated_Source\PSoC5/BL.c **** *  This function is called in order executing following algorithm:
 246:.\Generated_Source\PSoC5/BL.c **** *
 247:.\Generated_Source\PSoC5/BL.c **** *  - Identify active bootloadable application (applicable only to
 248:.\Generated_Source\PSoC5/BL.c **** *    Multi-application bootloader)
 249:.\Generated_Source\PSoC5/BL.c **** *
 250:.\Generated_Source\PSoC5/BL.c **** *  - Validate bootloader application (desing-time configurable, Bootloader
 251:.\Generated_Source\PSoC5/BL.c **** *    application validation option of the component customizer)
 252:.\Generated_Source\PSoC5/BL.c **** *
 253:.\Generated_Source\PSoC5/BL.c **** *  - Validate active bootloadable application
 254:.\Generated_Source\PSoC5/BL.c **** *
 255:.\Generated_Source\PSoC5/BL.c **** *  - Run communication subroutine (desing-time configurable, Wait for command
 256:.\Generated_Source\PSoC5/BL.c **** *    option of the component customizer)
 257:.\Generated_Source\PSoC5/BL.c **** *
 258:.\Generated_Source\PSoC5/BL.c **** *  - Schedule bootloadable and reset device
 259:.\Generated_Source\PSoC5/BL.c **** *
 260:.\Generated_Source\PSoC5/BL.c **** * Parameters:
ARM GAS  C:\Users\MICHA_~1\AppData\Local\Temp\ccX8T6Q1.s 			page 6


 261:.\Generated_Source\PSoC5/BL.c **** *  None
 262:.\Generated_Source\PSoC5/BL.c **** *
 263:.\Generated_Source\PSoC5/BL.c **** * Return:
 264:.\Generated_Source\PSoC5/BL.c **** *  This method will never return. It will either load a new application and
 265:.\Generated_Source\PSoC5/BL.c **** *  reset the device or it will jump directly to the existing application.
 266:.\Generated_Source\PSoC5/BL.c **** *
 267:.\Generated_Source\PSoC5/BL.c **** * Side Effects:
 268:.\Generated_Source\PSoC5/BL.c **** *  If this method determines that the bootloader appliation itself is corrupt,
 269:.\Generated_Source\PSoC5/BL.c **** *  this method will not return, instead it will simply hang the application.
 270:.\Generated_Source\PSoC5/BL.c **** *
 271:.\Generated_Source\PSoC5/BL.c **** *******************************************************************************/
 272:.\Generated_Source\PSoC5/BL.c **** void BL_Start(void) CYSMALL 
 273:.\Generated_Source\PSoC5/BL.c **** {
 274:.\Generated_Source\PSoC5/BL.c ****     #if(0u != BL_BOOTLOADER_APP_VALIDATION)
 275:.\Generated_Source\PSoC5/BL.c ****         uint8 CYDATA calcedChecksum;
 276:.\Generated_Source\PSoC5/BL.c ****     #endif    /* (0u != BL_BOOTLOADER_APP_VALIDATION) */
 277:.\Generated_Source\PSoC5/BL.c **** 
 278:.\Generated_Source\PSoC5/BL.c ****     #if(!CY_PSOC4)
 279:.\Generated_Source\PSoC5/BL.c ****         uint8 CYXDATA BL_flashBuffer[BL_FROW_SIZE];
 280:.\Generated_Source\PSoC5/BL.c ****     #endif  /* (!CY_PSOC4) */
 281:.\Generated_Source\PSoC5/BL.c **** 
 282:.\Generated_Source\PSoC5/BL.c ****     cystatus tmpStatus;
 283:.\Generated_Source\PSoC5/BL.c **** 
 284:.\Generated_Source\PSoC5/BL.c **** 
 285:.\Generated_Source\PSoC5/BL.c ****     /* Identify active bootloadable application */
 286:.\Generated_Source\PSoC5/BL.c ****     #if(0u != BL_DUAL_APP_BOOTLOADER)
 287:.\Generated_Source\PSoC5/BL.c **** 
 288:.\Generated_Source\PSoC5/BL.c ****         if(BL_MD_BTLDB_ACTIVE_VALUE(0u) == BL_MD_BTLDB_IS_ACTIVE)
 289:.\Generated_Source\PSoC5/BL.c ****         {
 290:.\Generated_Source\PSoC5/BL.c ****             BL_activeApp = BL_MD_BTLDB_ACTIVE_0;
 291:.\Generated_Source\PSoC5/BL.c ****         }
 292:.\Generated_Source\PSoC5/BL.c ****         else if (BL_MD_BTLDB_ACTIVE_VALUE(1u) == BL_MD_BTLDB_IS_ACTIVE)
 293:.\Generated_Source\PSoC5/BL.c ****         {
 294:.\Generated_Source\PSoC5/BL.c ****             BL_activeApp = BL_MD_BTLDB_ACTIVE_1;
 295:.\Generated_Source\PSoC5/BL.c ****         }
 296:.\Generated_Source\PSoC5/BL.c ****         else
 297:.\Generated_Source\PSoC5/BL.c ****         {
 298:.\Generated_Source\PSoC5/BL.c ****             BL_activeApp = BL_MD_BTLDB_ACTIVE_NONE;
 299:.\Generated_Source\PSoC5/BL.c ****         }
 300:.\Generated_Source\PSoC5/BL.c **** 
 301:.\Generated_Source\PSoC5/BL.c ****     #endif  /* (0u != BL_DUAL_APP_BOOTLOADER) */
 302:.\Generated_Source\PSoC5/BL.c **** 
 303:.\Generated_Source\PSoC5/BL.c **** 
 304:.\Generated_Source\PSoC5/BL.c ****     /* Initialize Flash subsystem for non-PSoC 4 devices */
 305:.\Generated_Source\PSoC5/BL.c ****     #if(!CY_PSOC4)
 306:.\Generated_Source\PSoC5/BL.c ****         if (CYRET_SUCCESS != CySetTemp())
 307:.\Generated_Source\PSoC5/BL.c ****         {
 308:.\Generated_Source\PSoC5/BL.c ****             CyHalt(0x00u);
 309:.\Generated_Source\PSoC5/BL.c ****         }
 310:.\Generated_Source\PSoC5/BL.c **** 
 311:.\Generated_Source\PSoC5/BL.c ****         if (CYRET_SUCCESS != CySetFlashEEBuffer(BL_flashBuffer))
 312:.\Generated_Source\PSoC5/BL.c ****         {
 313:.\Generated_Source\PSoC5/BL.c ****             CyHalt(0x00u);
 314:.\Generated_Source\PSoC5/BL.c ****         }
 315:.\Generated_Source\PSoC5/BL.c ****     #endif  /* (CY_PSOC4) */
 316:.\Generated_Source\PSoC5/BL.c **** 
 317:.\Generated_Source\PSoC5/BL.c **** 
ARM GAS  C:\Users\MICHA_~1\AppData\Local\Temp\ccX8T6Q1.s 			page 7


 318:.\Generated_Source\PSoC5/BL.c ****     /***********************************************************************
 319:.\Generated_Source\PSoC5/BL.c ****     * Bootloader Application Validation
 320:.\Generated_Source\PSoC5/BL.c ****     *
 321:.\Generated_Source\PSoC5/BL.c ****     * Halt device if:
 322:.\Generated_Source\PSoC5/BL.c ****     *  - Calculated checksum does not much one stored in metadata section
 323:.\Generated_Source\PSoC5/BL.c ****     *  - Invalid pointer to the place where bootloader application ends
 324:.\Generated_Source\PSoC5/BL.c ****     *  - Flash subsystem where not initialized correctly
 325:.\Generated_Source\PSoC5/BL.c ****     ***********************************************************************/
 326:.\Generated_Source\PSoC5/BL.c ****     #if(0u != BL_BOOTLOADER_APP_VALIDATION)
 327:.\Generated_Source\PSoC5/BL.c **** 
 328:.\Generated_Source\PSoC5/BL.c ****         /* Calculate Bootloader application checksum */
 329:.\Generated_Source\PSoC5/BL.c ****         calcedChecksum = BL_Calc8BitFlashSum(BL_MD_BTLDR_ADDR_PTR,
 330:.\Generated_Source\PSoC5/BL.c ****                 *BL_SizeBytesAccess - BL_MD_BTLDR_ADDR_PTR);
 331:.\Generated_Source\PSoC5/BL.c **** 
 332:.\Generated_Source\PSoC5/BL.c ****         /* we actually included the checksum, so remove it */
 333:.\Generated_Source\PSoC5/BL.c ****         calcedChecksum -= *BL_ChecksumAccess;
 334:.\Generated_Source\PSoC5/BL.c ****         calcedChecksum = ( uint8 )1u + ( uint8 )(~calcedChecksum);
 335:.\Generated_Source\PSoC5/BL.c **** 
 336:.\Generated_Source\PSoC5/BL.c ****         /* Checksum and pointer to bootloader verification */
 337:.\Generated_Source\PSoC5/BL.c ****         if((calcedChecksum != *BL_ChecksumAccess) ||
 338:.\Generated_Source\PSoC5/BL.c ****            (0u == *BL_SizeBytesAccess))
 339:.\Generated_Source\PSoC5/BL.c ****         {
 340:.\Generated_Source\PSoC5/BL.c ****             CyHalt(0x00u);
 341:.\Generated_Source\PSoC5/BL.c ****         }
 342:.\Generated_Source\PSoC5/BL.c **** 
 343:.\Generated_Source\PSoC5/BL.c ****     #endif  /* (0u != BL_BOOTLOADER_APP_VALIDATION) */
 344:.\Generated_Source\PSoC5/BL.c **** 
 345:.\Generated_Source\PSoC5/BL.c **** 
 346:.\Generated_Source\PSoC5/BL.c ****     /***********************************************************************
 347:.\Generated_Source\PSoC5/BL.c ****     * Active Bootloadable Application Validation
 348:.\Generated_Source\PSoC5/BL.c ****     *
 349:.\Generated_Source\PSoC5/BL.c ****     * If active bootloadable application is invalid or bootloader
 350:.\Generated_Source\PSoC5/BL.c ****     * application is scheduled - do the following:
 351:.\Generated_Source\PSoC5/BL.c ****     *  - schedule bootloader application to be run after software reset
 352:.\Generated_Source\PSoC5/BL.c ****     *  - Go to the communication subroutine. Will wait for commands forever
 353:.\Generated_Source\PSoC5/BL.c ****     ***********************************************************************/
 354:.\Generated_Source\PSoC5/BL.c ****     tmpStatus = BL_ValidateBootloadable(BL_activeApp);
 355:.\Generated_Source\PSoC5/BL.c **** 
 356:.\Generated_Source\PSoC5/BL.c ****     if ((BL_GET_RUN_TYPE == BL_START_BTLDR) ||
 357:.\Generated_Source\PSoC5/BL.c ****         (CYRET_SUCCESS != tmpStatus))
 358:.\Generated_Source\PSoC5/BL.c ****     {
 359:.\Generated_Source\PSoC5/BL.c ****         BL_SET_RUN_TYPE(0u);
 360:.\Generated_Source\PSoC5/BL.c **** 
 361:.\Generated_Source\PSoC5/BL.c ****         BL_HostLink(BL_WAIT_FOR_COMMAND_FOREVER);
 362:.\Generated_Source\PSoC5/BL.c ****     }
 363:.\Generated_Source\PSoC5/BL.c **** 
 364:.\Generated_Source\PSoC5/BL.c **** 
 365:.\Generated_Source\PSoC5/BL.c ****     /* Go to the communication subroutine. Will wait for commands specifed time */
 366:.\Generated_Source\PSoC5/BL.c ****     #if(0u != BL_WAIT_FOR_COMMAND)
 367:.\Generated_Source\PSoC5/BL.c **** 
 368:.\Generated_Source\PSoC5/BL.c ****         /* Timeout is in 100s of miliseconds */
 369:.\Generated_Source\PSoC5/BL.c ****         BL_HostLink(BL_WAIT_FOR_COMMAND_TIME);
 370:.\Generated_Source\PSoC5/BL.c **** 
 371:.\Generated_Source\PSoC5/BL.c ****     #endif  /* (0u != BL_WAIT_FOR_COMMAND) */
 372:.\Generated_Source\PSoC5/BL.c **** 
 373:.\Generated_Source\PSoC5/BL.c **** 
 374:.\Generated_Source\PSoC5/BL.c ****     /* Schedule bootloadable application and perform software reset */
ARM GAS  C:\Users\MICHA_~1\AppData\Local\Temp\ccX8T6Q1.s 			page 8


 375:.\Generated_Source\PSoC5/BL.c ****     BL_LaunchApplication();
 376:.\Generated_Source\PSoC5/BL.c **** }
 377:.\Generated_Source\PSoC5/BL.c **** 
 378:.\Generated_Source\PSoC5/BL.c **** 
 379:.\Generated_Source\PSoC5/BL.c **** /*******************************************************************************
 380:.\Generated_Source\PSoC5/BL.c **** * Function Name: BL_LaunchApplication
 381:.\Generated_Source\PSoC5/BL.c **** ********************************************************************************
 382:.\Generated_Source\PSoC5/BL.c **** *
 383:.\Generated_Source\PSoC5/BL.c **** * Summary:
 384:.\Generated_Source\PSoC5/BL.c **** *  Jumps the PC to the start address of the user application in flash.
 385:.\Generated_Source\PSoC5/BL.c **** *
 386:.\Generated_Source\PSoC5/BL.c **** * Parameters:
 387:.\Generated_Source\PSoC5/BL.c **** *  None
 388:.\Generated_Source\PSoC5/BL.c **** *
 389:.\Generated_Source\PSoC5/BL.c **** * Returns:
 390:.\Generated_Source\PSoC5/BL.c **** *  This method will never return if it succesfully goes to the user application.
 391:.\Generated_Source\PSoC5/BL.c **** *
 392:.\Generated_Source\PSoC5/BL.c **** *******************************************************************************/
 393:.\Generated_Source\PSoC5/BL.c **** static void BL_LaunchApplication(void) CYSMALL 
 394:.\Generated_Source\PSoC5/BL.c **** {
 395:.\Generated_Source\PSoC5/BL.c ****     /* Schedule Bootloadable to start after reset */
 396:.\Generated_Source\PSoC5/BL.c ****     BL_SET_RUN_TYPE(BL_START_APP);
 397:.\Generated_Source\PSoC5/BL.c **** 
 398:.\Generated_Source\PSoC5/BL.c ****     CySoftwareReset();
 399:.\Generated_Source\PSoC5/BL.c **** }
 400:.\Generated_Source\PSoC5/BL.c **** 
 401:.\Generated_Source\PSoC5/BL.c **** 
 402:.\Generated_Source\PSoC5/BL.c **** /*******************************************************************************
 403:.\Generated_Source\PSoC5/BL.c **** * Function Name: CyBtldr_CheckLaunch
 404:.\Generated_Source\PSoC5/BL.c **** ********************************************************************************
 405:.\Generated_Source\PSoC5/BL.c **** *
 406:.\Generated_Source\PSoC5/BL.c **** * Summary:
 407:.\Generated_Source\PSoC5/BL.c **** *  This routine checks to see if the bootloader or the bootloadable application
 408:.\Generated_Source\PSoC5/BL.c **** *  should be run.  If the application is to be run, it will start executing.
 409:.\Generated_Source\PSoC5/BL.c **** *  If the bootloader is to be run, it will return so the bootloader can
 410:.\Generated_Source\PSoC5/BL.c **** *  continue starting up.
 411:.\Generated_Source\PSoC5/BL.c **** *
 412:.\Generated_Source\PSoC5/BL.c **** * Parameters:
 413:.\Generated_Source\PSoC5/BL.c **** *  None
 414:.\Generated_Source\PSoC5/BL.c **** *
 415:.\Generated_Source\PSoC5/BL.c **** * Returns:
 416:.\Generated_Source\PSoC5/BL.c **** *  None
 417:.\Generated_Source\PSoC5/BL.c **** *
 418:.\Generated_Source\PSoC5/BL.c **** *******************************************************************************/
 419:.\Generated_Source\PSoC5/BL.c **** void CyBtldr_CheckLaunch(void) CYSMALL 
 420:.\Generated_Source\PSoC5/BL.c **** {
 421:.\Generated_Source\PSoC5/BL.c **** 
 422:.\Generated_Source\PSoC5/BL.c **** #if(CY_PSOC4)
 423:.\Generated_Source\PSoC5/BL.c **** 
 424:.\Generated_Source\PSoC5/BL.c ****     /*******************************************************************************
 425:.\Generated_Source\PSoC5/BL.c ****     * Set cyBtldrRunType to zero in case of non-software reset occured. This means
 426:.\Generated_Source\PSoC5/BL.c ****     * that bootloader application is scheduled - that is initial clean state. The
 427:.\Generated_Source\PSoC5/BL.c ****     * value of cyBtldrRunType is valid only in case of software reset.
 428:.\Generated_Source\PSoC5/BL.c ****     *******************************************************************************/
 429:.\Generated_Source\PSoC5/BL.c ****     if (0u == (BL_RES_CAUSE_REG & BL_RES_CAUSE_RESET_SOFT))
 430:.\Generated_Source\PSoC5/BL.c ****     {
 431:.\Generated_Source\PSoC5/BL.c ****         cyBtldrRunType = 0u;
ARM GAS  C:\Users\MICHA_~1\AppData\Local\Temp\ccX8T6Q1.s 			page 9


 432:.\Generated_Source\PSoC5/BL.c ****     }
 433:.\Generated_Source\PSoC5/BL.c **** 
 434:.\Generated_Source\PSoC5/BL.c **** #endif /* (CY_PSOC4) */
 435:.\Generated_Source\PSoC5/BL.c **** 
 436:.\Generated_Source\PSoC5/BL.c **** 
 437:.\Generated_Source\PSoC5/BL.c ****     if (BL_GET_RUN_TYPE == BL_START_APP)
 438:.\Generated_Source\PSoC5/BL.c ****     {
 439:.\Generated_Source\PSoC5/BL.c ****         BL_SET_RUN_TYPE(0u);
 440:.\Generated_Source\PSoC5/BL.c **** 
 441:.\Generated_Source\PSoC5/BL.c ****         /*******************************************************************************
 442:.\Generated_Source\PSoC5/BL.c ****         * Indicates that we have told ourselves to jump to the application since we have
 443:.\Generated_Source\PSoC5/BL.c ****         * already told ourselves to jump, we do not do any expensive verification of the
 444:.\Generated_Source\PSoC5/BL.c ****         * application. We just check to make sure that the value at CY_APP_ADDR_ADDRESS
 445:.\Generated_Source\PSoC5/BL.c ****         * is something other than 0.
 446:.\Generated_Source\PSoC5/BL.c ****         *******************************************************************************/
 447:.\Generated_Source\PSoC5/BL.c ****         if(0u != BL_GetMetadata(BL_GET_METADATA_BTLDB_ADDR, BL_activeApp))
 448:.\Generated_Source\PSoC5/BL.c ****         {
 449:.\Generated_Source\PSoC5/BL.c ****             /* Never return from this method */
 450:.\Generated_Source\PSoC5/BL.c ****             BL_LaunchBootloadable(BL_GetMetadata(BL_GET_METADATA_BTLDB_ADDR,
 451:.\Generated_Source\PSoC5/BL.c ****                                                                              BL_activeApp));
 452:.\Generated_Source\PSoC5/BL.c ****         }
 453:.\Generated_Source\PSoC5/BL.c ****     }
 454:.\Generated_Source\PSoC5/BL.c **** }
 455:.\Generated_Source\PSoC5/BL.c **** 
 456:.\Generated_Source\PSoC5/BL.c **** 
 457:.\Generated_Source\PSoC5/BL.c **** /* Moves the arguement appAddr (RO) into PC, moving execution to the appAddr */
 458:.\Generated_Source\PSoC5/BL.c **** #if defined (__ARMCC_VERSION)
 459:.\Generated_Source\PSoC5/BL.c **** 
 460:.\Generated_Source\PSoC5/BL.c ****     __asm static void BL_LaunchBootloadable(uint32 appAddr)
 461:.\Generated_Source\PSoC5/BL.c ****     {
 462:.\Generated_Source\PSoC5/BL.c ****         BX  R0
 463:.\Generated_Source\PSoC5/BL.c ****         ALIGN
 464:.\Generated_Source\PSoC5/BL.c ****     }
 465:.\Generated_Source\PSoC5/BL.c **** 
 466:.\Generated_Source\PSoC5/BL.c **** #elif defined(__GNUC__)
 467:.\Generated_Source\PSoC5/BL.c **** 
 468:.\Generated_Source\PSoC5/BL.c ****     __attribute__((noinline)) /* Workaround for GCC toolchain bug with inlining */
 469:.\Generated_Source\PSoC5/BL.c ****     __attribute__((naked))
 470:.\Generated_Source\PSoC5/BL.c ****     static void BL_LaunchBootloadable(uint32 appAddr)
 471:.\Generated_Source\PSoC5/BL.c ****     {
  26              		.loc 1 471 0
  27              		.cfi_startproc
  28              		@ Naked Function: prologue and epilogue provided by programmer.
  29              		@ args = 0, pretend = 0, frame = 0
  30              		@ frame_needed = 0, uses_anonymous_args = 0
  31              	.LVL0:
 472:.\Generated_Source\PSoC5/BL.c ****         __asm volatile("    BX  R0\n");
  32              		.loc 1 472 0
  33              	@ 472 ".\Generated_Source\PSoC5\BL.c" 1
  34 0000 0047     		    BX  R0
  35              	
  36              	@ 0 "" 2
 473:.\Generated_Source\PSoC5/BL.c ****     }
  37              		.loc 1 473 0
  38              		.thumb
  39              		.cfi_endproc
  40              	.LFE62:
ARM GAS  C:\Users\MICHA_~1\AppData\Local\Temp\ccX8T6Q1.s 			page 10


  41              		.size	BL_LaunchBootloadable, .-BL_LaunchBootloadable
  42              		.section	.text.BL_GetMetadata.constprop.1,"ax",%progbits
  43              		.align	1
  44              		.thumb
  45              		.thumb_func
  46              		.type	BL_GetMetadata.constprop.1, %function
  47              	BL_GetMetadata.constprop.1:
  48              	.LFB69:
 474:.\Generated_Source\PSoC5/BL.c **** 
 475:.\Generated_Source\PSoC5/BL.c **** #elif defined (__ICCARM__)
 476:.\Generated_Source\PSoC5/BL.c **** 
 477:.\Generated_Source\PSoC5/BL.c ****     static void BL_LaunchBootloadable(uint32 appAddr)
 478:.\Generated_Source\PSoC5/BL.c ****     {
 479:.\Generated_Source\PSoC5/BL.c ****         __asm volatile("    BX  R0\n");
 480:.\Generated_Source\PSoC5/BL.c ****     }
 481:.\Generated_Source\PSoC5/BL.c **** 
 482:.\Generated_Source\PSoC5/BL.c **** #endif  /* (__ARMCC_VERSION) */
 483:.\Generated_Source\PSoC5/BL.c **** 
 484:.\Generated_Source\PSoC5/BL.c **** 
 485:.\Generated_Source\PSoC5/BL.c **** /*******************************************************************************
 486:.\Generated_Source\PSoC5/BL.c **** * Function Name: BL_ValidateBootloadable
 487:.\Generated_Source\PSoC5/BL.c **** ********************************************************************************
 488:.\Generated_Source\PSoC5/BL.c **** * Summary:
 489:.\Generated_Source\PSoC5/BL.c **** *  This routine computes the checksum, zero check, 0xFF check of the
 490:.\Generated_Source\PSoC5/BL.c **** *  application area to determine whether a valid application is loaded.
 491:.\Generated_Source\PSoC5/BL.c **** *
 492:.\Generated_Source\PSoC5/BL.c **** * Parameters:
 493:.\Generated_Source\PSoC5/BL.c **** *  appId:
 494:.\Generated_Source\PSoC5/BL.c **** *      The application number to verify
 495:.\Generated_Source\PSoC5/BL.c **** *
 496:.\Generated_Source\PSoC5/BL.c **** * Returns:
 497:.\Generated_Source\PSoC5/BL.c **** *  CYRET_SUCCESS  - if successful
 498:.\Generated_Source\PSoC5/BL.c **** *  CYRET_BAD_DATA - if the bootloadable is corrupt
 499:.\Generated_Source\PSoC5/BL.c **** *
 500:.\Generated_Source\PSoC5/BL.c **** *******************************************************************************/
 501:.\Generated_Source\PSoC5/BL.c **** static cystatus BL_ValidateBootloadable(uint8 appId) CYSMALL \
 502:.\Generated_Source\PSoC5/BL.c **** 
 503:.\Generated_Source\PSoC5/BL.c ****     {
 504:.\Generated_Source\PSoC5/BL.c ****         uint32 CYDATA idx;
 505:.\Generated_Source\PSoC5/BL.c **** 
 506:.\Generated_Source\PSoC5/BL.c ****         uint32 CYDATA end   = BL_FIRST_APP_BYTE(appId) +
 507:.\Generated_Source\PSoC5/BL.c ****                                 BL_GetMetadata(BL_GET_METADATA_BTLDB_LENGTH,
 508:.\Generated_Source\PSoC5/BL.c ****                                                        appId);
 509:.\Generated_Source\PSoC5/BL.c **** 
 510:.\Generated_Source\PSoC5/BL.c ****         CYBIT         valid = 0u; /* Assume bad flash image */
 511:.\Generated_Source\PSoC5/BL.c ****         uint8  CYDATA calcedChecksum = 0u;
 512:.\Generated_Source\PSoC5/BL.c **** 
 513:.\Generated_Source\PSoC5/BL.c **** 
 514:.\Generated_Source\PSoC5/BL.c ****         #if(0u != BL_DUAL_APP_BOOTLOADER)
 515:.\Generated_Source\PSoC5/BL.c **** 
 516:.\Generated_Source\PSoC5/BL.c ****             if(appId > 1u)
 517:.\Generated_Source\PSoC5/BL.c ****             {
 518:.\Generated_Source\PSoC5/BL.c ****                 return(CYRET_BAD_DATA);
 519:.\Generated_Source\PSoC5/BL.c ****             }
 520:.\Generated_Source\PSoC5/BL.c **** 
 521:.\Generated_Source\PSoC5/BL.c ****         #endif  /* (0u != BL_DUAL_APP_BOOTLOADER) */
 522:.\Generated_Source\PSoC5/BL.c **** 
ARM GAS  C:\Users\MICHA_~1\AppData\Local\Temp\ccX8T6Q1.s 			page 11


 523:.\Generated_Source\PSoC5/BL.c **** 
 524:.\Generated_Source\PSoC5/BL.c ****         #if(0u != BL_FAST_APP_VALIDATION)
 525:.\Generated_Source\PSoC5/BL.c **** 
 526:.\Generated_Source\PSoC5/BL.c ****             if(BL_MD_BTLDB_VERIFIED_VALUE(appId) == BL_MD_BTLDB_IS_VERIFIED)
 527:.\Generated_Source\PSoC5/BL.c ****             {
 528:.\Generated_Source\PSoC5/BL.c ****                 return(CYRET_SUCCESS);
 529:.\Generated_Source\PSoC5/BL.c ****             }
 530:.\Generated_Source\PSoC5/BL.c **** 
 531:.\Generated_Source\PSoC5/BL.c ****         #endif  /* (0u != BL_FAST_APP_VALIDATION) */
 532:.\Generated_Source\PSoC5/BL.c **** 
 533:.\Generated_Source\PSoC5/BL.c **** 
 534:.\Generated_Source\PSoC5/BL.c ****         /* Calculate checksum of bootloadable image */
 535:.\Generated_Source\PSoC5/BL.c ****         for(idx = BL_FIRST_APP_BYTE(appId); idx < end; ++idx)
 536:.\Generated_Source\PSoC5/BL.c ****         {
 537:.\Generated_Source\PSoC5/BL.c ****             uint8 CYDATA curByte = BL_GET_CODE_BYTE(idx);
 538:.\Generated_Source\PSoC5/BL.c **** 
 539:.\Generated_Source\PSoC5/BL.c ****             if((curByte != 0u) && (curByte != 0xFFu))
 540:.\Generated_Source\PSoC5/BL.c ****             {
 541:.\Generated_Source\PSoC5/BL.c ****                 valid = 1u;
 542:.\Generated_Source\PSoC5/BL.c ****             }
 543:.\Generated_Source\PSoC5/BL.c **** 
 544:.\Generated_Source\PSoC5/BL.c ****             calcedChecksum += curByte;
 545:.\Generated_Source\PSoC5/BL.c ****         }
 546:.\Generated_Source\PSoC5/BL.c **** 
 547:.\Generated_Source\PSoC5/BL.c **** 
 548:.\Generated_Source\PSoC5/BL.c ****         /***************************************************************************
 549:.\Generated_Source\PSoC5/BL.c ****         * We do not compute checksum over the meta data section, so no need to
 550:.\Generated_Source\PSoC5/BL.c ****         * subtract off App Verified or App Active information here like we do when
 551:.\Generated_Source\PSoC5/BL.c ****         * verifying a row.
 552:.\Generated_Source\PSoC5/BL.c ****         ***************************************************************************/
 553:.\Generated_Source\PSoC5/BL.c **** 
 554:.\Generated_Source\PSoC5/BL.c **** 
 555:.\Generated_Source\PSoC5/BL.c ****         #if((!CY_PSOC4) && (CYDEV_ECC_ENABLE == 0u))
 556:.\Generated_Source\PSoC5/BL.c **** 
 557:.\Generated_Source\PSoC5/BL.c ****             /* Add ECC data to checksum */
 558:.\Generated_Source\PSoC5/BL.c ****             idx = ((BL_FIRST_APP_BYTE(appId)) >> 3u);
 559:.\Generated_Source\PSoC5/BL.c **** 
 560:.\Generated_Source\PSoC5/BL.c ****             /* Flash may run into meta data, ECC does not so use full row */
 561:.\Generated_Source\PSoC5/BL.c ****             end = (end == (CY_FLASH_SIZE - BL_MD_SIZEOF))
 562:.\Generated_Source\PSoC5/BL.c ****                 ? (CY_FLASH_SIZE >> 3u)
 563:.\Generated_Source\PSoC5/BL.c ****                 : (end >> 3u);
 564:.\Generated_Source\PSoC5/BL.c **** 
 565:.\Generated_Source\PSoC5/BL.c ****             for (; idx < end; ++idx)
 566:.\Generated_Source\PSoC5/BL.c ****             {
 567:.\Generated_Source\PSoC5/BL.c ****                 calcedChecksum += CY_GET_XTND_REG8((volatile uint8 *)(CYDEV_ECC_BASE + idx));
 568:.\Generated_Source\PSoC5/BL.c ****             }
 569:.\Generated_Source\PSoC5/BL.c **** 
 570:.\Generated_Source\PSoC5/BL.c ****         #endif  /* ((!CY_PSOC4) && (CYDEV_ECC_ENABLE == 0u)) */
 571:.\Generated_Source\PSoC5/BL.c **** 
 572:.\Generated_Source\PSoC5/BL.c **** 
 573:.\Generated_Source\PSoC5/BL.c ****         calcedChecksum = ( uint8 )1u + ( uint8 )(~calcedChecksum);
 574:.\Generated_Source\PSoC5/BL.c **** 
 575:.\Generated_Source\PSoC5/BL.c ****         if((calcedChecksum != BL_MD_BTLDB_CHECKSUM_VALUE(appId)) ||
 576:.\Generated_Source\PSoC5/BL.c ****            (0u == valid))
 577:.\Generated_Source\PSoC5/BL.c ****         {
 578:.\Generated_Source\PSoC5/BL.c ****             return(CYRET_BAD_DATA);
 579:.\Generated_Source\PSoC5/BL.c ****         }
ARM GAS  C:\Users\MICHA_~1\AppData\Local\Temp\ccX8T6Q1.s 			page 12


 580:.\Generated_Source\PSoC5/BL.c **** 
 581:.\Generated_Source\PSoC5/BL.c **** 
 582:.\Generated_Source\PSoC5/BL.c ****         #if(0u != BL_FAST_APP_VALIDATION)
 583:.\Generated_Source\PSoC5/BL.c ****             BL_SetFlashByte((uint32) BL_MD_BTLDB_VERIFIED_OFFSET(appId),
 584:.\Generated_Source\PSoC5/BL.c ****                                           BL_MD_BTLDB_IS_VERIFIED);
 585:.\Generated_Source\PSoC5/BL.c ****         #endif  /* (0u != BL_FAST_APP_VALIDATION) */
 586:.\Generated_Source\PSoC5/BL.c **** 
 587:.\Generated_Source\PSoC5/BL.c **** 
 588:.\Generated_Source\PSoC5/BL.c ****         return(CYRET_SUCCESS);
 589:.\Generated_Source\PSoC5/BL.c **** }
 590:.\Generated_Source\PSoC5/BL.c **** 
 591:.\Generated_Source\PSoC5/BL.c **** 
 592:.\Generated_Source\PSoC5/BL.c **** /*******************************************************************************
 593:.\Generated_Source\PSoC5/BL.c **** * Function Name: BL_HostLink
 594:.\Generated_Source\PSoC5/BL.c **** ********************************************************************************
 595:.\Generated_Source\PSoC5/BL.c **** *
 596:.\Generated_Source\PSoC5/BL.c **** * Summary:
 597:.\Generated_Source\PSoC5/BL.c **** *  Causes the bootloader to attempt to read data being transmitted by the
 598:.\Generated_Source\PSoC5/BL.c **** *  host application.  If data is sent from the host, this establishes the
 599:.\Generated_Source\PSoC5/BL.c **** *  communication interface to process all requests.
 600:.\Generated_Source\PSoC5/BL.c **** *
 601:.\Generated_Source\PSoC5/BL.c **** * Parameters:
 602:.\Generated_Source\PSoC5/BL.c **** *  timeOut:
 603:.\Generated_Source\PSoC5/BL.c **** *   The amount of time to listen for data before giving up. Timeout is
 604:.\Generated_Source\PSoC5/BL.c **** *   measured in 10s of ms.  Use 0 for infinite wait.
 605:.\Generated_Source\PSoC5/BL.c **** *
 606:.\Generated_Source\PSoC5/BL.c **** * Return:
 607:.\Generated_Source\PSoC5/BL.c **** *   None
 608:.\Generated_Source\PSoC5/BL.c **** *
 609:.\Generated_Source\PSoC5/BL.c **** *******************************************************************************/
 610:.\Generated_Source\PSoC5/BL.c **** static void BL_HostLink(uint8 timeOut) 
 611:.\Generated_Source\PSoC5/BL.c **** {
 612:.\Generated_Source\PSoC5/BL.c ****     uint16    CYDATA numberRead;
 613:.\Generated_Source\PSoC5/BL.c ****     uint16    CYDATA rspSize;
 614:.\Generated_Source\PSoC5/BL.c ****     uint8     CYDATA ackCode;
 615:.\Generated_Source\PSoC5/BL.c ****     uint16    CYDATA pktChecksum;
 616:.\Generated_Source\PSoC5/BL.c ****     cystatus  CYDATA readStat;
 617:.\Generated_Source\PSoC5/BL.c ****     uint16    CYDATA pktSize    = 0u;
 618:.\Generated_Source\PSoC5/BL.c ****     uint16    CYDATA dataOffset = 0u;
 619:.\Generated_Source\PSoC5/BL.c ****     uint8     CYDATA timeOutCnt = 10u;
 620:.\Generated_Source\PSoC5/BL.c **** 
 621:.\Generated_Source\PSoC5/BL.c ****     #if(0u == BL_DUAL_APP_BOOTLOADER)
 622:.\Generated_Source\PSoC5/BL.c ****         uint8 CYDATA clearedMetaData = 0u;
 623:.\Generated_Source\PSoC5/BL.c ****     #endif  /* (0u == BL_DUAL_APP_BOOTLOADER) */
 624:.\Generated_Source\PSoC5/BL.c **** 
 625:.\Generated_Source\PSoC5/BL.c ****     CYBIT     communicationState = BL_COMMUNICATION_STATE_IDLE;
 626:.\Generated_Source\PSoC5/BL.c **** 
 627:.\Generated_Source\PSoC5/BL.c ****     uint8     packetBuffer[BL_SIZEOF_COMMAND_BUFFER];
 628:.\Generated_Source\PSoC5/BL.c ****     uint8     dataBuffer  [BL_SIZEOF_COMMAND_BUFFER];
 629:.\Generated_Source\PSoC5/BL.c **** 
 630:.\Generated_Source\PSoC5/BL.c **** 
 631:.\Generated_Source\PSoC5/BL.c ****     /* Initialize communications channel. */
 632:.\Generated_Source\PSoC5/BL.c ****     CyBtldrCommStart();
 633:.\Generated_Source\PSoC5/BL.c **** 
 634:.\Generated_Source\PSoC5/BL.c ****     /* Enable global interrupts */
 635:.\Generated_Source\PSoC5/BL.c ****     CyGlobalIntEnable;
 636:.\Generated_Source\PSoC5/BL.c **** 
ARM GAS  C:\Users\MICHA_~1\AppData\Local\Temp\ccX8T6Q1.s 			page 13


 637:.\Generated_Source\PSoC5/BL.c ****     do
 638:.\Generated_Source\PSoC5/BL.c ****     {
 639:.\Generated_Source\PSoC5/BL.c ****         ackCode = CYRET_SUCCESS;
 640:.\Generated_Source\PSoC5/BL.c **** 
 641:.\Generated_Source\PSoC5/BL.c ****         do
 642:.\Generated_Source\PSoC5/BL.c ****         {
 643:.\Generated_Source\PSoC5/BL.c ****             readStat = CyBtldrCommRead(packetBuffer,
 644:.\Generated_Source\PSoC5/BL.c ****                                         BL_SIZEOF_COMMAND_BUFFER,
 645:.\Generated_Source\PSoC5/BL.c ****                                         &numberRead,
 646:.\Generated_Source\PSoC5/BL.c ****                                         (0u == timeOut) ? 0xFFu : timeOut);
 647:.\Generated_Source\PSoC5/BL.c ****             if (0u != timeOut)
 648:.\Generated_Source\PSoC5/BL.c ****             {
 649:.\Generated_Source\PSoC5/BL.c ****                 timeOutCnt--;
 650:.\Generated_Source\PSoC5/BL.c ****             }
 651:.\Generated_Source\PSoC5/BL.c **** 
 652:.\Generated_Source\PSoC5/BL.c ****         } while ( (0u != timeOutCnt) && (readStat != CYRET_SUCCESS) );
 653:.\Generated_Source\PSoC5/BL.c **** 
 654:.\Generated_Source\PSoC5/BL.c **** 
 655:.\Generated_Source\PSoC5/BL.c ****         if( readStat != CYRET_SUCCESS )
 656:.\Generated_Source\PSoC5/BL.c ****         {
 657:.\Generated_Source\PSoC5/BL.c ****             continue;
 658:.\Generated_Source\PSoC5/BL.c ****         }
 659:.\Generated_Source\PSoC5/BL.c **** 
 660:.\Generated_Source\PSoC5/BL.c ****         if((numberRead < BL_MIN_PKT_SIZE) ||
 661:.\Generated_Source\PSoC5/BL.c ****            (packetBuffer[BL_SOP_ADDR] != BL_SOP))
 662:.\Generated_Source\PSoC5/BL.c ****         {
 663:.\Generated_Source\PSoC5/BL.c ****             ackCode = BL_ERR_DATA;
 664:.\Generated_Source\PSoC5/BL.c ****         }
 665:.\Generated_Source\PSoC5/BL.c ****         else
 666:.\Generated_Source\PSoC5/BL.c ****         {
 667:.\Generated_Source\PSoC5/BL.c ****             pktSize = ((uint16)((uint16)packetBuffer[BL_SIZE_ADDR + 1u] << 8u)) |
 668:.\Generated_Source\PSoC5/BL.c ****                                packetBuffer[BL_SIZE_ADDR];
 669:.\Generated_Source\PSoC5/BL.c **** 
 670:.\Generated_Source\PSoC5/BL.c ****             pktChecksum = ((uint16)((uint16)packetBuffer[BL_CHK_ADDR(pktSize) + 1u] << 8u)) |
 671:.\Generated_Source\PSoC5/BL.c ****                                    packetBuffer[BL_CHK_ADDR(pktSize)];
 672:.\Generated_Source\PSoC5/BL.c **** 
 673:.\Generated_Source\PSoC5/BL.c ****             if((pktSize + BL_MIN_PKT_SIZE) > numberRead)
 674:.\Generated_Source\PSoC5/BL.c ****             {
 675:.\Generated_Source\PSoC5/BL.c ****                 ackCode = BL_ERR_LENGTH;
 676:.\Generated_Source\PSoC5/BL.c ****             }
 677:.\Generated_Source\PSoC5/BL.c ****             else if(packetBuffer[BL_EOP_ADDR(pktSize)] != BL_EOP)
 678:.\Generated_Source\PSoC5/BL.c ****             {
 679:.\Generated_Source\PSoC5/BL.c ****                 ackCode = BL_ERR_DATA;
 680:.\Generated_Source\PSoC5/BL.c ****             }
 681:.\Generated_Source\PSoC5/BL.c ****             else if(pktChecksum != BL_CalcPacketChecksum(packetBuffer,
 682:.\Generated_Source\PSoC5/BL.c ****                                                                         pktSize + BL_DATA_ADDR))
 683:.\Generated_Source\PSoC5/BL.c ****             {
 684:.\Generated_Source\PSoC5/BL.c ****                 ackCode = BL_ERR_CHECKSUM;
 685:.\Generated_Source\PSoC5/BL.c ****             }
 686:.\Generated_Source\PSoC5/BL.c ****             else
 687:.\Generated_Source\PSoC5/BL.c ****             {
 688:.\Generated_Source\PSoC5/BL.c ****                 /* Empty section */
 689:.\Generated_Source\PSoC5/BL.c ****             }
 690:.\Generated_Source\PSoC5/BL.c ****         }
 691:.\Generated_Source\PSoC5/BL.c **** 
 692:.\Generated_Source\PSoC5/BL.c ****         rspSize = 0u;
 693:.\Generated_Source\PSoC5/BL.c ****         if(ackCode == CYRET_SUCCESS)
ARM GAS  C:\Users\MICHA_~1\AppData\Local\Temp\ccX8T6Q1.s 			page 14


 694:.\Generated_Source\PSoC5/BL.c ****         {
 695:.\Generated_Source\PSoC5/BL.c ****             uint8 CYDATA btldrData = packetBuffer[BL_DATA_ADDR];
 696:.\Generated_Source\PSoC5/BL.c **** 
 697:.\Generated_Source\PSoC5/BL.c ****             ackCode = BL_ERR_DATA;
 698:.\Generated_Source\PSoC5/BL.c ****             switch(packetBuffer[BL_CMD_ADDR])
 699:.\Generated_Source\PSoC5/BL.c ****             {
 700:.\Generated_Source\PSoC5/BL.c **** 
 701:.\Generated_Source\PSoC5/BL.c **** 
 702:.\Generated_Source\PSoC5/BL.c ****             /***************************************************************************
 703:.\Generated_Source\PSoC5/BL.c ****             *   Get metadata
 704:.\Generated_Source\PSoC5/BL.c ****             ***************************************************************************/
 705:.\Generated_Source\PSoC5/BL.c ****             #if(0u != BL_CMD_GET_METADATA)
 706:.\Generated_Source\PSoC5/BL.c **** 
 707:.\Generated_Source\PSoC5/BL.c ****                 case BL_COMMAND_GET_METADATA:
 708:.\Generated_Source\PSoC5/BL.c **** 
 709:.\Generated_Source\PSoC5/BL.c ****                     if((BL_COMMUNICATION_STATE_ACTIVE == communicationState) && (pktSize == 1u))
 710:.\Generated_Source\PSoC5/BL.c ****                     {
 711:.\Generated_Source\PSoC5/BL.c ****                         if (btldrData >= BL_MAX_NUM_OF_BTLDB)
 712:.\Generated_Source\PSoC5/BL.c ****                         {
 713:.\Generated_Source\PSoC5/BL.c ****                             ackCode = BL_ERR_APP;
 714:.\Generated_Source\PSoC5/BL.c ****                         }
 715:.\Generated_Source\PSoC5/BL.c ****                         else if(CYRET_SUCCESS == BL_ValidateBootloadable(btldrData))
 716:.\Generated_Source\PSoC5/BL.c ****                         {
 717:.\Generated_Source\PSoC5/BL.c ****                             #if(CY_PSOC3)
 718:.\Generated_Source\PSoC5/BL.c ****                                 (void) memcpy(&packetBuffer[BL_DATA_ADDR],
 719:.\Generated_Source\PSoC5/BL.c ****                                             ((uint8  CYCODE *) (BL_META_BASE(btldrData))), 56);
 720:.\Generated_Source\PSoC5/BL.c ****                             #else
 721:.\Generated_Source\PSoC5/BL.c ****                                 (void) memcpy(&packetBuffer[BL_DATA_ADDR],
 722:.\Generated_Source\PSoC5/BL.c ****                                             (uint8 *) BL_META_BASE(btldrData), 56u);
 723:.\Generated_Source\PSoC5/BL.c ****                             #endif  /* (CY_PSOC3) */
 724:.\Generated_Source\PSoC5/BL.c **** 
 725:.\Generated_Source\PSoC5/BL.c ****                             rspSize = 56u;
 726:.\Generated_Source\PSoC5/BL.c ****                             ackCode = CYRET_SUCCESS;
 727:.\Generated_Source\PSoC5/BL.c ****                         }
 728:.\Generated_Source\PSoC5/BL.c ****                         else
 729:.\Generated_Source\PSoC5/BL.c ****                         {
 730:.\Generated_Source\PSoC5/BL.c ****                             ackCode = BL_ERR_APP;
 731:.\Generated_Source\PSoC5/BL.c ****                         }
 732:.\Generated_Source\PSoC5/BL.c ****                     }
 733:.\Generated_Source\PSoC5/BL.c ****                     break;
 734:.\Generated_Source\PSoC5/BL.c **** 
 735:.\Generated_Source\PSoC5/BL.c ****             #endif  /* (0u != BL_CMD_GET_METADATA) */
 736:.\Generated_Source\PSoC5/BL.c **** 
 737:.\Generated_Source\PSoC5/BL.c **** 
 738:.\Generated_Source\PSoC5/BL.c ****             /***************************************************************************
 739:.\Generated_Source\PSoC5/BL.c ****             *   Verify checksum
 740:.\Generated_Source\PSoC5/BL.c ****             ***************************************************************************/
 741:.\Generated_Source\PSoC5/BL.c ****             case BL_COMMAND_CHECKSUM:
 742:.\Generated_Source\PSoC5/BL.c **** 
 743:.\Generated_Source\PSoC5/BL.c ****                 if((BL_COMMUNICATION_STATE_ACTIVE == communicationState) && (pktSize == 0u))
 744:.\Generated_Source\PSoC5/BL.c ****                 {
 745:.\Generated_Source\PSoC5/BL.c ****                     packetBuffer[BL_DATA_ADDR] =
 746:.\Generated_Source\PSoC5/BL.c ****                             (uint8)(BL_ValidateBootloadable(BL_activeApp) == CYRET_SUCCESS);
 747:.\Generated_Source\PSoC5/BL.c **** 
 748:.\Generated_Source\PSoC5/BL.c ****                     rspSize = 1u;
 749:.\Generated_Source\PSoC5/BL.c ****                     ackCode = CYRET_SUCCESS;
 750:.\Generated_Source\PSoC5/BL.c ****                 }
ARM GAS  C:\Users\MICHA_~1\AppData\Local\Temp\ccX8T6Q1.s 			page 15


 751:.\Generated_Source\PSoC5/BL.c ****                 break;
 752:.\Generated_Source\PSoC5/BL.c **** 
 753:.\Generated_Source\PSoC5/BL.c **** 
 754:.\Generated_Source\PSoC5/BL.c ****             /***************************************************************************
 755:.\Generated_Source\PSoC5/BL.c ****             *   Get flash size
 756:.\Generated_Source\PSoC5/BL.c ****             ***************************************************************************/
 757:.\Generated_Source\PSoC5/BL.c ****             #if(0u != BL_CMD_GET_FLASH_SIZE_AVAIL)
 758:.\Generated_Source\PSoC5/BL.c **** 
 759:.\Generated_Source\PSoC5/BL.c ****                 case BL_COMMAND_REPORT_SIZE:
 760:.\Generated_Source\PSoC5/BL.c **** 
 761:.\Generated_Source\PSoC5/BL.c ****                     if((BL_COMMUNICATION_STATE_ACTIVE == communicationState) && (pktSize == 1u))
 762:.\Generated_Source\PSoC5/BL.c ****                     {
 763:.\Generated_Source\PSoC5/BL.c ****                         /* btldrData holds flash array ID sent by host */
 764:.\Generated_Source\PSoC5/BL.c ****                         if(btldrData < BL_NUM_OF_FLASH_ARRAYS)
 765:.\Generated_Source\PSoC5/BL.c ****                         {
 766:.\Generated_Source\PSoC5/BL.c ****                             #if (1u == BL_NUM_OF_FLASH_ARRAYS)
 767:.\Generated_Source\PSoC5/BL.c ****                                 uint16 CYDATA startRow = (uint16)*BL_SizeBytesAccess / CYDEV_FLS_RO
 768:.\Generated_Source\PSoC5/BL.c ****                             #else
 769:.\Generated_Source\PSoC5/BL.c ****                                 uint16 CYDATA startRow = 0u;
 770:.\Generated_Source\PSoC5/BL.c ****                             #endif  /* (1u == BL_NUM_OF_FLASH_ARRAYS) */
 771:.\Generated_Source\PSoC5/BL.c **** 
 772:.\Generated_Source\PSoC5/BL.c ****                             packetBuffer[BL_DATA_ADDR]      = LO8(startRow);
 773:.\Generated_Source\PSoC5/BL.c ****                             packetBuffer[BL_DATA_ADDR + 1u] = HI8(startRow);
 774:.\Generated_Source\PSoC5/BL.c ****                             packetBuffer[BL_DATA_ADDR + 2u] = LO8(CY_FLASH_NUMBER_ROWS - 1u);
 775:.\Generated_Source\PSoC5/BL.c ****                             packetBuffer[BL_DATA_ADDR + 3u] = HI8(CY_FLASH_NUMBER_ROWS - 1u);
 776:.\Generated_Source\PSoC5/BL.c **** 
 777:.\Generated_Source\PSoC5/BL.c ****                             rspSize = 4u;
 778:.\Generated_Source\PSoC5/BL.c ****                             ackCode = CYRET_SUCCESS;
 779:.\Generated_Source\PSoC5/BL.c ****                         }
 780:.\Generated_Source\PSoC5/BL.c **** 
 781:.\Generated_Source\PSoC5/BL.c ****                     }
 782:.\Generated_Source\PSoC5/BL.c ****                     break;
 783:.\Generated_Source\PSoC5/BL.c **** 
 784:.\Generated_Source\PSoC5/BL.c ****             #endif  /* (0u != BL_CMD_GET_FLASH_SIZE_AVAIL) */
 785:.\Generated_Source\PSoC5/BL.c **** 
 786:.\Generated_Source\PSoC5/BL.c **** 
 787:.\Generated_Source\PSoC5/BL.c ****             /***************************************************************************
 788:.\Generated_Source\PSoC5/BL.c ****             *   Get application status
 789:.\Generated_Source\PSoC5/BL.c ****             ***************************************************************************/
 790:.\Generated_Source\PSoC5/BL.c ****             #if(0u != BL_DUAL_APP_BOOTLOADER)
 791:.\Generated_Source\PSoC5/BL.c **** 
 792:.\Generated_Source\PSoC5/BL.c ****                 #if(0u != BL_CMD_GET_APP_STATUS_AVAIL)
 793:.\Generated_Source\PSoC5/BL.c **** 
 794:.\Generated_Source\PSoC5/BL.c ****                     case BL_COMMAND_APP_STATUS:
 795:.\Generated_Source\PSoC5/BL.c **** 
 796:.\Generated_Source\PSoC5/BL.c ****                         if((BL_COMMUNICATION_STATE_ACTIVE == communicationState) && (pktSize == 1u)
 797:.\Generated_Source\PSoC5/BL.c ****                         {
 798:.\Generated_Source\PSoC5/BL.c **** 
 799:.\Generated_Source\PSoC5/BL.c ****                             packetBuffer[BL_DATA_ADDR] =
 800:.\Generated_Source\PSoC5/BL.c ****                                 (uint8)BL_ValidateBootloadable(btldrData);
 801:.\Generated_Source\PSoC5/BL.c **** 
 802:.\Generated_Source\PSoC5/BL.c ****                             packetBuffer[BL_DATA_ADDR + 1u] =
 803:.\Generated_Source\PSoC5/BL.c ****                                 (uint8)BL_MD_BTLDB_ACTIVE_VALUE(btldrData);
 804:.\Generated_Source\PSoC5/BL.c **** 
 805:.\Generated_Source\PSoC5/BL.c ****                             rspSize = 2u;
 806:.\Generated_Source\PSoC5/BL.c ****                             ackCode = CYRET_SUCCESS;
 807:.\Generated_Source\PSoC5/BL.c ****                         }
ARM GAS  C:\Users\MICHA_~1\AppData\Local\Temp\ccX8T6Q1.s 			page 16


 808:.\Generated_Source\PSoC5/BL.c ****                         break;
 809:.\Generated_Source\PSoC5/BL.c **** 
 810:.\Generated_Source\PSoC5/BL.c ****                 #endif  /* (0u != BL_CMD_GET_APP_STATUS_AVAIL) */
 811:.\Generated_Source\PSoC5/BL.c **** 
 812:.\Generated_Source\PSoC5/BL.c ****             #endif  /* (0u != BL_DUAL_APP_BOOTLOADER) */
 813:.\Generated_Source\PSoC5/BL.c **** 
 814:.\Generated_Source\PSoC5/BL.c **** 
 815:.\Generated_Source\PSoC5/BL.c ****             /***************************************************************************
 816:.\Generated_Source\PSoC5/BL.c ****             *   Program / Erase row
 817:.\Generated_Source\PSoC5/BL.c ****             ***************************************************************************/
 818:.\Generated_Source\PSoC5/BL.c ****             case BL_COMMAND_PROGRAM:
 819:.\Generated_Source\PSoC5/BL.c **** 
 820:.\Generated_Source\PSoC5/BL.c ****             /* The btldrData variable holds Flash Array ID */
 821:.\Generated_Source\PSoC5/BL.c **** 
 822:.\Generated_Source\PSoC5/BL.c ****         #if (0u != BL_CMD_ERASE_ROW_AVAIL)
 823:.\Generated_Source\PSoC5/BL.c **** 
 824:.\Generated_Source\PSoC5/BL.c ****             case BL_COMMAND_ERASE:
 825:.\Generated_Source\PSoC5/BL.c ****                 if (BL_COMMAND_ERASE == packetBuffer[BL_CMD_ADDR])
 826:.\Generated_Source\PSoC5/BL.c ****                 {
 827:.\Generated_Source\PSoC5/BL.c ****                     if ((BL_COMMUNICATION_STATE_ACTIVE == communicationState) && (pktSize == 3u))
 828:.\Generated_Source\PSoC5/BL.c ****                     {
 829:.\Generated_Source\PSoC5/BL.c ****                         #if(!CY_PSOC4)
 830:.\Generated_Source\PSoC5/BL.c ****                             if((btldrData >= BL_FIRST_EE_ARRAYID) &&
 831:.\Generated_Source\PSoC5/BL.c ****                                (btldrData <= BL_LAST_EE_ARRAYID))
 832:.\Generated_Source\PSoC5/BL.c ****                             {
 833:.\Generated_Source\PSoC5/BL.c ****                                 /* Size of EEPROM row */
 834:.\Generated_Source\PSoC5/BL.c ****                                 dataOffset = CY_EEPROM_SIZEOF_ROW;
 835:.\Generated_Source\PSoC5/BL.c ****                             }
 836:.\Generated_Source\PSoC5/BL.c ****                             else
 837:.\Generated_Source\PSoC5/BL.c ****                             {
 838:.\Generated_Source\PSoC5/BL.c ****                                 /* Size of FLASH row (depends on ECC configuration) */
 839:.\Generated_Source\PSoC5/BL.c ****                                 dataOffset = BL_FROW_SIZE;
 840:.\Generated_Source\PSoC5/BL.c ****                             }
 841:.\Generated_Source\PSoC5/BL.c ****                         #else
 842:.\Generated_Source\PSoC5/BL.c ****                             /* Size of FLASH row (no ECC available) */
 843:.\Generated_Source\PSoC5/BL.c ****                             dataOffset = BL_FROW_SIZE;
 844:.\Generated_Source\PSoC5/BL.c ****                         #endif  /* (!CY_PSOC4) */
 845:.\Generated_Source\PSoC5/BL.c **** 
 846:.\Generated_Source\PSoC5/BL.c ****                         #if(CY_PSOC3)
 847:.\Generated_Source\PSoC5/BL.c ****                             (void) memset(dataBuffer, (char8) 0, (int16) dataOffset);
 848:.\Generated_Source\PSoC5/BL.c ****                         #else
 849:.\Generated_Source\PSoC5/BL.c ****                             (void) memset(dataBuffer, 0, dataOffset);
 850:.\Generated_Source\PSoC5/BL.c ****                         #endif  /* (CY_PSOC3) */
 851:.\Generated_Source\PSoC5/BL.c ****                     }
 852:.\Generated_Source\PSoC5/BL.c ****                     else
 853:.\Generated_Source\PSoC5/BL.c ****                     {
 854:.\Generated_Source\PSoC5/BL.c ****                         break;
 855:.\Generated_Source\PSoC5/BL.c ****                     }
 856:.\Generated_Source\PSoC5/BL.c ****                 }
 857:.\Generated_Source\PSoC5/BL.c **** 
 858:.\Generated_Source\PSoC5/BL.c ****         #endif  /* (0u != BL_CMD_ERASE_ROW_AVAIL) */
 859:.\Generated_Source\PSoC5/BL.c **** 
 860:.\Generated_Source\PSoC5/BL.c **** 
 861:.\Generated_Source\PSoC5/BL.c ****                 if((BL_COMMUNICATION_STATE_ACTIVE == communicationState) && (pktSize >= 3u))
 862:.\Generated_Source\PSoC5/BL.c ****                 {
 863:.\Generated_Source\PSoC5/BL.c **** 
 864:.\Generated_Source\PSoC5/BL.c ****                     /* The command may be sent along with the last block of data, to program the ro
ARM GAS  C:\Users\MICHA_~1\AppData\Local\Temp\ccX8T6Q1.s 			page 17


 865:.\Generated_Source\PSoC5/BL.c ****                     #if(CY_PSOC3)
 866:.\Generated_Source\PSoC5/BL.c ****                         (void) memcpy(&dataBuffer[dataOffset],
 867:.\Generated_Source\PSoC5/BL.c ****                                       &packetBuffer[BL_DATA_ADDR + 3u],
 868:.\Generated_Source\PSoC5/BL.c ****                                       ( int16 )pktSize - 3);
 869:.\Generated_Source\PSoC5/BL.c ****                     #else
 870:.\Generated_Source\PSoC5/BL.c ****                         (void) memcpy(&dataBuffer[dataOffset],
 871:.\Generated_Source\PSoC5/BL.c ****                                       &packetBuffer[BL_DATA_ADDR + 3u],
 872:.\Generated_Source\PSoC5/BL.c ****                                       pktSize - 3u);
 873:.\Generated_Source\PSoC5/BL.c ****                     #endif  /* (CY_PSOC3) */
 874:.\Generated_Source\PSoC5/BL.c **** 
 875:.\Generated_Source\PSoC5/BL.c ****                     dataOffset += (pktSize - 3u);
 876:.\Generated_Source\PSoC5/BL.c **** 
 877:.\Generated_Source\PSoC5/BL.c ****                     #if(!CY_PSOC4)
 878:.\Generated_Source\PSoC5/BL.c ****                         if((btldrData >= BL_FIRST_EE_ARRAYID) &&
 879:.\Generated_Source\PSoC5/BL.c ****                            (btldrData <= BL_LAST_EE_ARRAYID))
 880:.\Generated_Source\PSoC5/BL.c ****                         {
 881:.\Generated_Source\PSoC5/BL.c **** 
 882:.\Generated_Source\PSoC5/BL.c ****                             CyEEPROM_Start();
 883:.\Generated_Source\PSoC5/BL.c **** 
 884:.\Generated_Source\PSoC5/BL.c ****                             /* Size of EEPROM row */
 885:.\Generated_Source\PSoC5/BL.c ****                             pktSize = CY_EEPROM_SIZEOF_ROW;
 886:.\Generated_Source\PSoC5/BL.c ****                         }
 887:.\Generated_Source\PSoC5/BL.c ****                         else
 888:.\Generated_Source\PSoC5/BL.c ****                         {
 889:.\Generated_Source\PSoC5/BL.c ****                             /* Size of FLASH row (depends on ECC configuration) */
 890:.\Generated_Source\PSoC5/BL.c ****                             pktSize = BL_FROW_SIZE;
 891:.\Generated_Source\PSoC5/BL.c ****                         }
 892:.\Generated_Source\PSoC5/BL.c ****                     #else
 893:.\Generated_Source\PSoC5/BL.c ****                         /* Size of FLASH row (no ECC available) */
 894:.\Generated_Source\PSoC5/BL.c ****                         pktSize = BL_FROW_SIZE;
 895:.\Generated_Source\PSoC5/BL.c ****                     #endif  /* (!CY_PSOC4) */
 896:.\Generated_Source\PSoC5/BL.c **** 
 897:.\Generated_Source\PSoC5/BL.c **** 
 898:.\Generated_Source\PSoC5/BL.c ****                     /* Check if we have all data to program */
 899:.\Generated_Source\PSoC5/BL.c ****                     if(dataOffset == pktSize)
 900:.\Generated_Source\PSoC5/BL.c ****                     {
 901:.\Generated_Source\PSoC5/BL.c ****                         /* Get FLASH/EEPROM row number */
 902:.\Generated_Source\PSoC5/BL.c ****                         dataOffset = ((uint16)((uint16)packetBuffer[BL_DATA_ADDR + 2u] << 8u)) |
 903:.\Generated_Source\PSoC5/BL.c ****                                               packetBuffer[BL_DATA_ADDR + 1u];
 904:.\Generated_Source\PSoC5/BL.c **** 
 905:.\Generated_Source\PSoC5/BL.c ****                         #if(!CY_PSOC4)
 906:.\Generated_Source\PSoC5/BL.c ****                             if(btldrData <= BL_LAST_FLASH_ARRAYID)
 907:.\Generated_Source\PSoC5/BL.c ****                             {
 908:.\Generated_Source\PSoC5/BL.c ****                         #endif  /* (!CY_PSOC4) */
 909:.\Generated_Source\PSoC5/BL.c **** 
 910:.\Generated_Source\PSoC5/BL.c ****                         #if(0u == BL_DUAL_APP_BOOTLOADER)
 911:.\Generated_Source\PSoC5/BL.c **** 
 912:.\Generated_Source\PSoC5/BL.c ****                             if(0u == clearedMetaData)
 913:.\Generated_Source\PSoC5/BL.c ****                             {
 914:.\Generated_Source\PSoC5/BL.c ****                                 /* Metadata section must be filled with zeroes */
 915:.\Generated_Source\PSoC5/BL.c **** 
 916:.\Generated_Source\PSoC5/BL.c ****                                 uint8 erase[BL_FROW_SIZE];
 917:.\Generated_Source\PSoC5/BL.c **** 
 918:.\Generated_Source\PSoC5/BL.c ****                                 #if(CY_PSOC3)
 919:.\Generated_Source\PSoC5/BL.c ****                                     (void) memset(erase, (char8) 0, (int16) BL_FROW_SIZE);
 920:.\Generated_Source\PSoC5/BL.c ****                                 #else
 921:.\Generated_Source\PSoC5/BL.c ****                                     (void) memset(erase, 0, BL_FROW_SIZE);
ARM GAS  C:\Users\MICHA_~1\AppData\Local\Temp\ccX8T6Q1.s 			page 18


 922:.\Generated_Source\PSoC5/BL.c ****                                 #endif  /* (CY_PSOC3) */
 923:.\Generated_Source\PSoC5/BL.c **** 
 924:.\Generated_Source\PSoC5/BL.c ****                                 #if(CY_PSOC4)
 925:.\Generated_Source\PSoC5/BL.c ****                                     (void) CySysFlashWriteRow(BL_MD_ROW, erase);
 926:.\Generated_Source\PSoC5/BL.c ****                                 #else
 927:.\Generated_Source\PSoC5/BL.c ****                                     (void) CyWriteRowFull((uint8)  BL_MD_FLASH_ARRAY_NUM,
 928:.\Generated_Source\PSoC5/BL.c ****                                                           (uint16) BL_MD_ROW,
 929:.\Generated_Source\PSoC5/BL.c ****                                                                     erase,
 930:.\Generated_Source\PSoC5/BL.c ****                                                                     BL_FROW_SIZE);
 931:.\Generated_Source\PSoC5/BL.c ****                                 #endif  /* (CY_PSOC4) */
 932:.\Generated_Source\PSoC5/BL.c **** 
 933:.\Generated_Source\PSoC5/BL.c ****                                 /* Set up flag that metadata was cleared */
 934:.\Generated_Source\PSoC5/BL.c ****                                 clearedMetaData = 1u;
 935:.\Generated_Source\PSoC5/BL.c ****                             }
 936:.\Generated_Source\PSoC5/BL.c **** 
 937:.\Generated_Source\PSoC5/BL.c ****                         #else
 938:.\Generated_Source\PSoC5/BL.c **** 
 939:.\Generated_Source\PSoC5/BL.c ****                             if(BL_activeApp < BL_MD_BTLDB_ACTIVE_NONE)
 940:.\Generated_Source\PSoC5/BL.c ****                             {
 941:.\Generated_Source\PSoC5/BL.c ****                                 /* First active bootloadable application row */
 942:.\Generated_Source\PSoC5/BL.c ****                                 uint16 firstRow = (uint16) 1u +
 943:.\Generated_Source\PSoC5/BL.c ****                                     (uint16) BL_GetMetadata(BL_GET_METADATA_BTLDR_LAST_ROW,
 944:.\Generated_Source\PSoC5/BL.c ****                                                                           BL_activeApp);
 945:.\Generated_Source\PSoC5/BL.c **** 
 946:.\Generated_Source\PSoC5/BL.c ****                                 #if(CY_PSOC4)
 947:.\Generated_Source\PSoC5/BL.c ****                                     uint16 row = dataOffset;
 948:.\Generated_Source\PSoC5/BL.c ****                                 #else
 949:.\Generated_Source\PSoC5/BL.c ****                                     uint16 row = (uint16)(btldrData * (CYDEV_FLS_SECTOR_SIZE / CYDE
 950:.\Generated_Source\PSoC5/BL.c ****                                                   dataOffset;
 951:.\Generated_Source\PSoC5/BL.c ****                                 #endif  /* (CY_PSOC4) */
 952:.\Generated_Source\PSoC5/BL.c **** 
 953:.\Generated_Source\PSoC5/BL.c **** 
 954:.\Generated_Source\PSoC5/BL.c ****                                 /******************************************************************
 955:.\Generated_Source\PSoC5/BL.c ****                                 * Last row is equal to the first row plus the number of rows availa
 956:.\Generated_Source\PSoC5/BL.c ****                                 * app. To compute this, we first subtract the number of appliaction
 957:.\Generated_Source\PSoC5/BL.c ****                                 * the total flash rows: (CY_FLASH_NUMBER_ROWS - 2u).
 958:.\Generated_Source\PSoC5/BL.c ****                                 *
 959:.\Generated_Source\PSoC5/BL.c ****                                 * Then subtract off the first row:
 960:.\Generated_Source\PSoC5/BL.c ****                                 * App Rows = (CY_FLASH_NUMBER_ROWS - 2u - firstRow)
 961:.\Generated_Source\PSoC5/BL.c ****                                 * Then divide that number by the number of application that must fi
 962:.\Generated_Source\PSoC5/BL.c ****                                 * space, if we are app1 then that number is 2, if app2 then 1.  Our
 963:.\Generated_Source\PSoC5/BL.c ****                                 * then: (2u - BL_activeApp).
 964:.\Generated_Source\PSoC5/BL.c ****                                 *
 965:.\Generated_Source\PSoC5/BL.c ****                                 * Adding this number to firstRow gives the address right beyond our
 966:.\Generated_Source\PSoC5/BL.c ****                                 * so we subtract 1.
 967:.\Generated_Source\PSoC5/BL.c ****                                 *******************************************************************
 968:.\Generated_Source\PSoC5/BL.c ****                                 uint16 lastRow = (firstRow - 1u) +
 969:.\Generated_Source\PSoC5/BL.c ****                                                   ((uint16)((CYDEV_FLASH_SIZE / CYDEV_FLS_ROW_SIZE)
 970:.\Generated_Source\PSoC5/BL.c ****                                                   ((uint16)2u - (uint16)BL_activeApp));
 971:.\Generated_Source\PSoC5/BL.c **** 
 972:.\Generated_Source\PSoC5/BL.c **** 
 973:.\Generated_Source\PSoC5/BL.c ****                                 /******************************************************************
 974:.\Generated_Source\PSoC5/BL.c ****                                 * Check to see if the row to program is within the range of the act
 975:.\Generated_Source\PSoC5/BL.c ****                                 * application, or if it maches the active application's metadata ro
 976:.\Generated_Source\PSoC5/BL.c ****                                 * refuse to program as it would corrupt the active app.
 977:.\Generated_Source\PSoC5/BL.c ****                                 *******************************************************************
 978:.\Generated_Source\PSoC5/BL.c ****                                 if(((row >= firstRow) && (row <= lastRow)) ||
ARM GAS  C:\Users\MICHA_~1\AppData\Local\Temp\ccX8T6Q1.s 			page 19


 979:.\Generated_Source\PSoC5/BL.c ****                                    ((btldrData == BL_MD_FLASH_ARRAY_NUM) &&
 980:.\Generated_Source\PSoC5/BL.c ****                                    (dataOffset == BL_MD_ROW_NUM(BL_activeApp))))
 981:.\Generated_Source\PSoC5/BL.c ****                                 {
 982:.\Generated_Source\PSoC5/BL.c ****                                     ackCode = BL_ERR_ACTIVE;
 983:.\Generated_Source\PSoC5/BL.c ****                                     dataOffset = 0u;
 984:.\Generated_Source\PSoC5/BL.c ****                                     break;
 985:.\Generated_Source\PSoC5/BL.c ****                                 }
 986:.\Generated_Source\PSoC5/BL.c ****                             }
 987:.\Generated_Source\PSoC5/BL.c **** 
 988:.\Generated_Source\PSoC5/BL.c ****                         #endif  /* (0u == BL_DUAL_APP_BOOTLOADER) */
 989:.\Generated_Source\PSoC5/BL.c **** 
 990:.\Generated_Source\PSoC5/BL.c ****                         #if(!CY_PSOC4)
 991:.\Generated_Source\PSoC5/BL.c ****                             }
 992:.\Generated_Source\PSoC5/BL.c ****                         #endif  /* (!CY_PSOC4) */
 993:.\Generated_Source\PSoC5/BL.c **** 
 994:.\Generated_Source\PSoC5/BL.c ****                         #if(CY_PSOC4)
 995:.\Generated_Source\PSoC5/BL.c **** 
 996:.\Generated_Source\PSoC5/BL.c ****                             ackCode = (CYRET_SUCCESS != CySysFlashWriteRow((uint32) dataOffset, dat
 997:.\Generated_Source\PSoC5/BL.c ****                                 ? BL_ERR_ROW \
 998:.\Generated_Source\PSoC5/BL.c ****                                 : CYRET_SUCCESS;
 999:.\Generated_Source\PSoC5/BL.c **** 
1000:.\Generated_Source\PSoC5/BL.c ****                         #else
1001:.\Generated_Source\PSoC5/BL.c **** 
1002:.\Generated_Source\PSoC5/BL.c ****                             ackCode = (CYRET_SUCCESS != CyWriteRowFull(btldrData, dataOffset, dataB
1003:.\Generated_Source\PSoC5/BL.c ****                                 ? BL_ERR_ROW \
1004:.\Generated_Source\PSoC5/BL.c ****                                 : CYRET_SUCCESS;
1005:.\Generated_Source\PSoC5/BL.c **** 
1006:.\Generated_Source\PSoC5/BL.c ****                         #endif  /* (CY_PSOC4) */
1007:.\Generated_Source\PSoC5/BL.c **** 
1008:.\Generated_Source\PSoC5/BL.c ****                     }
1009:.\Generated_Source\PSoC5/BL.c ****                     else
1010:.\Generated_Source\PSoC5/BL.c ****                     {
1011:.\Generated_Source\PSoC5/BL.c ****                         ackCode = BL_ERR_LENGTH;
1012:.\Generated_Source\PSoC5/BL.c ****                     }
1013:.\Generated_Source\PSoC5/BL.c **** 
1014:.\Generated_Source\PSoC5/BL.c ****                     dataOffset = 0u;
1015:.\Generated_Source\PSoC5/BL.c ****                 }
1016:.\Generated_Source\PSoC5/BL.c ****                 break;
1017:.\Generated_Source\PSoC5/BL.c **** 
1018:.\Generated_Source\PSoC5/BL.c **** 
1019:.\Generated_Source\PSoC5/BL.c ****             /***************************************************************************
1020:.\Generated_Source\PSoC5/BL.c ****             *   Sync bootloader
1021:.\Generated_Source\PSoC5/BL.c ****             ***************************************************************************/
1022:.\Generated_Source\PSoC5/BL.c ****             #if(0u != BL_CMD_SYNC_BOOTLOADER_AVAIL)
1023:.\Generated_Source\PSoC5/BL.c **** 
1024:.\Generated_Source\PSoC5/BL.c ****             case BL_COMMAND_SYNC:
1025:.\Generated_Source\PSoC5/BL.c **** 
1026:.\Generated_Source\PSoC5/BL.c ****                 if(BL_COMMUNICATION_STATE_ACTIVE == communicationState)
1027:.\Generated_Source\PSoC5/BL.c ****                 {
1028:.\Generated_Source\PSoC5/BL.c ****                     /* If something failed the host would send this command to reset the bootloader
1029:.\Generated_Source\PSoC5/BL.c ****                     dataOffset = 0u;
1030:.\Generated_Source\PSoC5/BL.c **** 
1031:.\Generated_Source\PSoC5/BL.c ****                     /* Don't ack the packet, just get ready to accept the next one */
1032:.\Generated_Source\PSoC5/BL.c ****                     continue;
1033:.\Generated_Source\PSoC5/BL.c ****                 }
1034:.\Generated_Source\PSoC5/BL.c ****                 break;
1035:.\Generated_Source\PSoC5/BL.c **** 
ARM GAS  C:\Users\MICHA_~1\AppData\Local\Temp\ccX8T6Q1.s 			page 20


1036:.\Generated_Source\PSoC5/BL.c ****             #endif  /* (0u != BL_CMD_SYNC_BOOTLOADER_AVAIL) */
1037:.\Generated_Source\PSoC5/BL.c **** 
1038:.\Generated_Source\PSoC5/BL.c **** 
1039:.\Generated_Source\PSoC5/BL.c ****             /***************************************************************************
1040:.\Generated_Source\PSoC5/BL.c ****             *   Set active application
1041:.\Generated_Source\PSoC5/BL.c ****             ***************************************************************************/
1042:.\Generated_Source\PSoC5/BL.c ****             #if(0u != BL_DUAL_APP_BOOTLOADER)
1043:.\Generated_Source\PSoC5/BL.c **** 
1044:.\Generated_Source\PSoC5/BL.c ****                 case BL_COMMAND_APP_ACTIVE:
1045:.\Generated_Source\PSoC5/BL.c **** 
1046:.\Generated_Source\PSoC5/BL.c ****                     if((BL_COMMUNICATION_STATE_ACTIVE == communicationState) && (pktSize == 1u))
1047:.\Generated_Source\PSoC5/BL.c ****                     {
1048:.\Generated_Source\PSoC5/BL.c ****                         if(CYRET_SUCCESS == BL_ValidateBootloadable(btldrData))
1049:.\Generated_Source\PSoC5/BL.c ****                         {
1050:.\Generated_Source\PSoC5/BL.c ****                             uint8 CYDATA idx;
1051:.\Generated_Source\PSoC5/BL.c **** 
1052:.\Generated_Source\PSoC5/BL.c ****                             for(idx = 0u; idx < BL_MAX_NUM_OF_BTLDB; idx++)
1053:.\Generated_Source\PSoC5/BL.c ****                             {
1054:.\Generated_Source\PSoC5/BL.c ****                                 BL_SetFlashByte((uint32) BL_MD_BTLDB_ACTIVE_OFFSET(idx),
1055:.\Generated_Source\PSoC5/BL.c ****                                                               (uint8 )(idx == btldrData));
1056:.\Generated_Source\PSoC5/BL.c ****                             }
1057:.\Generated_Source\PSoC5/BL.c ****                             BL_activeApp = btldrData;
1058:.\Generated_Source\PSoC5/BL.c ****                             ackCode = CYRET_SUCCESS;
1059:.\Generated_Source\PSoC5/BL.c ****                         }
1060:.\Generated_Source\PSoC5/BL.c ****                         else
1061:.\Generated_Source\PSoC5/BL.c ****                         {
1062:.\Generated_Source\PSoC5/BL.c ****                             ackCode = BL_ERR_APP;
1063:.\Generated_Source\PSoC5/BL.c ****                         }
1064:.\Generated_Source\PSoC5/BL.c ****                     }
1065:.\Generated_Source\PSoC5/BL.c ****                     break;
1066:.\Generated_Source\PSoC5/BL.c **** 
1067:.\Generated_Source\PSoC5/BL.c ****             #endif  /* (0u != BL_DUAL_APP_BOOTLOADER) */
1068:.\Generated_Source\PSoC5/BL.c **** 
1069:.\Generated_Source\PSoC5/BL.c **** 
1070:.\Generated_Source\PSoC5/BL.c ****             /***************************************************************************
1071:.\Generated_Source\PSoC5/BL.c ****             *   Send data
1072:.\Generated_Source\PSoC5/BL.c ****             ***************************************************************************/
1073:.\Generated_Source\PSoC5/BL.c ****             #if (0u != BL_CMD_SEND_DATA_AVAIL)
1074:.\Generated_Source\PSoC5/BL.c **** 
1075:.\Generated_Source\PSoC5/BL.c ****                 case BL_COMMAND_DATA:
1076:.\Generated_Source\PSoC5/BL.c **** 
1077:.\Generated_Source\PSoC5/BL.c ****                     if(BL_COMMUNICATION_STATE_ACTIVE == communicationState)
1078:.\Generated_Source\PSoC5/BL.c ****                     {
1079:.\Generated_Source\PSoC5/BL.c ****                         /*  Make sure that dataOffset is valid before copying the data */
1080:.\Generated_Source\PSoC5/BL.c ****                         if((dataOffset + pktSize) <= BL_SIZEOF_COMMAND_BUFFER)
1081:.\Generated_Source\PSoC5/BL.c ****                         {
1082:.\Generated_Source\PSoC5/BL.c ****                             ackCode = CYRET_SUCCESS;
1083:.\Generated_Source\PSoC5/BL.c **** 
1084:.\Generated_Source\PSoC5/BL.c ****                             #if(CY_PSOC3)
1085:.\Generated_Source\PSoC5/BL.c ****                                 (void) memcpy(&dataBuffer[dataOffset],
1086:.\Generated_Source\PSoC5/BL.c ****                                               &packetBuffer[BL_DATA_ADDR],
1087:.\Generated_Source\PSoC5/BL.c ****                                               ( int16 )pktSize);
1088:.\Generated_Source\PSoC5/BL.c ****                             #else
1089:.\Generated_Source\PSoC5/BL.c ****                                 (void) memcpy(&dataBuffer[dataOffset],
1090:.\Generated_Source\PSoC5/BL.c ****                                               &packetBuffer[BL_DATA_ADDR],
1091:.\Generated_Source\PSoC5/BL.c ****                                               pktSize);
1092:.\Generated_Source\PSoC5/BL.c ****                             #endif  /* (CY_PSOC3) */
ARM GAS  C:\Users\MICHA_~1\AppData\Local\Temp\ccX8T6Q1.s 			page 21


1093:.\Generated_Source\PSoC5/BL.c **** 
1094:.\Generated_Source\PSoC5/BL.c ****                             dataOffset += pktSize;
1095:.\Generated_Source\PSoC5/BL.c ****                         }
1096:.\Generated_Source\PSoC5/BL.c ****                         else
1097:.\Generated_Source\PSoC5/BL.c ****                         {
1098:.\Generated_Source\PSoC5/BL.c ****                             ackCode = BL_ERR_LENGTH;
1099:.\Generated_Source\PSoC5/BL.c ****                         }
1100:.\Generated_Source\PSoC5/BL.c ****                     }
1101:.\Generated_Source\PSoC5/BL.c **** 
1102:.\Generated_Source\PSoC5/BL.c ****                     break;
1103:.\Generated_Source\PSoC5/BL.c **** 
1104:.\Generated_Source\PSoC5/BL.c ****             #endif  /* (0u != BL_CMD_SEND_DATA_AVAIL) */
1105:.\Generated_Source\PSoC5/BL.c **** 
1106:.\Generated_Source\PSoC5/BL.c **** 
1107:.\Generated_Source\PSoC5/BL.c ****             /***************************************************************************
1108:.\Generated_Source\PSoC5/BL.c ****             *   Enter bootloader
1109:.\Generated_Source\PSoC5/BL.c ****             ***************************************************************************/
1110:.\Generated_Source\PSoC5/BL.c ****             case BL_COMMAND_ENTER:
1111:.\Generated_Source\PSoC5/BL.c **** 
1112:.\Generated_Source\PSoC5/BL.c ****                 if(pktSize == 0u)
1113:.\Generated_Source\PSoC5/BL.c ****                 {
1114:.\Generated_Source\PSoC5/BL.c ****                     #if(CY_PSOC3)
1115:.\Generated_Source\PSoC5/BL.c **** 
1116:.\Generated_Source\PSoC5/BL.c ****                         BL_ENTER CYDATA BtldrVersion =
1117:.\Generated_Source\PSoC5/BL.c ****                             {CYSWAP_ENDIAN32(CYDEV_CHIP_JTAG_ID), CYDEV_CHIP_REV_EXPECT, BL_VERSION
1118:.\Generated_Source\PSoC5/BL.c **** 
1119:.\Generated_Source\PSoC5/BL.c ****                     #else
1120:.\Generated_Source\PSoC5/BL.c **** 
1121:.\Generated_Source\PSoC5/BL.c ****                         BL_ENTER CYDATA BtldrVersion =
1122:.\Generated_Source\PSoC5/BL.c ****                             {CYDEV_CHIP_JTAG_ID, CYDEV_CHIP_REV_EXPECT, BL_VERSION};
1123:.\Generated_Source\PSoC5/BL.c **** 
1124:.\Generated_Source\PSoC5/BL.c ****                     #endif  /* (CY_PSOC3) */
1125:.\Generated_Source\PSoC5/BL.c **** 
1126:.\Generated_Source\PSoC5/BL.c ****                     communicationState = BL_COMMUNICATION_STATE_ACTIVE;
1127:.\Generated_Source\PSoC5/BL.c **** 
1128:.\Generated_Source\PSoC5/BL.c ****                     rspSize = sizeof(BL_ENTER);
1129:.\Generated_Source\PSoC5/BL.c **** 
1130:.\Generated_Source\PSoC5/BL.c ****                     #if(CY_PSOC3)
1131:.\Generated_Source\PSoC5/BL.c ****                         (void) memcpy(&packetBuffer[BL_DATA_ADDR],
1132:.\Generated_Source\PSoC5/BL.c ****                                       &BtldrVersion,
1133:.\Generated_Source\PSoC5/BL.c ****                                       ( int16 )rspSize);
1134:.\Generated_Source\PSoC5/BL.c ****                     #else
1135:.\Generated_Source\PSoC5/BL.c ****                         (void) memcpy(&packetBuffer[BL_DATA_ADDR],
1136:.\Generated_Source\PSoC5/BL.c ****                                       &BtldrVersion,
1137:.\Generated_Source\PSoC5/BL.c ****                                       rspSize);
1138:.\Generated_Source\PSoC5/BL.c ****                     #endif  /* (CY_PSOC3) */
1139:.\Generated_Source\PSoC5/BL.c **** 
1140:.\Generated_Source\PSoC5/BL.c ****                     ackCode = CYRET_SUCCESS;
1141:.\Generated_Source\PSoC5/BL.c ****                 }
1142:.\Generated_Source\PSoC5/BL.c ****                 break;
1143:.\Generated_Source\PSoC5/BL.c **** 
1144:.\Generated_Source\PSoC5/BL.c **** 
1145:.\Generated_Source\PSoC5/BL.c ****             /***************************************************************************
1146:.\Generated_Source\PSoC5/BL.c ****             *   Verify row
1147:.\Generated_Source\PSoC5/BL.c ****             ***************************************************************************/
1148:.\Generated_Source\PSoC5/BL.c ****             case BL_COMMAND_VERIFY:
1149:.\Generated_Source\PSoC5/BL.c **** 
ARM GAS  C:\Users\MICHA_~1\AppData\Local\Temp\ccX8T6Q1.s 			page 22


1150:.\Generated_Source\PSoC5/BL.c ****                 if((BL_COMMUNICATION_STATE_ACTIVE == communicationState) && (pktSize == 3u))
1151:.\Generated_Source\PSoC5/BL.c ****                 {
1152:.\Generated_Source\PSoC5/BL.c ****                     /* Get FLASH/EEPROM row number */
1153:.\Generated_Source\PSoC5/BL.c ****                     uint16 CYDATA rowNum = ((uint16)((uint16)packetBuffer[BL_DATA_ADDR + 2u] << 8u)
1154:.\Generated_Source\PSoC5/BL.c ****                                                     packetBuffer[BL_DATA_ADDR + 1u];
1155:.\Generated_Source\PSoC5/BL.c **** 
1156:.\Generated_Source\PSoC5/BL.c ****                     #if(!CY_PSOC4)
1157:.\Generated_Source\PSoC5/BL.c **** 
1158:.\Generated_Source\PSoC5/BL.c ****                         uint32 CYDATA rowAddr;
1159:.\Generated_Source\PSoC5/BL.c ****                         uint8 CYDATA checksum;
1160:.\Generated_Source\PSoC5/BL.c **** 
1161:.\Generated_Source\PSoC5/BL.c ****                         if((btldrData >= BL_FIRST_EE_ARRAYID) &&
1162:.\Generated_Source\PSoC5/BL.c ****                            (btldrData <= BL_LAST_EE_ARRAYID))
1163:.\Generated_Source\PSoC5/BL.c ****                         {
1164:.\Generated_Source\PSoC5/BL.c ****                             /* EEPROM */
1165:.\Generated_Source\PSoC5/BL.c ****                             /* Both PSoC 3 and PSoC 5LP architectures have one EEPROM array. */
1166:.\Generated_Source\PSoC5/BL.c ****                             rowAddr = (uint32)rowNum * CYDEV_EEPROM_ROW_SIZE;
1167:.\Generated_Source\PSoC5/BL.c **** 
1168:.\Generated_Source\PSoC5/BL.c ****                             checksum = BL_Calc8BitEepromSum(rowAddr, CYDEV_EEPROM_ROW_SIZE);
1169:.\Generated_Source\PSoC5/BL.c ****                         }
1170:.\Generated_Source\PSoC5/BL.c ****                         else
1171:.\Generated_Source\PSoC5/BL.c ****                         {
1172:.\Generated_Source\PSoC5/BL.c ****                             /* FLASH */
1173:.\Generated_Source\PSoC5/BL.c ****                             rowAddr = ((uint32)btldrData * CYDEV_FLS_SECTOR_SIZE)
1174:.\Generated_Source\PSoC5/BL.c ****                                        + ((uint32)rowNum * CYDEV_FLS_ROW_SIZE);
1175:.\Generated_Source\PSoC5/BL.c **** 
1176:.\Generated_Source\PSoC5/BL.c ****                             checksum = BL_Calc8BitFlashSum(rowAddr, CYDEV_FLS_ROW_SIZE);
1177:.\Generated_Source\PSoC5/BL.c ****                         }
1178:.\Generated_Source\PSoC5/BL.c **** 
1179:.\Generated_Source\PSoC5/BL.c ****                     #else
1180:.\Generated_Source\PSoC5/BL.c **** 
1181:.\Generated_Source\PSoC5/BL.c ****                         uint32 CYDATA rowAddr = ((uint32)btldrData * CYDEV_FLS_SECTOR_SIZE)
1182:.\Generated_Source\PSoC5/BL.c ****                                             + ((uint32)rowNum * CYDEV_FLS_ROW_SIZE);
1183:.\Generated_Source\PSoC5/BL.c **** 
1184:.\Generated_Source\PSoC5/BL.c ****                         uint8 CYDATA checksum = BL_Calc8BitFlashSum(rowAddr, CYDEV_FLS_ROW_SIZE);
1185:.\Generated_Source\PSoC5/BL.c **** 
1186:.\Generated_Source\PSoC5/BL.c ****                     #endif  /* (!CY_PSOC4) */
1187:.\Generated_Source\PSoC5/BL.c **** 
1188:.\Generated_Source\PSoC5/BL.c **** 
1189:.\Generated_Source\PSoC5/BL.c ****                     /* Calculate checksum on data from ECC */
1190:.\Generated_Source\PSoC5/BL.c ****                     #if(!CY_PSOC4) && (CYDEV_ECC_ENABLE == 0u)
1191:.\Generated_Source\PSoC5/BL.c **** 
1192:.\Generated_Source\PSoC5/BL.c ****                         if(btldrData <= BL_LAST_FLASH_ARRAYID)
1193:.\Generated_Source\PSoC5/BL.c ****                         {
1194:.\Generated_Source\PSoC5/BL.c ****                             uint16 CYDATA tmpIndex;
1195:.\Generated_Source\PSoC5/BL.c **** 
1196:.\Generated_Source\PSoC5/BL.c ****                             rowAddr = CYDEV_ECC_BASE + ((uint32)btldrData * (CYDEV_FLS_SECTOR_SIZE 
1197:.\Generated_Source\PSoC5/BL.c ****                                         + ((uint32)rowNum * CYDEV_ECC_ROW_SIZE);
1198:.\Generated_Source\PSoC5/BL.c **** 
1199:.\Generated_Source\PSoC5/BL.c ****                             for(tmpIndex = 0u; tmpIndex < CYDEV_ECC_ROW_SIZE; tmpIndex++)
1200:.\Generated_Source\PSoC5/BL.c ****                             {
1201:.\Generated_Source\PSoC5/BL.c ****                                 checksum += CY_GET_XTND_REG8((uint8 CYFAR *)(rowAddr + tmpIndex));
1202:.\Generated_Source\PSoC5/BL.c ****                             }
1203:.\Generated_Source\PSoC5/BL.c ****                         }
1204:.\Generated_Source\PSoC5/BL.c **** 
1205:.\Generated_Source\PSoC5/BL.c ****                     #endif  /* (!CY_PSOC4) && (CYDEV_ECC_ENABLE == 0u) */
1206:.\Generated_Source\PSoC5/BL.c **** 
ARM GAS  C:\Users\MICHA_~1\AppData\Local\Temp\ccX8T6Q1.s 			page 23


1207:.\Generated_Source\PSoC5/BL.c **** 
1208:.\Generated_Source\PSoC5/BL.c ****                     /******************************************************************************
1209:.\Generated_Source\PSoC5/BL.c ****                     * App Verified & App Active are information that is updated in flash at runtime
1210:.\Generated_Source\PSoC5/BL.c ****                     * remove these items from the checksum to allow the host to verify everything i
1211:.\Generated_Source\PSoC5/BL.c ****                     * correct.
1212:.\Generated_Source\PSoC5/BL.c ****                      ******************************************************************************
1213:.\Generated_Source\PSoC5/BL.c ****                     if((BL_MD_FLASH_ARRAY_NUM == btldrData) &&
1214:.\Generated_Source\PSoC5/BL.c ****                        (BL_CONTAIN_METADATA(rowNum)))
1215:.\Generated_Source\PSoC5/BL.c ****                     {
1216:.\Generated_Source\PSoC5/BL.c ****                         checksum -= BL_MD_BTLDB_ACTIVE_VALUE  (BL_GET_APP_ID(rowNum));
1217:.\Generated_Source\PSoC5/BL.c ****                         checksum -= BL_MD_BTLDB_VERIFIED_VALUE(BL_GET_APP_ID(rowNum));
1218:.\Generated_Source\PSoC5/BL.c ****                     }
1219:.\Generated_Source\PSoC5/BL.c **** 
1220:.\Generated_Source\PSoC5/BL.c ****                     packetBuffer[BL_DATA_ADDR] = (uint8)1u + (uint8)(~checksum);
1221:.\Generated_Source\PSoC5/BL.c ****                     ackCode = CYRET_SUCCESS;
1222:.\Generated_Source\PSoC5/BL.c ****                     rspSize = 1u;
1223:.\Generated_Source\PSoC5/BL.c ****                 }
1224:.\Generated_Source\PSoC5/BL.c ****                 break;
1225:.\Generated_Source\PSoC5/BL.c **** 
1226:.\Generated_Source\PSoC5/BL.c **** 
1227:.\Generated_Source\PSoC5/BL.c ****             /***************************************************************************
1228:.\Generated_Source\PSoC5/BL.c ****             *   Exit bootloader
1229:.\Generated_Source\PSoC5/BL.c ****             ***************************************************************************/
1230:.\Generated_Source\PSoC5/BL.c ****             case BL_COMMAND_EXIT:
1231:.\Generated_Source\PSoC5/BL.c **** 
1232:.\Generated_Source\PSoC5/BL.c ****                 if(CYRET_SUCCESS == BL_ValidateBootloadable(BL_activeApp))
1233:.\Generated_Source\PSoC5/BL.c ****                 {
1234:.\Generated_Source\PSoC5/BL.c ****                     BL_SET_RUN_TYPE(BL_START_APP);
1235:.\Generated_Source\PSoC5/BL.c ****                 }
1236:.\Generated_Source\PSoC5/BL.c **** 
1237:.\Generated_Source\PSoC5/BL.c ****                 CySoftwareReset();
1238:.\Generated_Source\PSoC5/BL.c **** 
1239:.\Generated_Source\PSoC5/BL.c ****                 /* Will never get here */
1240:.\Generated_Source\PSoC5/BL.c ****                 break;
1241:.\Generated_Source\PSoC5/BL.c **** 
1242:.\Generated_Source\PSoC5/BL.c **** 
1243:.\Generated_Source\PSoC5/BL.c ****             /***************************************************************************
1244:.\Generated_Source\PSoC5/BL.c ****             *   Unsupported command
1245:.\Generated_Source\PSoC5/BL.c ****             ***************************************************************************/
1246:.\Generated_Source\PSoC5/BL.c ****             default:
1247:.\Generated_Source\PSoC5/BL.c ****                 ackCode = BL_ERR_CMD;
1248:.\Generated_Source\PSoC5/BL.c ****                 break;
1249:.\Generated_Source\PSoC5/BL.c ****             }
1250:.\Generated_Source\PSoC5/BL.c ****         }
1251:.\Generated_Source\PSoC5/BL.c **** 
1252:.\Generated_Source\PSoC5/BL.c ****         /* ?CK the packet and function. */
1253:.\Generated_Source\PSoC5/BL.c ****         (void) BL_WritePacket(ackCode, packetBuffer, rspSize);
1254:.\Generated_Source\PSoC5/BL.c **** 
1255:.\Generated_Source\PSoC5/BL.c ****     } while ((0u == timeOut) || (BL_COMMUNICATION_STATE_ACTIVE == communicationState));
1256:.\Generated_Source\PSoC5/BL.c **** }
1257:.\Generated_Source\PSoC5/BL.c **** 
1258:.\Generated_Source\PSoC5/BL.c **** 
1259:.\Generated_Source\PSoC5/BL.c **** /*******************************************************************************
1260:.\Generated_Source\PSoC5/BL.c **** * Function Name: BL_WritePacket
1261:.\Generated_Source\PSoC5/BL.c **** ********************************************************************************
1262:.\Generated_Source\PSoC5/BL.c **** *
1263:.\Generated_Source\PSoC5/BL.c **** * Summary:
ARM GAS  C:\Users\MICHA_~1\AppData\Local\Temp\ccX8T6Q1.s 			page 24


1264:.\Generated_Source\PSoC5/BL.c **** *  Creates a bootloader responce packet and transmits it back to the bootloader
1265:.\Generated_Source\PSoC5/BL.c **** *  host application over the already established communications protocol.
1266:.\Generated_Source\PSoC5/BL.c **** *
1267:.\Generated_Source\PSoC5/BL.c **** * Parameters:
1268:.\Generated_Source\PSoC5/BL.c **** *  status:
1269:.\Generated_Source\PSoC5/BL.c **** *      The status code to pass back as the second byte of the packet
1270:.\Generated_Source\PSoC5/BL.c **** *  buffer:
1271:.\Generated_Source\PSoC5/BL.c **** *      The buffer containing the data portion of the packet
1272:.\Generated_Source\PSoC5/BL.c **** *  size:
1273:.\Generated_Source\PSoC5/BL.c **** *      The number of bytes contained within the buffer to pass back
1274:.\Generated_Source\PSoC5/BL.c **** *
1275:.\Generated_Source\PSoC5/BL.c **** * Return:
1276:.\Generated_Source\PSoC5/BL.c **** *   CYRET_SUCCESS if successful.
1277:.\Generated_Source\PSoC5/BL.c **** *   CYRET_UNKNOWN if there was an error tranmitting the packet.
1278:.\Generated_Source\PSoC5/BL.c **** *
1279:.\Generated_Source\PSoC5/BL.c **** *******************************************************************************/
1280:.\Generated_Source\PSoC5/BL.c **** static cystatus BL_WritePacket(uint8 status, uint8 buffer[], uint16 size) CYSMALL \
1281:.\Generated_Source\PSoC5/BL.c ****                                             
1282:.\Generated_Source\PSoC5/BL.c **** {
1283:.\Generated_Source\PSoC5/BL.c ****     uint16 CYDATA checksum;
1284:.\Generated_Source\PSoC5/BL.c **** 
1285:.\Generated_Source\PSoC5/BL.c ****     /* Start of the packet. */
1286:.\Generated_Source\PSoC5/BL.c ****     buffer[BL_SOP_ADDR]      = BL_SOP;
1287:.\Generated_Source\PSoC5/BL.c ****     buffer[BL_CMD_ADDR]      = status;
1288:.\Generated_Source\PSoC5/BL.c ****     buffer[BL_SIZE_ADDR]     = LO8(size);
1289:.\Generated_Source\PSoC5/BL.c ****     buffer[BL_SIZE_ADDR + 1u] = HI8(size);
1290:.\Generated_Source\PSoC5/BL.c **** 
1291:.\Generated_Source\PSoC5/BL.c ****     /* Compute the checksum. */
1292:.\Generated_Source\PSoC5/BL.c ****     checksum = BL_CalcPacketChecksum(buffer, size + BL_DATA_ADDR);
1293:.\Generated_Source\PSoC5/BL.c **** 
1294:.\Generated_Source\PSoC5/BL.c ****     buffer[BL_CHK_ADDR(size)]     = LO8(checksum);
1295:.\Generated_Source\PSoC5/BL.c ****     buffer[BL_CHK_ADDR(1u + size)] = HI8(checksum);
1296:.\Generated_Source\PSoC5/BL.c ****     buffer[BL_EOP_ADDR(size)]     = BL_EOP;
1297:.\Generated_Source\PSoC5/BL.c **** 
1298:.\Generated_Source\PSoC5/BL.c ****     /* Start the packet transmit. */
1299:.\Generated_Source\PSoC5/BL.c ****     return(CyBtldrCommWrite(buffer, size + BL_MIN_PKT_SIZE, &size, 150u));
1300:.\Generated_Source\PSoC5/BL.c **** }
1301:.\Generated_Source\PSoC5/BL.c **** 
1302:.\Generated_Source\PSoC5/BL.c **** 
1303:.\Generated_Source\PSoC5/BL.c **** /*******************************************************************************
1304:.\Generated_Source\PSoC5/BL.c **** * Function Name: BL_SetFlashByte
1305:.\Generated_Source\PSoC5/BL.c **** ********************************************************************************
1306:.\Generated_Source\PSoC5/BL.c **** *
1307:.\Generated_Source\PSoC5/BL.c **** * Summary:
1308:.\Generated_Source\PSoC5/BL.c **** *  Writes byte a flash memory location
1309:.\Generated_Source\PSoC5/BL.c **** *
1310:.\Generated_Source\PSoC5/BL.c **** * Parameters:
1311:.\Generated_Source\PSoC5/BL.c **** *  address:
1312:.\Generated_Source\PSoC5/BL.c **** *      Address in Flash memory where data will be written
1313:.\Generated_Source\PSoC5/BL.c **** *
1314:.\Generated_Source\PSoC5/BL.c **** *  runType:
1315:.\Generated_Source\PSoC5/BL.c **** *      Byte to be written
1316:.\Generated_Source\PSoC5/BL.c **** *
1317:.\Generated_Source\PSoC5/BL.c **** * Return:
1318:.\Generated_Source\PSoC5/BL.c **** *  None
1319:.\Generated_Source\PSoC5/BL.c **** *
1320:.\Generated_Source\PSoC5/BL.c **** *******************************************************************************/
ARM GAS  C:\Users\MICHA_~1\AppData\Local\Temp\ccX8T6Q1.s 			page 25


1321:.\Generated_Source\PSoC5/BL.c **** void BL_SetFlashByte(uint32 address, uint8 runType) 
1322:.\Generated_Source\PSoC5/BL.c **** {
1323:.\Generated_Source\PSoC5/BL.c ****     uint32 flsAddr = address - CYDEV_FLASH_BASE;
1324:.\Generated_Source\PSoC5/BL.c ****     uint8  rowData[CYDEV_FLS_ROW_SIZE];
1325:.\Generated_Source\PSoC5/BL.c **** 
1326:.\Generated_Source\PSoC5/BL.c ****     #if !(CY_PSOC4)
1327:.\Generated_Source\PSoC5/BL.c ****         uint8 arrayId = ( uint8 )(flsAddr / CYDEV_FLS_SECTOR_SIZE);
1328:.\Generated_Source\PSoC5/BL.c ****     #endif  /* !(CY_PSOC4) */
1329:.\Generated_Source\PSoC5/BL.c **** 
1330:.\Generated_Source\PSoC5/BL.c ****     uint16 rowNum = ( uint16 )((flsAddr % CYDEV_FLS_SECTOR_SIZE) / CYDEV_FLS_ROW_SIZE);
1331:.\Generated_Source\PSoC5/BL.c ****     uint32 baseAddr = address - (address % CYDEV_FLS_ROW_SIZE);
1332:.\Generated_Source\PSoC5/BL.c ****     uint16 idx;
1333:.\Generated_Source\PSoC5/BL.c **** 
1334:.\Generated_Source\PSoC5/BL.c ****     for(idx = 0u; idx < CYDEV_FLS_ROW_SIZE; idx++)
1335:.\Generated_Source\PSoC5/BL.c ****     {
1336:.\Generated_Source\PSoC5/BL.c ****         rowData[idx] = BL_GET_CODE_BYTE(baseAddr + idx);
1337:.\Generated_Source\PSoC5/BL.c ****     }
1338:.\Generated_Source\PSoC5/BL.c **** 
1339:.\Generated_Source\PSoC5/BL.c ****     rowData[address % CYDEV_FLS_ROW_SIZE] = runType;
1340:.\Generated_Source\PSoC5/BL.c **** 
1341:.\Generated_Source\PSoC5/BL.c ****     #if(CY_PSOC4)
1342:.\Generated_Source\PSoC5/BL.c ****         (void) CySysFlashWriteRow((uint32) rowNum, rowData);
1343:.\Generated_Source\PSoC5/BL.c ****     #else
1344:.\Generated_Source\PSoC5/BL.c ****         (void) CyWriteRowData(arrayId, rowNum, rowData);
1345:.\Generated_Source\PSoC5/BL.c ****     #endif  /* (CY_PSOC4) */
1346:.\Generated_Source\PSoC5/BL.c **** }
1347:.\Generated_Source\PSoC5/BL.c **** 
1348:.\Generated_Source\PSoC5/BL.c **** 
1349:.\Generated_Source\PSoC5/BL.c **** /*******************************************************************************
1350:.\Generated_Source\PSoC5/BL.c **** * Function Name: BL_GetMetadata
1351:.\Generated_Source\PSoC5/BL.c **** ********************************************************************************
1352:.\Generated_Source\PSoC5/BL.c **** *
1353:.\Generated_Source\PSoC5/BL.c **** * Summary:
1354:.\Generated_Source\PSoC5/BL.c **** *  Returns value of the multi-byte field.
1355:.\Generated_Source\PSoC5/BL.c **** *
1356:.\Generated_Source\PSoC5/BL.c **** * Parameters:
1357:.\Generated_Source\PSoC5/BL.c **** *  fieldName:
1358:.\Generated_Source\PSoC5/BL.c **** *   The field to get data from:
1359:.\Generated_Source\PSoC5/BL.c **** *     BL_GET_METADATA_BTLDB_ADDR
1360:.\Generated_Source\PSoC5/BL.c **** *     BL_GET_METADATA_BTLDR_LAST_ROW
1361:.\Generated_Source\PSoC5/BL.c **** *     BL_GET_METADATA_BTLDB_LENGTH
1362:.\Generated_Source\PSoC5/BL.c **** *     BL_GET_METADATA_BTLDR_APP_VERSION
1363:.\Generated_Source\PSoC5/BL.c **** *     BL_GET_METADATA_BTLDB_APP_VERSION
1364:.\Generated_Source\PSoC5/BL.c **** *     BL_GET_METADATA_BTLDB_APP_ID
1365:.\Generated_Source\PSoC5/BL.c **** *     BL_GET_METADATA_BTLDB_APP_CUST_ID
1366:.\Generated_Source\PSoC5/BL.c **** *
1367:.\Generated_Source\PSoC5/BL.c **** *  appId:
1368:.\Generated_Source\PSoC5/BL.c **** *   Number of the bootlodable application.
1369:.\Generated_Source\PSoC5/BL.c **** *
1370:.\Generated_Source\PSoC5/BL.c **** * Return:
1371:.\Generated_Source\PSoC5/BL.c **** *  None
1372:.\Generated_Source\PSoC5/BL.c **** *
1373:.\Generated_Source\PSoC5/BL.c **** *******************************************************************************/
1374:.\Generated_Source\PSoC5/BL.c **** static uint32 BL_GetMetadata(uint8 fieldName, uint8 appId)
  49              		.loc 1 1374 0
  50              		.cfi_startproc
  51              		@ args = 0, pretend = 0, frame = 0
ARM GAS  C:\Users\MICHA_~1\AppData\Local\Temp\ccX8T6Q1.s 			page 26


  52              		@ frame_needed = 0, uses_anonymous_args = 0
  53              	.LVL1:
1375:.\Generated_Source\PSoC5/BL.c **** {
1376:.\Generated_Source\PSoC5/BL.c ****     uint32 fieldPtr;
1377:.\Generated_Source\PSoC5/BL.c ****     uint8  fieldSize = 2u;
1378:.\Generated_Source\PSoC5/BL.c ****     uint32 result;
1379:.\Generated_Source\PSoC5/BL.c **** 
1380:.\Generated_Source\PSoC5/BL.c ****     switch (fieldName)
  54              		.loc 1 1380 0
  55 0000 431E     		subs	r3, r0, #1
1374:.\Generated_Source\PSoC5/BL.c **** static uint32 BL_GetMetadata(uint8 fieldName, uint8 appId)
  56              		.loc 1 1374 0
  57 0002 10B5     		push	{r4, lr}
  58              	.LCFI0:
  59              		.cfi_def_cfa_offset 8
  60              		.cfi_offset 4, -8
  61              		.cfi_offset 14, -4
1374:.\Generated_Source\PSoC5/BL.c **** static uint32 BL_GetMetadata(uint8 fieldName, uint8 appId)
  62              		.loc 1 1374 0
  63 0004 0246     		mov	r2, r0
  64              		.loc 1 1380 0
  65 0006 062B     		cmp	r3, #6
  66 0008 0DD8     		bhi	.L3
  67 000a DFE803F0 		tbb	[pc, r3]
  68              	.L11:
  69 000e 06       		.byte	(.L4-.L11)/2
  70 000f 0E       		.byte	(.L16-.L11)/2
  71 0010 23       		.byte	(.L17-.L11)/2
  72 0011 04       		.byte	(.L7-.L11)/2
  73 0012 08       		.byte	(.L8-.L11)/2
  74 0013 0A       		.byte	(.L9-.L11)/2
  75 0014 21       		.byte	(.L10-.L11)/2
  76 0015 00       		.align	1
  77              	.L7:
1381:.\Generated_Source\PSoC5/BL.c ****     {
1382:.\Generated_Source\PSoC5/BL.c ****     case BL_GET_METADATA_BTLDB_APP_CUST_ID:
1383:.\Generated_Source\PSoC5/BL.c ****         fieldPtr  = BL_MD_BTLDB_APP_CUST_ID_OFFSET(appId);
1384:.\Generated_Source\PSoC5/BL.c ****         fieldSize = 4u;
1385:.\Generated_Source\PSoC5/BL.c ****         break;
1386:.\Generated_Source\PSoC5/BL.c **** 
1387:.\Generated_Source\PSoC5/BL.c ****     case BL_GET_METADATA_BTLDR_APP_VERSION:
1388:.\Generated_Source\PSoC5/BL.c ****         fieldPtr  = BL_MD_BTLDR_APP_VERSION_OFFSET(appId);
  78              		.loc 1 1388 0
  79 0016 1648     		ldr	r0, .L26
  80              	.LVL2:
  81 0018 08E0     		b	.L5
  82              	.LVL3:
  83              	.L4:
1389:.\Generated_Source\PSoC5/BL.c ****         break;
1390:.\Generated_Source\PSoC5/BL.c **** 
1391:.\Generated_Source\PSoC5/BL.c ****     case BL_GET_METADATA_BTLDB_ADDR:
1392:.\Generated_Source\PSoC5/BL.c ****         fieldPtr  = BL_MD_BTLDB_ADDR_OFFSET(appId);
  84              		.loc 1 1392 0
  85 001a 164B     		ldr	r3, .L26+4
  86 001c 1BE0     		b	.L6
  87              	.L8:
  88              	.LVL4:
ARM GAS  C:\Users\MICHA_~1\AppData\Local\Temp\ccX8T6Q1.s 			page 27


1393:.\Generated_Source\PSoC5/BL.c ****     #if(!CY_PSOC3)
1394:.\Generated_Source\PSoC5/BL.c ****         fieldSize = 4u;
1395:.\Generated_Source\PSoC5/BL.c ****     #endif  /* (!CY_PSOC3) */
1396:.\Generated_Source\PSoC5/BL.c ****         break;
1397:.\Generated_Source\PSoC5/BL.c **** 
1398:.\Generated_Source\PSoC5/BL.c ****     case BL_GET_METADATA_BTLDR_LAST_ROW:
1399:.\Generated_Source\PSoC5/BL.c ****         fieldPtr  = BL_MD_BTLDR_LAST_ROW_OFFSET(appId);
1400:.\Generated_Source\PSoC5/BL.c ****         break;
1401:.\Generated_Source\PSoC5/BL.c **** 
1402:.\Generated_Source\PSoC5/BL.c ****     case BL_GET_METADATA_BTLDB_LENGTH:
1403:.\Generated_Source\PSoC5/BL.c ****         fieldPtr  = BL_MD_BTLDB_LENGTH_OFFSET(appId);
1404:.\Generated_Source\PSoC5/BL.c ****     #if(!CY_PSOC3)
1405:.\Generated_Source\PSoC5/BL.c ****         fieldSize = 4u;
1406:.\Generated_Source\PSoC5/BL.c ****     #endif  /* (!CY_PSOC3) */
1407:.\Generated_Source\PSoC5/BL.c ****         break;
1408:.\Generated_Source\PSoC5/BL.c **** 
1409:.\Generated_Source\PSoC5/BL.c ****     case BL_GET_METADATA_BTLDB_APP_VERSION:
1410:.\Generated_Source\PSoC5/BL.c ****         fieldPtr  = BL_MD_BTLDB_APP_VERSION_OFFSET(appId);
  89              		.loc 1 1410 0
  90 001e 1648     		ldr	r0, .L26+8
  91              	.LVL5:
  92 0020 04E0     		b	.L5
  93              	.LVL6:
  94              	.L9:
1411:.\Generated_Source\PSoC5/BL.c ****         break;
1412:.\Generated_Source\PSoC5/BL.c **** 
1413:.\Generated_Source\PSoC5/BL.c ****     case BL_GET_METADATA_BTLDB_APP_ID:
1414:.\Generated_Source\PSoC5/BL.c ****         fieldPtr  = BL_MD_BTLDB_APP_ID_OFFSET(appId);
  95              		.loc 1 1414 0
  96 0022 1648     		ldr	r0, .L26+12
  97              	.LVL7:
  98 0024 02E0     		b	.L5
  99              	.LVL8:
 100              	.L3:
1415:.\Generated_Source\PSoC5/BL.c ****         break;
1416:.\Generated_Source\PSoC5/BL.c **** 
1417:.\Generated_Source\PSoC5/BL.c ****     default:
1418:.\Generated_Source\PSoC5/BL.c ****         /* Should never be here */
1419:.\Generated_Source\PSoC5/BL.c ****         CYASSERT(0u != 0u);
1420:.\Generated_Source\PSoC5/BL.c ****         fieldPtr  = 0u;
 101              		.loc 1 1420 0
 102 0026 0020     		movs	r0, #0
 103              	.LVL9:
 104 0028 00E0     		b	.L5
 105              	.LVL10:
 106              	.L16:
1399:.\Generated_Source\PSoC5/BL.c ****         fieldPtr  = BL_MD_BTLDR_LAST_ROW_OFFSET(appId);
 107              		.loc 1 1399 0
 108 002a 1548     		ldr	r0, .L26+16
 109              	.LVL11:
 110              	.L5:
1421:.\Generated_Source\PSoC5/BL.c ****         break;
1422:.\Generated_Source\PSoC5/BL.c ****     }
1423:.\Generated_Source\PSoC5/BL.c **** 
1424:.\Generated_Source\PSoC5/BL.c **** 
1425:.\Generated_Source\PSoC5/BL.c ****     /* Read all fields as big-endian */
1426:.\Generated_Source\PSoC5/BL.c ****     if (2u == fieldSize)
ARM GAS  C:\Users\MICHA_~1\AppData\Local\Temp\ccX8T6Q1.s 			page 28


1427:.\Generated_Source\PSoC5/BL.c ****     {
1428:.\Generated_Source\PSoC5/BL.c ****         result =  (uint32) CY_GET_XTND_REG8((volatile uint8 *)(fieldPtr + 1u));
 111              		.loc 1 1428 0
 112 002c 4178     		ldrb	r1, [r0, #1]	@ zero_extendqisi2
 113              	.LVL12:
1429:.\Generated_Source\PSoC5/BL.c ****         result |= (uint32) CY_GET_XTND_REG8((volatile uint8 *) fieldPtr      ) <<  8u;
 114              		.loc 1 1429 0
 115 002e 0078     		ldrb	r0, [r0, #0]	@ zero_extendqisi2
 116              	.LVL13:
 117 0030 41EA0020 		orr	r0, r1, r0, lsl #8
 118              	.LVL14:
 119              	.L15:
1430:.\Generated_Source\PSoC5/BL.c ****     }
1431:.\Generated_Source\PSoC5/BL.c ****     else
1432:.\Generated_Source\PSoC5/BL.c ****     {
1433:.\Generated_Source\PSoC5/BL.c ****         result =  (uint32) CY_GET_XTND_REG8((volatile uint8 *)(fieldPtr + 3u));
1434:.\Generated_Source\PSoC5/BL.c ****         result |= (uint32) CY_GET_XTND_REG8((volatile uint8 *)(fieldPtr + 2u)) <<  8u;
1435:.\Generated_Source\PSoC5/BL.c ****         result |= (uint32) CY_GET_XTND_REG8((volatile uint8 *)(fieldPtr + 1u)) << 16u;
1436:.\Generated_Source\PSoC5/BL.c ****         result |= (uint32) CY_GET_XTND_REG8((volatile uint8 *)(fieldPtr     )) << 24u;
1437:.\Generated_Source\PSoC5/BL.c ****     }
1438:.\Generated_Source\PSoC5/BL.c **** 
1439:.\Generated_Source\PSoC5/BL.c ****     /* Following fields should be little-endian */
1440:.\Generated_Source\PSoC5/BL.c **** #if(!CY_PSOC3)
1441:.\Generated_Source\PSoC5/BL.c ****     switch (fieldName)
 120              		.loc 1 1441 0
 121 0034 022A     		cmp	r2, #2
 122 0036 04D0     		beq	.L14
 123 0038 032A     		cmp	r2, #3
 124 003a 07D0     		beq	.L13
 125 003c 012A     		cmp	r2, #1
 126 003e 15D1     		bne	.L24
 127 0040 04E0     		b	.L13
 128              	.L14:
1442:.\Generated_Source\PSoC5/BL.c ****     {
1443:.\Generated_Source\PSoC5/BL.c ****     case BL_GET_METADATA_BTLDR_LAST_ROW:
1444:.\Generated_Source\PSoC5/BL.c ****         result = CYSWAP_ENDIAN16(result);
 129              		.loc 1 1444 0
 130 0042 0202     		lsls	r2, r0, #8
 131 0044 42EA1023 		orr	r3, r2, r0, lsr #8
 132 0048 98B2     		uxth	r0, r3
 133              	.LVL15:
 134 004a 10BD     		pop	{r4, pc}
 135              	.L13:
 136 004c 00BA     		rev	r0, r0
 137              	.LVL16:
 138 004e 10BD     		pop	{r4, pc}
 139              	.LVL17:
 140              	.L10:
1383:.\Generated_Source\PSoC5/BL.c ****         fieldPtr  = BL_MD_BTLDB_APP_CUST_ID_OFFSET(appId);
 141              		.loc 1 1383 0
 142 0050 0C4B     		ldr	r3, .L26+20
 143 0052 00E0     		b	.L6
 144              	.L17:
1403:.\Generated_Source\PSoC5/BL.c ****         fieldPtr  = BL_MD_BTLDB_LENGTH_OFFSET(appId);
 145              		.loc 1 1403 0
 146 0054 0C4B     		ldr	r3, .L26+24
 147              	.L6:
ARM GAS  C:\Users\MICHA_~1\AppData\Local\Temp\ccX8T6Q1.s 			page 29


 148              	.LVL18:
1433:.\Generated_Source\PSoC5/BL.c ****         result =  (uint32) CY_GET_XTND_REG8((volatile uint8 *)(fieldPtr + 3u));
 149              		.loc 1 1433 0
 150 0056 D878     		ldrb	r0, [r3, #3]	@ zero_extendqisi2
 151              	.LVL19:
1434:.\Generated_Source\PSoC5/BL.c ****         result |= (uint32) CY_GET_XTND_REG8((volatile uint8 *)(fieldPtr + 2u)) <<  8u;
 152              		.loc 1 1434 0
 153 0058 9C78     		ldrb	r4, [r3, #2]	@ zero_extendqisi2
 154              	.LVL20:
1435:.\Generated_Source\PSoC5/BL.c ****         result |= (uint32) CY_GET_XTND_REG8((volatile uint8 *)(fieldPtr + 1u)) << 16u;
 155              		.loc 1 1435 0
 156 005a 5978     		ldrb	r1, [r3, #1]	@ zero_extendqisi2
 157              	.LVL21:
1436:.\Generated_Source\PSoC5/BL.c ****         result |= (uint32) CY_GET_XTND_REG8((volatile uint8 *)(fieldPtr     )) << 24u;
 158              		.loc 1 1436 0
 159 005c 1B78     		ldrb	r3, [r3, #0]	@ zero_extendqisi2
 160              	.LVL22:
1434:.\Generated_Source\PSoC5/BL.c ****         result |= (uint32) CY_GET_XTND_REG8((volatile uint8 *)(fieldPtr + 2u)) <<  8u;
 161              		.loc 1 1434 0
 162 005e 40EA0360 		orr	r0, r0, r3, lsl #24
 163              	.LVL23:
1435:.\Generated_Source\PSoC5/BL.c ****         result |= (uint32) CY_GET_XTND_REG8((volatile uint8 *)(fieldPtr + 1u)) << 16u;
 164              		.loc 1 1435 0
 165 0062 40EA0423 		orr	r3, r0, r4, lsl #8
1436:.\Generated_Source\PSoC5/BL.c ****         result |= (uint32) CY_GET_XTND_REG8((volatile uint8 *)(fieldPtr     )) << 24u;
 166              		.loc 1 1436 0
 167 0066 43EA0140 		orr	r0, r3, r1, lsl #16
 168              	.LVL24:
 169 006a E3E7     		b	.L15
 170              	.LVL25:
 171              	.L24:
1445:.\Generated_Source\PSoC5/BL.c ****         break;
1446:.\Generated_Source\PSoC5/BL.c **** 
1447:.\Generated_Source\PSoC5/BL.c ****     case BL_GET_METADATA_BTLDB_ADDR:
1448:.\Generated_Source\PSoC5/BL.c ****     case BL_GET_METADATA_BTLDB_LENGTH:
1449:.\Generated_Source\PSoC5/BL.c ****         result = CYSWAP_ENDIAN32(result);
1450:.\Generated_Source\PSoC5/BL.c ****         break;
1451:.\Generated_Source\PSoC5/BL.c **** 
1452:.\Generated_Source\PSoC5/BL.c ****     default:
1453:.\Generated_Source\PSoC5/BL.c ****         break;
1454:.\Generated_Source\PSoC5/BL.c ****     }
1455:.\Generated_Source\PSoC5/BL.c **** 
1456:.\Generated_Source\PSoC5/BL.c **** #endif  /* (!CY_PSOC3) */
1457:.\Generated_Source\PSoC5/BL.c **** 
1458:.\Generated_Source\PSoC5/BL.c ****     return (result);
1459:.\Generated_Source\PSoC5/BL.c **** }
 172              		.loc 1 1459 0
 173 006c 10BD     		pop	{r4, pc}
 174              	.L27:
 175 006e 00BF     		.align	2
 176              	.L26:
 177 0070 D2FF0100 		.word	131026
 178 0074 C1FF0100 		.word	131009
 179 0078 D6FF0100 		.word	131030
 180 007c D4FF0100 		.word	131028
 181 0080 C5FF0100 		.word	131013
 182 0084 D8FF0100 		.word	131032
ARM GAS  C:\Users\MICHA_~1\AppData\Local\Temp\ccX8T6Q1.s 			page 30


 183 0088 C9FF0100 		.word	131017
 184              		.cfi_endproc
 185              	.LFE69:
 186              		.size	BL_GetMetadata.constprop.1, .-BL_GetMetadata.constprop.1
 187              		.section	.text.BL_ValidateBootloadable.constprop.0,"ax",%progbits
 188              		.align	1
 189              		.thumb
 190              		.thumb_func
 191              		.type	BL_ValidateBootloadable.constprop.0, %function
 192              	BL_ValidateBootloadable.constprop.0:
 193              	.LFB70:
 501:.\Generated_Source\PSoC5/BL.c **** static cystatus BL_ValidateBootloadable(uint8 appId) CYSMALL \
 194              		.loc 1 501 0
 195              		.cfi_startproc
 196              		@ args = 0, pretend = 0, frame = 0
 197              		@ frame_needed = 0, uses_anonymous_args = 0
 198              	.LVL26:
 199 0000 70B5     		push	{r4, r5, r6, lr}
 200              	.LCFI1:
 201              		.cfi_def_cfa_offset 16
 202              		.cfi_offset 4, -16
 203              		.cfi_offset 5, -12
 204              		.cfi_offset 6, -8
 205              		.cfi_offset 14, -4
 506:.\Generated_Source\PSoC5/BL.c ****         uint32 CYDATA end   = BL_FIRST_APP_BYTE(appId) +
 206              		.loc 1 506 0
 207 0002 0220     		movs	r0, #2
 208 0004 FFF7FEFF 		bl	BL_GetMetadata.constprop.1
 209              	.LVL27:
 210 0008 0646     		mov	r6, r0
 507:.\Generated_Source\PSoC5/BL.c ****                                 BL_GetMetadata(BL_GET_METADATA_BTLDB_LENGTH,
 211              		.loc 1 507 0
 212 000a 0320     		movs	r0, #3
 213 000c FFF7FEFF 		bl	BL_GetMetadata.constprop.1
 214              	.LVL28:
 506:.\Generated_Source\PSoC5/BL.c ****         uint32 CYDATA end   = BL_FIRST_APP_BYTE(appId) +
 215              		.loc 1 506 0
 216 0010 711C     		adds	r1, r6, #1
 217 0012 00EB0126 		add	r6, r0, r1, lsl #8
 218              	.LVL29:
 535:.\Generated_Source\PSoC5/BL.c ****         for(idx = BL_FIRST_APP_BYTE(appId); idx < end; ++idx)
 219              		.loc 1 535 0
 220 0016 0220     		movs	r0, #2
 221 0018 FFF7FEFF 		bl	BL_GetMetadata.constprop.1
 222              	.LVL30:
 511:.\Generated_Source\PSoC5/BL.c ****         uint8  CYDATA calcedChecksum = 0u;
 223              		.loc 1 511 0
 224 001c 0024     		movs	r4, #0
 535:.\Generated_Source\PSoC5/BL.c ****         for(idx = BL_FIRST_APP_BYTE(appId); idx < end; ++idx)
 225              		.loc 1 535 0
 226 001e 0130     		adds	r0, r0, #1
 227 0020 0102     		lsls	r1, r0, #8
 228              	.LVL31:
 510:.\Generated_Source\PSoC5/BL.c ****         CYBIT         valid = 0u; /* Assume bad flash image */
 229              		.loc 1 510 0
 230 0022 2546     		mov	r5, r4
 231              	.LVL32:
ARM GAS  C:\Users\MICHA_~1\AppData\Local\Temp\ccX8T6Q1.s 			page 31


 232              	.L29:
 535:.\Generated_Source\PSoC5/BL.c ****         for(idx = BL_FIRST_APP_BYTE(appId); idx < end; ++idx)
 233              		.loc 1 535 0
 234 0024 B142     		cmp	r1, r6
 235 0026 09D2     		bcs	.L44
 236              	.L31:
 237              	.LBB3:
 537:.\Generated_Source\PSoC5/BL.c ****             uint8 CYDATA curByte = BL_GET_CODE_BYTE(idx);
 238              		.loc 1 537 0
 239 0028 11F8010B 		ldrb	r0, [r1], #1	@ zero_extendqisi2
 240              	.LVL33:
 539:.\Generated_Source\PSoC5/BL.c ****             if((curByte != 0u) && (curByte != 0xFFu))
 241              		.loc 1 539 0
 242 002c 421E     		subs	r2, r0, #1
 243 002e D3B2     		uxtb	r3, r2
 544:.\Generated_Source\PSoC5/BL.c ****             calcedChecksum += curByte;
 244              		.loc 1 544 0
 245 0030 0419     		adds	r4, r0, r4
 246              	.LVL34:
 541:.\Generated_Source\PSoC5/BL.c ****                 valid = 1u;
 247              		.loc 1 541 0
 248 0032 FD2B     		cmp	r3, #253
 249 0034 98BF     		it	ls
 250 0036 0125     		movls	r5, #1
 251              	.LVL35:
 544:.\Generated_Source\PSoC5/BL.c ****             calcedChecksum += curByte;
 252              		.loc 1 544 0
 253 0038 E4B2     		uxtb	r4, r4
 254              	.LVL36:
 255 003a F3E7     		b	.L29
 256              	.LVL37:
 257              	.L44:
 258              	.LBE3:
 558:.\Generated_Source\PSoC5/BL.c ****             idx = ((BL_FIRST_APP_BYTE(appId)) >> 3u);
 259              		.loc 1 558 0
 260 003c 0220     		movs	r0, #2
 261 003e FFF7FEFF 		bl	BL_GetMetadata.constprop.1
 262              	.LVL38:
 563:.\Generated_Source\PSoC5/BL.c ****                 : (end >> 3u);
 263              		.loc 1 563 0
 264 0042 0F49     		ldr	r1, .L46
 558:.\Generated_Source\PSoC5/BL.c ****             idx = ((BL_FIRST_APP_BYTE(appId)) >> 3u);
 265              		.loc 1 558 0
 266 0044 421C     		adds	r2, r0, #1
 267 0046 1302     		lsls	r3, r2, #8
 268 0048 DB08     		lsrs	r3, r3, #3
 269              	.LVL39:
 563:.\Generated_Source\PSoC5/BL.c ****                 : (end >> 3u);
 270              		.loc 1 563 0
 271 004a 8E42     		cmp	r6, r1
 272 004c 01D0     		beq	.L39
 273 004e F608     		lsrs	r6, r6, #3
 274              	.LVL40:
 275 0050 01E0     		b	.L43
 276              	.LVL41:
 277              	.L39:
 278 0052 4FF48046 		mov	r6, #16384
ARM GAS  C:\Users\MICHA_~1\AppData\Local\Temp\ccX8T6Q1.s 			page 32


 279              	.LVL42:
 280              	.L43:
 565:.\Generated_Source\PSoC5/BL.c ****             for (; idx < end; ++idx)
 281              		.loc 1 565 0
 282 0056 B342     		cmp	r3, r6
 283 0058 06D2     		bcs	.L45
 284              	.L34:
 501:.\Generated_Source\PSoC5/BL.c **** static cystatus BL_ValidateBootloadable(uint8 appId) CYSMALL \
 285              		.loc 1 501 0
 286 005a 03F19041 		add	r1, r3, #1207959552
 567:.\Generated_Source\PSoC5/BL.c ****                 calcedChecksum += CY_GET_XTND_REG8((volatile uint8 *)(CYDEV_ECC_BASE + idx));
 287              		.loc 1 567 0
 288 005e 0878     		ldrb	r0, [r1, #0]	@ zero_extendqisi2
 565:.\Generated_Source\PSoC5/BL.c ****             for (; idx < end; ++idx)
 289              		.loc 1 565 0
 290 0060 0133     		adds	r3, r3, #1
 291              	.LVL43:
 567:.\Generated_Source\PSoC5/BL.c ****                 calcedChecksum += CY_GET_XTND_REG8((volatile uint8 *)(CYDEV_ECC_BASE + idx));
 292              		.loc 1 567 0
 293 0062 0219     		adds	r2, r0, r4
 294 0064 D4B2     		uxtb	r4, r2
 295              	.LVL44:
 296 0066 F6E7     		b	.L43
 297              	.LVL45:
 298              	.L45:
 575:.\Generated_Source\PSoC5/BL.c ****         if((calcedChecksum != BL_MD_BTLDB_CHECKSUM_VALUE(appId)) ||
 299              		.loc 1 575 0
 300 0068 0548     		ldr	r0, .L46
 573:.\Generated_Source\PSoC5/BL.c ****         calcedChecksum = ( uint8 )1u + ( uint8 )(~calcedChecksum);
 301              		.loc 1 573 0
 302 006a 6442     		negs	r4, r4
 303              	.LVL46:
 575:.\Generated_Source\PSoC5/BL.c ****         if((calcedChecksum != BL_MD_BTLDB_CHECKSUM_VALUE(appId)) ||
 304              		.loc 1 575 0
 305 006c 0278     		ldrb	r2, [r0, #0]	@ zero_extendqisi2
 306 006e E4B2     		uxtb	r4, r4
 307              	.LVL47:
 308 0070 9442     		cmp	r4, r2
 309 0072 01D0     		beq	.L35
 310              	.L37:
 578:.\Generated_Source\PSoC5/BL.c ****             return(CYRET_BAD_DATA);
 311              		.loc 1 578 0
 312 0074 0620     		movs	r0, #6
 313 0076 70BD     		pop	{r4, r5, r6, pc}
 314              	.L35:
 575:.\Generated_Source\PSoC5/BL.c ****         if((calcedChecksum != BL_MD_BTLDB_CHECKSUM_VALUE(appId)) ||
 315              		.loc 1 575 0
 316 0078 002D     		cmp	r5, #0
 317 007a FBD0     		beq	.L37
 588:.\Generated_Source\PSoC5/BL.c ****         return(CYRET_SUCCESS);
 318              		.loc 1 588 0
 319 007c 0020     		movs	r0, #0
 589:.\Generated_Source\PSoC5/BL.c **** }
 320              		.loc 1 589 0
 321 007e 70BD     		pop	{r4, r5, r6, pc}
 322              	.L47:
 323              		.align	2
ARM GAS  C:\Users\MICHA_~1\AppData\Local\Temp\ccX8T6Q1.s 			page 33


 324              	.L46:
 325 0080 C0FF0100 		.word	131008
 326              		.cfi_endproc
 327              	.LFE70:
 328              		.size	BL_ValidateBootloadable.constprop.0, .-BL_ValidateBootloadable.constprop.0
 329              		.section	.text.BL_HostLink,"ax",%progbits
 330              		.align	1
 331              		.thumb
 332              		.thumb_func
 333              		.type	BL_HostLink, %function
 334              	BL_HostLink:
 335              	.LFB64:
 611:.\Generated_Source\PSoC5/BL.c **** {
 336              		.loc 1 611 0
 337              		.cfi_startproc
 338              		@ args = 0, pretend = 0, frame = 896
 339              		@ frame_needed = 0, uses_anonymous_args = 0
 340              	.LVL48:
 341 0000 2DE9F04F 		push	{r4, r5, r6, r7, r8, r9, sl, fp, lr}
 342              	.LCFI2:
 343              		.cfi_def_cfa_offset 36
 344              		.cfi_offset 4, -36
 345              		.cfi_offset 5, -32
 346              		.cfi_offset 6, -28
 347              		.cfi_offset 7, -24
 348              		.cfi_offset 8, -20
 349              		.cfi_offset 9, -16
 350              		.cfi_offset 10, -12
 351              		.cfi_offset 11, -8
 352              		.cfi_offset 14, -4
 353 0004 ADF5617D 		sub	sp, sp, #900
 354              	.LCFI3:
 355              		.cfi_def_cfa_offset 936
 611:.\Generated_Source\PSoC5/BL.c **** {
 356              		.loc 1 611 0
 357 0008 8046     		mov	r8, r0
 632:.\Generated_Source\PSoC5/BL.c ****     CyBtldrCommStart();
 358              		.loc 1 632 0
 359 000a FFF7FEFF 		bl	USBFS_CyBtldrCommStart
 360              	.LVL49:
 635:.\Generated_Source\PSoC5/BL.c ****     CyGlobalIntEnable;
 361              		.loc 1 635 0
 362              	@ 635 ".\Generated_Source\PSoC5\BL.c" 1
 363 000e 62B6     		CPSIE   i
 364              	@ 0 "" 2
 625:.\Generated_Source\PSoC5/BL.c ****     CYBIT     communicationState = BL_COMMUNICATION_STATE_IDLE;
 365              		.loc 1 625 0
 366              		.thumb
 367 0010 0026     		movs	r6, #0
 622:.\Generated_Source\PSoC5/BL.c ****         uint8 CYDATA clearedMetaData = 0u;
 368              		.loc 1 622 0
 369 0012 B246     		mov	sl, r6
 619:.\Generated_Source\PSoC5/BL.c ****     uint8     CYDATA timeOutCnt = 10u;
 370              		.loc 1 619 0
 371 0014 4FF00A09 		mov	r9, #10
 618:.\Generated_Source\PSoC5/BL.c ****     uint16    CYDATA dataOffset = 0u;
 372              		.loc 1 618 0
ARM GAS  C:\Users\MICHA_~1\AppData\Local\Temp\ccX8T6Q1.s 			page 34


 373 0018 3746     		mov	r7, r6
 374              	.LVL50:
 375              	.L128:
 643:.\Generated_Source\PSoC5/BL.c ****             readStat = CyBtldrCommRead(packetBuffer,
 376              		.loc 1 643 0
 377 001a B8F1000F 		cmp	r8, #0
 378 001e 01D1     		bne	.L86
 379              	.LVL51:
 380              	.L112:
 381 0020 FF23     		movs	r3, #255
 382 0022 00E0     		b	.L50
 383              	.LVL52:
 384              	.L86:
 385 0024 4346     		mov	r3, r8
 386              	.LVL53:
 387              	.L50:
 643:.\Generated_Source\PSoC5/BL.c ****             readStat = CyBtldrCommRead(packetBuffer,
 388              		.loc 1 643 0 is_stmt 0 discriminator 3
 389 0026 4AA8     		add	r0, sp, #296
 390 0028 4FF49671 		mov	r1, #300
 391 002c 01AA     		add	r2, sp, #4
 392 002e FFF7FEFF 		bl	USBFS_CyBtldrCommRead
 393              	.LVL54:
 647:.\Generated_Source\PSoC5/BL.c ****             if (0u != timeOut)
 394              		.loc 1 647 0 is_stmt 1 discriminator 3
 395 0032 B8F1000F 		cmp	r8, #0
 396 0036 03D0     		beq	.L51
 649:.\Generated_Source\PSoC5/BL.c ****                 timeOutCnt--;
 397              		.loc 1 649 0
 398 0038 09F1FF39 		add	r9, r9, #-1
 399 003c 5FFA89F9 		uxtb	r9, r9
 400              	.LVL55:
 401              	.L51:
 652:.\Generated_Source\PSoC5/BL.c ****         } while ( (0u != timeOutCnt) && (readStat != CYRET_SUCCESS) );
 402              		.loc 1 652 0
 403 0040 B9F1000F 		cmp	r9, #0
 404 0044 02D0     		beq	.L52
 652:.\Generated_Source\PSoC5/BL.c ****         } while ( (0u != timeOutCnt) && (readStat != CYRET_SUCCESS) );
 405              		.loc 1 652 0 is_stmt 0 discriminator 1
 406 0046 0028     		cmp	r0, #0
 407 0048 E7D1     		bne	.L128
 408 004a 01E0     		b	.L54
 409              	.L52:
 655:.\Generated_Source\PSoC5/BL.c ****         if( readStat != CYRET_SUCCESS )
 410              		.loc 1 655 0 is_stmt 1
 411 004c 0028     		cmp	r0, #0
 412 004e 71D1     		bne	.L55
 413              	.L54:
 660:.\Generated_Source\PSoC5/BL.c ****         if((numberRead < BL_MIN_PKT_SIZE) ||
 414              		.loc 1 660 0
 415 0050 BDF80420 		ldrh	r2, [sp, #4]
 416 0054 062A     		cmp	r2, #6
 417 0056 40F27B81 		bls	.L90
 660:.\Generated_Source\PSoC5/BL.c ****         if((numberRead < BL_MIN_PKT_SIZE) ||
 418              		.loc 1 660 0 is_stmt 0 discriminator 1
 419 005a 9DF82831 		ldrb	r3, [sp, #296]	@ zero_extendqisi2
 420 005e 012B     		cmp	r3, #1
ARM GAS  C:\Users\MICHA_~1\AppData\Local\Temp\ccX8T6Q1.s 			page 35


 421 0060 40F07681 		bne	.L90
 667:.\Generated_Source\PSoC5/BL.c ****             pktSize = ((uint16)((uint16)packetBuffer[BL_SIZE_ADDR + 1u] << 8u)) |
 422              		.loc 1 667 0 is_stmt 1
 423 0064 9DF82A01 		ldrb	r0, [sp, #298]	@ zero_extendqisi2
 424              	.LVL56:
 425 0068 9DF82B51 		ldrb	r5, [sp, #299]	@ zero_extendqisi2
 670:.\Generated_Source\PSoC5/BL.c ****             pktChecksum = ((uint16)((uint16)packetBuffer[BL_CHK_ADDR(pktSize) + 1u] << 8u)) |
 426              		.loc 1 670 0
 427 006c 4AA9     		add	r1, sp, #296
 667:.\Generated_Source\PSoC5/BL.c ****             pktSize = ((uint16)((uint16)packetBuffer[BL_SIZE_ADDR + 1u] << 8u)) |
 428              		.loc 1 667 0
 429 006e 40EA0525 		orr	r5, r0, r5, lsl #8
 430              	.LVL57:
 673:.\Generated_Source\PSoC5/BL.c ****             if((pktSize + BL_MIN_PKT_SIZE) > numberRead)
 431              		.loc 1 673 0
 432 0072 EC1D     		adds	r4, r5, #7
 670:.\Generated_Source\PSoC5/BL.c ****             pktChecksum = ((uint16)((uint16)packetBuffer[BL_CHK_ADDR(pktSize) + 1u] << 8u)) |
 433              		.loc 1 670 0
 434 0074 4B19     		adds	r3, r1, r5
 673:.\Generated_Source\PSoC5/BL.c ****             if((pktSize + BL_MIN_PKT_SIZE) > numberRead)
 435              		.loc 1 673 0
 436 0076 9442     		cmp	r4, r2
 670:.\Generated_Source\PSoC5/BL.c ****             pktChecksum = ((uint16)((uint16)packetBuffer[BL_CHK_ADDR(pktSize) + 1u] << 8u)) |
 437              		.loc 1 670 0
 438 0078 5879     		ldrb	r0, [r3, #5]	@ zero_extendqisi2
 671:.\Generated_Source\PSoC5/BL.c ****                                    packetBuffer[BL_CHK_ADDR(pktSize)];
 439              		.loc 1 671 0
 440 007a 1979     		ldrb	r1, [r3, #4]	@ zero_extendqisi2
 441              	.LVL58:
 673:.\Generated_Source\PSoC5/BL.c ****             if((pktSize + BL_MIN_PKT_SIZE) > numberRead)
 442              		.loc 1 673 0
 443 007c 00F26681 		bhi	.L89
 677:.\Generated_Source\PSoC5/BL.c ****             else if(packetBuffer[BL_EOP_ADDR(pktSize)] != BL_EOP)
 444              		.loc 1 677 0
 445 0080 9A79     		ldrb	r2, [r3, #6]	@ zero_extendqisi2
 446 0082 172A     		cmp	r2, #23
 447 0084 40F06481 		bne	.L90
 681:.\Generated_Source\PSoC5/BL.c ****             else if(pktChecksum != BL_CalcPacketChecksum(packetBuffer,
 448              		.loc 1 681 0
 449 0088 2B1D     		adds	r3, r5, #4
 450 008a 9BB2     		uxth	r3, r3
 451              	.LVL59:
 157:.\Generated_Source\PSoC5/BL.c ****         uint16 CYDATA sum = 0u;
 452              		.loc 1 157 0
 453 008c 0022     		movs	r2, #0
 454              	.LVL60:
 455              	.L57:
 456              	.LBB20:
 457              	.LBB21:
 159:.\Generated_Source\PSoC5/BL.c ****         while (size > 0u)
 458              		.loc 1 159 0
 459 008e 3BB1     		cbz	r3, .L134
 460              	.L58:
 161:.\Generated_Source\PSoC5/BL.c ****             sum += buffer[size - 1u];
 461              		.loc 1 161 0
 462 0090 0DF22714 		addw	r4, sp, #295
 463 0094 E45C     		ldrb	r4, [r4, r3]	@ zero_extendqisi2
ARM GAS  C:\Users\MICHA_~1\AppData\Local\Temp\ccX8T6Q1.s 			page 36


 162:.\Generated_Source\PSoC5/BL.c ****             size--;
 464              		.loc 1 162 0
 465 0096 013B     		subs	r3, r3, #1
 466              	.LVL61:
 161:.\Generated_Source\PSoC5/BL.c ****             sum += buffer[size - 1u];
 467              		.loc 1 161 0
 468 0098 1219     		adds	r2, r2, r4
 469              	.LVL62:
 470 009a 92B2     		uxth	r2, r2
 471              	.LVL63:
 162:.\Generated_Source\PSoC5/BL.c ****             size--;
 472              		.loc 1 162 0
 473 009c 9BB2     		uxth	r3, r3
 474              	.LVL64:
 475 009e F6E7     		b	.L57
 476              	.L134:
 165:.\Generated_Source\PSoC5/BL.c ****         return(( uint16 )1u + ( uint16 )(~sum));
 477              		.loc 1 165 0
 478 00a0 5242     		negs	r2, r2
 479              	.LVL65:
 480              	.LBE21:
 481              	.LBE20:
 681:.\Generated_Source\PSoC5/BL.c ****             else if(pktChecksum != BL_CalcPacketChecksum(packetBuffer,
 482              		.loc 1 681 0
 483 00a2 41EA0020 		orr	r0, r1, r0, lsl #8
 484              	.LVL66:
 485 00a6 91B2     		uxth	r1, r2
 486              	.LVL67:
 487 00a8 8842     		cmp	r0, r1
 488 00aa 40F05381 		bne	.L91
 489 00ae 4AE0     		b	.L135
 490              	.LVL68:
 491              	.L62:
 492              	.LBB22:
 761:.\Generated_Source\PSoC5/BL.c ****                     if((BL_COMMUNICATION_STATE_ACTIVE == communicationState) && (pktSize == 1u))
 493              		.loc 1 761 0
 494 00b0 002E     		cmp	r6, #0
 495 00b2 00F04D81 		beq	.L90
 761:.\Generated_Source\PSoC5/BL.c ****                     if((BL_COMMUNICATION_STATE_ACTIVE == communicationState) && (pktSize == 1u))
 496              		.loc 1 761 0 is_stmt 0 discriminator 1
 497 00b6 012D     		cmp	r5, #1
 498 00b8 4FF00004 		mov	r4, #0
 499 00bc 40F03C81 		bne	.L96
 764:.\Generated_Source\PSoC5/BL.c ****                         if(btldrData < BL_NUM_OF_FLASH_ARRAYS)
 500              		.loc 1 764 0 is_stmt 1
 501 00c0 BBF1010F 		cmp	fp, #1
 502 00c4 00F23881 		bhi	.L96
 503              	.LVL69:
 504              	.LBB23:
 774:.\Generated_Source\PSoC5/BL.c ****                             packetBuffer[BL_DATA_ADDR + 2u] = LO8(CY_FLASH_NUMBER_ROWS - 1u);
 505              		.loc 1 774 0
 506 00c8 FF23     		movs	r3, #255
 772:.\Generated_Source\PSoC5/BL.c ****                             packetBuffer[BL_DATA_ADDR]      = LO8(startRow);
 507              		.loc 1 772 0
 508 00ca 8DF82C41 		strb	r4, [sp, #300]
 773:.\Generated_Source\PSoC5/BL.c ****                             packetBuffer[BL_DATA_ADDR + 1u] = HI8(startRow);
 509              		.loc 1 773 0
ARM GAS  C:\Users\MICHA_~1\AppData\Local\Temp\ccX8T6Q1.s 			page 37


 510 00ce 8DF82D41 		strb	r4, [sp, #301]
 778:.\Generated_Source\PSoC5/BL.c ****                             ackCode = CYRET_SUCCESS;
 511              		.loc 1 778 0
 512 00d2 2546     		mov	r5, r4
 513              	.LVL70:
 774:.\Generated_Source\PSoC5/BL.c ****                             packetBuffer[BL_DATA_ADDR + 2u] = LO8(CY_FLASH_NUMBER_ROWS - 1u);
 514              		.loc 1 774 0
 515 00d4 8DF82E31 		strb	r3, [sp, #302]
 775:.\Generated_Source\PSoC5/BL.c ****                             packetBuffer[BL_DATA_ADDR + 3u] = HI8(CY_FLASH_NUMBER_ROWS - 1u);
 516              		.loc 1 775 0
 517 00d8 8DF82F61 		strb	r6, [sp, #303]
 518              	.LVL71:
 777:.\Generated_Source\PSoC5/BL.c ****                             rspSize = 4u;
 519              		.loc 1 777 0
 520 00dc 0424     		movs	r4, #4
 521              	.LVL72:
 522              	.L61:
 523              	.LBE23:
 524              	.LBE22:
 525              	.LBB32:
 526              	.LBB33:
1286:.\Generated_Source\PSoC5/BL.c ****     buffer[BL_SOP_ADDR]      = BL_SOP;
 527              		.loc 1 1286 0
 528 00de 0120     		movs	r0, #1
1289:.\Generated_Source\PSoC5/BL.c ****     buffer[BL_SIZE_ADDR + 1u] = HI8(size);
 529              		.loc 1 1289 0
 530 00e0 0022     		movs	r2, #0
1292:.\Generated_Source\PSoC5/BL.c ****     checksum = BL_CalcPacketChecksum(buffer, size + BL_DATA_ADDR);
 531              		.loc 1 1292 0
 532 00e2 211D     		adds	r1, r4, #4
 533 00e4 ADF80640 		strh	r4, [sp, #6]	@ movhi
1286:.\Generated_Source\PSoC5/BL.c ****     buffer[BL_SOP_ADDR]      = BL_SOP;
 534              		.loc 1 1286 0
 535 00e8 8DF82801 		strb	r0, [sp, #296]
1287:.\Generated_Source\PSoC5/BL.c ****     buffer[BL_CMD_ADDR]      = status;
 536              		.loc 1 1287 0
 537 00ec 8DF82951 		strb	r5, [sp, #297]
1288:.\Generated_Source\PSoC5/BL.c ****     buffer[BL_SIZE_ADDR]     = LO8(size);
 538              		.loc 1 1288 0
 539 00f0 8DF82A41 		strb	r4, [sp, #298]
1289:.\Generated_Source\PSoC5/BL.c ****     buffer[BL_SIZE_ADDR + 1u] = HI8(size);
 540              		.loc 1 1289 0
 541 00f4 8DF82B21 		strb	r2, [sp, #299]
1292:.\Generated_Source\PSoC5/BL.c ****     checksum = BL_CalcPacketChecksum(buffer, size + BL_DATA_ADDR);
 542              		.loc 1 1292 0
 543 00f8 8BB2     		uxth	r3, r1
 544              	.LVL73:
 545              	.L82:
 546              	.LBB34:
 547              	.LBB35:
 161:.\Generated_Source\PSoC5/BL.c ****             sum += buffer[size - 1u];
 548              		.loc 1 161 0
 549 00fa 0DF22710 		addw	r0, sp, #295
 550 00fe C15C     		ldrb	r1, [r0, r3]	@ zero_extendqisi2
 162:.\Generated_Source\PSoC5/BL.c ****             size--;
 551              		.loc 1 162 0
 552 0100 013B     		subs	r3, r3, #1
ARM GAS  C:\Users\MICHA_~1\AppData\Local\Temp\ccX8T6Q1.s 			page 38


 161:.\Generated_Source\PSoC5/BL.c ****             sum += buffer[size - 1u];
 553              		.loc 1 161 0
 554 0102 5218     		adds	r2, r2, r1
 162:.\Generated_Source\PSoC5/BL.c ****             size--;
 555              		.loc 1 162 0
 556 0104 9BB2     		uxth	r3, r3
 161:.\Generated_Source\PSoC5/BL.c ****             sum += buffer[size - 1u];
 557              		.loc 1 161 0
 558 0106 92B2     		uxth	r2, r2
 559              	.LVL74:
 159:.\Generated_Source\PSoC5/BL.c ****         while (size > 0u)
 560              		.loc 1 159 0
 561 0108 002B     		cmp	r3, #0
 562 010a F6D1     		bne	.L82
 165:.\Generated_Source\PSoC5/BL.c ****         return(( uint16 )1u + ( uint16 )(~sum));
 563              		.loc 1 165 0
 564 010c 5042     		negs	r0, r2
 565 010e 81B2     		uxth	r1, r0
 566              	.LBE35:
 567              	.LBE34:
1295:.\Generated_Source\PSoC5/BL.c ****     buffer[BL_CHK_ADDR(1u + size)] = HI8(checksum);
 568              		.loc 1 1295 0
 569 0110 080A     		lsrs	r0, r1, #8
1294:.\Generated_Source\PSoC5/BL.c ****     buffer[BL_CHK_ADDR(size)]     = LO8(checksum);
 570              		.loc 1 1294 0
 571 0112 4BAA     		add	r2, sp, #300
 572              	.LVL75:
1295:.\Generated_Source\PSoC5/BL.c ****     buffer[BL_CHK_ADDR(1u + size)] = HI8(checksum);
 573              		.loc 1 1295 0
 574 0114 0DF22D13 		addw	r3, sp, #301
 575              	.LVL76:
1294:.\Generated_Source\PSoC5/BL.c ****     buffer[BL_CHK_ADDR(size)]     = LO8(checksum);
 576              		.loc 1 1294 0
 577 0118 1155     		strb	r1, [r2, r4]
1295:.\Generated_Source\PSoC5/BL.c ****     buffer[BL_CHK_ADDR(1u + size)] = HI8(checksum);
 578              		.loc 1 1295 0
 579 011a 1855     		strb	r0, [r3, r4]
1296:.\Generated_Source\PSoC5/BL.c ****     buffer[BL_EOP_ADDR(size)]     = BL_EOP;
 580              		.loc 1 1296 0
 581 011c 1721     		movs	r1, #23
 582 011e 0DF59772 		add	r2, sp, #302
1299:.\Generated_Source\PSoC5/BL.c ****     return(CyBtldrCommWrite(buffer, size + BL_MIN_PKT_SIZE, &size, 150u));
 583              		.loc 1 1299 0
 584 0122 E31D     		adds	r3, r4, #7
1296:.\Generated_Source\PSoC5/BL.c ****     buffer[BL_EOP_ADDR(size)]     = BL_EOP;
 585              		.loc 1 1296 0
 586 0124 1155     		strb	r1, [r2, r4]
1299:.\Generated_Source\PSoC5/BL.c ****     return(CyBtldrCommWrite(buffer, size + BL_MIN_PKT_SIZE, &size, 150u));
 587              		.loc 1 1299 0
 588 0126 4AA8     		add	r0, sp, #296
 589              	.LVL77:
 590 0128 99B2     		uxth	r1, r3
 591 012a 0DF10602 		add	r2, sp, #6
 592 012e 9623     		movs	r3, #150
 593 0130 FFF7FEFF 		bl	USBFS_CyBtldrCommWrite
 594              	.LVL78:
 595              	.L55:
ARM GAS  C:\Users\MICHA_~1\AppData\Local\Temp\ccX8T6Q1.s 			page 39


 596              	.LBE33:
 597              	.LBE32:
1255:.\Generated_Source\PSoC5/BL.c ****     } while ((0u == timeOut) || (BL_COMMUNICATION_STATE_ACTIVE == communicationState));
 598              		.loc 1 1255 0
 599 0134 B8F1000F 		cmp	r8, #0
 600 0138 3FF472AF 		beq	.L112
1255:.\Generated_Source\PSoC5/BL.c ****     } while ((0u == timeOut) || (BL_COMMUNICATION_STATE_ACTIVE == communicationState));
 601              		.loc 1 1255 0 is_stmt 0 discriminator 1
 602 013c 002E     		cmp	r6, #0
 603 013e 00F01281 		beq	.L136
 604              	.LVL79:
 605              	.L84:
1029:.\Generated_Source\PSoC5/BL.c ****                     dataOffset = 0u;
 606              		.loc 1 1029 0 is_stmt 1
 607 0142 0126     		movs	r6, #1
 608 0144 69E7     		b	.L128
 609              	.LVL80:
 610              	.L135:
 611              	.LBB36:
 698:.\Generated_Source\PSoC5/BL.c ****             switch(packetBuffer[BL_CMD_ADDR])
 612              		.loc 1 698 0
 613 0146 9DF82921 		ldrb	r2, [sp, #297]	@ zero_extendqisi2
 614              	.LVL81:
 695:.\Generated_Source\PSoC5/BL.c ****             uint8 CYDATA btldrData = packetBuffer[BL_DATA_ADDR];
 615              		.loc 1 695 0
 616 014a 9DF82CB1 		ldrb	fp, [sp, #300]	@ zero_extendqisi2
 617              	.LVL82:
 698:.\Generated_Source\PSoC5/BL.c ****             switch(packetBuffer[BL_CMD_ADDR])
 618              		.loc 1 698 0
 619 014e A2F13103 		sub	r3, r2, #49
 620              	.LVL83:
 621 0152 0A2B     		cmp	r3, #10
 622 0154 00F2F780 		bhi	.L110
 623 0158 01A1     		adr	r1, .L85
 624 015a 51F823F0 		ldr	pc, [r1, r3, lsl #2]
 625 015e 00BF     		.align	2
 626              	.L85:
 627 0160 8D010000 		.word	.L60+1
 628 0164 B1000000 		.word	.L62+1
 629 0168 47030000 		.word	.L110+1
 630 016c AB010000 		.word	.L63+1
 631 0170 5D020000 		.word	.L69+1
 632 0174 47030000 		.word	.L110+1
 633 0178 63020000 		.word	.L71+1
 634 017c 81020000 		.word	.L72+1
 635 0180 AB010000 		.word	.L63+1
 636 0184 9B020000 		.word	.L73+1
 637 0188 27030000 		.word	.L80+1
 638              	.L60:
 743:.\Generated_Source\PSoC5/BL.c ****                 if((BL_COMMUNICATION_STATE_ACTIVE == communicationState) && (pktSize == 0u))
 639              		.loc 1 743 0
 640 018c 002E     		cmp	r6, #0
 641 018e 00F0DF80 		beq	.L90
 743:.\Generated_Source\PSoC5/BL.c ****                 if((BL_COMMUNICATION_STATE_ACTIVE == communicationState) && (pktSize == 0u))
 642              		.loc 1 743 0 is_stmt 0 discriminator 1
 643 0192 002D     		cmp	r5, #0
 644 0194 40F0DC80 		bne	.L90
ARM GAS  C:\Users\MICHA_~1\AppData\Local\Temp\ccX8T6Q1.s 			page 40


 746:.\Generated_Source\PSoC5/BL.c ****                             (uint8)(BL_ValidateBootloadable(BL_activeApp) == CYRET_SUCCESS);
 645              		.loc 1 746 0 is_stmt 1
 646 0198 FFF7FEFF 		bl	BL_ValidateBootloadable.constprop.0
 647              	.LVL84:
 648 019c D0F10102 		rsbs	r2, r0, #1
 649 01a0 38BF     		it	cc
 650 01a2 0022     		movcc	r2, #0
 651 01a4 8DF82C21 		strb	r2, [sp, #300]
 652              	.LVL85:
 653 01a8 BBE0     		b	.L132
 654              	.LVL86:
 655              	.L63:
 825:.\Generated_Source\PSoC5/BL.c ****                 if (BL_COMMAND_ERASE == packetBuffer[BL_CMD_ADDR])
 656              		.loc 1 825 0
 657 01aa 342A     		cmp	r2, #52
 658 01ac 12D1     		bne	.L64
 827:.\Generated_Source\PSoC5/BL.c ****                     if ((BL_COMMUNICATION_STATE_ACTIVE == communicationState) && (pktSize == 3u))
 659              		.loc 1 827 0
 660 01ae 002E     		cmp	r6, #0
 661 01b0 00F0CE80 		beq	.L90
 827:.\Generated_Source\PSoC5/BL.c ****                     if ((BL_COMMUNICATION_STATE_ACTIVE == communicationState) && (pktSize == 3u))
 662              		.loc 1 827 0 is_stmt 0 discriminator 1
 663 01b4 032D     		cmp	r5, #3
 664 01b6 40F0CB80 		bne	.L90
 830:.\Generated_Source\PSoC5/BL.c ****                             if((btldrData >= BL_FIRST_EE_ARRAYID) &&
 665              		.loc 1 830 0 is_stmt 1
 666 01ba ABF14007 		sub	r7, fp, #64
 834:.\Generated_Source\PSoC5/BL.c ****                                 dataOffset = CY_EEPROM_SIZEOF_ROW;
 667              		.loc 1 834 0
 668 01be 3F2F     		cmp	r7, #63
 669 01c0 8CBF     		ite	hi
 670 01c2 4FF49077 		movhi	r7, #288
 671 01c6 1027     		movls	r7, #16
 672              	.LVL87:
 849:.\Generated_Source\PSoC5/BL.c ****                             (void) memset(dataBuffer, 0, dataOffset);
 673              		.loc 1 849 0
 674 01c8 95A8     		add	r0, sp, #596
 675 01ca 0021     		movs	r1, #0
 676 01cc 3A46     		mov	r2, r7
 677 01ce FFF7FEFF 		bl	memset
 678              	.LVL88:
 679 01d2 05E0     		b	.L66
 680              	.LVL89:
 681              	.L64:
 861:.\Generated_Source\PSoC5/BL.c ****                 if((BL_COMMUNICATION_STATE_ACTIVE == communicationState) && (pktSize >= 3u))
 682              		.loc 1 861 0
 683 01d4 002E     		cmp	r6, #0
 684 01d6 00F0BB80 		beq	.L90
 861:.\Generated_Source\PSoC5/BL.c ****                 if((BL_COMMUNICATION_STATE_ACTIVE == communicationState) && (pktSize >= 3u))
 685              		.loc 1 861 0 is_stmt 0 discriminator 1
 686 01da 022D     		cmp	r5, #2
 687 01dc 40F2B880 		bls	.L90
 688              	.LVL90:
 689              	.L66:
 870:.\Generated_Source\PSoC5/BL.c ****                         (void) memcpy(&dataBuffer[dataOffset],
 690              		.loc 1 870 0 is_stmt 1
 691 01e0 033D     		subs	r5, r5, #3
ARM GAS  C:\Users\MICHA_~1\AppData\Local\Temp\ccX8T6Q1.s 			page 41


 692              	.LVL91:
 693 01e2 95AB     		add	r3, sp, #596
 694 01e4 2A46     		mov	r2, r5
 695 01e6 D819     		adds	r0, r3, r7
 696 01e8 0DF22F11 		addw	r1, sp, #303
 697 01ec FFF7FEFF 		bl	memcpy
 698              	.LVL92:
 878:.\Generated_Source\PSoC5/BL.c ****                         if((btldrData >= BL_FIRST_EE_ARRAYID) &&
 699              		.loc 1 878 0
 700 01f0 ABF14000 		sub	r0, fp, #64
 875:.\Generated_Source\PSoC5/BL.c ****                     dataOffset += (pktSize - 3u);
 701              		.loc 1 875 0
 702 01f4 7A19     		adds	r2, r7, r5
 878:.\Generated_Source\PSoC5/BL.c ****                         if((btldrData >= BL_FIRST_EE_ARRAYID) &&
 703              		.loc 1 878 0
 704 01f6 3F28     		cmp	r0, #63
 875:.\Generated_Source\PSoC5/BL.c ****                     dataOffset += (pktSize - 3u);
 705              		.loc 1 875 0
 706 01f8 96B2     		uxth	r6, r2
 707              	.LVL93:
 878:.\Generated_Source\PSoC5/BL.c ****                         if((btldrData >= BL_FIRST_EE_ARRAYID) &&
 708              		.loc 1 878 0
 709 01fa 03D8     		bhi	.L102
 882:.\Generated_Source\PSoC5/BL.c ****                             CyEEPROM_Start();
 710              		.loc 1 882 0
 711 01fc FFF7FEFF 		bl	CyEEPROM_Start
 712              	.LVL94:
 885:.\Generated_Source\PSoC5/BL.c ****                             pktSize = CY_EEPROM_SIZEOF_ROW;
 713              		.loc 1 885 0
 714 0200 1024     		movs	r4, #16
 715 0202 01E0     		b	.L67
 716              	.LVL95:
 717              	.L102:
 890:.\Generated_Source\PSoC5/BL.c ****                             pktSize = BL_FROW_SIZE;
 718              		.loc 1 890 0
 719 0204 4FF49074 		mov	r4, #288
 720              	.LVL96:
 721              	.L67:
 899:.\Generated_Source\PSoC5/BL.c ****                     if(dataOffset == pktSize)
 722              		.loc 1 899 0
 723 0208 A642     		cmp	r6, r4
 724 020a 40F09780 		bne	.L103
 902:.\Generated_Source\PSoC5/BL.c ****                         dataOffset = ((uint16)((uint16)packetBuffer[BL_DATA_ADDR + 2u] << 8u)) |
 725              		.loc 1 902 0
 726 020e 9DF82E11 		ldrb	r1, [sp, #302]	@ zero_extendqisi2
 727 0212 9DF82D71 		ldrb	r7, [sp, #301]	@ zero_extendqisi2
 906:.\Generated_Source\PSoC5/BL.c ****                             if(btldrData <= BL_LAST_FLASH_ARRAYID)
 728              		.loc 1 906 0
 729 0216 BBF13F0F 		cmp	fp, #63
 902:.\Generated_Source\PSoC5/BL.c ****                         dataOffset = ((uint16)((uint16)packetBuffer[BL_DATA_ADDR + 2u] << 8u)) |
 730              		.loc 1 902 0
 731 021a 47EA0125 		orr	r5, r7, r1, lsl #8
 732              	.LVL97:
 906:.\Generated_Source\PSoC5/BL.c ****                             if(btldrData <= BL_LAST_FLASH_ARRAYID)
 733              		.loc 1 906 0
 734 021e 11D8     		bhi	.L68
 912:.\Generated_Source\PSoC5/BL.c ****                             if(0u == clearedMetaData)
ARM GAS  C:\Users\MICHA_~1\AppData\Local\Temp\ccX8T6Q1.s 			page 42


 735              		.loc 1 912 0
 736 0220 BAF1000F 		cmp	sl, #0
 737 0224 0ED1     		bne	.L68
 738              	.LBB24:
 921:.\Generated_Source\PSoC5/BL.c ****                                     (void) memset(erase, 0, BL_FROW_SIZE);
 739              		.loc 1 921 0
 740 0226 5146     		mov	r1, sl
 741 0228 4FF49072 		mov	r2, #288
 742 022c 02A8     		add	r0, sp, #8
 743 022e FFF7FEFF 		bl	memset
 744              	.LVL98:
 927:.\Generated_Source\PSoC5/BL.c ****                                     (void) CyWriteRowFull((uint8)  BL_MD_FLASH_ARRAY_NUM,
 745              		.loc 1 927 0
 746 0232 0120     		movs	r0, #1
 747 0234 FF21     		movs	r1, #255
 748 0236 02AA     		add	r2, sp, #8
 749 0238 4FF49073 		mov	r3, #288
 750 023c FFF7FEFF 		bl	CyWriteRowFull
 751              	.LVL99:
 934:.\Generated_Source\PSoC5/BL.c ****                                 clearedMetaData = 1u;
 752              		.loc 1 934 0
 753 0240 4FF0010A 		mov	sl, #1
 754              	.LVL100:
 755              	.L68:
 756              	.LBE24:
1002:.\Generated_Source\PSoC5/BL.c ****                             ackCode = (CYRET_SUCCESS != CyWriteRowFull(btldrData, dataOffset, dataB
 757              		.loc 1 1002 0
 758 0244 3346     		mov	r3, r6
 759 0246 5846     		mov	r0, fp
 760 0248 2946     		mov	r1, r5
 761 024a 95AA     		add	r2, sp, #596
 762 024c FFF7FEFF 		bl	CyWriteRowFull
 763              	.LVL101:
 764 0250 0126     		movs	r6, #1
 765 0252 0028     		cmp	r0, #0
 766 0254 75D0     		beq	.L104
1014:.\Generated_Source\PSoC5/BL.c ****                     dataOffset = 0u;
 767              		.loc 1 1014 0
 768 0256 0027     		movs	r7, #0
1002:.\Generated_Source\PSoC5/BL.c ****                             ackCode = (CYRET_SUCCESS != CyWriteRowFull(btldrData, dataOffset, dataB
 769              		.loc 1 1002 0
 770 0258 0A25     		movs	r5, #10
 771              	.LVL102:
 772 025a 75E0     		b	.L131
 773              	.LVL103:
 774              	.L69:
1026:.\Generated_Source\PSoC5/BL.c ****                 if(BL_COMMUNICATION_STATE_ACTIVE == communicationState)
 775              		.loc 1 1026 0
 776 025c 002E     		cmp	r6, #0
 777 025e 77D0     		beq	.L90
 778 0260 7AE0     		b	.L70
 779              	.L71:
1077:.\Generated_Source\PSoC5/BL.c ****                     if(BL_COMMUNICATION_STATE_ACTIVE == communicationState)
 780              		.loc 1 1077 0
 781 0262 002E     		cmp	r6, #0
 782 0264 74D0     		beq	.L90
1080:.\Generated_Source\PSoC5/BL.c ****                         if((dataOffset + pktSize) <= BL_SIZEOF_COMMAND_BUFFER)
ARM GAS  C:\Users\MICHA_~1\AppData\Local\Temp\ccX8T6Q1.s 			page 43


 783              		.loc 1 1080 0
 784 0266 7C19     		adds	r4, r7, r5
 785 0268 B4F5967F 		cmp	r4, #300
 786 026c 6ED8     		bhi	.L89
 787              	.LVL104:
1089:.\Generated_Source\PSoC5/BL.c ****                                 (void) memcpy(&dataBuffer[dataOffset],
 788              		.loc 1 1089 0
 789 026e 95A9     		add	r1, sp, #596
 790 0270 C819     		adds	r0, r1, r7
 791 0272 2A46     		mov	r2, r5
 792 0274 4BA9     		add	r1, sp, #300
 793              	.LVL105:
 794 0276 FFF7FEFF 		bl	memcpy
 795              	.LVL106:
1094:.\Generated_Source\PSoC5/BL.c ****                             dataOffset += pktSize;
 796              		.loc 1 1094 0
 797 027a A7B2     		uxth	r7, r4
 798              	.LVL107:
 799              	.L133:
1082:.\Generated_Source\PSoC5/BL.c ****                             ackCode = CYRET_SUCCESS;
 800              		.loc 1 1082 0
 801 027c 0025     		movs	r5, #0
 802 027e 63E0     		b	.L131
 803              	.LVL108:
 804              	.L72:
1112:.\Generated_Source\PSoC5/BL.c ****                 if(pktSize == 0u)
 805              		.loc 1 1112 0
 806 0280 002D     		cmp	r5, #0
 807 0282 65D1     		bne	.L90
 808              	.LBB25:
1121:.\Generated_Source\PSoC5/BL.c ****                         BL_ENTER CYDATA BtldrVersion =
 809              		.loc 1 1121 0
 810 0284 3A48     		ldr	r0, .L138
 811 0286 02AE     		add	r6, sp, #8
1135:.\Generated_Source\PSoC5/BL.c ****                         (void) memcpy(&packetBuffer[BL_DATA_ADDR],
 812              		.loc 1 1135 0
 813 0288 4BAC     		add	r4, sp, #300
 814              	.LVL109:
1121:.\Generated_Source\PSoC5/BL.c ****                         BL_ENTER CYDATA BtldrVersion =
 815              		.loc 1 1121 0
 816 028a 03C8     		ldmia	r0, {r0, r1}
 817 028c 86E80300 		stmia	r6, {r0, r1}
 818              	.LVL110:
1135:.\Generated_Source\PSoC5/BL.c ****                         (void) memcpy(&packetBuffer[BL_DATA_ADDR],
 819              		.loc 1 1135 0
 820 0290 84E80300 		stmia	r4, {r0, r1}
 821              	.LVL111:
1126:.\Generated_Source\PSoC5/BL.c ****                     communicationState = BL_COMMUNICATION_STATE_ACTIVE;
 822              		.loc 1 1126 0
 823 0294 0126     		movs	r6, #1
1128:.\Generated_Source\PSoC5/BL.c ****                     rspSize = sizeof(BL_ENTER);
 824              		.loc 1 1128 0
 825 0296 0824     		movs	r4, #8
 826              	.LVL112:
 827 0298 21E7     		b	.L61
 828              	.LVL113:
 829              	.L73:
ARM GAS  C:\Users\MICHA_~1\AppData\Local\Temp\ccX8T6Q1.s 			page 44


 830              	.LBE25:
1150:.\Generated_Source\PSoC5/BL.c ****                 if((BL_COMMUNICATION_STATE_ACTIVE == communicationState) && (pktSize == 3u))
 831              		.loc 1 1150 0
 832 029a 002E     		cmp	r6, #0
 833 029c 58D0     		beq	.L90
1150:.\Generated_Source\PSoC5/BL.c ****                 if((BL_COMMUNICATION_STATE_ACTIVE == communicationState) && (pktSize == 3u))
 834              		.loc 1 1150 0 is_stmt 0 discriminator 1
 835 029e 032D     		cmp	r5, #3
 836 02a0 56D1     		bne	.L90
 837              	.LBB26:
1153:.\Generated_Source\PSoC5/BL.c ****                     uint16 CYDATA rowNum = ((uint16)((uint16)packetBuffer[BL_DATA_ADDR + 2u] << 8u)
 838              		.loc 1 1153 0 is_stmt 1
 839 02a2 9DF82E01 		ldrb	r0, [sp, #302]	@ zero_extendqisi2
 840 02a6 9DF82D11 		ldrb	r1, [sp, #301]	@ zero_extendqisi2
1161:.\Generated_Source\PSoC5/BL.c ****                         if((btldrData >= BL_FIRST_EE_ARRAYID) &&
 841              		.loc 1 1161 0
 842 02aa ABF14002 		sub	r2, fp, #64
 843 02ae 3F2A     		cmp	r2, #63
1153:.\Generated_Source\PSoC5/BL.c ****                     uint16 CYDATA rowNum = ((uint16)((uint16)packetBuffer[BL_DATA_ADDR + 2u] << 8u)
 844              		.loc 1 1153 0
 845 02b0 41EA0025 		orr	r5, r1, r0, lsl #8
 846              	.LVL114:
1161:.\Generated_Source\PSoC5/BL.c ****                         if((btldrData >= BL_FIRST_EE_ARRAYID) &&
 847              		.loc 1 1161 0
 848 02b4 0AD8     		bhi	.L74
1166:.\Generated_Source\PSoC5/BL.c ****                             rowAddr = (uint32)rowNum * CYDEV_EEPROM_ROW_SIZE;
 849              		.loc 1 1166 0
 850 02b6 2D01     		lsls	r5, r5, #4
 851              	.LVL115:
 227:.\Generated_Source\PSoC5/BL.c ****         uint8 CYDATA sum = 0u;
 852              		.loc 1 227 0
 853 02b8 0023     		movs	r3, #0
1166:.\Generated_Source\PSoC5/BL.c ****                             rowAddr = (uint32)rowNum * CYDEV_EEPROM_ROW_SIZE;
 854              		.loc 1 1166 0
 855 02ba 1022     		movs	r2, #16
 856              	.LVL116:
 857              	.L75:
 858              	.LBB27:
 859              	.LBB28:
 610:.\Generated_Source\PSoC5/BL.c **** static void BL_HostLink(uint8 timeOut) 
 860              		.loc 1 610 0
 861 02bc 2D48     		ldr	r0, .L138+4
 862 02be 1118     		adds	r1, r2, r0
 232:.\Generated_Source\PSoC5/BL.c ****             sum += BL_GET_EEPROM_BYTE(start + size);
 863              		.loc 1 232 0
 864 02c0 4C5D     		ldrb	r4, [r1, r5]	@ zero_extendqisi2
 229:.\Generated_Source\PSoC5/BL.c ****         while (size > 0u)
 865              		.loc 1 229 0
 866 02c2 013A     		subs	r2, r2, #1
 867              	.LVL117:
 232:.\Generated_Source\PSoC5/BL.c ****             sum += BL_GET_EEPROM_BYTE(start + size);
 868              		.loc 1 232 0
 869 02c4 2344     		add	r3, r3, r4
 870 02c6 DBB2     		uxtb	r3, r3
 871              	.LVL118:
 229:.\Generated_Source\PSoC5/BL.c ****         while (size > 0u)
 872              		.loc 1 229 0
ARM GAS  C:\Users\MICHA_~1\AppData\Local\Temp\ccX8T6Q1.s 			page 45


 873 02c8 F8D1     		bne	.L75
 874 02ca 26E0     		b	.L79
 875              	.LVL119:
 876              	.L74:
 877              	.LBE28:
 878              	.LBE27:
1174:.\Generated_Source\PSoC5/BL.c ****                                        + ((uint32)rowNum * CYDEV_FLS_ROW_SIZE);
 879              		.loc 1 1174 0
 880 02cc 05EB0B23 		add	r3, r5, fp, lsl #8
1173:.\Generated_Source\PSoC5/BL.c ****                             rowAddr = ((uint32)btldrData * CYDEV_FLS_SECTOR_SIZE)
 881              		.loc 1 1173 0
 882 02d0 1C02     		lsls	r4, r3, #8
 883              	.LVL120:
 884 02d2 4FF48072 		mov	r2, #256
 192:.\Generated_Source\PSoC5/BL.c ****     uint8 CYDATA sum = 0u;
 885              		.loc 1 192 0
 886 02d6 0023     		movs	r3, #0
 887              	.LVL121:
 888              	.L77:
 889              	.LBB29:
 890              	.LBB30:
 196:.\Generated_Source\PSoC5/BL.c ****         size--;
 891              		.loc 1 196 0
 892 02d8 013A     		subs	r2, r2, #1
 893              	.LVL122:
 197:.\Generated_Source\PSoC5/BL.c ****         sum += BL_GET_CODE_BYTE(start + size);
 894              		.loc 1 197 0
 895 02da 105D     		ldrb	r0, [r2, r4]	@ zero_extendqisi2
 896 02dc 1918     		adds	r1, r3, r0
 897 02de CBB2     		uxtb	r3, r1
 898              	.LVL123:
 194:.\Generated_Source\PSoC5/BL.c ****     while (size > 0u)
 899              		.loc 1 194 0
 900 02e0 002A     		cmp	r2, #0
 901 02e2 F9D1     		bne	.L77
 902              	.LVL124:
 903              	.LBE30:
 904              	.LBE29:
1192:.\Generated_Source\PSoC5/BL.c ****                         if(btldrData <= BL_LAST_FLASH_ARRAYID)
 905              		.loc 1 1192 0
 906 02e4 BBF13F0F 		cmp	fp, #63
 907 02e8 17D8     		bhi	.L79
 908              	.LBB31:
1197:.\Generated_Source\PSoC5/BL.c ****                                         + ((uint32)rowNum * CYDEV_ECC_ROW_SIZE);
 909              		.loc 1 1197 0
 910 02ea 0BF51034 		add	r4, fp, #147456
 911              	.LVL125:
 912 02ee 05EB0420 		add	r0, r5, r4, lsl #8
1196:.\Generated_Source\PSoC5/BL.c ****                             rowAddr = CYDEV_ECC_BASE + ((uint32)btldrData * (CYDEV_FLS_SECTOR_SIZE 
 913              		.loc 1 1196 0
 914 02f2 4101     		lsls	r1, r0, #5
 915              	.LVL126:
 916              	.L78:
1201:.\Generated_Source\PSoC5/BL.c ****                                 checksum += CY_GET_XTND_REG8((uint8 CYFAR *)(rowAddr + tmpIndex));
 917              		.loc 1 1201 0 discriminator 2
 918 02f4 545C     		ldrb	r4, [r2, r1]	@ zero_extendqisi2
 919 02f6 0132     		adds	r2, r2, #1
ARM GAS  C:\Users\MICHA_~1\AppData\Local\Temp\ccX8T6Q1.s 			page 46


 920 02f8 1B19     		adds	r3, r3, r4
1199:.\Generated_Source\PSoC5/BL.c ****                             for(tmpIndex = 0u; tmpIndex < CYDEV_ECC_ROW_SIZE; tmpIndex++)
 921              		.loc 1 1199 0 discriminator 2
 922 02fa 202A     		cmp	r2, #32
1201:.\Generated_Source\PSoC5/BL.c ****                                 checksum += CY_GET_XTND_REG8((uint8 CYFAR *)(rowAddr + tmpIndex));
 923              		.loc 1 1201 0 discriminator 2
 924 02fc DBB2     		uxtb	r3, r3
 925              	.LVL127:
1199:.\Generated_Source\PSoC5/BL.c ****                             for(tmpIndex = 0u; tmpIndex < CYDEV_ECC_ROW_SIZE; tmpIndex++)
 926              		.loc 1 1199 0 discriminator 2
 927 02fe F9D1     		bne	.L78
 928              	.LBE31:
1213:.\Generated_Source\PSoC5/BL.c ****                     if((BL_MD_FLASH_ARRAY_NUM == btldrData) &&
 929              		.loc 1 1213 0
 930 0300 BBF1010F 		cmp	fp, #1
 931 0304 09D1     		bne	.L79
1213:.\Generated_Source\PSoC5/BL.c ****                     if((BL_MD_FLASH_ARRAY_NUM == btldrData) &&
 932              		.loc 1 1213 0 is_stmt 0 discriminator 1
 933 0306 FF2D     		cmp	r5, #255
 934 0308 07D1     		bne	.L79
1216:.\Generated_Source\PSoC5/BL.c ****                         checksum -= BL_MD_BTLDB_ACTIVE_VALUE  (BL_GET_APP_ID(rowNum));
 935              		.loc 1 1216 0 is_stmt 1
 936 030a 1B4D     		ldr	r5, .L138+8
 937              	.LVL128:
1217:.\Generated_Source\PSoC5/BL.c ****                         checksum -= BL_MD_BTLDB_VERIFIED_VALUE(BL_GET_APP_ID(rowNum));
 938              		.loc 1 1217 0
 939 030c 1B4C     		ldr	r4, .L138+12
1216:.\Generated_Source\PSoC5/BL.c ****                         checksum -= BL_MD_BTLDB_ACTIVE_VALUE  (BL_GET_APP_ID(rowNum));
 940              		.loc 1 1216 0
 941 030e 2878     		ldrb	r0, [r5, #0]	@ zero_extendqisi2
 942 0310 191A     		subs	r1, r3, r0
 943              	.LVL129:
1217:.\Generated_Source\PSoC5/BL.c ****                         checksum -= BL_MD_BTLDB_VERIFIED_VALUE(BL_GET_APP_ID(rowNum));
 944              		.loc 1 1217 0
 945 0312 2378     		ldrb	r3, [r4, #0]	@ zero_extendqisi2
 946 0314 CA1A     		subs	r2, r1, r3
 947 0316 02F0FF03 		and	r3, r2, #255
 948              	.LVL130:
 949              	.L79:
1220:.\Generated_Source\PSoC5/BL.c ****                     packetBuffer[BL_DATA_ADDR] = (uint8)1u + (uint8)(~checksum);
 950              		.loc 1 1220 0
 951 031a 5D42     		negs	r5, r3
 952 031c 8DF82C51 		strb	r5, [sp, #300]
 953              	.LVL131:
1221:.\Generated_Source\PSoC5/BL.c ****                     ackCode = CYRET_SUCCESS;
 954              		.loc 1 1221 0
 955 0320 0025     		movs	r5, #0
 956              	.LVL132:
 957              	.L132:
1222:.\Generated_Source\PSoC5/BL.c ****                     rspSize = 1u;
 958              		.loc 1 1222 0
 959 0322 0124     		movs	r4, #1
 960 0324 DBE6     		b	.L61
 961              	.LVL133:
 962              	.L80:
 963              	.LBE26:
1232:.\Generated_Source\PSoC5/BL.c ****                 if(CYRET_SUCCESS == BL_ValidateBootloadable(BL_activeApp))
ARM GAS  C:\Users\MICHA_~1\AppData\Local\Temp\ccX8T6Q1.s 			page 47


 964              		.loc 1 1232 0
 965 0326 FFF7FEFF 		bl	BL_ValidateBootloadable.constprop.0
 966              	.LVL134:
 967 032a 10B9     		cbnz	r0, .L81
1234:.\Generated_Source\PSoC5/BL.c ****                     BL_SET_RUN_TYPE(BL_START_APP);
 968              		.loc 1 1234 0
 969 032c 144D     		ldr	r5, .L138+16
 970              	.LVL135:
 971 032e 8024     		movs	r4, #128
 972 0330 2C70     		strb	r4, [r5, #0]
 973              	.L81:
1237:.\Generated_Source\PSoC5/BL.c ****                 CySoftwareReset();
 974              		.loc 1 1237 0
 975 0332 FFF7FEFF 		bl	CySoftwareReset
 976              	.LVL136:
 977 0336 0BE0     		b	.L90
 978              	.LVL137:
 979              	.L96:
 697:.\Generated_Source\PSoC5/BL.c ****             ackCode = BL_ERR_DATA;
 980              		.loc 1 697 0
 981 0338 0425     		movs	r5, #4
 982              	.LVL138:
 983 033a D0E6     		b	.L61
 984              	.LVL139:
 985              	.L103:
 899:.\Generated_Source\PSoC5/BL.c ****                     if(dataOffset == pktSize)
 986              		.loc 1 899 0
 987 033c 0126     		movs	r6, #1
 988              	.LVL140:
1014:.\Generated_Source\PSoC5/BL.c ****                     dataOffset = 0u;
 989              		.loc 1 1014 0
 990 033e 0027     		movs	r7, #0
 991              	.LVL141:
 992 0340 04E0     		b	.L89
 993              	.LVL142:
 994              	.L104:
 995 0342 0746     		mov	r7, r0
 996 0344 9AE7     		b	.L133
 997              	.LVL143:
 998              	.L110:
1247:.\Generated_Source\PSoC5/BL.c ****                 ackCode = BL_ERR_CMD;
 999              		.loc 1 1247 0
 1000 0346 0525     		movs	r5, #5
 1001              	.LVL144:
 1002              	.L131:
 692:.\Generated_Source\PSoC5/BL.c ****         rspSize = 0u;
 1003              		.loc 1 692 0
 1004 0348 0024     		movs	r4, #0
 1005 034a C8E6     		b	.L61
 1006              	.L89:
 1007              	.LBE36:
 675:.\Generated_Source\PSoC5/BL.c ****                 ackCode = BL_ERR_LENGTH;
 1008              		.loc 1 675 0
 1009 034c 0325     		movs	r5, #3
 1010 034e FBE7     		b	.L131
 1011              	.L90:
 663:.\Generated_Source\PSoC5/BL.c ****             ackCode = BL_ERR_DATA;
ARM GAS  C:\Users\MICHA_~1\AppData\Local\Temp\ccX8T6Q1.s 			page 48


 1012              		.loc 1 663 0
 1013 0350 0425     		movs	r5, #4
 1014 0352 F9E7     		b	.L131
 1015              	.LVL145:
 1016              	.L91:
 684:.\Generated_Source\PSoC5/BL.c ****                 ackCode = BL_ERR_CHECKSUM;
 1017              		.loc 1 684 0
 1018 0354 0825     		movs	r5, #8
 1019              	.LVL146:
 1020 0356 F7E7     		b	.L131
 1021              	.LVL147:
 1022              	.L70:
1255:.\Generated_Source\PSoC5/BL.c ****     } while ((0u == timeOut) || (BL_COMMUNICATION_STATE_ACTIVE == communicationState));
 1023              		.loc 1 1255 0
 1024 0358 B8F1000F 		cmp	r8, #0
 1025 035c 01D1     		bne	.L137
 1026              	.L111:
1029:.\Generated_Source\PSoC5/BL.c ****                     dataOffset = 0u;
 1027              		.loc 1 1029 0
 1028 035e 4746     		mov	r7, r8
 1029 0360 5EE6     		b	.L112
 1030              	.L137:
 1031 0362 0027     		movs	r7, #0
 1032 0364 EDE6     		b	.L84
 1033              	.LVL148:
 1034              	.L136:
1256:.\Generated_Source\PSoC5/BL.c **** }
 1035              		.loc 1 1256 0
 1036 0366 0DF5617D 		add	sp, sp, #900
 1037 036a BDE8F08F 		pop	{r4, r5, r6, r7, r8, r9, sl, fp, pc}
 1038              	.L139:
 1039 036e 00BF     		.align	2
 1040              	.L138:
 1041 0370 00000000 		.word	.LANCHOR0
 1042 0374 FF7F0040 		.word	1073774591
 1043 0378 D0FF0100 		.word	131024
 1044 037c D1FF0100 		.word	131025
 1045 0380 FA460040 		.word	1073759994
 1046              		.cfi_endproc
 1047              	.LFE64:
 1048              		.size	BL_HostLink, .-BL_HostLink
 1049              		.section	.text.BL_Start,"ax",%progbits
 1050              		.align	1
 1051              		.global	BL_Start
 1052              		.thumb
 1053              		.thumb_func
 1054              		.type	BL_Start, %function
 1055              	BL_Start:
 1056              	.LFB59:
 273:.\Generated_Source\PSoC5/BL.c **** {
 1057              		.loc 1 273 0
 1058              		.cfi_startproc
 1059              		@ args = 0, pretend = 0, frame = 288
 1060              		@ frame_needed = 0, uses_anonymous_args = 0
 1061 0000 10B5     		push	{r4, lr}
 1062              	.LCFI4:
 1063              		.cfi_def_cfa_offset 8
ARM GAS  C:\Users\MICHA_~1\AppData\Local\Temp\ccX8T6Q1.s 			page 49


 1064              		.cfi_offset 4, -8
 1065              		.cfi_offset 14, -4
 1066 0002 C8B0     		sub	sp, sp, #288
 1067              	.LCFI5:
 1068              		.cfi_def_cfa_offset 296
 306:.\Generated_Source\PSoC5/BL.c ****         if (CYRET_SUCCESS != CySetTemp())
 1069              		.loc 1 306 0
 1070 0004 FFF7FEFF 		bl	CySetTemp
 1071              	.LVL149:
 1072 0008 10B1     		cbz	r0, .L141
 308:.\Generated_Source\PSoC5/BL.c ****             CyHalt(0x00u);
 1073              		.loc 1 308 0
 1074 000a 0020     		movs	r0, #0
 1075 000c FFF7FEFF 		bl	CyHalt
 1076              	.LVL150:
 1077              	.L141:
 311:.\Generated_Source\PSoC5/BL.c ****         if (CYRET_SUCCESS != CySetFlashEEBuffer(BL_flashBuffer))
 1078              		.loc 1 311 0
 1079 0010 6846     		mov	r0, sp
 1080 0012 FFF7FEFF 		bl	CySetFlashEEBuffer
 1081              	.LVL151:
 1082 0016 10B1     		cbz	r0, .L142
 313:.\Generated_Source\PSoC5/BL.c ****             CyHalt(0x00u);
 1083              		.loc 1 313 0
 1084 0018 0020     		movs	r0, #0
 1085 001a FFF7FEFF 		bl	CyHalt
 1086              	.LVL152:
 1087              	.L142:
 329:.\Generated_Source\PSoC5/BL.c ****         calcedChecksum = BL_Calc8BitFlashSum(BL_MD_BTLDR_ADDR_PTR,
 1088              		.loc 1 329 0
 1089 001e 1648     		ldr	r0, .L162
 1090 0020 0368     		ldr	r3, [r0, #0]
 1091 0022 1968     		ldr	r1, [r3, #0]
 1092              	.LVL153:
 192:.\Generated_Source\PSoC5/BL.c ****     uint8 CYDATA sum = 0u;
 1093              		.loc 1 192 0
 1094 0024 0023     		movs	r3, #0
 329:.\Generated_Source\PSoC5/BL.c ****         calcedChecksum = BL_Calc8BitFlashSum(BL_MD_BTLDR_ADDR_PTR,
 1095              		.loc 1 329 0
 1096 0026 0A46     		mov	r2, r1
 1097              	.LVL154:
 1098              	.L143:
 1099              	.LBB41:
 1100              	.LBB42:
 194:.\Generated_Source\PSoC5/BL.c ****     while (size > 0u)
 1101              		.loc 1 194 0
 1102 0028 22B1     		cbz	r2, .L161
 1103              	.L144:
 197:.\Generated_Source\PSoC5/BL.c ****         sum += BL_GET_CODE_BYTE(start + size);
 1104              		.loc 1 197 0
 1105 002a 12F8014D 		ldrb	r4, [r2, #-1]!	@ zero_extendqisi2
 1106 002e E318     		adds	r3, r4, r3
 1107              	.LVL155:
 1108 0030 DBB2     		uxtb	r3, r3
 1109              	.LVL156:
 1110 0032 F9E7     		b	.L143
 1111              	.L161:
ARM GAS  C:\Users\MICHA_~1\AppData\Local\Temp\ccX8T6Q1.s 			page 50


 1112              	.LBE42:
 1113              	.LBE41:
 333:.\Generated_Source\PSoC5/BL.c ****         calcedChecksum -= *BL_ChecksumAccess;
 1114              		.loc 1 333 0
 1115 0034 4268     		ldr	r2, [r0, #4]
 1116 0036 1078     		ldrb	r0, [r2, #0]	@ zero_extendqisi2
 1117              	.LVL157:
 334:.\Generated_Source\PSoC5/BL.c ****         calcedChecksum = ( uint8 )1u + ( uint8 )(~calcedChecksum);
 1118              		.loc 1 334 0
 1119 0038 C41A     		subs	r4, r0, r3
 337:.\Generated_Source\PSoC5/BL.c ****         if((calcedChecksum != *BL_ChecksumAccess) ||
 1120              		.loc 1 337 0
 1121 003a 04F0FF03 		and	r3, r4, #255
 1122              	.LVL158:
 1123 003e 8342     		cmp	r3, r0
 1124 0040 00D1     		bne	.L145
 337:.\Generated_Source\PSoC5/BL.c ****         if((calcedChecksum != *BL_ChecksumAccess) ||
 1125              		.loc 1 337 0 is_stmt 0 discriminator 1
 1126 0042 11B9     		cbnz	r1, .L146
 1127              	.L145:
 340:.\Generated_Source\PSoC5/BL.c ****             CyHalt(0x00u);
 1128              		.loc 1 340 0 is_stmt 1
 1129 0044 0020     		movs	r0, #0
 1130 0046 FFF7FEFF 		bl	CyHalt
 1131              	.LVL159:
 1132              	.L146:
 356:.\Generated_Source\PSoC5/BL.c ****     if ((BL_GET_RUN_TYPE == BL_START_BTLDR) ||
 1133              		.loc 1 356 0
 1134 004a 0C4C     		ldr	r4, .L162+4
 354:.\Generated_Source\PSoC5/BL.c ****     tmpStatus = BL_ValidateBootloadable(BL_activeApp);
 1135              		.loc 1 354 0
 1136 004c FFF7FEFF 		bl	BL_ValidateBootloadable.constprop.0
 1137              	.LVL160:
 356:.\Generated_Source\PSoC5/BL.c ****     if ((BL_GET_RUN_TYPE == BL_START_BTLDR) ||
 1138              		.loc 1 356 0
 1139 0050 2178     		ldrb	r1, [r4, #0]	@ zero_extendqisi2
 1140 0052 01F0C002 		and	r2, r1, #192
 1141 0056 402A     		cmp	r2, #64
 1142 0058 00D0     		beq	.L147
 356:.\Generated_Source\PSoC5/BL.c ****     if ((BL_GET_RUN_TYPE == BL_START_BTLDR) ||
 1143              		.loc 1 356 0 is_stmt 0 discriminator 1
 1144 005a 18B1     		cbz	r0, .L148
 1145              	.L147:
 359:.\Generated_Source\PSoC5/BL.c ****         BL_SET_RUN_TYPE(0u);
 1146              		.loc 1 359 0 is_stmt 1
 1147 005c 0020     		movs	r0, #0
 1148              	.LVL161:
 1149 005e 2070     		strb	r0, [r4, #0]
 361:.\Generated_Source\PSoC5/BL.c ****         BL_HostLink(BL_WAIT_FOR_COMMAND_FOREVER);
 1150              		.loc 1 361 0
 1151 0060 FFF7FEFF 		bl	BL_HostLink
 1152              	.LVL162:
 1153              	.L148:
 369:.\Generated_Source\PSoC5/BL.c ****         BL_HostLink(BL_WAIT_FOR_COMMAND_TIME);
 1154              		.loc 1 369 0
 1155 0064 1420     		movs	r0, #20
 1156 0066 FFF7FEFF 		bl	BL_HostLink
ARM GAS  C:\Users\MICHA_~1\AppData\Local\Temp\ccX8T6Q1.s 			page 51


 1157              	.LVL163:
 1158              	.LBB43:
 1159              	.LBB44:
 396:.\Generated_Source\PSoC5/BL.c ****     BL_SET_RUN_TYPE(BL_START_APP);
 1160              		.loc 1 396 0
 1161 006a 8020     		movs	r0, #128
 1162 006c 2070     		strb	r0, [r4, #0]
 398:.\Generated_Source\PSoC5/BL.c ****     CySoftwareReset();
 1163              		.loc 1 398 0
 1164 006e FFF7FEFF 		bl	CySoftwareReset
 1165              	.LVL164:
 1166              	.LBE44:
 1167              	.LBE43:
 376:.\Generated_Source\PSoC5/BL.c **** }
 1168              		.loc 1 376 0
 1169 0072 48B0     		add	sp, sp, #288
 1170 0074 10BD     		pop	{r4, pc}
 1171              	.L163:
 1172 0076 00BF     		.align	2
 1173              	.L162:
 1174 0078 00000000 		.word	.LANCHOR1
 1175 007c FA460040 		.word	1073759994
 1176              		.cfi_endproc
 1177              	.LFE59:
 1178              		.size	BL_Start, .-BL_Start
 1179              		.section	.text.CyBtldr_CheckLaunch,"ax",%progbits
 1180              		.align	1
 1181              		.global	CyBtldr_CheckLaunch
 1182              		.thumb
 1183              		.thumb_func
 1184              		.type	CyBtldr_CheckLaunch, %function
 1185              	CyBtldr_CheckLaunch:
 1186              	.LFB61:
 420:.\Generated_Source\PSoC5/BL.c **** {
 1187              		.loc 1 420 0
 1188              		.cfi_startproc
 1189              		@ args = 0, pretend = 0, frame = 0
 1190              		@ frame_needed = 0, uses_anonymous_args = 0
 1191 0000 08B5     		push	{r3, lr}
 1192              	.LCFI6:
 1193              		.cfi_def_cfa_offset 8
 1194              		.cfi_offset 3, -8
 1195              		.cfi_offset 14, -4
 437:.\Generated_Source\PSoC5/BL.c ****     if (BL_GET_RUN_TYPE == BL_START_APP)
 1196              		.loc 1 437 0
 1197 0002 0A4B     		ldr	r3, .L171
 1198 0004 1A78     		ldrb	r2, [r3, #0]	@ zero_extendqisi2
 1199 0006 02F0C000 		and	r0, r2, #192
 1200 000a 8028     		cmp	r0, #128
 1201 000c 0CD1     		bne	.L164
 439:.\Generated_Source\PSoC5/BL.c ****         BL_SET_RUN_TYPE(0u);
 1202              		.loc 1 439 0
 1203 000e 0021     		movs	r1, #0
 1204 0010 1970     		strb	r1, [r3, #0]
 447:.\Generated_Source\PSoC5/BL.c ****         if(0u != BL_GetMetadata(BL_GET_METADATA_BTLDB_ADDR, BL_activeApp))
 1205              		.loc 1 447 0
 1206 0012 0120     		movs	r0, #1
ARM GAS  C:\Users\MICHA_~1\AppData\Local\Temp\ccX8T6Q1.s 			page 52


 1207 0014 FFF7FEFF 		bl	BL_GetMetadata.constprop.1
 1208              	.LVL165:
 1209 0018 30B1     		cbz	r0, .L164
 450:.\Generated_Source\PSoC5/BL.c ****             BL_LaunchBootloadable(BL_GetMetadata(BL_GET_METADATA_BTLDB_ADDR,
 1210              		.loc 1 450 0
 1211 001a 0120     		movs	r0, #1
 1212 001c FFF7FEFF 		bl	BL_GetMetadata.constprop.1
 1213              	.LVL166:
 454:.\Generated_Source\PSoC5/BL.c **** }
 1214              		.loc 1 454 0
 1215 0020 BDE80840 		pop	{r3, lr}
 450:.\Generated_Source\PSoC5/BL.c ****             BL_LaunchBootloadable(BL_GetMetadata(BL_GET_METADATA_BTLDB_ADDR,
 1216              		.loc 1 450 0
 1217 0024 FFF7FEBF 		b	BL_LaunchBootloadable
 1218              	.LVL167:
 1219              	.L164:
 1220 0028 08BD     		pop	{r3, pc}
 1221              	.L172:
 1222 002a 00BF     		.align	2
 1223              	.L171:
 1224 002c FA460040 		.word	1073759994
 1225              		.cfi_endproc
 1226              	.LFE61:
 1227              		.size	CyBtldr_CheckLaunch, .-CyBtldr_CheckLaunch
 1228              		.section	.text.BL_SetFlashByte,"ax",%progbits
 1229              		.align	1
 1230              		.global	BL_SetFlashByte
 1231              		.thumb
 1232              		.thumb_func
 1233              		.type	BL_SetFlashByte, %function
 1234              	BL_SetFlashByte:
 1235              	.LFB66:
1322:.\Generated_Source\PSoC5/BL.c **** {
 1236              		.loc 1 1322 0
 1237              		.cfi_startproc
 1238              		@ args = 0, pretend = 0, frame = 256
 1239              		@ frame_needed = 0, uses_anonymous_args = 0
 1240              	.LVL168:
 1241 0000 70B5     		push	{r4, r5, r6, lr}
 1242              	.LCFI7:
 1243              		.cfi_def_cfa_offset 16
 1244              		.cfi_offset 4, -16
 1245              		.cfi_offset 5, -12
 1246              		.cfi_offset 6, -8
 1247              		.cfi_offset 14, -4
1330:.\Generated_Source\PSoC5/BL.c ****     uint16 rowNum = ( uint16 )((flsAddr % CYDEV_FLS_SECTOR_SIZE) / CYDEV_FLS_ROW_SIZE);
 1248              		.loc 1 1330 0
 1249 0002 C0F30722 		ubfx	r2, r0, #8, #8
1322:.\Generated_Source\PSoC5/BL.c **** {
 1250              		.loc 1 1322 0
 1251 0006 C0B0     		sub	sp, sp, #256
 1252              	.LCFI8:
 1253              		.cfi_def_cfa_offset 272
1327:.\Generated_Source\PSoC5/BL.c ****         uint8 arrayId = ( uint8 )(flsAddr / CYDEV_FLS_SECTOR_SIZE);
 1254              		.loc 1 1327 0
 1255 0008 C0F30744 		ubfx	r4, r0, #16, #8
 1256              	.LVL169:
ARM GAS  C:\Users\MICHA_~1\AppData\Local\Temp\ccX8T6Q1.s 			page 53


1331:.\Generated_Source\PSoC5/BL.c ****     uint32 baseAddr = address - (address % CYDEV_FLS_ROW_SIZE);
 1257              		.loc 1 1331 0
 1258 000c 20F0FF06 		bic	r6, r0, #255
 1259              	.LVL170:
 1260 0010 0023     		movs	r3, #0
 1261              	.LVL171:
 1262              	.L174:
1336:.\Generated_Source\PSoC5/BL.c ****         rowData[idx] = BL_GET_CODE_BYTE(baseAddr + idx);
 1263              		.loc 1 1336 0 discriminator 2
 1264 0012 9D5D     		ldrb	r5, [r3, r6]	@ zero_extendqisi2
 1265 0014 0DF80350 		strb	r5, [sp, r3]
 1266 0018 0133     		adds	r3, r3, #1
1334:.\Generated_Source\PSoC5/BL.c ****     for(idx = 0u; idx < CYDEV_FLS_ROW_SIZE; idx++)
 1267              		.loc 1 1334 0 discriminator 2
 1268 001a B3F5807F 		cmp	r3, #256
 1269 001e F8D1     		bne	.L174
1339:.\Generated_Source\PSoC5/BL.c ****     rowData[address % CYDEV_FLS_ROW_SIZE] = runType;
 1270              		.loc 1 1339 0
 1271 0020 C0B2     		uxtb	r0, r0
 1272              	.LVL172:
 1273 0022 0DF80010 		strb	r1, [sp, r0]
1344:.\Generated_Source\PSoC5/BL.c ****         (void) CyWriteRowData(arrayId, rowNum, rowData);
 1274              		.loc 1 1344 0
 1275 0026 1146     		mov	r1, r2
 1276              	.LVL173:
 1277 0028 2046     		mov	r0, r4
 1278              	.LVL174:
 1279 002a 6A46     		mov	r2, sp
 1280              	.LVL175:
 1281 002c FFF7FEFF 		bl	CyWriteRowData
 1282              	.LVL176:
1346:.\Generated_Source\PSoC5/BL.c **** }
 1283              		.loc 1 1346 0
 1284 0030 40B0     		add	sp, sp, #256
 1285 0032 70BD     		pop	{r4, r5, r6, pc}
 1286              		.cfi_endproc
 1287              	.LFE66:
 1288              		.size	BL_SetFlashByte, .-BL_SetFlashByte
 1289              		.global	BL_SizeBytesAccess
 1290              		.global	BL_SizeBytes
 1291              		.global	BL_ChecksumAccess
 1292              		.global	BL_Checksum
 1293              		.section	.rodata
 1294              		.align	2
 1295              		.set	.LANCHOR0,. + 0
 1296              	.LC0:
 1297 0000 6930132E 		.word	773009513
 1298 0004 00       		.byte	0
 1299 0005 14       		.byte	20
 1300 0006 01       		.byte	1
 1301 0007 01       		.byte	1
 1302              		.section	.bootloader,"a",%progbits
 1303              		.align	2
 1304              		.type	BL_SizeBytes, %object
 1305              		.size	BL_SizeBytes, 4
 1306              	BL_SizeBytes:
 1307 0000 FFFFFFFF 		.word	-1
ARM GAS  C:\Users\MICHA_~1\AppData\Local\Temp\ccX8T6Q1.s 			page 54


 1308              		.type	BL_Checksum, %object
 1309              		.size	BL_Checksum, 1
 1310              	BL_Checksum:
 1311 0004 00       		.space	1
 1312 0005 000000   		.data
 1313              		.align	2
 1314              		.set	.LANCHOR1,. + 0
 1315              		.type	BL_SizeBytesAccess, %object
 1316              		.size	BL_SizeBytesAccess, 4
 1317              	BL_SizeBytesAccess:
 1318 0000 00000000 		.word	BL_SizeBytes
 1319              		.type	BL_ChecksumAccess, %object
 1320              		.size	BL_ChecksumAccess, 4
 1321              	BL_ChecksumAccess:
 1322 0004 00000000 		.word	BL_Checksum
 1323              		.text
 1324              	.Letext0:
 1325              		.file 2 "c:\\program files (x86)\\cypress\\psoc creator\\3.0\\psoc creator\\import\\gnu_cs\\arm\\4
 1326              		.file 3 ".\\Generated_Source\\PSoC5\\cytypes.h"
 1327              		.file 4 ".\\Generated_Source\\PSoC5\\BL_PVT.h"
 1328              		.file 5 "./Generated_Source/PSoC5/core_cm3.h"
 1329              		.file 6 "./Generated_Source/PSoC5/CyFlash.h"
 1330              		.file 7 "./Generated_Source/PSoC5/CyLib.h"
 1331              		.file 8 "./Generated_Source/PSoC5/USBFS.h"
 1332              		.section	.debug_info,"",%progbits
 1333              	.Ldebug_info0:
 1334 0000 EE0B0000 		.4byte	0xbee
 1335 0004 0200     		.2byte	0x2
 1336 0006 00000000 		.4byte	.Ldebug_abbrev0
 1337 000a 04       		.byte	0x4
 1338 000b 01       		.uleb128 0x1
 1339 000c F9010000 		.4byte	.LASF92
 1340 0010 01       		.byte	0x1
 1341 0011 42020000 		.4byte	.LASF93
 1342 0015 E3000000 		.4byte	.LASF94
 1343 0019 18000000 		.4byte	.Ldebug_ranges0+0x18
 1344 001d 00000000 		.4byte	0
 1345 0021 00000000 		.4byte	0
 1346 0025 00000000 		.4byte	.Ldebug_line0
 1347 0029 02       		.uleb128 0x2
 1348 002a 01       		.byte	0x1
 1349 002b 06       		.byte	0x6
 1350 002c 5E010000 		.4byte	.LASF0
 1351 0030 02       		.uleb128 0x2
 1352 0031 01       		.byte	0x1
 1353 0032 08       		.byte	0x8
 1354 0033 9F020000 		.4byte	.LASF1
 1355 0037 02       		.uleb128 0x2
 1356 0038 02       		.byte	0x2
 1357 0039 05       		.byte	0x5
 1358 003a 5D000000 		.4byte	.LASF2
 1359 003e 02       		.uleb128 0x2
 1360 003f 02       		.byte	0x2
 1361 0040 07       		.byte	0x7
 1362 0041 A9030000 		.4byte	.LASF3
 1363 0045 03       		.uleb128 0x3
 1364 0046 CE020000 		.4byte	.LASF9
ARM GAS  C:\Users\MICHA_~1\AppData\Local\Temp\ccX8T6Q1.s 			page 55


 1365 004a 02       		.byte	0x2
 1366 004b 4F       		.byte	0x4f
 1367 004c 50000000 		.4byte	0x50
 1368 0050 02       		.uleb128 0x2
 1369 0051 04       		.byte	0x4
 1370 0052 05       		.byte	0x5
 1371 0053 88030000 		.4byte	.LASF4
 1372 0057 02       		.uleb128 0x2
 1373 0058 04       		.byte	0x4
 1374 0059 07       		.byte	0x7
 1375 005a 16040000 		.4byte	.LASF5
 1376 005e 02       		.uleb128 0x2
 1377 005f 08       		.byte	0x8
 1378 0060 05       		.byte	0x5
 1379 0061 70010000 		.4byte	.LASF6
 1380 0065 02       		.uleb128 0x2
 1381 0066 08       		.byte	0x8
 1382 0067 07       		.byte	0x7
 1383 0068 D6020000 		.4byte	.LASF7
 1384 006c 04       		.uleb128 0x4
 1385 006d 04       		.byte	0x4
 1386 006e 05       		.byte	0x5
 1387 006f 696E7400 		.ascii	"int\000"
 1388 0073 02       		.uleb128 0x2
 1389 0074 04       		.byte	0x4
 1390 0075 07       		.byte	0x7
 1391 0076 A9040000 		.4byte	.LASF8
 1392 007a 03       		.uleb128 0x3
 1393 007b 33010000 		.4byte	.LASF10
 1394 007f 03       		.byte	0x3
 1395 0080 5B       		.byte	0x5b
 1396 0081 30000000 		.4byte	0x30
 1397 0085 03       		.uleb128 0x3
 1398 0086 0B010000 		.4byte	.LASF11
 1399 008a 03       		.byte	0x3
 1400 008b 5C       		.byte	0x5c
 1401 008c 3E000000 		.4byte	0x3e
 1402 0090 03       		.uleb128 0x3
 1403 0091 0A040000 		.4byte	.LASF12
 1404 0095 03       		.byte	0x3
 1405 0096 5D       		.byte	0x5d
 1406 0097 57000000 		.4byte	0x57
 1407 009b 02       		.uleb128 0x2
 1408 009c 04       		.byte	0x4
 1409 009d 04       		.byte	0x4
 1410 009e 6A010000 		.4byte	.LASF13
 1411 00a2 02       		.uleb128 0x2
 1412 00a3 08       		.byte	0x8
 1413 00a4 04       		.byte	0x4
 1414 00a5 30040000 		.4byte	.LASF14
 1415 00a9 02       		.uleb128 0x2
 1416 00aa 01       		.byte	0x1
 1417 00ab 08       		.byte	0x8
 1418 00ac 85010000 		.4byte	.LASF15
 1419 00b0 03       		.uleb128 0x3
 1420 00b1 0D030000 		.4byte	.LASF16
 1421 00b5 03       		.byte	0x3
ARM GAS  C:\Users\MICHA_~1\AppData\Local\Temp\ccX8T6Q1.s 			page 56


 1422 00b6 E8       		.byte	0xe8
 1423 00b7 57000000 		.4byte	0x57
 1424 00bb 03       		.uleb128 0x3
 1425 00bc 11040000 		.4byte	.LASF17
 1426 00c0 03       		.byte	0x3
 1427 00c1 F0       		.byte	0xf0
 1428 00c2 C6000000 		.4byte	0xc6
 1429 00c6 05       		.uleb128 0x5
 1430 00c7 7A000000 		.4byte	0x7a
 1431 00cb 06       		.uleb128 0x6
 1432 00cc 08       		.byte	0x8
 1433 00cd 04       		.byte	0x4
 1434 00ce 15       		.byte	0x15
 1435 00cf FE000000 		.4byte	0xfe
 1436 00d3 07       		.uleb128 0x7
 1437 00d4 CC030000 		.4byte	.LASF18
 1438 00d8 04       		.byte	0x4
 1439 00d9 17       		.byte	0x17
 1440 00da 90000000 		.4byte	0x90
 1441 00de 02       		.byte	0x2
 1442 00df 23       		.byte	0x23
 1443 00e0 00       		.uleb128 0
 1444 00e1 07       		.uleb128 0x7
 1445 00e2 93040000 		.4byte	.LASF19
 1446 00e6 04       		.byte	0x4
 1447 00e7 18       		.byte	0x18
 1448 00e8 7A000000 		.4byte	0x7a
 1449 00ec 02       		.byte	0x2
 1450 00ed 23       		.byte	0x23
 1451 00ee 04       		.uleb128 0x4
 1452 00ef 07       		.uleb128 0x7
 1453 00f0 4C010000 		.4byte	.LASF20
 1454 00f4 04       		.byte	0x4
 1455 00f5 19       		.byte	0x19
 1456 00f6 FE000000 		.4byte	0xfe
 1457 00fa 02       		.byte	0x2
 1458 00fb 23       		.byte	0x23
 1459 00fc 05       		.uleb128 0x5
 1460 00fd 00       		.byte	0
 1461 00fe 08       		.uleb128 0x8
 1462 00ff 7A000000 		.4byte	0x7a
 1463 0103 0E010000 		.4byte	0x10e
 1464 0107 09       		.uleb128 0x9
 1465 0108 0E010000 		.4byte	0x10e
 1466 010c 02       		.byte	0x2
 1467 010d 00       		.byte	0
 1468 010e 02       		.uleb128 0x2
 1469 010f 04       		.byte	0x4
 1470 0110 07       		.byte	0x7
 1471 0111 7E000000 		.4byte	.LASF21
 1472 0115 03       		.uleb128 0x3
 1473 0116 8A040000 		.4byte	.LASF22
 1474 011a 04       		.byte	0x4
 1475 011b 1B       		.byte	0x1b
 1476 011c CB000000 		.4byte	0xcb
 1477 0120 0A       		.uleb128 0xa
 1478 0121 04       		.byte	0x4
ARM GAS  C:\Users\MICHA_~1\AppData\Local\Temp\ccX8T6Q1.s 			page 57


 1479 0122 0B       		.uleb128 0xb
 1480 0123 04       		.byte	0x4
 1481 0124 28010000 		.4byte	0x128
 1482 0128 0C       		.uleb128 0xc
 1483 0129 0D       		.uleb128 0xd
 1484 012a 8A010000 		.4byte	.LASF25
 1485 012e 01       		.byte	0x1
 1486 012f E0       		.byte	0xe0
 1487 0130 01       		.byte	0x1
 1488 0131 7A000000 		.4byte	0x7a
 1489 0135 01       		.byte	0x1
 1490 0136 5C010000 		.4byte	0x15c
 1491 013a 0E       		.uleb128 0xe
 1492 013b 99020000 		.4byte	.LASF23
 1493 013f 01       		.byte	0x1
 1494 0140 E0       		.byte	0xe0
 1495 0141 90000000 		.4byte	0x90
 1496 0145 0E       		.uleb128 0xe
 1497 0146 43040000 		.4byte	.LASF24
 1498 014a 01       		.byte	0x1
 1499 014b E0       		.byte	0xe0
 1500 014c 90000000 		.4byte	0x90
 1501 0150 0F       		.uleb128 0xf
 1502 0151 73756D00 		.ascii	"sum\000"
 1503 0155 01       		.byte	0x1
 1504 0156 E3       		.byte	0xe3
 1505 0157 7A000000 		.4byte	0x7a
 1506 015b 00       		.byte	0
 1507 015c 10       		.uleb128 0x10
 1508 015d 9A030000 		.4byte	.LASF26
 1509 0161 01       		.byte	0x1
 1510 0162 5E05     		.2byte	0x55e
 1511 0164 01       		.byte	0x1
 1512 0165 90000000 		.4byte	0x90
 1513 0169 01       		.byte	0x1
 1514 016a AB010000 		.4byte	0x1ab
 1515 016e 11       		.uleb128 0x11
 1516 016f C5040000 		.4byte	.LASF27
 1517 0173 01       		.byte	0x1
 1518 0174 5E05     		.2byte	0x55e
 1519 0176 7A000000 		.4byte	0x7a
 1520 017a 11       		.uleb128 0x11
 1521 017b 15000000 		.4byte	.LASF28
 1522 017f 01       		.byte	0x1
 1523 0180 5E05     		.2byte	0x55e
 1524 0182 7A000000 		.4byte	0x7a
 1525 0186 12       		.uleb128 0x12
 1526 0187 70020000 		.4byte	.LASF29
 1527 018b 01       		.byte	0x1
 1528 018c 6005     		.2byte	0x560
 1529 018e 90000000 		.4byte	0x90
 1530 0192 12       		.uleb128 0x12
 1531 0193 42030000 		.4byte	.LASF30
 1532 0197 01       		.byte	0x1
 1533 0198 6105     		.2byte	0x561
 1534 019a 7A000000 		.4byte	0x7a
 1535 019e 12       		.uleb128 0x12
ARM GAS  C:\Users\MICHA_~1\AppData\Local\Temp\ccX8T6Q1.s 			page 58


 1536 019f 1B000000 		.4byte	.LASF31
 1537 01a3 01       		.byte	0x1
 1538 01a4 6205     		.2byte	0x562
 1539 01a6 90000000 		.4byte	0x90
 1540 01aa 00       		.byte	0
 1541 01ab 10       		.uleb128 0x10
 1542 01ac 1B010000 		.4byte	.LASF32
 1543 01b0 01       		.byte	0x1
 1544 01b1 F501     		.2byte	0x1f5
 1545 01b3 01       		.byte	0x1
 1546 01b4 B0000000 		.4byte	0xb0
 1547 01b8 01       		.byte	0x1
 1548 01b9 08020000 		.4byte	0x208
 1549 01bd 11       		.uleb128 0x11
 1550 01be 15000000 		.4byte	.LASF28
 1551 01c2 01       		.byte	0x1
 1552 01c3 F501     		.2byte	0x1f5
 1553 01c5 7A000000 		.4byte	0x7a
 1554 01c9 13       		.uleb128 0x13
 1555 01ca 69647800 		.ascii	"idx\000"
 1556 01ce 01       		.byte	0x1
 1557 01cf F801     		.2byte	0x1f8
 1558 01d1 90000000 		.4byte	0x90
 1559 01d5 13       		.uleb128 0x13
 1560 01d6 656E6400 		.ascii	"end\000"
 1561 01da 01       		.byte	0x1
 1562 01db FA01     		.2byte	0x1fa
 1563 01dd 90000000 		.4byte	0x90
 1564 01e1 12       		.uleb128 0x12
 1565 01e2 00000000 		.4byte	.LASF33
 1566 01e6 01       		.byte	0x1
 1567 01e7 FE01     		.2byte	0x1fe
 1568 01e9 7A000000 		.4byte	0x7a
 1569 01ed 12       		.uleb128 0x12
 1570 01ee CB010000 		.4byte	.LASF34
 1571 01f2 01       		.byte	0x1
 1572 01f3 FF01     		.2byte	0x1ff
 1573 01f5 7A000000 		.4byte	0x7a
 1574 01f9 14       		.uleb128 0x14
 1575 01fa 12       		.uleb128 0x12
 1576 01fb AF010000 		.4byte	.LASF35
 1577 01ff 01       		.byte	0x1
 1578 0200 1902     		.2byte	0x219
 1579 0202 7A000000 		.4byte	0x7a
 1580 0206 00       		.byte	0
 1581 0207 00       		.byte	0
 1582 0208 15       		.uleb128 0x15
 1583 0209 16030000 		.4byte	.LASF42
 1584 020d 01       		.byte	0x1
 1585 020e D601     		.2byte	0x1d6
 1586 0210 01       		.byte	0x1
 1587 0211 00000000 		.4byte	.LFB62
 1588 0215 02000000 		.4byte	.LFE62
 1589 0219 02       		.byte	0x2
 1590 021a 7D       		.byte	0x7d
 1591 021b 00       		.sleb128 0
 1592 021c 01       		.byte	0x1
ARM GAS  C:\Users\MICHA_~1\AppData\Local\Temp\ccX8T6Q1.s 			page 59


 1593 021d 30020000 		.4byte	0x230
 1594 0221 16       		.uleb128 0x16
 1595 0222 4D000000 		.4byte	.LASF44
 1596 0226 01       		.byte	0x1
 1597 0227 D601     		.2byte	0x1d6
 1598 0229 90000000 		.4byte	0x90
 1599 022d 01       		.byte	0x1
 1600 022e 50       		.byte	0x50
 1601 022f 00       		.byte	0
 1602 0230 17       		.uleb128 0x17
 1603 0231 5C010000 		.4byte	0x15c
 1604 0235 00000000 		.4byte	.LFB69
 1605 0239 8C000000 		.4byte	.LFE69
 1606 023d 00000000 		.4byte	.LLST0
 1607 0241 01       		.byte	0x1
 1608 0242 71020000 		.4byte	0x271
 1609 0246 18       		.uleb128 0x18
 1610 0247 6E010000 		.4byte	0x16e
 1611 024b 20000000 		.4byte	.LLST1
 1612 024f 19       		.uleb128 0x19
 1613 0250 86010000 		.4byte	0x186
 1614 0254 BE000000 		.4byte	.LLST2
 1615 0258 19       		.uleb128 0x19
 1616 0259 92010000 		.4byte	0x192
 1617 025d FC000000 		.4byte	.LLST3
 1618 0261 19       		.uleb128 0x19
 1619 0262 9E010000 		.4byte	0x19e
 1620 0266 28010000 		.4byte	.LLST4
 1621 026a 1A       		.uleb128 0x1a
 1622 026b 7A010000 		.4byte	0x17a
 1623 026f 00       		.byte	0
 1624 0270 00       		.byte	0
 1625 0271 17       		.uleb128 0x17
 1626 0272 AB010000 		.4byte	0x1ab
 1627 0276 00000000 		.4byte	.LFB70
 1628 027a 84000000 		.4byte	.LFE70
 1629 027e 8E010000 		.4byte	.LLST5
 1630 0282 01       		.byte	0x1
 1631 0283 11030000 		.4byte	0x311
 1632 0287 19       		.uleb128 0x19
 1633 0288 C9010000 		.4byte	0x1c9
 1634 028c AE010000 		.4byte	.LLST6
 1635 0290 19       		.uleb128 0x19
 1636 0291 D5010000 		.4byte	0x1d5
 1637 0295 E4010000 		.4byte	.LLST7
 1638 0299 19       		.uleb128 0x19
 1639 029a E1010000 		.4byte	0x1e1
 1640 029e 02020000 		.4byte	.LLST8
 1641 02a2 19       		.uleb128 0x19
 1642 02a3 ED010000 		.4byte	0x1ed
 1643 02a7 21020000 		.4byte	.LLST9
 1644 02ab 1A       		.uleb128 0x1a
 1645 02ac BD010000 		.4byte	0x1bd
 1646 02b0 00       		.byte	0
 1647 02b1 1B       		.uleb128 0x1b
 1648 02b2 28000000 		.4byte	.LBB3
 1649 02b6 3C000000 		.4byte	.LBE3
ARM GAS  C:\Users\MICHA_~1\AppData\Local\Temp\ccX8T6Q1.s 			page 60


 1650 02ba C8020000 		.4byte	0x2c8
 1651 02be 19       		.uleb128 0x19
 1652 02bf FA010000 		.4byte	0x1fa
 1653 02c3 73020000 		.4byte	.LLST10
 1654 02c7 00       		.byte	0
 1655 02c8 1C       		.uleb128 0x1c
 1656 02c9 08000000 		.4byte	.LVL27
 1657 02cd 30020000 		.4byte	0x230
 1658 02d1 DB020000 		.4byte	0x2db
 1659 02d5 1D       		.uleb128 0x1d
 1660 02d6 01       		.byte	0x1
 1661 02d7 50       		.byte	0x50
 1662 02d8 01       		.byte	0x1
 1663 02d9 32       		.byte	0x32
 1664 02da 00       		.byte	0
 1665 02db 1C       		.uleb128 0x1c
 1666 02dc 10000000 		.4byte	.LVL28
 1667 02e0 30020000 		.4byte	0x230
 1668 02e4 EE020000 		.4byte	0x2ee
 1669 02e8 1D       		.uleb128 0x1d
 1670 02e9 01       		.byte	0x1
 1671 02ea 50       		.byte	0x50
 1672 02eb 01       		.byte	0x1
 1673 02ec 33       		.byte	0x33
 1674 02ed 00       		.byte	0
 1675 02ee 1C       		.uleb128 0x1c
 1676 02ef 1C000000 		.4byte	.LVL30
 1677 02f3 30020000 		.4byte	0x230
 1678 02f7 01030000 		.4byte	0x301
 1679 02fb 1D       		.uleb128 0x1d
 1680 02fc 01       		.byte	0x1
 1681 02fd 50       		.byte	0x50
 1682 02fe 01       		.byte	0x1
 1683 02ff 32       		.byte	0x32
 1684 0300 00       		.byte	0
 1685 0301 1E       		.uleb128 0x1e
 1686 0302 42000000 		.4byte	.LVL38
 1687 0306 30020000 		.4byte	0x230
 1688 030a 1D       		.uleb128 0x1d
 1689 030b 01       		.byte	0x1
 1690 030c 50       		.byte	0x50
 1691 030d 01       		.byte	0x1
 1692 030e 32       		.byte	0x32
 1693 030f 00       		.byte	0
 1694 0310 00       		.byte	0
 1695 0311 0D       		.uleb128 0xd
 1696 0312 2C030000 		.4byte	.LASF36
 1697 0316 01       		.byte	0x1
 1698 0317 6E       		.byte	0x6e
 1699 0318 01       		.byte	0x1
 1700 0319 85000000 		.4byte	0x85
 1701 031d 01       		.byte	0x1
 1702 031e 44030000 		.4byte	0x344
 1703 0322 0E       		.uleb128 0xe
 1704 0323 EC030000 		.4byte	.LASF37
 1705 0327 01       		.byte	0x1
 1706 0328 6E       		.byte	0x6e
ARM GAS  C:\Users\MICHA_~1\AppData\Local\Temp\ccX8T6Q1.s 			page 61


 1707 0329 44030000 		.4byte	0x344
 1708 032d 0E       		.uleb128 0xe
 1709 032e 43040000 		.4byte	.LASF24
 1710 0332 01       		.byte	0x1
 1711 0333 6E       		.byte	0x6e
 1712 0334 85000000 		.4byte	0x85
 1713 0338 0F       		.uleb128 0xf
 1714 0339 73756D00 		.ascii	"sum\000"
 1715 033d 01       		.byte	0x1
 1716 033e 9D       		.byte	0x9d
 1717 033f 85000000 		.4byte	0x85
 1718 0343 00       		.byte	0
 1719 0344 0B       		.uleb128 0xb
 1720 0345 04       		.byte	0x4
 1721 0346 4A030000 		.4byte	0x34a
 1722 034a 1F       		.uleb128 0x1f
 1723 034b 7A000000 		.4byte	0x7a
 1724 034f 0D       		.uleb128 0xd
 1725 0350 67030000 		.4byte	.LASF38
 1726 0354 01       		.byte	0x1
 1727 0355 BD       		.byte	0xbd
 1728 0356 01       		.byte	0x1
 1729 0357 7A000000 		.4byte	0x7a
 1730 035b 01       		.byte	0x1
 1731 035c 82030000 		.4byte	0x382
 1732 0360 0E       		.uleb128 0xe
 1733 0361 99020000 		.4byte	.LASF23
 1734 0365 01       		.byte	0x1
 1735 0366 BD       		.byte	0xbd
 1736 0367 90000000 		.4byte	0x90
 1737 036b 0E       		.uleb128 0xe
 1738 036c 43040000 		.4byte	.LASF24
 1739 0370 01       		.byte	0x1
 1740 0371 BD       		.byte	0xbd
 1741 0372 90000000 		.4byte	0x90
 1742 0376 0F       		.uleb128 0xf
 1743 0377 73756D00 		.ascii	"sum\000"
 1744 037b 01       		.byte	0x1
 1745 037c C0       		.byte	0xc0
 1746 037d 7A000000 		.4byte	0x7a
 1747 0381 00       		.byte	0
 1748 0382 10       		.uleb128 0x10
 1749 0383 06000000 		.4byte	.LASF39
 1750 0387 01       		.byte	0x1
 1751 0388 0005     		.2byte	0x500
 1752 038a 01       		.byte	0x1
 1753 038b B0000000 		.4byte	0xb0
 1754 038f 01       		.byte	0x1
 1755 0390 C5030000 		.4byte	0x3c5
 1756 0394 11       		.uleb128 0x11
 1757 0395 4C030000 		.4byte	.LASF40
 1758 0399 01       		.byte	0x1
 1759 039a 0005     		.2byte	0x500
 1760 039c 7A000000 		.4byte	0x7a
 1761 03a0 11       		.uleb128 0x11
 1762 03a1 EC030000 		.4byte	.LASF37
 1763 03a5 01       		.byte	0x1
ARM GAS  C:\Users\MICHA_~1\AppData\Local\Temp\ccX8T6Q1.s 			page 62


 1764 03a6 0005     		.2byte	0x500
 1765 03a8 C5030000 		.4byte	0x3c5
 1766 03ac 11       		.uleb128 0x11
 1767 03ad 43040000 		.4byte	.LASF24
 1768 03b1 01       		.byte	0x1
 1769 03b2 0005     		.2byte	0x500
 1770 03b4 85000000 		.4byte	0x85
 1771 03b8 12       		.uleb128 0x12
 1772 03b9 12010000 		.4byte	.LASF41
 1773 03bd 01       		.byte	0x1
 1774 03be 0305     		.2byte	0x503
 1775 03c0 85000000 		.4byte	0x85
 1776 03c4 00       		.byte	0
 1777 03c5 0B       		.uleb128 0xb
 1778 03c6 04       		.byte	0x4
 1779 03c7 7A000000 		.4byte	0x7a
 1780 03cb 20       		.uleb128 0x20
 1781 03cc DA010000 		.4byte	.LASF43
 1782 03d0 01       		.byte	0x1
 1783 03d1 6202     		.2byte	0x262
 1784 03d3 01       		.byte	0x1
 1785 03d4 00000000 		.4byte	.LFB64
 1786 03d8 84030000 		.4byte	.LFE64
 1787 03dc 87020000 		.4byte	.LLST11
 1788 03e0 01       		.byte	0x1
 1789 03e1 F3070000 		.4byte	0x7f3
 1790 03e5 21       		.uleb128 0x21
 1791 03e6 BC030000 		.4byte	.LASF45
 1792 03ea 01       		.byte	0x1
 1793 03eb 6202     		.2byte	0x262
 1794 03ed 7A000000 		.4byte	0x7a
 1795 03f1 B4020000 		.4byte	.LLST12
 1796 03f5 22       		.uleb128 0x22
 1797 03f6 C0010000 		.4byte	.LASF46
 1798 03fa 01       		.byte	0x1
 1799 03fb 6402     		.2byte	0x264
 1800 03fd 85000000 		.4byte	0x85
 1801 0401 03       		.byte	0x3
 1802 0402 91       		.byte	0x91
 1803 0403 DC78     		.sleb128 -932
 1804 0405 23       		.uleb128 0x23
 1805 0406 C4030000 		.4byte	.LASF47
 1806 040a 01       		.byte	0x1
 1807 040b 6502     		.2byte	0x265
 1808 040d 85000000 		.4byte	0x85
 1809 0411 D5020000 		.4byte	.LLST13
 1810 0415 23       		.uleb128 0x23
 1811 0416 76000000 		.4byte	.LASF48
 1812 041a 01       		.byte	0x1
 1813 041b 6602     		.2byte	0x266
 1814 041d 7A000000 		.4byte	0x7a
 1815 0421 60030000 		.4byte	.LLST14
 1816 0425 23       		.uleb128 0x23
 1817 0426 ED020000 		.4byte	.LASF49
 1818 042a 01       		.byte	0x1
 1819 042b 6702     		.2byte	0x267
 1820 042d 85000000 		.4byte	0x85
ARM GAS  C:\Users\MICHA_~1\AppData\Local\Temp\ccX8T6Q1.s 			page 63


 1821 0431 1A040000 		.4byte	.LLST15
 1822 0435 23       		.uleb128 0x23
 1823 0436 91030000 		.4byte	.LASF50
 1824 043a 01       		.byte	0x1
 1825 043b 6802     		.2byte	0x268
 1826 043d B0000000 		.4byte	0xb0
 1827 0441 59070000 		.4byte	.LLST16
 1828 0445 23       		.uleb128 0x23
 1829 0446 45000000 		.4byte	.LASF51
 1830 044a 01       		.byte	0x1
 1831 044b 6902     		.2byte	0x269
 1832 044d 85000000 		.4byte	0x85
 1833 0451 6C070000 		.4byte	.LLST17
 1834 0455 23       		.uleb128 0x23
 1835 0456 9A000000 		.4byte	.LASF52
 1836 045a 01       		.byte	0x1
 1837 045b 6A02     		.2byte	0x26a
 1838 045d 85000000 		.4byte	0x85
 1839 0461 6E080000 		.4byte	.LLST18
 1840 0465 23       		.uleb128 0x23
 1841 0466 79020000 		.4byte	.LASF53
 1842 046a 01       		.byte	0x1
 1843 046b 6B02     		.2byte	0x26b
 1844 046d 7A000000 		.4byte	0x7a
 1845 0471 17090000 		.4byte	.LLST19
 1846 0475 23       		.uleb128 0x23
 1847 0476 60020000 		.4byte	.LASF54
 1848 047a 01       		.byte	0x1
 1849 047b 6E02     		.2byte	0x26e
 1850 047d 7A000000 		.4byte	0x7a
 1851 0481 4C090000 		.4byte	.LLST20
 1852 0485 23       		.uleb128 0x23
 1853 0486 E6010000 		.4byte	.LASF55
 1854 048a 01       		.byte	0x1
 1855 048b 7102     		.2byte	0x271
 1856 048d 7A000000 		.4byte	0x7a
 1857 0491 98090000 		.4byte	.LLST21
 1858 0495 22       		.uleb128 0x22
 1859 0496 5A030000 		.4byte	.LASF56
 1860 049a 01       		.byte	0x1
 1861 049b 7302     		.2byte	0x273
 1862 049d F3070000 		.4byte	0x7f3
 1863 04a1 03       		.byte	0x3
 1864 04a2 91       		.byte	0x91
 1865 04a3 807B     		.sleb128 -640
 1866 04a5 22       		.uleb128 0x22
 1867 04a6 AD020000 		.4byte	.LASF57
 1868 04aa 01       		.byte	0x1
 1869 04ab 7402     		.2byte	0x274
 1870 04ad F3070000 		.4byte	0x7f3
 1871 04b1 03       		.byte	0x3
 1872 04b2 91       		.byte	0x91
 1873 04b3 AC7D     		.sleb128 -340
 1874 04b5 24       		.uleb128 0x24
 1875 04b6 11030000 		.4byte	0x311
 1876 04ba 8E000000 		.4byte	.LBB20
 1877 04be A2000000 		.4byte	.LBE20
ARM GAS  C:\Users\MICHA_~1\AppData\Local\Temp\ccX8T6Q1.s 			page 64


 1878 04c2 01       		.byte	0x1
 1879 04c3 A902     		.2byte	0x2a9
 1880 04c5 EF040000 		.4byte	0x4ef
 1881 04c9 18       		.uleb128 0x18
 1882 04ca 2D030000 		.4byte	0x32d
 1883 04ce DA090000 		.4byte	.LLST22
 1884 04d2 18       		.uleb128 0x18
 1885 04d3 22030000 		.4byte	0x322
 1886 04d7 1B0A0000 		.4byte	.LLST23
 1887 04db 25       		.uleb128 0x25
 1888 04dc 8E000000 		.4byte	.LBB21
 1889 04e0 A2000000 		.4byte	.LBE21
 1890 04e4 19       		.uleb128 0x19
 1891 04e5 38030000 		.4byte	0x338
 1892 04e9 4D0A0000 		.4byte	.LLST24
 1893 04ed 00       		.byte	0
 1894 04ee 00       		.byte	0
 1895 04ef 26       		.uleb128 0x26
 1896 04f0 00000000 		.4byte	.Ldebug_ranges0+0
 1897 04f4 2B070000 		.4byte	0x72b
 1898 04f8 23       		.uleb128 0x23
 1899 04f9 90000000 		.4byte	.LASF58
 1900 04fd 01       		.byte	0x1
 1901 04fe B702     		.2byte	0x2b7
 1902 0500 7A000000 		.4byte	0x7a
 1903 0504 A10A0000 		.4byte	.LLST25
 1904 0508 1B       		.uleb128 0x1b
 1905 0509 C8000000 		.4byte	.LBB23
 1906 050d DE000000 		.4byte	.LBE23
 1907 0511 26050000 		.4byte	0x526
 1908 0515 23       		.uleb128 0x23
 1909 0516 87000000 		.4byte	.LASF59
 1910 051a 01       		.byte	0x1
 1911 051b 0103     		.2byte	0x301
 1912 051d 85000000 		.4byte	0x85
 1913 0521 9D0B0000 		.4byte	.LLST26
 1914 0525 00       		.byte	0
 1915 0526 1B       		.uleb128 0x1b
 1916 0527 26020000 		.4byte	.LBB24
 1917 052b 44020000 		.4byte	.LBE24
 1918 052f 89050000 		.4byte	0x589
 1919 0533 22       		.uleb128 0x22
 1920 0534 84040000 		.4byte	.LASF60
 1921 0538 01       		.byte	0x1
 1922 0539 9403     		.2byte	0x394
 1923 053b 04080000 		.4byte	0x804
 1924 053f 03       		.byte	0x3
 1925 0540 91       		.byte	0x91
 1926 0541 E078     		.sleb128 -928
 1927 0543 1C       		.uleb128 0x1c
 1928 0544 32020000 		.4byte	.LVL98
 1929 0548 BE0A0000 		.4byte	0xabe
 1930 054c 65050000 		.4byte	0x565
 1931 0550 1D       		.uleb128 0x1d
 1932 0551 01       		.byte	0x1
 1933 0552 52       		.byte	0x52
 1934 0553 03       		.byte	0x3
ARM GAS  C:\Users\MICHA_~1\AppData\Local\Temp\ccX8T6Q1.s 			page 65


 1935 0554 0A       		.byte	0xa
 1936 0555 2001     		.2byte	0x120
 1937 0557 1D       		.uleb128 0x1d
 1938 0558 01       		.byte	0x1
 1939 0559 51       		.byte	0x51
 1940 055a 02       		.byte	0x2
 1941 055b 7A       		.byte	0x7a
 1942 055c 00       		.sleb128 0
 1943 055d 1D       		.uleb128 0x1d
 1944 055e 01       		.byte	0x1
 1945 055f 50       		.byte	0x50
 1946 0560 03       		.byte	0x3
 1947 0561 91       		.byte	0x91
 1948 0562 E078     		.sleb128 -928
 1949 0564 00       		.byte	0
 1950 0565 1E       		.uleb128 0x1e
 1951 0566 40020000 		.4byte	.LVL99
 1952 056a DF0A0000 		.4byte	0xadf
 1953 056e 1D       		.uleb128 0x1d
 1954 056f 01       		.byte	0x1
 1955 0570 53       		.byte	0x53
 1956 0571 03       		.byte	0x3
 1957 0572 0A       		.byte	0xa
 1958 0573 2001     		.2byte	0x120
 1959 0575 1D       		.uleb128 0x1d
 1960 0576 01       		.byte	0x1
 1961 0577 52       		.byte	0x52
 1962 0578 03       		.byte	0x3
 1963 0579 91       		.byte	0x91
 1964 057a E078     		.sleb128 -928
 1965 057c 1D       		.uleb128 0x1d
 1966 057d 01       		.byte	0x1
 1967 057e 51       		.byte	0x51
 1968 057f 02       		.byte	0x2
 1969 0580 08       		.byte	0x8
 1970 0581 FF       		.byte	0xff
 1971 0582 1D       		.uleb128 0x1d
 1972 0583 01       		.byte	0x1
 1973 0584 50       		.byte	0x50
 1974 0585 01       		.byte	0x1
 1975 0586 31       		.byte	0x31
 1976 0587 00       		.byte	0
 1977 0588 00       		.byte	0
 1978 0589 1B       		.uleb128 0x1b
 1979 058a 84020000 		.4byte	.LBB25
 1980 058e 9A020000 		.4byte	.LBE25
 1981 0592 A7050000 		.4byte	0x5a7
 1982 0596 22       		.uleb128 0x22
 1983 0597 B8000000 		.4byte	.LASF61
 1984 059b 01       		.byte	0x1
 1985 059c 6104     		.2byte	0x461
 1986 059e 15010000 		.4byte	0x115
 1987 05a2 03       		.byte	0x3
 1988 05a3 91       		.byte	0x91
 1989 05a4 E078     		.sleb128 -928
 1990 05a6 00       		.byte	0
 1991 05a7 1B       		.uleb128 0x1b
ARM GAS  C:\Users\MICHA_~1\AppData\Local\Temp\ccX8T6Q1.s 			page 66


 1992 05a8 A2020000 		.4byte	.LBB26
 1993 05ac 26030000 		.4byte	.LBE26
 1994 05b0 6F060000 		.4byte	0x66f
 1995 05b4 23       		.uleb128 0x23
 1996 05b5 53030000 		.4byte	.LASF62
 1997 05b9 01       		.byte	0x1
 1998 05ba 8104     		.2byte	0x481
 1999 05bc 85000000 		.4byte	0x85
 2000 05c0 B10B0000 		.4byte	.LLST27
 2001 05c4 23       		.uleb128 0x23
 2002 05c5 28040000 		.4byte	.LASF63
 2003 05c9 01       		.byte	0x1
 2004 05ca 8604     		.2byte	0x486
 2005 05cc 90000000 		.4byte	0x90
 2006 05d0 1D0C0000 		.4byte	.LLST28
 2007 05d4 23       		.uleb128 0x23
 2008 05d5 12010000 		.4byte	.LASF41
 2009 05d9 01       		.byte	0x1
 2010 05da 8704     		.2byte	0x487
 2011 05dc 7A000000 		.4byte	0x7a
 2012 05e0 810C0000 		.4byte	.LLST29
 2013 05e4 24       		.uleb128 0x24
 2014 05e5 29010000 		.4byte	0x129
 2015 05e9 BC020000 		.4byte	.LBB27
 2016 05ed CC020000 		.4byte	.LBE27
 2017 05f1 01       		.byte	0x1
 2018 05f2 9004     		.2byte	0x490
 2019 05f4 1E060000 		.4byte	0x61e
 2020 05f8 18       		.uleb128 0x18
 2021 05f9 3A010000 		.4byte	0x13a
 2022 05fd B50C0000 		.4byte	.LLST30
 2023 0601 25       		.uleb128 0x25
 2024 0602 BC020000 		.4byte	.LBB28
 2025 0606 CC020000 		.4byte	.LBE28
 2026 060a 19       		.uleb128 0x19
 2027 060b 50010000 		.4byte	0x150
 2028 060f C80C0000 		.4byte	.LLST31
 2029 0613 18       		.uleb128 0x18
 2030 0614 45010000 		.4byte	0x145
 2031 0618 E70C0000 		.4byte	.LLST32
 2032 061c 00       		.byte	0
 2033 061d 00       		.byte	0
 2034 061e 24       		.uleb128 0x24
 2035 061f 4F030000 		.4byte	0x34f
 2036 0623 D8020000 		.4byte	.LBB29
 2037 0627 E4020000 		.4byte	.LBE29
 2038 062b 01       		.byte	0x1
 2039 062c 9804     		.2byte	0x498
 2040 062e 58060000 		.4byte	0x658
 2041 0632 18       		.uleb128 0x18
 2042 0633 6B030000 		.4byte	0x36b
 2043 0637 130D0000 		.4byte	.LLST33
 2044 063b 18       		.uleb128 0x18
 2045 063c 60030000 		.4byte	0x360
 2046 0640 340D0000 		.4byte	.LLST34
 2047 0644 25       		.uleb128 0x25
 2048 0645 D8020000 		.4byte	.LBB30
ARM GAS  C:\Users\MICHA_~1\AppData\Local\Temp\ccX8T6Q1.s 			page 67


 2049 0649 E4020000 		.4byte	.LBE30
 2050 064d 19       		.uleb128 0x19
 2051 064e 76030000 		.4byte	0x376
 2052 0652 800D0000 		.4byte	.LLST35
 2053 0656 00       		.byte	0
 2054 0657 00       		.byte	0
 2055 0658 25       		.uleb128 0x25
 2056 0659 EA020000 		.4byte	.LBB31
 2057 065d 00030000 		.4byte	.LBE31
 2058 0661 12       		.uleb128 0x12
 2059 0662 B7010000 		.4byte	.LASF64
 2060 0666 01       		.byte	0x1
 2061 0667 AA04     		.2byte	0x4aa
 2062 0669 85000000 		.4byte	0x85
 2063 066d 00       		.byte	0
 2064 066e 00       		.byte	0
 2065 066f 27       		.uleb128 0x27
 2066 0670 9C010000 		.4byte	.LVL84
 2067 0674 71020000 		.4byte	0x271
 2068 0678 1C       		.uleb128 0x1c
 2069 0679 D2010000 		.4byte	.LVL88
 2070 067d BE0A0000 		.4byte	0xabe
 2071 0681 98060000 		.4byte	0x698
 2072 0685 1D       		.uleb128 0x1d
 2073 0686 01       		.byte	0x1
 2074 0687 52       		.byte	0x52
 2075 0688 02       		.byte	0x2
 2076 0689 77       		.byte	0x77
 2077 068a 00       		.sleb128 0
 2078 068b 1D       		.uleb128 0x1d
 2079 068c 01       		.byte	0x1
 2080 068d 51       		.byte	0x51
 2081 068e 01       		.byte	0x1
 2082 068f 30       		.byte	0x30
 2083 0690 1D       		.uleb128 0x1d
 2084 0691 01       		.byte	0x1
 2085 0692 50       		.byte	0x50
 2086 0693 03       		.byte	0x3
 2087 0694 91       		.byte	0x91
 2088 0695 AC7D     		.sleb128 -340
 2089 0697 00       		.byte	0
 2090 0698 1C       		.uleb128 0x1c
 2091 0699 F0010000 		.4byte	.LVL92
 2092 069d 060B0000 		.4byte	0xb06
 2093 06a1 C0060000 		.4byte	0x6c0
 2094 06a5 1D       		.uleb128 0x1d
 2095 06a6 01       		.byte	0x1
 2096 06a7 52       		.byte	0x52
 2097 06a8 02       		.byte	0x2
 2098 06a9 75       		.byte	0x75
 2099 06aa 00       		.sleb128 0
 2100 06ab 1D       		.uleb128 0x1d
 2101 06ac 01       		.byte	0x1
 2102 06ad 51       		.byte	0x51
 2103 06ae 03       		.byte	0x3
 2104 06af 91       		.byte	0x91
 2105 06b0 877B     		.sleb128 -633
ARM GAS  C:\Users\MICHA_~1\AppData\Local\Temp\ccX8T6Q1.s 			page 68


 2106 06b2 1D       		.uleb128 0x1d
 2107 06b3 01       		.byte	0x1
 2108 06b4 50       		.byte	0x50
 2109 06b5 09       		.byte	0x9
 2110 06b6 91       		.byte	0x91
 2111 06b7 00       		.sleb128 0
 2112 06b8 77       		.byte	0x77
 2113 06b9 00       		.sleb128 0
 2114 06ba 22       		.byte	0x22
 2115 06bb 0A       		.byte	0xa
 2116 06bc 5401     		.2byte	0x154
 2117 06be 1C       		.byte	0x1c
 2118 06bf 00       		.byte	0
 2119 06c0 27       		.uleb128 0x27
 2120 06c1 00020000 		.4byte	.LVL94
 2121 06c5 270B0000 		.4byte	0xb27
 2122 06c9 1C       		.uleb128 0x1c
 2123 06ca 50020000 		.4byte	.LVL101
 2124 06ce DF0A0000 		.4byte	0xadf
 2125 06d2 F0060000 		.4byte	0x6f0
 2126 06d6 1D       		.uleb128 0x1d
 2127 06d7 01       		.byte	0x1
 2128 06d8 53       		.byte	0x53
 2129 06d9 02       		.byte	0x2
 2130 06da 76       		.byte	0x76
 2131 06db 00       		.sleb128 0
 2132 06dc 1D       		.uleb128 0x1d
 2133 06dd 01       		.byte	0x1
 2134 06de 52       		.byte	0x52
 2135 06df 03       		.byte	0x3
 2136 06e0 91       		.byte	0x91
 2137 06e1 AC7D     		.sleb128 -340
 2138 06e3 1D       		.uleb128 0x1d
 2139 06e4 01       		.byte	0x1
 2140 06e5 51       		.byte	0x51
 2141 06e6 02       		.byte	0x2
 2142 06e7 75       		.byte	0x75
 2143 06e8 00       		.sleb128 0
 2144 06e9 1D       		.uleb128 0x1d
 2145 06ea 01       		.byte	0x1
 2146 06eb 50       		.byte	0x50
 2147 06ec 02       		.byte	0x2
 2148 06ed 7B       		.byte	0x7b
 2149 06ee 00       		.sleb128 0
 2150 06ef 00       		.byte	0
 2151 06f0 1C       		.uleb128 0x1c
 2152 06f1 7A020000 		.4byte	.LVL106
 2153 06f5 060B0000 		.4byte	0xb06
 2154 06f9 18070000 		.4byte	0x718
 2155 06fd 1D       		.uleb128 0x1d
 2156 06fe 01       		.byte	0x1
 2157 06ff 52       		.byte	0x52
 2158 0700 02       		.byte	0x2
 2159 0701 75       		.byte	0x75
 2160 0702 00       		.sleb128 0
 2161 0703 1D       		.uleb128 0x1d
 2162 0704 01       		.byte	0x1
ARM GAS  C:\Users\MICHA_~1\AppData\Local\Temp\ccX8T6Q1.s 			page 69


 2163 0705 51       		.byte	0x51
 2164 0706 03       		.byte	0x3
 2165 0707 91       		.byte	0x91
 2166 0708 847B     		.sleb128 -636
 2167 070a 1D       		.uleb128 0x1d
 2168 070b 01       		.byte	0x1
 2169 070c 50       		.byte	0x50
 2170 070d 09       		.byte	0x9
 2171 070e 91       		.byte	0x91
 2172 070f 00       		.sleb128 0
 2173 0710 77       		.byte	0x77
 2174 0711 00       		.sleb128 0
 2175 0712 22       		.byte	0x22
 2176 0713 0A       		.byte	0xa
 2177 0714 5401     		.2byte	0x154
 2178 0716 1C       		.byte	0x1c
 2179 0717 00       		.byte	0
 2180 0718 27       		.uleb128 0x27
 2181 0719 2A030000 		.4byte	.LVL134
 2182 071d 71020000 		.4byte	0x271
 2183 0721 27       		.uleb128 0x27
 2184 0722 36030000 		.4byte	.LVL136
 2185 0726 310B0000 		.4byte	0xb31
 2186 072a 00       		.byte	0
 2187 072b 24       		.uleb128 0x24
 2188 072c 82030000 		.4byte	0x382
 2189 0730 DE000000 		.4byte	.LBB32
 2190 0734 34010000 		.4byte	.LBE32
 2191 0738 01       		.byte	0x1
 2192 0739 E504     		.2byte	0x4e5
 2193 073b CA070000 		.4byte	0x7ca
 2194 073f 28       		.uleb128 0x28
 2195 0740 AC030000 		.4byte	0x3ac
 2196 0744 03       		.byte	0x3
 2197 0745 91       		.byte	0x91
 2198 0746 DE78     		.sleb128 -930
 2199 0748 18       		.uleb128 0x18
 2200 0749 A0030000 		.4byte	0x3a0
 2201 074d 9F0D0000 		.4byte	.LLST36
 2202 0751 18       		.uleb128 0x18
 2203 0752 94030000 		.4byte	0x394
 2204 0756 CE0D0000 		.4byte	.LLST37
 2205 075a 25       		.uleb128 0x25
 2206 075b DE000000 		.4byte	.LBB33
 2207 075f 34010000 		.4byte	.LBE33
 2208 0763 29       		.uleb128 0x29
 2209 0764 B8030000 		.4byte	0x3b8
 2210 0768 01       		.byte	0x1
 2211 0769 52       		.byte	0x52
 2212 076a 24       		.uleb128 0x24
 2213 076b 11030000 		.4byte	0x311
 2214 076f FA000000 		.4byte	.LBB34
 2215 0773 10010000 		.4byte	.LBE34
 2216 0777 01       		.byte	0x1
 2217 0778 0C05     		.2byte	0x50c
 2218 077a A4070000 		.4byte	0x7a4
 2219 077e 18       		.uleb128 0x18
ARM GAS  C:\Users\MICHA_~1\AppData\Local\Temp\ccX8T6Q1.s 			page 70


 2220 077f 2D030000 		.4byte	0x32d
 2221 0783 E10D0000 		.4byte	.LLST38
 2222 0787 18       		.uleb128 0x18
 2223 0788 22030000 		.4byte	0x322
 2224 078c F40D0000 		.4byte	.LLST39
 2225 0790 25       		.uleb128 0x25
 2226 0791 FA000000 		.4byte	.LBB35
 2227 0795 10010000 		.4byte	.LBE35
 2228 0799 19       		.uleb128 0x19
 2229 079a 38030000 		.4byte	0x338
 2230 079e 230E0000 		.4byte	.LLST40
 2231 07a2 00       		.byte	0
 2232 07a3 00       		.byte	0
 2233 07a4 1E       		.uleb128 0x1e
 2234 07a5 34010000 		.4byte	.LVL78
 2235 07a9 3B0B0000 		.4byte	0xb3b
 2236 07ad 1D       		.uleb128 0x1d
 2237 07ae 01       		.byte	0x1
 2238 07af 53       		.byte	0x53
 2239 07b0 02       		.byte	0x2
 2240 07b1 09       		.byte	0x9
 2241 07b2 96       		.byte	0x96
 2242 07b3 1D       		.uleb128 0x1d
 2243 07b4 01       		.byte	0x1
 2244 07b5 52       		.byte	0x52
 2245 07b6 03       		.byte	0x3
 2246 07b7 91       		.byte	0x91
 2247 07b8 DE78     		.sleb128 -930
 2248 07ba 1D       		.uleb128 0x1d
 2249 07bb 01       		.byte	0x1
 2250 07bc 51       		.byte	0x51
 2251 07bd 02       		.byte	0x2
 2252 07be 74       		.byte	0x74
 2253 07bf 07       		.sleb128 7
 2254 07c0 1D       		.uleb128 0x1d
 2255 07c1 01       		.byte	0x1
 2256 07c2 50       		.byte	0x50
 2257 07c3 03       		.byte	0x3
 2258 07c4 91       		.byte	0x91
 2259 07c5 807B     		.sleb128 -640
 2260 07c7 00       		.byte	0
 2261 07c8 00       		.byte	0
 2262 07c9 00       		.byte	0
 2263 07ca 27       		.uleb128 0x27
 2264 07cb 0E000000 		.4byte	.LVL49
 2265 07cf 680B0000 		.4byte	0xb68
 2266 07d3 1E       		.uleb128 0x1e
 2267 07d4 32000000 		.4byte	.LVL54
 2268 07d8 720B0000 		.4byte	0xb72
 2269 07dc 1D       		.uleb128 0x1d
 2270 07dd 01       		.byte	0x1
 2271 07de 52       		.byte	0x52
 2272 07df 03       		.byte	0x3
 2273 07e0 91       		.byte	0x91
 2274 07e1 DC78     		.sleb128 -932
 2275 07e3 1D       		.uleb128 0x1d
 2276 07e4 01       		.byte	0x1
ARM GAS  C:\Users\MICHA_~1\AppData\Local\Temp\ccX8T6Q1.s 			page 71


 2277 07e5 51       		.byte	0x51
 2278 07e6 03       		.byte	0x3
 2279 07e7 0A       		.byte	0xa
 2280 07e8 2C01     		.2byte	0x12c
 2281 07ea 1D       		.uleb128 0x1d
 2282 07eb 01       		.byte	0x1
 2283 07ec 50       		.byte	0x50
 2284 07ed 03       		.byte	0x3
 2285 07ee 91       		.byte	0x91
 2286 07ef 807B     		.sleb128 -640
 2287 07f1 00       		.byte	0
 2288 07f2 00       		.byte	0
 2289 07f3 08       		.uleb128 0x8
 2290 07f4 7A000000 		.4byte	0x7a
 2291 07f8 04080000 		.4byte	0x804
 2292 07fc 2A       		.uleb128 0x2a
 2293 07fd 0E010000 		.4byte	0x10e
 2294 0801 2B01     		.2byte	0x12b
 2295 0803 00       		.byte	0
 2296 0804 08       		.uleb128 0x8
 2297 0805 7A000000 		.4byte	0x7a
 2298 0809 15080000 		.4byte	0x815
 2299 080d 2A       		.uleb128 0x2a
 2300 080e 0E010000 		.4byte	0x10e
 2301 0812 1F01     		.2byte	0x11f
 2302 0814 00       		.byte	0
 2303 0815 2B       		.uleb128 0x2b
 2304 0816 84020000 		.4byte	.LASF95
 2305 081a 01       		.byte	0x1
 2306 081b 8901     		.2byte	0x189
 2307 081d 01       		.byte	0x1
 2308 081e 01       		.byte	0x1
 2309 081f 2C       		.uleb128 0x2c
 2310 0820 01       		.byte	0x1
 2311 0821 43010000 		.4byte	.LASF67
 2312 0825 01       		.byte	0x1
 2313 0826 1001     		.2byte	0x110
 2314 0828 01       		.byte	0x1
 2315 0829 00000000 		.4byte	.LFB59
 2316 082d 80000000 		.4byte	.LFE59
 2317 0831 360E0000 		.4byte	.LLST41
 2318 0835 01       		.byte	0x1
 2319 0836 41090000 		.4byte	0x941
 2320 083a 23       		.uleb128 0x23
 2321 083b CB010000 		.4byte	.LASF34
 2322 083f 01       		.byte	0x1
 2323 0840 1301     		.2byte	0x113
 2324 0842 7A000000 		.4byte	0x7a
 2325 0846 630E0000 		.4byte	.LLST42
 2326 084a 22       		.uleb128 0x22
 2327 084b 67000000 		.4byte	.LASF65
 2328 084f 01       		.byte	0x1
 2329 0850 1701     		.2byte	0x117
 2330 0852 04080000 		.4byte	0x804
 2331 0856 03       		.byte	0x3
 2332 0857 91       		.byte	0x91
 2333 0858 D87D     		.sleb128 -296
ARM GAS  C:\Users\MICHA_~1\AppData\Local\Temp\ccX8T6Q1.s 			page 72


 2334 085a 23       		.uleb128 0x23
 2335 085b 22000000 		.4byte	.LASF66
 2336 085f 01       		.byte	0x1
 2337 0860 1A01     		.2byte	0x11a
 2338 0862 B0000000 		.4byte	0xb0
 2339 0866 7C0E0000 		.4byte	.LLST43
 2340 086a 24       		.uleb128 0x24
 2341 086b 4F030000 		.4byte	0x34f
 2342 086f 28000000 		.4byte	.LBB41
 2343 0873 34000000 		.4byte	.LBE41
 2344 0877 01       		.byte	0x1
 2345 0878 4901     		.2byte	0x149
 2346 087a A1080000 		.4byte	0x8a1
 2347 087e 18       		.uleb128 0x18
 2348 087f 6B030000 		.4byte	0x36b
 2349 0883 8F0E0000 		.4byte	.LLST44
 2350 0887 1A       		.uleb128 0x1a
 2351 0888 60030000 		.4byte	0x360
 2352 088c 00       		.byte	0
 2353 088d 25       		.uleb128 0x25
 2354 088e 28000000 		.4byte	.LBB42
 2355 0892 34000000 		.4byte	.LBE42
 2356 0896 19       		.uleb128 0x19
 2357 0897 76030000 		.4byte	0x376
 2358 089b A20E0000 		.4byte	.LLST45
 2359 089f 00       		.byte	0
 2360 08a0 00       		.byte	0
 2361 08a1 24       		.uleb128 0x24
 2362 08a2 15080000 		.4byte	0x815
 2363 08a6 6A000000 		.4byte	.LBB43
 2364 08aa 72000000 		.4byte	.LBE43
 2365 08ae 01       		.byte	0x1
 2366 08af 7701     		.2byte	0x177
 2367 08b1 BF080000 		.4byte	0x8bf
 2368 08b5 27       		.uleb128 0x27
 2369 08b6 72000000 		.4byte	.LVL164
 2370 08ba 310B0000 		.4byte	0xb31
 2371 08be 00       		.byte	0
 2372 08bf 27       		.uleb128 0x27
 2373 08c0 08000000 		.4byte	.LVL149
 2374 08c4 990B0000 		.4byte	0xb99
 2375 08c8 1C       		.uleb128 0x1c
 2376 08c9 10000000 		.4byte	.LVL150
 2377 08cd A70B0000 		.4byte	0xba7
 2378 08d1 DB080000 		.4byte	0x8db
 2379 08d5 1D       		.uleb128 0x1d
 2380 08d6 01       		.byte	0x1
 2381 08d7 50       		.byte	0x50
 2382 08d8 01       		.byte	0x1
 2383 08d9 30       		.byte	0x30
 2384 08da 00       		.byte	0
 2385 08db 1C       		.uleb128 0x1c
 2386 08dc 16000000 		.4byte	.LVL151
 2387 08e0 BB0B0000 		.4byte	0xbbb
 2388 08e4 EF080000 		.4byte	0x8ef
 2389 08e8 1D       		.uleb128 0x1d
 2390 08e9 01       		.byte	0x1
ARM GAS  C:\Users\MICHA_~1\AppData\Local\Temp\ccX8T6Q1.s 			page 73


 2391 08ea 50       		.byte	0x50
 2392 08eb 02       		.byte	0x2
 2393 08ec 7D       		.byte	0x7d
 2394 08ed 00       		.sleb128 0
 2395 08ee 00       		.byte	0
 2396 08ef 1C       		.uleb128 0x1c
 2397 08f0 1E000000 		.4byte	.LVL152
 2398 08f4 A70B0000 		.4byte	0xba7
 2399 08f8 02090000 		.4byte	0x902
 2400 08fc 1D       		.uleb128 0x1d
 2401 08fd 01       		.byte	0x1
 2402 08fe 50       		.byte	0x50
 2403 08ff 01       		.byte	0x1
 2404 0900 30       		.byte	0x30
 2405 0901 00       		.byte	0
 2406 0902 1C       		.uleb128 0x1c
 2407 0903 4A000000 		.4byte	.LVL159
 2408 0907 A70B0000 		.4byte	0xba7
 2409 090b 15090000 		.4byte	0x915
 2410 090f 1D       		.uleb128 0x1d
 2411 0910 01       		.byte	0x1
 2412 0911 50       		.byte	0x50
 2413 0912 01       		.byte	0x1
 2414 0913 30       		.byte	0x30
 2415 0914 00       		.byte	0
 2416 0915 27       		.uleb128 0x27
 2417 0916 50000000 		.4byte	.LVL160
 2418 091a 71020000 		.4byte	0x271
 2419 091e 1C       		.uleb128 0x1c
 2420 091f 64000000 		.4byte	.LVL162
 2421 0923 CB030000 		.4byte	0x3cb
 2422 0927 31090000 		.4byte	0x931
 2423 092b 1D       		.uleb128 0x1d
 2424 092c 01       		.byte	0x1
 2425 092d 50       		.byte	0x50
 2426 092e 01       		.byte	0x1
 2427 092f 30       		.byte	0x30
 2428 0930 00       		.byte	0
 2429 0931 1E       		.uleb128 0x1e
 2430 0932 6A000000 		.4byte	.LVL163
 2431 0936 CB030000 		.4byte	0x3cb
 2432 093a 1D       		.uleb128 0x1d
 2433 093b 01       		.byte	0x1
 2434 093c 50       		.byte	0x50
 2435 093d 01       		.byte	0x1
 2436 093e 44       		.byte	0x44
 2437 093f 00       		.byte	0
 2438 0940 00       		.byte	0
 2439 0941 2C       		.uleb128 0x2c
 2440 0942 01       		.byte	0x1
 2441 0943 F9020000 		.4byte	.LASF68
 2442 0947 01       		.byte	0x1
 2443 0948 A301     		.2byte	0x1a3
 2444 094a 01       		.byte	0x1
 2445 094b 00000000 		.4byte	.LFB61
 2446 094f 30000000 		.4byte	.LFE61
 2447 0953 CC0E0000 		.4byte	.LLST46
ARM GAS  C:\Users\MICHA_~1\AppData\Local\Temp\ccX8T6Q1.s 			page 74


 2448 0957 01       		.byte	0x1
 2449 0958 8D090000 		.4byte	0x98d
 2450 095c 1C       		.uleb128 0x1c
 2451 095d 18000000 		.4byte	.LVL165
 2452 0961 30020000 		.4byte	0x230
 2453 0965 6F090000 		.4byte	0x96f
 2454 0969 1D       		.uleb128 0x1d
 2455 096a 01       		.byte	0x1
 2456 096b 50       		.byte	0x50
 2457 096c 01       		.byte	0x1
 2458 096d 31       		.byte	0x31
 2459 096e 00       		.byte	0
 2460 096f 1C       		.uleb128 0x1c
 2461 0970 20000000 		.4byte	.LVL166
 2462 0974 30020000 		.4byte	0x230
 2463 0978 82090000 		.4byte	0x982
 2464 097c 1D       		.uleb128 0x1d
 2465 097d 01       		.byte	0x1
 2466 097e 50       		.byte	0x50
 2467 097f 01       		.byte	0x1
 2468 0980 31       		.byte	0x31
 2469 0981 00       		.byte	0
 2470 0982 2D       		.uleb128 0x2d
 2471 0983 28000000 		.4byte	.LVL167
 2472 0987 01       		.byte	0x1
 2473 0988 08020000 		.4byte	0x208
 2474 098c 00       		.byte	0
 2475 098d 2C       		.uleb128 0x2c
 2476 098e 01       		.byte	0x1
 2477 098f CF040000 		.4byte	.LASF69
 2478 0993 01       		.byte	0x1
 2479 0994 2905     		.2byte	0x529
 2480 0996 01       		.byte	0x1
 2481 0997 00000000 		.4byte	.LFB66
 2482 099b 34000000 		.4byte	.LFE66
 2483 099f EC0E0000 		.4byte	.LLST47
 2484 09a3 01       		.byte	0x1
 2485 09a4 480A0000 		.4byte	0xa48
 2486 09a8 21       		.uleb128 0x21
 2487 09a9 A7010000 		.4byte	.LASF70
 2488 09ad 01       		.byte	0x1
 2489 09ae 2905     		.2byte	0x529
 2490 09b0 90000000 		.4byte	0x90
 2491 09b4 190F0000 		.4byte	.LLST48
 2492 09b8 21       		.uleb128 0x21
 2493 09b9 03010000 		.4byte	.LASF71
 2494 09bd 01       		.byte	0x1
 2495 09be 2905     		.2byte	0x529
 2496 09c0 7A000000 		.4byte	0x7a
 2497 09c4 3A0F0000 		.4byte	.LLST49
 2498 09c8 23       		.uleb128 0x23
 2499 09c9 9F010000 		.4byte	.LASF72
 2500 09cd 01       		.byte	0x1
 2501 09ce 2B05     		.2byte	0x52b
 2502 09d0 90000000 		.4byte	0x90
 2503 09d4 190F0000 		.4byte	.LLST48
 2504 09d8 22       		.uleb128 0x22
ARM GAS  C:\Users\MICHA_~1\AppData\Local\Temp\ccX8T6Q1.s 			page 75


 2505 09d9 55000000 		.4byte	.LASF73
 2506 09dd 01       		.byte	0x1
 2507 09de 2C05     		.2byte	0x52c
 2508 09e0 480A0000 		.4byte	0xa48
 2509 09e4 03       		.byte	0x3
 2510 09e5 91       		.byte	0x91
 2511 09e6 F07D     		.sleb128 -272
 2512 09e8 22       		.uleb128 0x22
 2513 09e9 7C040000 		.4byte	.LASF74
 2514 09ed 01       		.byte	0x1
 2515 09ee 2F05     		.2byte	0x52f
 2516 09f0 7A000000 		.4byte	0x7a
 2517 09f4 01       		.byte	0x1
 2518 09f5 54       		.byte	0x54
 2519 09f6 23       		.uleb128 0x23
 2520 09f7 53030000 		.4byte	.LASF62
 2521 09fb 01       		.byte	0x1
 2522 09fc 3205     		.2byte	0x532
 2523 09fe 85000000 		.4byte	0x85
 2524 0a02 6E0F0000 		.4byte	.LLST51
 2525 0a06 22       		.uleb128 0x22
 2526 0a07 2C000000 		.4byte	.LASF75
 2527 0a0b 01       		.byte	0x1
 2528 0a0c 3305     		.2byte	0x533
 2529 0a0e 90000000 		.4byte	0x90
 2530 0a12 01       		.byte	0x1
 2531 0a13 56       		.byte	0x56
 2532 0a14 2E       		.uleb128 0x2e
 2533 0a15 69647800 		.ascii	"idx\000"
 2534 0a19 01       		.byte	0x1
 2535 0a1a 3405     		.2byte	0x534
 2536 0a1c 85000000 		.4byte	0x85
 2537 0a20 A00F0000 		.4byte	.LLST52
 2538 0a24 1E       		.uleb128 0x1e
 2539 0a25 30000000 		.4byte	.LVL176
 2540 0a29 D30B0000 		.4byte	0xbd3
 2541 0a2d 1D       		.uleb128 0x1d
 2542 0a2e 01       		.byte	0x1
 2543 0a2f 52       		.byte	0x52
 2544 0a30 02       		.byte	0x2
 2545 0a31 7D       		.byte	0x7d
 2546 0a32 00       		.sleb128 0
 2547 0a33 1D       		.uleb128 0x1d
 2548 0a34 01       		.byte	0x1
 2549 0a35 51       		.byte	0x51
 2550 0a36 09       		.byte	0x9
 2551 0a37 F3       		.byte	0xf3
 2552 0a38 01       		.uleb128 0x1
 2553 0a39 50       		.byte	0x50
 2554 0a3a 09       		.byte	0x9
 2555 0a3b F4       		.byte	0xf4
 2556 0a3c 24       		.byte	0x24
 2557 0a3d 09       		.byte	0x9
 2558 0a3e FC       		.byte	0xfc
 2559 0a3f 25       		.byte	0x25
 2560 0a40 1D       		.uleb128 0x1d
 2561 0a41 01       		.byte	0x1
ARM GAS  C:\Users\MICHA_~1\AppData\Local\Temp\ccX8T6Q1.s 			page 76


 2562 0a42 50       		.byte	0x50
 2563 0a43 02       		.byte	0x2
 2564 0a44 74       		.byte	0x74
 2565 0a45 00       		.sleb128 0
 2566 0a46 00       		.byte	0
 2567 0a47 00       		.byte	0
 2568 0a48 08       		.uleb128 0x8
 2569 0a49 7A000000 		.4byte	0x7a
 2570 0a4d 580A0000 		.4byte	0xa58
 2571 0a51 09       		.uleb128 0x9
 2572 0a52 0E010000 		.4byte	0x10e
 2573 0a56 FF       		.byte	0xff
 2574 0a57 00       		.byte	0
 2575 0a58 2F       		.uleb128 0x2f
 2576 0a59 37040000 		.4byte	.LASF76
 2577 0a5d 01       		.byte	0x1
 2578 0a5e 26       		.byte	0x26
 2579 0a5f 4A030000 		.4byte	0x34a
 2580 0a63 01       		.byte	0x1
 2581 0a64 05       		.byte	0x5
 2582 0a65 03       		.byte	0x3
 2583 0a66 00000000 		.4byte	BL_Checksum
 2584 0a6a 2F       		.uleb128 0x2f
 2585 0a6b 5B040000 		.4byte	.LASF77
 2586 0a6f 01       		.byte	0x1
 2587 0a70 27       		.byte	0x27
 2588 0a71 44030000 		.4byte	0x344
 2589 0a75 01       		.byte	0x1
 2590 0a76 05       		.byte	0x5
 2591 0a77 03       		.byte	0x3
 2592 0a78 00000000 		.4byte	BL_ChecksumAccess
 2593 0a7c 2F       		.uleb128 0x2f
 2594 0a7d 7B030000 		.4byte	.LASF78
 2595 0a81 01       		.byte	0x1
 2596 0a82 2F       		.byte	0x2f
 2597 0a83 8E0A0000 		.4byte	0xa8e
 2598 0a87 01       		.byte	0x1
 2599 0a88 05       		.byte	0x5
 2600 0a89 03       		.byte	0x3
 2601 0a8a 00000000 		.4byte	BL_SizeBytes
 2602 0a8e 1F       		.uleb128 0x1f
 2603 0a8f 90000000 		.4byte	0x90
 2604 0a93 2F       		.uleb128 0x2f
 2605 0a94 A5000000 		.4byte	.LASF79
 2606 0a98 01       		.byte	0x1
 2607 0a99 30       		.byte	0x30
 2608 0a9a A50A0000 		.4byte	0xaa5
 2609 0a9e 01       		.byte	0x1
 2610 0a9f 05       		.byte	0x5
 2611 0aa0 03       		.byte	0x3
 2612 0aa1 00000000 		.4byte	BL_SizeBytesAccess
 2613 0aa5 0B       		.uleb128 0xb
 2614 0aa6 04       		.byte	0x4
 2615 0aa7 8E0A0000 		.4byte	0xa8e
 2616 0aab 30       		.uleb128 0x30
 2617 0aac 9C040000 		.4byte	.LASF80
 2618 0ab0 05       		.byte	0x5
ARM GAS  C:\Users\MICHA_~1\AppData\Local\Temp\ccX8T6Q1.s 			page 77


 2619 0ab1 1606     		.2byte	0x616
 2620 0ab3 B90A0000 		.4byte	0xab9
 2621 0ab7 01       		.byte	0x1
 2622 0ab8 01       		.byte	0x1
 2623 0ab9 05       		.uleb128 0x5
 2624 0aba 45000000 		.4byte	0x45
 2625 0abe 31       		.uleb128 0x31
 2626 0abf 01       		.byte	0x1
 2627 0ac0 7E010000 		.4byte	.LASF81
 2628 0ac4 01       		.byte	0x1
 2629 0ac5 20010000 		.4byte	0x120
 2630 0ac9 01       		.byte	0x1
 2631 0aca 01       		.byte	0x1
 2632 0acb DF0A0000 		.4byte	0xadf
 2633 0acf 32       		.uleb128 0x32
 2634 0ad0 20010000 		.4byte	0x120
 2635 0ad4 32       		.uleb128 0x32
 2636 0ad5 6C000000 		.4byte	0x6c
 2637 0ad9 32       		.uleb128 0x32
 2638 0ada 0E010000 		.4byte	0x10e
 2639 0ade 00       		.byte	0
 2640 0adf 33       		.uleb128 0x33
 2641 0ae0 01       		.byte	0x1
 2642 0ae1 B6040000 		.4byte	.LASF85
 2643 0ae5 06       		.byte	0x6
 2644 0ae6 42       		.byte	0x42
 2645 0ae7 01       		.byte	0x1
 2646 0ae8 B0000000 		.4byte	0xb0
 2647 0aec 01       		.byte	0x1
 2648 0aed 060B0000 		.4byte	0xb06
 2649 0af1 32       		.uleb128 0x32
 2650 0af2 7A000000 		.4byte	0x7a
 2651 0af6 32       		.uleb128 0x32
 2652 0af7 85000000 		.4byte	0x85
 2653 0afb 32       		.uleb128 0x32
 2654 0afc 44030000 		.4byte	0x344
 2655 0b00 32       		.uleb128 0x32
 2656 0b01 85000000 		.4byte	0x85
 2657 0b05 00       		.byte	0
 2658 0b06 31       		.uleb128 0x31
 2659 0b07 01       		.byte	0x1
 2660 0b08 DC000000 		.4byte	.LASF82
 2661 0b0c 01       		.byte	0x1
 2662 0b0d 20010000 		.4byte	0x120
 2663 0b11 01       		.byte	0x1
 2664 0b12 01       		.byte	0x1
 2665 0b13 270B0000 		.4byte	0xb27
 2666 0b17 32       		.uleb128 0x32
 2667 0b18 20010000 		.4byte	0x120
 2668 0b1c 32       		.uleb128 0x32
 2669 0b1d 22010000 		.4byte	0x122
 2670 0b21 32       		.uleb128 0x32
 2671 0b22 0E010000 		.4byte	0x10e
 2672 0b26 00       		.byte	0
 2673 0b27 34       		.uleb128 0x34
 2674 0b28 01       		.byte	0x1
 2675 0b29 B8020000 		.4byte	.LASF83
ARM GAS  C:\Users\MICHA_~1\AppData\Local\Temp\ccX8T6Q1.s 			page 78


 2676 0b2d 06       		.byte	0x6
 2677 0b2e 4E       		.byte	0x4e
 2678 0b2f 01       		.byte	0x1
 2679 0b30 01       		.byte	0x1
 2680 0b31 34       		.uleb128 0x34
 2681 0b32 01       		.byte	0x1
 2682 0b33 35000000 		.4byte	.LASF84
 2683 0b37 07       		.byte	0x7
 2684 0b38 7C       		.byte	0x7c
 2685 0b39 01       		.byte	0x1
 2686 0b3a 01       		.byte	0x1
 2687 0b3b 33       		.uleb128 0x33
 2688 0b3c 01       		.byte	0x1
 2689 0b3d C5000000 		.4byte	.LASF86
 2690 0b41 08       		.byte	0x8
 2691 0b42 E6       		.byte	0xe6
 2692 0b43 01       		.byte	0x1
 2693 0b44 B0000000 		.4byte	0xb0
 2694 0b48 01       		.byte	0x1
 2695 0b49 620B0000 		.4byte	0xb62
 2696 0b4d 32       		.uleb128 0x32
 2697 0b4e C5030000 		.4byte	0x3c5
 2698 0b52 32       		.uleb128 0x32
 2699 0b53 85000000 		.4byte	0x85
 2700 0b57 32       		.uleb128 0x32
 2701 0b58 620B0000 		.4byte	0xb62
 2702 0b5c 32       		.uleb128 0x32
 2703 0b5d 7A000000 		.4byte	0x7a
 2704 0b61 00       		.byte	0
 2705 0b62 0B       		.uleb128 0xb
 2706 0b63 04       		.byte	0x4
 2707 0b64 85000000 		.4byte	0x85
 2708 0b68 34       		.uleb128 0x34
 2709 0b69 01       		.byte	0x1
 2710 0b6a F3030000 		.4byte	.LASF87
 2711 0b6e 08       		.byte	0x8
 2712 0b6f E3       		.byte	0xe3
 2713 0b70 01       		.byte	0x1
 2714 0b71 01       		.byte	0x1
 2715 0b72 33       		.uleb128 0x33
 2716 0b73 01       		.byte	0x1
 2717 0b74 D6030000 		.4byte	.LASF88
 2718 0b78 08       		.byte	0x8
 2719 0b79 E8       		.byte	0xe8
 2720 0b7a 01       		.byte	0x1
 2721 0b7b B0000000 		.4byte	0xb0
 2722 0b7f 01       		.byte	0x1
 2723 0b80 990B0000 		.4byte	0xb99
 2724 0b84 32       		.uleb128 0x32
 2725 0b85 C5030000 		.4byte	0x3c5
 2726 0b89 32       		.uleb128 0x32
 2727 0b8a 85000000 		.4byte	0x85
 2728 0b8e 32       		.uleb128 0x32
 2729 0b8f 620B0000 		.4byte	0xb62
 2730 0b93 32       		.uleb128 0x32
 2731 0b94 7A000000 		.4byte	0x7a
 2732 0b98 00       		.byte	0
ARM GAS  C:\Users\MICHA_~1\AppData\Local\Temp\ccX8T6Q1.s 			page 79


 2733 0b99 35       		.uleb128 0x35
 2734 0b9a 01       		.byte	0x1
 2735 0b9b 39010000 		.4byte	.LASF96
 2736 0b9f 06       		.byte	0x6
 2737 0ba0 40       		.byte	0x40
 2738 0ba1 01       		.byte	0x1
 2739 0ba2 B0000000 		.4byte	0xb0
 2740 0ba6 01       		.byte	0x1
 2741 0ba7 36       		.uleb128 0x36
 2742 0ba8 01       		.byte	0x1
 2743 0ba9 C7020000 		.4byte	.LASF89
 2744 0bad 07       		.byte	0x7
 2745 0bae 80       		.byte	0x80
 2746 0baf 01       		.byte	0x1
 2747 0bb0 01       		.byte	0x1
 2748 0bb1 BB0B0000 		.4byte	0xbbb
 2749 0bb5 32       		.uleb128 0x32
 2750 0bb6 7A000000 		.4byte	0x7a
 2751 0bba 00       		.byte	0
 2752 0bbb 33       		.uleb128 0x33
 2753 0bbc 01       		.byte	0x1
 2754 0bbd 48040000 		.4byte	.LASF90
 2755 0bc1 06       		.byte	0x6
 2756 0bc2 41       		.byte	0x41
 2757 0bc3 01       		.byte	0x1
 2758 0bc4 B0000000 		.4byte	0xb0
 2759 0bc8 01       		.byte	0x1
 2760 0bc9 D30B0000 		.4byte	0xbd3
 2761 0bcd 32       		.uleb128 0x32
 2762 0bce C5030000 		.4byte	0x3c5
 2763 0bd2 00       		.byte	0
 2764 0bd3 37       		.uleb128 0x37
 2765 0bd4 01       		.byte	0x1
 2766 0bd5 6D040000 		.4byte	.LASF91
 2767 0bd9 06       		.byte	0x6
 2768 0bda 44       		.byte	0x44
 2769 0bdb 01       		.byte	0x1
 2770 0bdc B0000000 		.4byte	0xb0
 2771 0be0 01       		.byte	0x1
 2772 0be1 32       		.uleb128 0x32
 2773 0be2 7A000000 		.4byte	0x7a
 2774 0be6 32       		.uleb128 0x32
 2775 0be7 85000000 		.4byte	0x85
 2776 0beb 32       		.uleb128 0x32
 2777 0bec 44030000 		.4byte	0x344
 2778 0bf0 00       		.byte	0
 2779 0bf1 00       		.byte	0
 2780              		.section	.debug_abbrev,"",%progbits
 2781              	.Ldebug_abbrev0:
 2782 0000 01       		.uleb128 0x1
 2783 0001 11       		.uleb128 0x11
 2784 0002 01       		.byte	0x1
 2785 0003 25       		.uleb128 0x25
 2786 0004 0E       		.uleb128 0xe
 2787 0005 13       		.uleb128 0x13
 2788 0006 0B       		.uleb128 0xb
 2789 0007 03       		.uleb128 0x3
ARM GAS  C:\Users\MICHA_~1\AppData\Local\Temp\ccX8T6Q1.s 			page 80


 2790 0008 0E       		.uleb128 0xe
 2791 0009 1B       		.uleb128 0x1b
 2792 000a 0E       		.uleb128 0xe
 2793 000b 55       		.uleb128 0x55
 2794 000c 06       		.uleb128 0x6
 2795 000d 11       		.uleb128 0x11
 2796 000e 01       		.uleb128 0x1
 2797 000f 52       		.uleb128 0x52
 2798 0010 01       		.uleb128 0x1
 2799 0011 10       		.uleb128 0x10
 2800 0012 06       		.uleb128 0x6
 2801 0013 00       		.byte	0
 2802 0014 00       		.byte	0
 2803 0015 02       		.uleb128 0x2
 2804 0016 24       		.uleb128 0x24
 2805 0017 00       		.byte	0
 2806 0018 0B       		.uleb128 0xb
 2807 0019 0B       		.uleb128 0xb
 2808 001a 3E       		.uleb128 0x3e
 2809 001b 0B       		.uleb128 0xb
 2810 001c 03       		.uleb128 0x3
 2811 001d 0E       		.uleb128 0xe
 2812 001e 00       		.byte	0
 2813 001f 00       		.byte	0
 2814 0020 03       		.uleb128 0x3
 2815 0021 16       		.uleb128 0x16
 2816 0022 00       		.byte	0
 2817 0023 03       		.uleb128 0x3
 2818 0024 0E       		.uleb128 0xe
 2819 0025 3A       		.uleb128 0x3a
 2820 0026 0B       		.uleb128 0xb
 2821 0027 3B       		.uleb128 0x3b
 2822 0028 0B       		.uleb128 0xb
 2823 0029 49       		.uleb128 0x49
 2824 002a 13       		.uleb128 0x13
 2825 002b 00       		.byte	0
 2826 002c 00       		.byte	0
 2827 002d 04       		.uleb128 0x4
 2828 002e 24       		.uleb128 0x24
 2829 002f 00       		.byte	0
 2830 0030 0B       		.uleb128 0xb
 2831 0031 0B       		.uleb128 0xb
 2832 0032 3E       		.uleb128 0x3e
 2833 0033 0B       		.uleb128 0xb
 2834 0034 03       		.uleb128 0x3
 2835 0035 08       		.uleb128 0x8
 2836 0036 00       		.byte	0
 2837 0037 00       		.byte	0
 2838 0038 05       		.uleb128 0x5
 2839 0039 35       		.uleb128 0x35
 2840 003a 00       		.byte	0
 2841 003b 49       		.uleb128 0x49
 2842 003c 13       		.uleb128 0x13
 2843 003d 00       		.byte	0
 2844 003e 00       		.byte	0
 2845 003f 06       		.uleb128 0x6
 2846 0040 13       		.uleb128 0x13
ARM GAS  C:\Users\MICHA_~1\AppData\Local\Temp\ccX8T6Q1.s 			page 81


 2847 0041 01       		.byte	0x1
 2848 0042 0B       		.uleb128 0xb
 2849 0043 0B       		.uleb128 0xb
 2850 0044 3A       		.uleb128 0x3a
 2851 0045 0B       		.uleb128 0xb
 2852 0046 3B       		.uleb128 0x3b
 2853 0047 0B       		.uleb128 0xb
 2854 0048 01       		.uleb128 0x1
 2855 0049 13       		.uleb128 0x13
 2856 004a 00       		.byte	0
 2857 004b 00       		.byte	0
 2858 004c 07       		.uleb128 0x7
 2859 004d 0D       		.uleb128 0xd
 2860 004e 00       		.byte	0
 2861 004f 03       		.uleb128 0x3
 2862 0050 0E       		.uleb128 0xe
 2863 0051 3A       		.uleb128 0x3a
 2864 0052 0B       		.uleb128 0xb
 2865 0053 3B       		.uleb128 0x3b
 2866 0054 0B       		.uleb128 0xb
 2867 0055 49       		.uleb128 0x49
 2868 0056 13       		.uleb128 0x13
 2869 0057 38       		.uleb128 0x38
 2870 0058 0A       		.uleb128 0xa
 2871 0059 00       		.byte	0
 2872 005a 00       		.byte	0
 2873 005b 08       		.uleb128 0x8
 2874 005c 01       		.uleb128 0x1
 2875 005d 01       		.byte	0x1
 2876 005e 49       		.uleb128 0x49
 2877 005f 13       		.uleb128 0x13
 2878 0060 01       		.uleb128 0x1
 2879 0061 13       		.uleb128 0x13
 2880 0062 00       		.byte	0
 2881 0063 00       		.byte	0
 2882 0064 09       		.uleb128 0x9
 2883 0065 21       		.uleb128 0x21
 2884 0066 00       		.byte	0
 2885 0067 49       		.uleb128 0x49
 2886 0068 13       		.uleb128 0x13
 2887 0069 2F       		.uleb128 0x2f
 2888 006a 0B       		.uleb128 0xb
 2889 006b 00       		.byte	0
 2890 006c 00       		.byte	0
 2891 006d 0A       		.uleb128 0xa
 2892 006e 0F       		.uleb128 0xf
 2893 006f 00       		.byte	0
 2894 0070 0B       		.uleb128 0xb
 2895 0071 0B       		.uleb128 0xb
 2896 0072 00       		.byte	0
 2897 0073 00       		.byte	0
 2898 0074 0B       		.uleb128 0xb
 2899 0075 0F       		.uleb128 0xf
 2900 0076 00       		.byte	0
 2901 0077 0B       		.uleb128 0xb
 2902 0078 0B       		.uleb128 0xb
 2903 0079 49       		.uleb128 0x49
ARM GAS  C:\Users\MICHA_~1\AppData\Local\Temp\ccX8T6Q1.s 			page 82


 2904 007a 13       		.uleb128 0x13
 2905 007b 00       		.byte	0
 2906 007c 00       		.byte	0
 2907 007d 0C       		.uleb128 0xc
 2908 007e 26       		.uleb128 0x26
 2909 007f 00       		.byte	0
 2910 0080 00       		.byte	0
 2911 0081 00       		.byte	0
 2912 0082 0D       		.uleb128 0xd
 2913 0083 2E       		.uleb128 0x2e
 2914 0084 01       		.byte	0x1
 2915 0085 03       		.uleb128 0x3
 2916 0086 0E       		.uleb128 0xe
 2917 0087 3A       		.uleb128 0x3a
 2918 0088 0B       		.uleb128 0xb
 2919 0089 3B       		.uleb128 0x3b
 2920 008a 0B       		.uleb128 0xb
 2921 008b 27       		.uleb128 0x27
 2922 008c 0C       		.uleb128 0xc
 2923 008d 49       		.uleb128 0x49
 2924 008e 13       		.uleb128 0x13
 2925 008f 20       		.uleb128 0x20
 2926 0090 0B       		.uleb128 0xb
 2927 0091 01       		.uleb128 0x1
 2928 0092 13       		.uleb128 0x13
 2929 0093 00       		.byte	0
 2930 0094 00       		.byte	0
 2931 0095 0E       		.uleb128 0xe
 2932 0096 05       		.uleb128 0x5
 2933 0097 00       		.byte	0
 2934 0098 03       		.uleb128 0x3
 2935 0099 0E       		.uleb128 0xe
 2936 009a 3A       		.uleb128 0x3a
 2937 009b 0B       		.uleb128 0xb
 2938 009c 3B       		.uleb128 0x3b
 2939 009d 0B       		.uleb128 0xb
 2940 009e 49       		.uleb128 0x49
 2941 009f 13       		.uleb128 0x13
 2942 00a0 00       		.byte	0
 2943 00a1 00       		.byte	0
 2944 00a2 0F       		.uleb128 0xf
 2945 00a3 34       		.uleb128 0x34
 2946 00a4 00       		.byte	0
 2947 00a5 03       		.uleb128 0x3
 2948 00a6 08       		.uleb128 0x8
 2949 00a7 3A       		.uleb128 0x3a
 2950 00a8 0B       		.uleb128 0xb
 2951 00a9 3B       		.uleb128 0x3b
 2952 00aa 0B       		.uleb128 0xb
 2953 00ab 49       		.uleb128 0x49
 2954 00ac 13       		.uleb128 0x13
 2955 00ad 00       		.byte	0
 2956 00ae 00       		.byte	0
 2957 00af 10       		.uleb128 0x10
 2958 00b0 2E       		.uleb128 0x2e
 2959 00b1 01       		.byte	0x1
 2960 00b2 03       		.uleb128 0x3
ARM GAS  C:\Users\MICHA_~1\AppData\Local\Temp\ccX8T6Q1.s 			page 83


 2961 00b3 0E       		.uleb128 0xe
 2962 00b4 3A       		.uleb128 0x3a
 2963 00b5 0B       		.uleb128 0xb
 2964 00b6 3B       		.uleb128 0x3b
 2965 00b7 05       		.uleb128 0x5
 2966 00b8 27       		.uleb128 0x27
 2967 00b9 0C       		.uleb128 0xc
 2968 00ba 49       		.uleb128 0x49
 2969 00bb 13       		.uleb128 0x13
 2970 00bc 20       		.uleb128 0x20
 2971 00bd 0B       		.uleb128 0xb
 2972 00be 01       		.uleb128 0x1
 2973 00bf 13       		.uleb128 0x13
 2974 00c0 00       		.byte	0
 2975 00c1 00       		.byte	0
 2976 00c2 11       		.uleb128 0x11
 2977 00c3 05       		.uleb128 0x5
 2978 00c4 00       		.byte	0
 2979 00c5 03       		.uleb128 0x3
 2980 00c6 0E       		.uleb128 0xe
 2981 00c7 3A       		.uleb128 0x3a
 2982 00c8 0B       		.uleb128 0xb
 2983 00c9 3B       		.uleb128 0x3b
 2984 00ca 05       		.uleb128 0x5
 2985 00cb 49       		.uleb128 0x49
 2986 00cc 13       		.uleb128 0x13
 2987 00cd 00       		.byte	0
 2988 00ce 00       		.byte	0
 2989 00cf 12       		.uleb128 0x12
 2990 00d0 34       		.uleb128 0x34
 2991 00d1 00       		.byte	0
 2992 00d2 03       		.uleb128 0x3
 2993 00d3 0E       		.uleb128 0xe
 2994 00d4 3A       		.uleb128 0x3a
 2995 00d5 0B       		.uleb128 0xb
 2996 00d6 3B       		.uleb128 0x3b
 2997 00d7 05       		.uleb128 0x5
 2998 00d8 49       		.uleb128 0x49
 2999 00d9 13       		.uleb128 0x13
 3000 00da 00       		.byte	0
 3001 00db 00       		.byte	0
 3002 00dc 13       		.uleb128 0x13
 3003 00dd 34       		.uleb128 0x34
 3004 00de 00       		.byte	0
 3005 00df 03       		.uleb128 0x3
 3006 00e0 08       		.uleb128 0x8
 3007 00e1 3A       		.uleb128 0x3a
 3008 00e2 0B       		.uleb128 0xb
 3009 00e3 3B       		.uleb128 0x3b
 3010 00e4 05       		.uleb128 0x5
 3011 00e5 49       		.uleb128 0x49
 3012 00e6 13       		.uleb128 0x13
 3013 00e7 00       		.byte	0
 3014 00e8 00       		.byte	0
 3015 00e9 14       		.uleb128 0x14
 3016 00ea 0B       		.uleb128 0xb
 3017 00eb 01       		.byte	0x1
ARM GAS  C:\Users\MICHA_~1\AppData\Local\Temp\ccX8T6Q1.s 			page 84


 3018 00ec 00       		.byte	0
 3019 00ed 00       		.byte	0
 3020 00ee 15       		.uleb128 0x15
 3021 00ef 2E       		.uleb128 0x2e
 3022 00f0 01       		.byte	0x1
 3023 00f1 03       		.uleb128 0x3
 3024 00f2 0E       		.uleb128 0xe
 3025 00f3 3A       		.uleb128 0x3a
 3026 00f4 0B       		.uleb128 0xb
 3027 00f5 3B       		.uleb128 0x3b
 3028 00f6 05       		.uleb128 0x5
 3029 00f7 27       		.uleb128 0x27
 3030 00f8 0C       		.uleb128 0xc
 3031 00f9 11       		.uleb128 0x11
 3032 00fa 01       		.uleb128 0x1
 3033 00fb 12       		.uleb128 0x12
 3034 00fc 01       		.uleb128 0x1
 3035 00fd 40       		.uleb128 0x40
 3036 00fe 0A       		.uleb128 0xa
 3037 00ff 9742     		.uleb128 0x2117
 3038 0101 0C       		.uleb128 0xc
 3039 0102 01       		.uleb128 0x1
 3040 0103 13       		.uleb128 0x13
 3041 0104 00       		.byte	0
 3042 0105 00       		.byte	0
 3043 0106 16       		.uleb128 0x16
 3044 0107 05       		.uleb128 0x5
 3045 0108 00       		.byte	0
 3046 0109 03       		.uleb128 0x3
 3047 010a 0E       		.uleb128 0xe
 3048 010b 3A       		.uleb128 0x3a
 3049 010c 0B       		.uleb128 0xb
 3050 010d 3B       		.uleb128 0x3b
 3051 010e 05       		.uleb128 0x5
 3052 010f 49       		.uleb128 0x49
 3053 0110 13       		.uleb128 0x13
 3054 0111 02       		.uleb128 0x2
 3055 0112 0A       		.uleb128 0xa
 3056 0113 00       		.byte	0
 3057 0114 00       		.byte	0
 3058 0115 17       		.uleb128 0x17
 3059 0116 2E       		.uleb128 0x2e
 3060 0117 01       		.byte	0x1
 3061 0118 31       		.uleb128 0x31
 3062 0119 13       		.uleb128 0x13
 3063 011a 11       		.uleb128 0x11
 3064 011b 01       		.uleb128 0x1
 3065 011c 12       		.uleb128 0x12
 3066 011d 01       		.uleb128 0x1
 3067 011e 40       		.uleb128 0x40
 3068 011f 06       		.uleb128 0x6
 3069 0120 9742     		.uleb128 0x2117
 3070 0122 0C       		.uleb128 0xc
 3071 0123 01       		.uleb128 0x1
 3072 0124 13       		.uleb128 0x13
 3073 0125 00       		.byte	0
 3074 0126 00       		.byte	0
ARM GAS  C:\Users\MICHA_~1\AppData\Local\Temp\ccX8T6Q1.s 			page 85


 3075 0127 18       		.uleb128 0x18
 3076 0128 05       		.uleb128 0x5
 3077 0129 00       		.byte	0
 3078 012a 31       		.uleb128 0x31
 3079 012b 13       		.uleb128 0x13
 3080 012c 02       		.uleb128 0x2
 3081 012d 06       		.uleb128 0x6
 3082 012e 00       		.byte	0
 3083 012f 00       		.byte	0
 3084 0130 19       		.uleb128 0x19
 3085 0131 34       		.uleb128 0x34
 3086 0132 00       		.byte	0
 3087 0133 31       		.uleb128 0x31
 3088 0134 13       		.uleb128 0x13
 3089 0135 02       		.uleb128 0x2
 3090 0136 06       		.uleb128 0x6
 3091 0137 00       		.byte	0
 3092 0138 00       		.byte	0
 3093 0139 1A       		.uleb128 0x1a
 3094 013a 05       		.uleb128 0x5
 3095 013b 00       		.byte	0
 3096 013c 31       		.uleb128 0x31
 3097 013d 13       		.uleb128 0x13
 3098 013e 1C       		.uleb128 0x1c
 3099 013f 0B       		.uleb128 0xb
 3100 0140 00       		.byte	0
 3101 0141 00       		.byte	0
 3102 0142 1B       		.uleb128 0x1b
 3103 0143 0B       		.uleb128 0xb
 3104 0144 01       		.byte	0x1
 3105 0145 11       		.uleb128 0x11
 3106 0146 01       		.uleb128 0x1
 3107 0147 12       		.uleb128 0x12
 3108 0148 01       		.uleb128 0x1
 3109 0149 01       		.uleb128 0x1
 3110 014a 13       		.uleb128 0x13
 3111 014b 00       		.byte	0
 3112 014c 00       		.byte	0
 3113 014d 1C       		.uleb128 0x1c
 3114 014e 898201   		.uleb128 0x4109
 3115 0151 01       		.byte	0x1
 3116 0152 11       		.uleb128 0x11
 3117 0153 01       		.uleb128 0x1
 3118 0154 31       		.uleb128 0x31
 3119 0155 13       		.uleb128 0x13
 3120 0156 01       		.uleb128 0x1
 3121 0157 13       		.uleb128 0x13
 3122 0158 00       		.byte	0
 3123 0159 00       		.byte	0
 3124 015a 1D       		.uleb128 0x1d
 3125 015b 8A8201   		.uleb128 0x410a
 3126 015e 00       		.byte	0
 3127 015f 02       		.uleb128 0x2
 3128 0160 0A       		.uleb128 0xa
 3129 0161 9142     		.uleb128 0x2111
 3130 0163 0A       		.uleb128 0xa
 3131 0164 00       		.byte	0
ARM GAS  C:\Users\MICHA_~1\AppData\Local\Temp\ccX8T6Q1.s 			page 86


 3132 0165 00       		.byte	0
 3133 0166 1E       		.uleb128 0x1e
 3134 0167 898201   		.uleb128 0x4109
 3135 016a 01       		.byte	0x1
 3136 016b 11       		.uleb128 0x11
 3137 016c 01       		.uleb128 0x1
 3138 016d 31       		.uleb128 0x31
 3139 016e 13       		.uleb128 0x13
 3140 016f 00       		.byte	0
 3141 0170 00       		.byte	0
 3142 0171 1F       		.uleb128 0x1f
 3143 0172 26       		.uleb128 0x26
 3144 0173 00       		.byte	0
 3145 0174 49       		.uleb128 0x49
 3146 0175 13       		.uleb128 0x13
 3147 0176 00       		.byte	0
 3148 0177 00       		.byte	0
 3149 0178 20       		.uleb128 0x20
 3150 0179 2E       		.uleb128 0x2e
 3151 017a 01       		.byte	0x1
 3152 017b 03       		.uleb128 0x3
 3153 017c 0E       		.uleb128 0xe
 3154 017d 3A       		.uleb128 0x3a
 3155 017e 0B       		.uleb128 0xb
 3156 017f 3B       		.uleb128 0x3b
 3157 0180 05       		.uleb128 0x5
 3158 0181 27       		.uleb128 0x27
 3159 0182 0C       		.uleb128 0xc
 3160 0183 11       		.uleb128 0x11
 3161 0184 01       		.uleb128 0x1
 3162 0185 12       		.uleb128 0x12
 3163 0186 01       		.uleb128 0x1
 3164 0187 40       		.uleb128 0x40
 3165 0188 06       		.uleb128 0x6
 3166 0189 9742     		.uleb128 0x2117
 3167 018b 0C       		.uleb128 0xc
 3168 018c 01       		.uleb128 0x1
 3169 018d 13       		.uleb128 0x13
 3170 018e 00       		.byte	0
 3171 018f 00       		.byte	0
 3172 0190 21       		.uleb128 0x21
 3173 0191 05       		.uleb128 0x5
 3174 0192 00       		.byte	0
 3175 0193 03       		.uleb128 0x3
 3176 0194 0E       		.uleb128 0xe
 3177 0195 3A       		.uleb128 0x3a
 3178 0196 0B       		.uleb128 0xb
 3179 0197 3B       		.uleb128 0x3b
 3180 0198 05       		.uleb128 0x5
 3181 0199 49       		.uleb128 0x49
 3182 019a 13       		.uleb128 0x13
 3183 019b 02       		.uleb128 0x2
 3184 019c 06       		.uleb128 0x6
 3185 019d 00       		.byte	0
 3186 019e 00       		.byte	0
 3187 019f 22       		.uleb128 0x22
 3188 01a0 34       		.uleb128 0x34
ARM GAS  C:\Users\MICHA_~1\AppData\Local\Temp\ccX8T6Q1.s 			page 87


 3189 01a1 00       		.byte	0
 3190 01a2 03       		.uleb128 0x3
 3191 01a3 0E       		.uleb128 0xe
 3192 01a4 3A       		.uleb128 0x3a
 3193 01a5 0B       		.uleb128 0xb
 3194 01a6 3B       		.uleb128 0x3b
 3195 01a7 05       		.uleb128 0x5
 3196 01a8 49       		.uleb128 0x49
 3197 01a9 13       		.uleb128 0x13
 3198 01aa 02       		.uleb128 0x2
 3199 01ab 0A       		.uleb128 0xa
 3200 01ac 00       		.byte	0
 3201 01ad 00       		.byte	0
 3202 01ae 23       		.uleb128 0x23
 3203 01af 34       		.uleb128 0x34
 3204 01b0 00       		.byte	0
 3205 01b1 03       		.uleb128 0x3
 3206 01b2 0E       		.uleb128 0xe
 3207 01b3 3A       		.uleb128 0x3a
 3208 01b4 0B       		.uleb128 0xb
 3209 01b5 3B       		.uleb128 0x3b
 3210 01b6 05       		.uleb128 0x5
 3211 01b7 49       		.uleb128 0x49
 3212 01b8 13       		.uleb128 0x13
 3213 01b9 02       		.uleb128 0x2
 3214 01ba 06       		.uleb128 0x6
 3215 01bb 00       		.byte	0
 3216 01bc 00       		.byte	0
 3217 01bd 24       		.uleb128 0x24
 3218 01be 1D       		.uleb128 0x1d
 3219 01bf 01       		.byte	0x1
 3220 01c0 31       		.uleb128 0x31
 3221 01c1 13       		.uleb128 0x13
 3222 01c2 11       		.uleb128 0x11
 3223 01c3 01       		.uleb128 0x1
 3224 01c4 12       		.uleb128 0x12
 3225 01c5 01       		.uleb128 0x1
 3226 01c6 58       		.uleb128 0x58
 3227 01c7 0B       		.uleb128 0xb
 3228 01c8 59       		.uleb128 0x59
 3229 01c9 05       		.uleb128 0x5
 3230 01ca 01       		.uleb128 0x1
 3231 01cb 13       		.uleb128 0x13
 3232 01cc 00       		.byte	0
 3233 01cd 00       		.byte	0
 3234 01ce 25       		.uleb128 0x25
 3235 01cf 0B       		.uleb128 0xb
 3236 01d0 01       		.byte	0x1
 3237 01d1 11       		.uleb128 0x11
 3238 01d2 01       		.uleb128 0x1
 3239 01d3 12       		.uleb128 0x12
 3240 01d4 01       		.uleb128 0x1
 3241 01d5 00       		.byte	0
 3242 01d6 00       		.byte	0
 3243 01d7 26       		.uleb128 0x26
 3244 01d8 0B       		.uleb128 0xb
 3245 01d9 01       		.byte	0x1
ARM GAS  C:\Users\MICHA_~1\AppData\Local\Temp\ccX8T6Q1.s 			page 88


 3246 01da 55       		.uleb128 0x55
 3247 01db 06       		.uleb128 0x6
 3248 01dc 01       		.uleb128 0x1
 3249 01dd 13       		.uleb128 0x13
 3250 01de 00       		.byte	0
 3251 01df 00       		.byte	0
 3252 01e0 27       		.uleb128 0x27
 3253 01e1 898201   		.uleb128 0x4109
 3254 01e4 00       		.byte	0
 3255 01e5 11       		.uleb128 0x11
 3256 01e6 01       		.uleb128 0x1
 3257 01e7 31       		.uleb128 0x31
 3258 01e8 13       		.uleb128 0x13
 3259 01e9 00       		.byte	0
 3260 01ea 00       		.byte	0
 3261 01eb 28       		.uleb128 0x28
 3262 01ec 05       		.uleb128 0x5
 3263 01ed 00       		.byte	0
 3264 01ee 31       		.uleb128 0x31
 3265 01ef 13       		.uleb128 0x13
 3266 01f0 02       		.uleb128 0x2
 3267 01f1 0A       		.uleb128 0xa
 3268 01f2 00       		.byte	0
 3269 01f3 00       		.byte	0
 3270 01f4 29       		.uleb128 0x29
 3271 01f5 34       		.uleb128 0x34
 3272 01f6 00       		.byte	0
 3273 01f7 31       		.uleb128 0x31
 3274 01f8 13       		.uleb128 0x13
 3275 01f9 02       		.uleb128 0x2
 3276 01fa 0A       		.uleb128 0xa
 3277 01fb 00       		.byte	0
 3278 01fc 00       		.byte	0
 3279 01fd 2A       		.uleb128 0x2a
 3280 01fe 21       		.uleb128 0x21
 3281 01ff 00       		.byte	0
 3282 0200 49       		.uleb128 0x49
 3283 0201 13       		.uleb128 0x13
 3284 0202 2F       		.uleb128 0x2f
 3285 0203 05       		.uleb128 0x5
 3286 0204 00       		.byte	0
 3287 0205 00       		.byte	0
 3288 0206 2B       		.uleb128 0x2b
 3289 0207 2E       		.uleb128 0x2e
 3290 0208 00       		.byte	0
 3291 0209 03       		.uleb128 0x3
 3292 020a 0E       		.uleb128 0xe
 3293 020b 3A       		.uleb128 0x3a
 3294 020c 0B       		.uleb128 0xb
 3295 020d 3B       		.uleb128 0x3b
 3296 020e 05       		.uleb128 0x5
 3297 020f 27       		.uleb128 0x27
 3298 0210 0C       		.uleb128 0xc
 3299 0211 20       		.uleb128 0x20
 3300 0212 0B       		.uleb128 0xb
 3301 0213 00       		.byte	0
 3302 0214 00       		.byte	0
ARM GAS  C:\Users\MICHA_~1\AppData\Local\Temp\ccX8T6Q1.s 			page 89


 3303 0215 2C       		.uleb128 0x2c
 3304 0216 2E       		.uleb128 0x2e
 3305 0217 01       		.byte	0x1
 3306 0218 3F       		.uleb128 0x3f
 3307 0219 0C       		.uleb128 0xc
 3308 021a 03       		.uleb128 0x3
 3309 021b 0E       		.uleb128 0xe
 3310 021c 3A       		.uleb128 0x3a
 3311 021d 0B       		.uleb128 0xb
 3312 021e 3B       		.uleb128 0x3b
 3313 021f 05       		.uleb128 0x5
 3314 0220 27       		.uleb128 0x27
 3315 0221 0C       		.uleb128 0xc
 3316 0222 11       		.uleb128 0x11
 3317 0223 01       		.uleb128 0x1
 3318 0224 12       		.uleb128 0x12
 3319 0225 01       		.uleb128 0x1
 3320 0226 40       		.uleb128 0x40
 3321 0227 06       		.uleb128 0x6
 3322 0228 9742     		.uleb128 0x2117
 3323 022a 0C       		.uleb128 0xc
 3324 022b 01       		.uleb128 0x1
 3325 022c 13       		.uleb128 0x13
 3326 022d 00       		.byte	0
 3327 022e 00       		.byte	0
 3328 022f 2D       		.uleb128 0x2d
 3329 0230 898201   		.uleb128 0x4109
 3330 0233 00       		.byte	0
 3331 0234 11       		.uleb128 0x11
 3332 0235 01       		.uleb128 0x1
 3333 0236 9542     		.uleb128 0x2115
 3334 0238 0C       		.uleb128 0xc
 3335 0239 31       		.uleb128 0x31
 3336 023a 13       		.uleb128 0x13
 3337 023b 00       		.byte	0
 3338 023c 00       		.byte	0
 3339 023d 2E       		.uleb128 0x2e
 3340 023e 34       		.uleb128 0x34
 3341 023f 00       		.byte	0
 3342 0240 03       		.uleb128 0x3
 3343 0241 08       		.uleb128 0x8
 3344 0242 3A       		.uleb128 0x3a
 3345 0243 0B       		.uleb128 0xb
 3346 0244 3B       		.uleb128 0x3b
 3347 0245 05       		.uleb128 0x5
 3348 0246 49       		.uleb128 0x49
 3349 0247 13       		.uleb128 0x13
 3350 0248 02       		.uleb128 0x2
 3351 0249 06       		.uleb128 0x6
 3352 024a 00       		.byte	0
 3353 024b 00       		.byte	0
 3354 024c 2F       		.uleb128 0x2f
 3355 024d 34       		.uleb128 0x34
 3356 024e 00       		.byte	0
 3357 024f 03       		.uleb128 0x3
 3358 0250 0E       		.uleb128 0xe
 3359 0251 3A       		.uleb128 0x3a
ARM GAS  C:\Users\MICHA_~1\AppData\Local\Temp\ccX8T6Q1.s 			page 90


 3360 0252 0B       		.uleb128 0xb
 3361 0253 3B       		.uleb128 0x3b
 3362 0254 0B       		.uleb128 0xb
 3363 0255 49       		.uleb128 0x49
 3364 0256 13       		.uleb128 0x13
 3365 0257 3F       		.uleb128 0x3f
 3366 0258 0C       		.uleb128 0xc
 3367 0259 02       		.uleb128 0x2
 3368 025a 0A       		.uleb128 0xa
 3369 025b 00       		.byte	0
 3370 025c 00       		.byte	0
 3371 025d 30       		.uleb128 0x30
 3372 025e 34       		.uleb128 0x34
 3373 025f 00       		.byte	0
 3374 0260 03       		.uleb128 0x3
 3375 0261 0E       		.uleb128 0xe
 3376 0262 3A       		.uleb128 0x3a
 3377 0263 0B       		.uleb128 0xb
 3378 0264 3B       		.uleb128 0x3b
 3379 0265 05       		.uleb128 0x5
 3380 0266 49       		.uleb128 0x49
 3381 0267 13       		.uleb128 0x13
 3382 0268 3F       		.uleb128 0x3f
 3383 0269 0C       		.uleb128 0xc
 3384 026a 3C       		.uleb128 0x3c
 3385 026b 0C       		.uleb128 0xc
 3386 026c 00       		.byte	0
 3387 026d 00       		.byte	0
 3388 026e 31       		.uleb128 0x31
 3389 026f 2E       		.uleb128 0x2e
 3390 0270 01       		.byte	0x1
 3391 0271 3F       		.uleb128 0x3f
 3392 0272 0C       		.uleb128 0xc
 3393 0273 03       		.uleb128 0x3
 3394 0274 0E       		.uleb128 0xe
 3395 0275 27       		.uleb128 0x27
 3396 0276 0C       		.uleb128 0xc
 3397 0277 49       		.uleb128 0x49
 3398 0278 13       		.uleb128 0x13
 3399 0279 34       		.uleb128 0x34
 3400 027a 0C       		.uleb128 0xc
 3401 027b 3C       		.uleb128 0x3c
 3402 027c 0C       		.uleb128 0xc
 3403 027d 01       		.uleb128 0x1
 3404 027e 13       		.uleb128 0x13
 3405 027f 00       		.byte	0
 3406 0280 00       		.byte	0
 3407 0281 32       		.uleb128 0x32
 3408 0282 05       		.uleb128 0x5
 3409 0283 00       		.byte	0
 3410 0284 49       		.uleb128 0x49
 3411 0285 13       		.uleb128 0x13
 3412 0286 00       		.byte	0
 3413 0287 00       		.byte	0
 3414 0288 33       		.uleb128 0x33
 3415 0289 2E       		.uleb128 0x2e
 3416 028a 01       		.byte	0x1
ARM GAS  C:\Users\MICHA_~1\AppData\Local\Temp\ccX8T6Q1.s 			page 91


 3417 028b 3F       		.uleb128 0x3f
 3418 028c 0C       		.uleb128 0xc
 3419 028d 03       		.uleb128 0x3
 3420 028e 0E       		.uleb128 0xe
 3421 028f 3A       		.uleb128 0x3a
 3422 0290 0B       		.uleb128 0xb
 3423 0291 3B       		.uleb128 0x3b
 3424 0292 0B       		.uleb128 0xb
 3425 0293 27       		.uleb128 0x27
 3426 0294 0C       		.uleb128 0xc
 3427 0295 49       		.uleb128 0x49
 3428 0296 13       		.uleb128 0x13
 3429 0297 3C       		.uleb128 0x3c
 3430 0298 0C       		.uleb128 0xc
 3431 0299 01       		.uleb128 0x1
 3432 029a 13       		.uleb128 0x13
 3433 029b 00       		.byte	0
 3434 029c 00       		.byte	0
 3435 029d 34       		.uleb128 0x34
 3436 029e 2E       		.uleb128 0x2e
 3437 029f 00       		.byte	0
 3438 02a0 3F       		.uleb128 0x3f
 3439 02a1 0C       		.uleb128 0xc
 3440 02a2 03       		.uleb128 0x3
 3441 02a3 0E       		.uleb128 0xe
 3442 02a4 3A       		.uleb128 0x3a
 3443 02a5 0B       		.uleb128 0xb
 3444 02a6 3B       		.uleb128 0x3b
 3445 02a7 0B       		.uleb128 0xb
 3446 02a8 27       		.uleb128 0x27
 3447 02a9 0C       		.uleb128 0xc
 3448 02aa 3C       		.uleb128 0x3c
 3449 02ab 0C       		.uleb128 0xc
 3450 02ac 00       		.byte	0
 3451 02ad 00       		.byte	0
 3452 02ae 35       		.uleb128 0x35
 3453 02af 2E       		.uleb128 0x2e
 3454 02b0 00       		.byte	0
 3455 02b1 3F       		.uleb128 0x3f
 3456 02b2 0C       		.uleb128 0xc
 3457 02b3 03       		.uleb128 0x3
 3458 02b4 0E       		.uleb128 0xe
 3459 02b5 3A       		.uleb128 0x3a
 3460 02b6 0B       		.uleb128 0xb
 3461 02b7 3B       		.uleb128 0x3b
 3462 02b8 0B       		.uleb128 0xb
 3463 02b9 27       		.uleb128 0x27
 3464 02ba 0C       		.uleb128 0xc
 3465 02bb 49       		.uleb128 0x49
 3466 02bc 13       		.uleb128 0x13
 3467 02bd 3C       		.uleb128 0x3c
 3468 02be 0C       		.uleb128 0xc
 3469 02bf 00       		.byte	0
 3470 02c0 00       		.byte	0
 3471 02c1 36       		.uleb128 0x36
 3472 02c2 2E       		.uleb128 0x2e
 3473 02c3 01       		.byte	0x1
ARM GAS  C:\Users\MICHA_~1\AppData\Local\Temp\ccX8T6Q1.s 			page 92


 3474 02c4 3F       		.uleb128 0x3f
 3475 02c5 0C       		.uleb128 0xc
 3476 02c6 03       		.uleb128 0x3
 3477 02c7 0E       		.uleb128 0xe
 3478 02c8 3A       		.uleb128 0x3a
 3479 02c9 0B       		.uleb128 0xb
 3480 02ca 3B       		.uleb128 0x3b
 3481 02cb 0B       		.uleb128 0xb
 3482 02cc 27       		.uleb128 0x27
 3483 02cd 0C       		.uleb128 0xc
 3484 02ce 3C       		.uleb128 0x3c
 3485 02cf 0C       		.uleb128 0xc
 3486 02d0 01       		.uleb128 0x1
 3487 02d1 13       		.uleb128 0x13
 3488 02d2 00       		.byte	0
 3489 02d3 00       		.byte	0
 3490 02d4 37       		.uleb128 0x37
 3491 02d5 2E       		.uleb128 0x2e
 3492 02d6 01       		.byte	0x1
 3493 02d7 3F       		.uleb128 0x3f
 3494 02d8 0C       		.uleb128 0xc
 3495 02d9 03       		.uleb128 0x3
 3496 02da 0E       		.uleb128 0xe
 3497 02db 3A       		.uleb128 0x3a
 3498 02dc 0B       		.uleb128 0xb
 3499 02dd 3B       		.uleb128 0x3b
 3500 02de 0B       		.uleb128 0xb
 3501 02df 27       		.uleb128 0x27
 3502 02e0 0C       		.uleb128 0xc
 3503 02e1 49       		.uleb128 0x49
 3504 02e2 13       		.uleb128 0x13
 3505 02e3 3C       		.uleb128 0x3c
 3506 02e4 0C       		.uleb128 0xc
 3507 02e5 00       		.byte	0
 3508 02e6 00       		.byte	0
 3509 02e7 00       		.byte	0
 3510              		.section	.debug_loc,"",%progbits
 3511              	.Ldebug_loc0:
 3512              	.LLST0:
 3513 0000 00000000 		.4byte	.LFB69
 3514 0004 04000000 		.4byte	.LCFI0
 3515 0008 0200     		.2byte	0x2
 3516 000a 7D       		.byte	0x7d
 3517 000b 00       		.sleb128 0
 3518 000c 04000000 		.4byte	.LCFI0
 3519 0010 8C000000 		.4byte	.LFE69
 3520 0014 0200     		.2byte	0x2
 3521 0016 7D       		.byte	0x7d
 3522 0017 08       		.sleb128 8
 3523 0018 00000000 		.4byte	0
 3524 001c 00000000 		.4byte	0
 3525              	.LLST1:
 3526 0020 00000000 		.4byte	.LVL1
 3527 0024 18000000 		.4byte	.LVL2
 3528 0028 0100     		.2byte	0x1
 3529 002a 50       		.byte	0x50
 3530 002b 18000000 		.4byte	.LVL2
ARM GAS  C:\Users\MICHA_~1\AppData\Local\Temp\ccX8T6Q1.s 			page 93


 3531 002f 1A000000 		.4byte	.LVL3
 3532 0033 0400     		.2byte	0x4
 3533 0035 F3       		.byte	0xf3
 3534 0036 01       		.uleb128 0x1
 3535 0037 50       		.byte	0x50
 3536 0038 9F       		.byte	0x9f
 3537 0039 1A000000 		.4byte	.LVL3
 3538 003d 20000000 		.4byte	.LVL5
 3539 0041 0100     		.2byte	0x1
 3540 0043 50       		.byte	0x50
 3541 0044 20000000 		.4byte	.LVL5
 3542 0048 22000000 		.4byte	.LVL6
 3543 004c 0400     		.2byte	0x4
 3544 004e F3       		.byte	0xf3
 3545 004f 01       		.uleb128 0x1
 3546 0050 50       		.byte	0x50
 3547 0051 9F       		.byte	0x9f
 3548 0052 22000000 		.4byte	.LVL6
 3549 0056 24000000 		.4byte	.LVL7
 3550 005a 0100     		.2byte	0x1
 3551 005c 50       		.byte	0x50
 3552 005d 24000000 		.4byte	.LVL7
 3553 0061 26000000 		.4byte	.LVL8
 3554 0065 0400     		.2byte	0x4
 3555 0067 F3       		.byte	0xf3
 3556 0068 01       		.uleb128 0x1
 3557 0069 50       		.byte	0x50
 3558 006a 9F       		.byte	0x9f
 3559 006b 26000000 		.4byte	.LVL8
 3560 006f 28000000 		.4byte	.LVL9
 3561 0073 0100     		.2byte	0x1
 3562 0075 50       		.byte	0x50
 3563 0076 28000000 		.4byte	.LVL9
 3564 007a 2A000000 		.4byte	.LVL10
 3565 007e 0400     		.2byte	0x4
 3566 0080 F3       		.byte	0xf3
 3567 0081 01       		.uleb128 0x1
 3568 0082 50       		.byte	0x50
 3569 0083 9F       		.byte	0x9f
 3570 0084 2A000000 		.4byte	.LVL10
 3571 0088 2C000000 		.4byte	.LVL11
 3572 008c 0100     		.2byte	0x1
 3573 008e 50       		.byte	0x50
 3574 008f 2C000000 		.4byte	.LVL11
 3575 0093 50000000 		.4byte	.LVL17
 3576 0097 0400     		.2byte	0x4
 3577 0099 F3       		.byte	0xf3
 3578 009a 01       		.uleb128 0x1
 3579 009b 50       		.byte	0x50
 3580 009c 9F       		.byte	0x9f
 3581 009d 50000000 		.4byte	.LVL17
 3582 00a1 58000000 		.4byte	.LVL19
 3583 00a5 0100     		.2byte	0x1
 3584 00a7 50       		.byte	0x50
 3585 00a8 58000000 		.4byte	.LVL19
 3586 00ac 8C000000 		.4byte	.LFE69
 3587 00b0 0400     		.2byte	0x4
ARM GAS  C:\Users\MICHA_~1\AppData\Local\Temp\ccX8T6Q1.s 			page 94


 3588 00b2 F3       		.byte	0xf3
 3589 00b3 01       		.uleb128 0x1
 3590 00b4 50       		.byte	0x50
 3591 00b5 9F       		.byte	0x9f
 3592 00b6 00000000 		.4byte	0
 3593 00ba 00000000 		.4byte	0
 3594              	.LLST2:
 3595 00be 1E000000 		.4byte	.LVL4
 3596 00c2 22000000 		.4byte	.LVL6
 3597 00c6 0600     		.2byte	0x6
 3598 00c8 0C       		.byte	0xc
 3599 00c9 D6FF0100 		.4byte	0x1ffd6
 3600 00cd 9F       		.byte	0x9f
 3601 00ce 22000000 		.4byte	.LVL6
 3602 00d2 26000000 		.4byte	.LVL8
 3603 00d6 0600     		.2byte	0x6
 3604 00d8 0C       		.byte	0xc
 3605 00d9 D4FF0100 		.4byte	0x1ffd4
 3606 00dd 9F       		.byte	0x9f
 3607 00de 2C000000 		.4byte	.LVL11
 3608 00e2 30000000 		.4byte	.LVL13
 3609 00e6 0100     		.2byte	0x1
 3610 00e8 50       		.byte	0x50
 3611 00e9 56000000 		.4byte	.LVL18
 3612 00ed 5E000000 		.4byte	.LVL22
 3613 00f1 0100     		.2byte	0x1
 3614 00f3 53       		.byte	0x53
 3615 00f4 00000000 		.4byte	0
 3616 00f8 00000000 		.4byte	0
 3617              	.LLST3:
 3618 00fc 00000000 		.4byte	.LVL1
 3619 0100 34000000 		.4byte	.LVL14
 3620 0104 0200     		.2byte	0x2
 3621 0106 32       		.byte	0x32
 3622 0107 9F       		.byte	0x9f
 3623 0108 50000000 		.4byte	.LVL17
 3624 010c 56000000 		.4byte	.LVL18
 3625 0110 0200     		.2byte	0x2
 3626 0112 32       		.byte	0x32
 3627 0113 9F       		.byte	0x9f
 3628 0114 56000000 		.4byte	.LVL18
 3629 0118 6C000000 		.4byte	.LVL25
 3630 011c 0200     		.2byte	0x2
 3631 011e 34       		.byte	0x34
 3632 011f 9F       		.byte	0x9f
 3633 0120 00000000 		.4byte	0
 3634 0124 00000000 		.4byte	0
 3635              	.LLST4:
 3636 0128 2E000000 		.4byte	.LVL12
 3637 012c 34000000 		.4byte	.LVL14
 3638 0130 0100     		.2byte	0x1
 3639 0132 51       		.byte	0x51
 3640 0133 34000000 		.4byte	.LVL14
 3641 0137 50000000 		.4byte	.LVL17
 3642 013b 0100     		.2byte	0x1
 3643 013d 50       		.byte	0x50
 3644 013e 58000000 		.4byte	.LVL19
ARM GAS  C:\Users\MICHA_~1\AppData\Local\Temp\ccX8T6Q1.s 			page 95


 3645 0142 5A000000 		.4byte	.LVL20
 3646 0146 0100     		.2byte	0x1
 3647 0148 50       		.byte	0x50
 3648 0149 5A000000 		.4byte	.LVL20
 3649 014d 5C000000 		.4byte	.LVL21
 3650 0151 0B00     		.2byte	0xb
 3651 0153 74       		.byte	0x74
 3652 0154 00       		.sleb128 0
 3653 0155 08       		.byte	0x8
 3654 0156 FF       		.byte	0xff
 3655 0157 1A       		.byte	0x1a
 3656 0158 38       		.byte	0x38
 3657 0159 24       		.byte	0x24
 3658 015a 70       		.byte	0x70
 3659 015b 00       		.sleb128 0
 3660 015c 21       		.byte	0x21
 3661 015d 9F       		.byte	0x9f
 3662 015e 5C000000 		.4byte	.LVL21
 3663 0162 62000000 		.4byte	.LVL23
 3664 0166 1300     		.2byte	0x13
 3665 0168 74       		.byte	0x74
 3666 0169 00       		.sleb128 0
 3667 016a 08       		.byte	0x8
 3668 016b FF       		.byte	0xff
 3669 016c 1A       		.byte	0x1a
 3670 016d 38       		.byte	0x38
 3671 016e 24       		.byte	0x24
 3672 016f 71       		.byte	0x71
 3673 0170 00       		.sleb128 0
 3674 0171 08       		.byte	0x8
 3675 0172 FF       		.byte	0xff
 3676 0173 1A       		.byte	0x1a
 3677 0174 40       		.byte	0x40
 3678 0175 24       		.byte	0x24
 3679 0176 21       		.byte	0x21
 3680 0177 70       		.byte	0x70
 3681 0178 00       		.sleb128 0
 3682 0179 21       		.byte	0x21
 3683 017a 9F       		.byte	0x9f
 3684 017b 6A000000 		.4byte	.LVL24
 3685 017f 8C000000 		.4byte	.LFE69
 3686 0183 0100     		.2byte	0x1
 3687 0185 50       		.byte	0x50
 3688 0186 00000000 		.4byte	0
 3689 018a 00000000 		.4byte	0
 3690              	.LLST5:
 3691 018e 00000000 		.4byte	.LFB70
 3692 0192 02000000 		.4byte	.LCFI1
 3693 0196 0200     		.2byte	0x2
 3694 0198 7D       		.byte	0x7d
 3695 0199 00       		.sleb128 0
 3696 019a 02000000 		.4byte	.LCFI1
 3697 019e 84000000 		.4byte	.LFE70
 3698 01a2 0200     		.2byte	0x2
 3699 01a4 7D       		.byte	0x7d
 3700 01a5 10       		.sleb128 16
 3701 01a6 00000000 		.4byte	0
ARM GAS  C:\Users\MICHA_~1\AppData\Local\Temp\ccX8T6Q1.s 			page 96


 3702 01aa 00000000 		.4byte	0
 3703              	.LLST6:
 3704 01ae 22000000 		.4byte	.LVL31
 3705 01b2 24000000 		.4byte	.LVL32
 3706 01b6 0100     		.2byte	0x1
 3707 01b8 51       		.byte	0x51
 3708 01b9 4A000000 		.4byte	.LVL39
 3709 01bd 62000000 		.4byte	.LVL43
 3710 01c1 0100     		.2byte	0x1
 3711 01c3 53       		.byte	0x53
 3712 01c4 62000000 		.4byte	.LVL43
 3713 01c8 68000000 		.4byte	.LVL45
 3714 01cc 0300     		.2byte	0x3
 3715 01ce 73       		.byte	0x73
 3716 01cf 7F       		.sleb128 -1
 3717 01d0 9F       		.byte	0x9f
 3718 01d1 68000000 		.4byte	.LVL45
 3719 01d5 84000000 		.4byte	.LFE70
 3720 01d9 0100     		.2byte	0x1
 3721 01db 53       		.byte	0x53
 3722 01dc 00000000 		.4byte	0
 3723 01e0 00000000 		.4byte	0
 3724              	.LLST7:
 3725 01e4 16000000 		.4byte	.LVL29
 3726 01e8 50000000 		.4byte	.LVL40
 3727 01ec 0100     		.2byte	0x1
 3728 01ee 56       		.byte	0x56
 3729 01ef 52000000 		.4byte	.LVL41
 3730 01f3 56000000 		.4byte	.LVL42
 3731 01f7 0100     		.2byte	0x1
 3732 01f9 56       		.byte	0x56
 3733 01fa 00000000 		.4byte	0
 3734 01fe 00000000 		.4byte	0
 3735              	.LLST8:
 3736 0202 16000000 		.4byte	.LVL29
 3737 0206 24000000 		.4byte	.LVL32
 3738 020a 0200     		.2byte	0x2
 3739 020c 30       		.byte	0x30
 3740 020d 9F       		.byte	0x9f
 3741 020e 24000000 		.4byte	.LVL32
 3742 0212 84000000 		.4byte	.LFE70
 3743 0216 0100     		.2byte	0x1
 3744 0218 55       		.byte	0x55
 3745 0219 00000000 		.4byte	0
 3746 021d 00000000 		.4byte	0
 3747              	.LLST9:
 3748 0221 16000000 		.4byte	.LVL29
 3749 0225 24000000 		.4byte	.LVL32
 3750 0229 0200     		.2byte	0x2
 3751 022b 30       		.byte	0x30
 3752 022c 9F       		.byte	0x9f
 3753 022d 24000000 		.4byte	.LVL32
 3754 0231 32000000 		.4byte	.LVL34
 3755 0235 0100     		.2byte	0x1
 3756 0237 54       		.byte	0x54
 3757 0238 3A000000 		.4byte	.LVL36
 3758 023c 66000000 		.4byte	.LVL44
ARM GAS  C:\Users\MICHA_~1\AppData\Local\Temp\ccX8T6Q1.s 			page 97


 3759 0240 0100     		.2byte	0x1
 3760 0242 54       		.byte	0x54
 3761 0243 66000000 		.4byte	.LVL44
 3762 0247 68000000 		.4byte	.LVL45
 3763 024b 0100     		.2byte	0x1
 3764 024d 52       		.byte	0x52
 3765 024e 68000000 		.4byte	.LVL45
 3766 0252 6C000000 		.4byte	.LVL46
 3767 0256 0400     		.2byte	0x4
 3768 0258 74       		.byte	0x74
 3769 0259 00       		.sleb128 0
 3770 025a 1F       		.byte	0x1f
 3771 025b 9F       		.byte	0x9f
 3772 025c 6C000000 		.4byte	.LVL46
 3773 0260 70000000 		.4byte	.LVL47
 3774 0264 0500     		.2byte	0x5
 3775 0266 74       		.byte	0x74
 3776 0267 00       		.sleb128 0
 3777 0268 1F       		.byte	0x1f
 3778 0269 1F       		.byte	0x1f
 3779 026a 9F       		.byte	0x9f
 3780 026b 00000000 		.4byte	0
 3781 026f 00000000 		.4byte	0
 3782              	.LLST10:
 3783 0273 2C000000 		.4byte	.LVL33
 3784 0277 3C000000 		.4byte	.LVL37
 3785 027b 0200     		.2byte	0x2
 3786 027d 71       		.byte	0x71
 3787 027e 7F       		.sleb128 -1
 3788 027f 00000000 		.4byte	0
 3789 0283 00000000 		.4byte	0
 3790              	.LLST11:
 3791 0287 00000000 		.4byte	.LFB64
 3792 028b 04000000 		.4byte	.LCFI2
 3793 028f 0200     		.2byte	0x2
 3794 0291 7D       		.byte	0x7d
 3795 0292 00       		.sleb128 0
 3796 0293 04000000 		.4byte	.LCFI2
 3797 0297 08000000 		.4byte	.LCFI3
 3798 029b 0200     		.2byte	0x2
 3799 029d 7D       		.byte	0x7d
 3800 029e 24       		.sleb128 36
 3801 029f 08000000 		.4byte	.LCFI3
 3802 02a3 84030000 		.4byte	.LFE64
 3803 02a7 0300     		.2byte	0x3
 3804 02a9 7D       		.byte	0x7d
 3805 02aa A807     		.sleb128 936
 3806 02ac 00000000 		.4byte	0
 3807 02b0 00000000 		.4byte	0
 3808              	.LLST12:
 3809 02b4 00000000 		.4byte	.LVL48
 3810 02b8 0D000000 		.4byte	.LVL49-1
 3811 02bc 0100     		.2byte	0x1
 3812 02be 50       		.byte	0x50
 3813 02bf 0D000000 		.4byte	.LVL49-1
 3814 02c3 84030000 		.4byte	.LFE64
 3815 02c7 0400     		.2byte	0x4
ARM GAS  C:\Users\MICHA_~1\AppData\Local\Temp\ccX8T6Q1.s 			page 98


 3816 02c9 F3       		.byte	0xf3
 3817 02ca 01       		.uleb128 0x1
 3818 02cb 50       		.byte	0x50
 3819 02cc 9F       		.byte	0x9f
 3820 02cd 00000000 		.4byte	0
 3821 02d1 00000000 		.4byte	0
 3822              	.LLST13:
 3823 02d5 B0000000 		.4byte	.LVL68
 3824 02d9 DC000000 		.4byte	.LVL71
 3825 02dd 0200     		.2byte	0x2
 3826 02df 30       		.byte	0x30
 3827 02e0 9F       		.byte	0x9f
 3828 02e1 DC000000 		.4byte	.LVL71
 3829 02e5 DE000000 		.4byte	.LVL72
 3830 02e9 0200     		.2byte	0x2
 3831 02eb 34       		.byte	0x34
 3832 02ec 9F       		.byte	0x9f
 3833 02ed DE000000 		.4byte	.LVL72
 3834 02f1 34010000 		.4byte	.LVL78
 3835 02f5 0100     		.2byte	0x1
 3836 02f7 54       		.byte	0x54
 3837 02f8 46010000 		.4byte	.LVL80
 3838 02fc A8010000 		.4byte	.LVL85
 3839 0300 0200     		.2byte	0x2
 3840 0302 30       		.byte	0x30
 3841 0303 9F       		.byte	0x9f
 3842 0304 A8010000 		.4byte	.LVL85
 3843 0308 AA010000 		.4byte	.LVL86
 3844 030c 0200     		.2byte	0x2
 3845 030e 31       		.byte	0x31
 3846 030f 9F       		.byte	0x9f
 3847 0310 AA010000 		.4byte	.LVL86
 3848 0314 90020000 		.4byte	.LVL110
 3849 0318 0200     		.2byte	0x2
 3850 031a 30       		.byte	0x30
 3851 031b 9F       		.byte	0x9f
 3852 031c 90020000 		.4byte	.LVL110
 3853 0320 9A020000 		.4byte	.LVL113
 3854 0324 0200     		.2byte	0x2
 3855 0326 38       		.byte	0x38
 3856 0327 9F       		.byte	0x9f
 3857 0328 9A020000 		.4byte	.LVL113
 3858 032c 20030000 		.4byte	.LVL131
 3859 0330 0200     		.2byte	0x2
 3860 0332 30       		.byte	0x30
 3861 0333 9F       		.byte	0x9f
 3862 0334 20030000 		.4byte	.LVL131
 3863 0338 26030000 		.4byte	.LVL133
 3864 033c 0200     		.2byte	0x2
 3865 033e 31       		.byte	0x31
 3866 033f 9F       		.byte	0x9f
 3867 0340 26030000 		.4byte	.LVL133
 3868 0344 48030000 		.4byte	.LVL144
 3869 0348 0200     		.2byte	0x2
 3870 034a 30       		.byte	0x30
 3871 034b 9F       		.byte	0x9f
 3872 034c 56030000 		.4byte	.LVL146
ARM GAS  C:\Users\MICHA_~1\AppData\Local\Temp\ccX8T6Q1.s 			page 99


 3873 0350 66030000 		.4byte	.LVL148
 3874 0354 0200     		.2byte	0x2
 3875 0356 30       		.byte	0x30
 3876 0357 9F       		.byte	0x9f
 3877 0358 00000000 		.4byte	0
 3878 035c 00000000 		.4byte	0
 3879              	.LLST14:
 3880 0360 B0000000 		.4byte	.LVL68
 3881 0364 DC000000 		.4byte	.LVL71
 3882 0368 0200     		.2byte	0x2
 3883 036a 34       		.byte	0x34
 3884 036b 9F       		.byte	0x9f
 3885 036c DC000000 		.4byte	.LVL71
 3886 0370 DE000000 		.4byte	.LVL72
 3887 0374 0200     		.2byte	0x2
 3888 0376 30       		.byte	0x30
 3889 0377 9F       		.byte	0x9f
 3890 0378 DE000000 		.4byte	.LVL72
 3891 037c 34010000 		.4byte	.LVL78
 3892 0380 0100     		.2byte	0x1
 3893 0382 55       		.byte	0x55
 3894 0383 46010000 		.4byte	.LVL80
 3895 0387 4E010000 		.4byte	.LVL82
 3896 038b 0200     		.2byte	0x2
 3897 038d 30       		.byte	0x30
 3898 038e 9F       		.byte	0x9f
 3899 038f 4E010000 		.4byte	.LVL82
 3900 0393 A8010000 		.4byte	.LVL85
 3901 0397 0200     		.2byte	0x2
 3902 0399 34       		.byte	0x34
 3903 039a 9F       		.byte	0x9f
 3904 039b A8010000 		.4byte	.LVL85
 3905 039f AA010000 		.4byte	.LVL86
 3906 03a3 0200     		.2byte	0x2
 3907 03a5 30       		.byte	0x30
 3908 03a6 9F       		.byte	0x9f
 3909 03a7 AA010000 		.4byte	.LVL86
 3910 03ab 6E020000 		.4byte	.LVL104
 3911 03af 0200     		.2byte	0x2
 3912 03b1 34       		.byte	0x34
 3913 03b2 9F       		.byte	0x9f
 3914 03b3 6E020000 		.4byte	.LVL104
 3915 03b7 7C020000 		.4byte	.LVL107
 3916 03bb 0200     		.2byte	0x2
 3917 03bd 30       		.byte	0x30
 3918 03be 9F       		.byte	0x9f
 3919 03bf 80020000 		.4byte	.LVL108
 3920 03c3 94020000 		.4byte	.LVL111
 3921 03c7 0200     		.2byte	0x2
 3922 03c9 34       		.byte	0x34
 3923 03ca 9F       		.byte	0x9f
 3924 03cb 94020000 		.4byte	.LVL111
 3925 03cf 9A020000 		.4byte	.LVL113
 3926 03d3 0200     		.2byte	0x2
 3927 03d5 30       		.byte	0x30
 3928 03d6 9F       		.byte	0x9f
 3929 03d7 9A020000 		.4byte	.LVL113
ARM GAS  C:\Users\MICHA_~1\AppData\Local\Temp\ccX8T6Q1.s 			page 100


 3930 03db 20030000 		.4byte	.LVL131
 3931 03df 0200     		.2byte	0x2
 3932 03e1 34       		.byte	0x34
 3933 03e2 9F       		.byte	0x9f
 3934 03e3 20030000 		.4byte	.LVL131
 3935 03e7 26030000 		.4byte	.LVL133
 3936 03eb 0200     		.2byte	0x2
 3937 03ed 30       		.byte	0x30
 3938 03ee 9F       		.byte	0x9f
 3939 03ef 26030000 		.4byte	.LVL133
 3940 03f3 48030000 		.4byte	.LVL144
 3941 03f7 0200     		.2byte	0x2
 3942 03f9 34       		.byte	0x34
 3943 03fa 9F       		.byte	0x9f
 3944 03fb 56030000 		.4byte	.LVL146
 3945 03ff 58030000 		.4byte	.LVL147
 3946 0403 0100     		.2byte	0x1
 3947 0405 55       		.byte	0x55
 3948 0406 58030000 		.4byte	.LVL147
 3949 040a 66030000 		.4byte	.LVL148
 3950 040e 0200     		.2byte	0x2
 3951 0410 34       		.byte	0x34
 3952 0411 9F       		.byte	0x9f
 3953 0412 00000000 		.4byte	0
 3954 0416 00000000 		.4byte	0
 3955              	.LLST15:
 3956 041a 7C000000 		.4byte	.LVL58
 3957 041e A6000000 		.4byte	.LVL66
 3958 0422 0E00     		.2byte	0xe
 3959 0424 70       		.byte	0x70
 3960 0425 00       		.sleb128 0
 3961 0426 08       		.byte	0x8
 3962 0427 FF       		.byte	0xff
 3963 0428 1A       		.byte	0x1a
 3964 0429 38       		.byte	0x38
 3965 042a 24       		.byte	0x24
 3966 042b 71       		.byte	0x71
 3967 042c 00       		.sleb128 0
 3968 042d 08       		.byte	0x8
 3969 042e FF       		.byte	0xff
 3970 042f 1A       		.byte	0x1a
 3971 0430 21       		.byte	0x21
 3972 0431 9F       		.byte	0x9f
 3973 0432 A6000000 		.4byte	.LVL66
 3974 0436 A8000000 		.4byte	.LVL67
 3975 043a 1700     		.2byte	0x17
 3976 043c 91       		.byte	0x91
 3977 043d 00       		.sleb128 0
 3978 043e 75       		.byte	0x75
 3979 043f 00       		.sleb128 0
 3980 0440 22       		.byte	0x22
 3981 0441 0A       		.byte	0xa
 3982 0442 7B02     		.2byte	0x27b
 3983 0444 1C       		.byte	0x1c
 3984 0445 94       		.byte	0x94
 3985 0446 01       		.byte	0x1
 3986 0447 08       		.byte	0x8
ARM GAS  C:\Users\MICHA_~1\AppData\Local\Temp\ccX8T6Q1.s 			page 101


 3987 0448 FF       		.byte	0xff
 3988 0449 1A       		.byte	0x1a
 3989 044a 38       		.byte	0x38
 3990 044b 24       		.byte	0x24
 3991 044c 71       		.byte	0x71
 3992 044d 00       		.sleb128 0
 3993 044e 08       		.byte	0x8
 3994 044f FF       		.byte	0xff
 3995 0450 1A       		.byte	0x1a
 3996 0451 21       		.byte	0x21
 3997 0452 9F       		.byte	0x9f
 3998 0453 A8000000 		.4byte	.LVL67
 3999 0457 D4000000 		.4byte	.LVL70
 4000 045b 2000     		.2byte	0x20
 4001 045d 91       		.byte	0x91
 4002 045e 00       		.sleb128 0
 4003 045f 75       		.byte	0x75
 4004 0460 00       		.sleb128 0
 4005 0461 22       		.byte	0x22
 4006 0462 0A       		.byte	0xa
 4007 0463 7B02     		.2byte	0x27b
 4008 0465 1C       		.byte	0x1c
 4009 0466 94       		.byte	0x94
 4010 0467 01       		.byte	0x1
 4011 0468 08       		.byte	0x8
 4012 0469 FF       		.byte	0xff
 4013 046a 1A       		.byte	0x1a
 4014 046b 38       		.byte	0x38
 4015 046c 24       		.byte	0x24
 4016 046d 91       		.byte	0x91
 4017 046e 00       		.sleb128 0
 4018 046f 75       		.byte	0x75
 4019 0470 00       		.sleb128 0
 4020 0471 22       		.byte	0x22
 4021 0472 0A       		.byte	0xa
 4022 0473 7C02     		.2byte	0x27c
 4023 0475 1C       		.byte	0x1c
 4024 0476 94       		.byte	0x94
 4025 0477 01       		.byte	0x1
 4026 0478 08       		.byte	0x8
 4027 0479 FF       		.byte	0xff
 4028 047a 1A       		.byte	0x1a
 4029 047b 21       		.byte	0x21
 4030 047c 9F       		.byte	0x9f
 4031 047d D4000000 		.4byte	.LVL70
 4032 0481 DE000000 		.4byte	.LVL72
 4033 0485 4200     		.2byte	0x42
 4034 0487 91       		.byte	0x91
 4035 0488 837B     		.sleb128 -637
 4036 048a 94       		.byte	0x94
 4037 048b 01       		.byte	0x1
 4038 048c 08       		.byte	0x8
 4039 048d FF       		.byte	0xff
 4040 048e 1A       		.byte	0x1a
 4041 048f 38       		.byte	0x38
 4042 0490 24       		.byte	0x24
 4043 0491 91       		.byte	0x91
ARM GAS  C:\Users\MICHA_~1\AppData\Local\Temp\ccX8T6Q1.s 			page 102


 4044 0492 827B     		.sleb128 -638
 4045 0494 94       		.byte	0x94
 4046 0495 01       		.byte	0x1
 4047 0496 08       		.byte	0x8
 4048 0497 FF       		.byte	0xff
 4049 0498 1A       		.byte	0x1a
 4050 0499 21       		.byte	0x21
 4051 049a 91       		.byte	0x91
 4052 049b 00       		.sleb128 0
 4053 049c 22       		.byte	0x22
 4054 049d 0A       		.byte	0xa
 4055 049e 7B02     		.2byte	0x27b
 4056 04a0 1C       		.byte	0x1c
 4057 04a1 94       		.byte	0x94
 4058 04a2 01       		.byte	0x1
 4059 04a3 08       		.byte	0x8
 4060 04a4 FF       		.byte	0xff
 4061 04a5 1A       		.byte	0x1a
 4062 04a6 38       		.byte	0x38
 4063 04a7 24       		.byte	0x24
 4064 04a8 91       		.byte	0x91
 4065 04a9 837B     		.sleb128 -637
 4066 04ab 94       		.byte	0x94
 4067 04ac 01       		.byte	0x1
 4068 04ad 08       		.byte	0x8
 4069 04ae FF       		.byte	0xff
 4070 04af 1A       		.byte	0x1a
 4071 04b0 38       		.byte	0x38
 4072 04b1 24       		.byte	0x24
 4073 04b2 91       		.byte	0x91
 4074 04b3 827B     		.sleb128 -638
 4075 04b5 94       		.byte	0x94
 4076 04b6 01       		.byte	0x1
 4077 04b7 08       		.byte	0x8
 4078 04b8 FF       		.byte	0xff
 4079 04b9 1A       		.byte	0x1a
 4080 04ba 21       		.byte	0x21
 4081 04bb 91       		.byte	0x91
 4082 04bc 00       		.sleb128 0
 4083 04bd 22       		.byte	0x22
 4084 04be 0A       		.byte	0xa
 4085 04bf 7C02     		.2byte	0x27c
 4086 04c1 1C       		.byte	0x1c
 4087 04c2 94       		.byte	0x94
 4088 04c3 01       		.byte	0x1
 4089 04c4 08       		.byte	0x8
 4090 04c5 FF       		.byte	0xff
 4091 04c6 1A       		.byte	0x1a
 4092 04c7 21       		.byte	0x21
 4093 04c8 9F       		.byte	0x9f
 4094 04c9 46010000 		.4byte	.LVL80
 4095 04cd 9B010000 		.4byte	.LVL84-1
 4096 04d1 2000     		.2byte	0x20
 4097 04d3 91       		.byte	0x91
 4098 04d4 00       		.sleb128 0
 4099 04d5 75       		.byte	0x75
 4100 04d6 00       		.sleb128 0
ARM GAS  C:\Users\MICHA_~1\AppData\Local\Temp\ccX8T6Q1.s 			page 103


 4101 04d7 22       		.byte	0x22
 4102 04d8 0A       		.byte	0xa
 4103 04d9 7B02     		.2byte	0x27b
 4104 04db 1C       		.byte	0x1c
 4105 04dc 94       		.byte	0x94
 4106 04dd 01       		.byte	0x1
 4107 04de 08       		.byte	0x8
 4108 04df FF       		.byte	0xff
 4109 04e0 1A       		.byte	0x1a
 4110 04e1 38       		.byte	0x38
 4111 04e2 24       		.byte	0x24
 4112 04e3 91       		.byte	0x91
 4113 04e4 00       		.sleb128 0
 4114 04e5 75       		.byte	0x75
 4115 04e6 00       		.sleb128 0
 4116 04e7 22       		.byte	0x22
 4117 04e8 0A       		.byte	0xa
 4118 04e9 7C02     		.2byte	0x27c
 4119 04eb 1C       		.byte	0x1c
 4120 04ec 94       		.byte	0x94
 4121 04ed 01       		.byte	0x1
 4122 04ee 08       		.byte	0x8
 4123 04ef FF       		.byte	0xff
 4124 04f0 1A       		.byte	0x1a
 4125 04f1 21       		.byte	0x21
 4126 04f2 9F       		.byte	0x9f
 4127 04f3 AA010000 		.4byte	.LVL86
 4128 04f7 D1010000 		.4byte	.LVL88-1
 4129 04fb 2000     		.2byte	0x20
 4130 04fd 91       		.byte	0x91
 4131 04fe 00       		.sleb128 0
 4132 04ff 75       		.byte	0x75
 4133 0500 00       		.sleb128 0
 4134 0501 22       		.byte	0x22
 4135 0502 0A       		.byte	0xa
 4136 0503 7B02     		.2byte	0x27b
 4137 0505 1C       		.byte	0x1c
 4138 0506 94       		.byte	0x94
 4139 0507 01       		.byte	0x1
 4140 0508 08       		.byte	0x8
 4141 0509 FF       		.byte	0xff
 4142 050a 1A       		.byte	0x1a
 4143 050b 38       		.byte	0x38
 4144 050c 24       		.byte	0x24
 4145 050d 91       		.byte	0x91
 4146 050e 00       		.sleb128 0
 4147 050f 75       		.byte	0x75
 4148 0510 00       		.sleb128 0
 4149 0511 22       		.byte	0x22
 4150 0512 0A       		.byte	0xa
 4151 0513 7C02     		.2byte	0x27c
 4152 0515 1C       		.byte	0x1c
 4153 0516 94       		.byte	0x94
 4154 0517 01       		.byte	0x1
 4155 0518 08       		.byte	0x8
 4156 0519 FF       		.byte	0xff
 4157 051a 1A       		.byte	0x1a
ARM GAS  C:\Users\MICHA_~1\AppData\Local\Temp\ccX8T6Q1.s 			page 104


 4158 051b 21       		.byte	0x21
 4159 051c 9F       		.byte	0x9f
 4160 051d D4010000 		.4byte	.LVL89
 4161 0521 E0010000 		.4byte	.LVL90
 4162 0525 2000     		.2byte	0x20
 4163 0527 91       		.byte	0x91
 4164 0528 00       		.sleb128 0
 4165 0529 75       		.byte	0x75
 4166 052a 00       		.sleb128 0
 4167 052b 22       		.byte	0x22
 4168 052c 0A       		.byte	0xa
 4169 052d 7B02     		.2byte	0x27b
 4170 052f 1C       		.byte	0x1c
 4171 0530 94       		.byte	0x94
 4172 0531 01       		.byte	0x1
 4173 0532 08       		.byte	0x8
 4174 0533 FF       		.byte	0xff
 4175 0534 1A       		.byte	0x1a
 4176 0535 38       		.byte	0x38
 4177 0536 24       		.byte	0x24
 4178 0537 91       		.byte	0x91
 4179 0538 00       		.sleb128 0
 4180 0539 75       		.byte	0x75
 4181 053a 00       		.sleb128 0
 4182 053b 22       		.byte	0x22
 4183 053c 0A       		.byte	0xa
 4184 053d 7C02     		.2byte	0x27c
 4185 053f 1C       		.byte	0x1c
 4186 0540 94       		.byte	0x94
 4187 0541 01       		.byte	0x1
 4188 0542 08       		.byte	0x8
 4189 0543 FF       		.byte	0xff
 4190 0544 1A       		.byte	0x1a
 4191 0545 21       		.byte	0x21
 4192 0546 9F       		.byte	0x9f
 4193 0547 5C020000 		.4byte	.LVL103
 4194 054b 79020000 		.4byte	.LVL106-1
 4195 054f 2000     		.2byte	0x20
 4196 0551 91       		.byte	0x91
 4197 0552 00       		.sleb128 0
 4198 0553 75       		.byte	0x75
 4199 0554 00       		.sleb128 0
 4200 0555 22       		.byte	0x22
 4201 0556 0A       		.byte	0xa
 4202 0557 7B02     		.2byte	0x27b
 4203 0559 1C       		.byte	0x1c
 4204 055a 94       		.byte	0x94
 4205 055b 01       		.byte	0x1
 4206 055c 08       		.byte	0x8
 4207 055d FF       		.byte	0xff
 4208 055e 1A       		.byte	0x1a
 4209 055f 38       		.byte	0x38
 4210 0560 24       		.byte	0x24
 4211 0561 91       		.byte	0x91
 4212 0562 00       		.sleb128 0
 4213 0563 75       		.byte	0x75
 4214 0564 00       		.sleb128 0
ARM GAS  C:\Users\MICHA_~1\AppData\Local\Temp\ccX8T6Q1.s 			page 105


 4215 0565 22       		.byte	0x22
 4216 0566 0A       		.byte	0xa
 4217 0567 7C02     		.2byte	0x27c
 4218 0569 1C       		.byte	0x1c
 4219 056a 94       		.byte	0x94
 4220 056b 01       		.byte	0x1
 4221 056c 08       		.byte	0x8
 4222 056d FF       		.byte	0xff
 4223 056e 1A       		.byte	0x1a
 4224 056f 21       		.byte	0x21
 4225 0570 9F       		.byte	0x9f
 4226 0571 80020000 		.4byte	.LVL108
 4227 0575 B4020000 		.4byte	.LVL114
 4228 0579 2000     		.2byte	0x20
 4229 057b 91       		.byte	0x91
 4230 057c 00       		.sleb128 0
 4231 057d 75       		.byte	0x75
 4232 057e 00       		.sleb128 0
 4233 057f 22       		.byte	0x22
 4234 0580 0A       		.byte	0xa
 4235 0581 7B02     		.2byte	0x27b
 4236 0583 1C       		.byte	0x1c
 4237 0584 94       		.byte	0x94
 4238 0585 01       		.byte	0x1
 4239 0586 08       		.byte	0x8
 4240 0587 FF       		.byte	0xff
 4241 0588 1A       		.byte	0x1a
 4242 0589 38       		.byte	0x38
 4243 058a 24       		.byte	0x24
 4244 058b 91       		.byte	0x91
 4245 058c 00       		.sleb128 0
 4246 058d 75       		.byte	0x75
 4247 058e 00       		.sleb128 0
 4248 058f 22       		.byte	0x22
 4249 0590 0A       		.byte	0xa
 4250 0591 7C02     		.2byte	0x27c
 4251 0593 1C       		.byte	0x1c
 4252 0594 94       		.byte	0x94
 4253 0595 01       		.byte	0x1
 4254 0596 08       		.byte	0x8
 4255 0597 FF       		.byte	0xff
 4256 0598 1A       		.byte	0x1a
 4257 0599 21       		.byte	0x21
 4258 059a 9F       		.byte	0x9f
 4259 059b B4020000 		.4byte	.LVL114
 4260 059f 22030000 		.4byte	.LVL132
 4261 05a3 4200     		.2byte	0x42
 4262 05a5 91       		.byte	0x91
 4263 05a6 837B     		.sleb128 -637
 4264 05a8 94       		.byte	0x94
 4265 05a9 01       		.byte	0x1
 4266 05aa 08       		.byte	0x8
 4267 05ab FF       		.byte	0xff
 4268 05ac 1A       		.byte	0x1a
 4269 05ad 38       		.byte	0x38
 4270 05ae 24       		.byte	0x24
 4271 05af 91       		.byte	0x91
ARM GAS  C:\Users\MICHA_~1\AppData\Local\Temp\ccX8T6Q1.s 			page 106


 4272 05b0 827B     		.sleb128 -638
 4273 05b2 94       		.byte	0x94
 4274 05b3 01       		.byte	0x1
 4275 05b4 08       		.byte	0x8
 4276 05b5 FF       		.byte	0xff
 4277 05b6 1A       		.byte	0x1a
 4278 05b7 21       		.byte	0x21
 4279 05b8 91       		.byte	0x91
 4280 05b9 00       		.sleb128 0
 4281 05ba 22       		.byte	0x22
 4282 05bb 0A       		.byte	0xa
 4283 05bc 7B02     		.2byte	0x27b
 4284 05be 1C       		.byte	0x1c
 4285 05bf 94       		.byte	0x94
 4286 05c0 01       		.byte	0x1
 4287 05c1 08       		.byte	0x8
 4288 05c2 FF       		.byte	0xff
 4289 05c3 1A       		.byte	0x1a
 4290 05c4 38       		.byte	0x38
 4291 05c5 24       		.byte	0x24
 4292 05c6 91       		.byte	0x91
 4293 05c7 837B     		.sleb128 -637
 4294 05c9 94       		.byte	0x94
 4295 05ca 01       		.byte	0x1
 4296 05cb 08       		.byte	0x8
 4297 05cc FF       		.byte	0xff
 4298 05cd 1A       		.byte	0x1a
 4299 05ce 38       		.byte	0x38
 4300 05cf 24       		.byte	0x24
 4301 05d0 91       		.byte	0x91
 4302 05d1 827B     		.sleb128 -638
 4303 05d3 94       		.byte	0x94
 4304 05d4 01       		.byte	0x1
 4305 05d5 08       		.byte	0x8
 4306 05d6 FF       		.byte	0xff
 4307 05d7 1A       		.byte	0x1a
 4308 05d8 21       		.byte	0x21
 4309 05d9 91       		.byte	0x91
 4310 05da 00       		.sleb128 0
 4311 05db 22       		.byte	0x22
 4312 05dc 0A       		.byte	0xa
 4313 05dd 7C02     		.2byte	0x27c
 4314 05df 1C       		.byte	0x1c
 4315 05e0 94       		.byte	0x94
 4316 05e1 01       		.byte	0x1
 4317 05e2 08       		.byte	0x8
 4318 05e3 FF       		.byte	0xff
 4319 05e4 1A       		.byte	0x1a
 4320 05e5 21       		.byte	0x21
 4321 05e6 9F       		.byte	0x9f
 4322 05e7 26030000 		.4byte	.LVL133
 4323 05eb 29030000 		.4byte	.LVL134-1
 4324 05ef 2000     		.2byte	0x20
 4325 05f1 91       		.byte	0x91
 4326 05f2 00       		.sleb128 0
 4327 05f3 75       		.byte	0x75
 4328 05f4 00       		.sleb128 0
ARM GAS  C:\Users\MICHA_~1\AppData\Local\Temp\ccX8T6Q1.s 			page 107


 4329 05f5 22       		.byte	0x22
 4330 05f6 0A       		.byte	0xa
 4331 05f7 7B02     		.2byte	0x27b
 4332 05f9 1C       		.byte	0x1c
 4333 05fa 94       		.byte	0x94
 4334 05fb 01       		.byte	0x1
 4335 05fc 08       		.byte	0x8
 4336 05fd FF       		.byte	0xff
 4337 05fe 1A       		.byte	0x1a
 4338 05ff 38       		.byte	0x38
 4339 0600 24       		.byte	0x24
 4340 0601 91       		.byte	0x91
 4341 0602 00       		.sleb128 0
 4342 0603 75       		.byte	0x75
 4343 0604 00       		.sleb128 0
 4344 0605 22       		.byte	0x22
 4345 0606 0A       		.byte	0xa
 4346 0607 7C02     		.2byte	0x27c
 4347 0609 1C       		.byte	0x1c
 4348 060a 94       		.byte	0x94
 4349 060b 01       		.byte	0x1
 4350 060c 08       		.byte	0x8
 4351 060d FF       		.byte	0xff
 4352 060e 1A       		.byte	0x1a
 4353 060f 21       		.byte	0x21
 4354 0610 9F       		.byte	0x9f
 4355 0611 38030000 		.4byte	.LVL137
 4356 0615 3A030000 		.4byte	.LVL138
 4357 0619 2000     		.2byte	0x20
 4358 061b 91       		.byte	0x91
 4359 061c 00       		.sleb128 0
 4360 061d 75       		.byte	0x75
 4361 061e 00       		.sleb128 0
 4362 061f 22       		.byte	0x22
 4363 0620 0A       		.byte	0xa
 4364 0621 7B02     		.2byte	0x27b
 4365 0623 1C       		.byte	0x1c
 4366 0624 94       		.byte	0x94
 4367 0625 01       		.byte	0x1
 4368 0626 08       		.byte	0x8
 4369 0627 FF       		.byte	0xff
 4370 0628 1A       		.byte	0x1a
 4371 0629 38       		.byte	0x38
 4372 062a 24       		.byte	0x24
 4373 062b 91       		.byte	0x91
 4374 062c 00       		.sleb128 0
 4375 062d 75       		.byte	0x75
 4376 062e 00       		.sleb128 0
 4377 062f 22       		.byte	0x22
 4378 0630 0A       		.byte	0xa
 4379 0631 7C02     		.2byte	0x27c
 4380 0633 1C       		.byte	0x1c
 4381 0634 94       		.byte	0x94
 4382 0635 01       		.byte	0x1
 4383 0636 08       		.byte	0x8
 4384 0637 FF       		.byte	0xff
 4385 0638 1A       		.byte	0x1a
ARM GAS  C:\Users\MICHA_~1\AppData\Local\Temp\ccX8T6Q1.s 			page 108


 4386 0639 21       		.byte	0x21
 4387 063a 9F       		.byte	0x9f
 4388 063b 3A030000 		.4byte	.LVL138
 4389 063f 3C030000 		.4byte	.LVL139
 4390 0643 4200     		.2byte	0x42
 4391 0645 91       		.byte	0x91
 4392 0646 837B     		.sleb128 -637
 4393 0648 94       		.byte	0x94
 4394 0649 01       		.byte	0x1
 4395 064a 08       		.byte	0x8
 4396 064b FF       		.byte	0xff
 4397 064c 1A       		.byte	0x1a
 4398 064d 38       		.byte	0x38
 4399 064e 24       		.byte	0x24
 4400 064f 91       		.byte	0x91
 4401 0650 827B     		.sleb128 -638
 4402 0652 94       		.byte	0x94
 4403 0653 01       		.byte	0x1
 4404 0654 08       		.byte	0x8
 4405 0655 FF       		.byte	0xff
 4406 0656 1A       		.byte	0x1a
 4407 0657 21       		.byte	0x21
 4408 0658 91       		.byte	0x91
 4409 0659 00       		.sleb128 0
 4410 065a 22       		.byte	0x22
 4411 065b 0A       		.byte	0xa
 4412 065c 7B02     		.2byte	0x27b
 4413 065e 1C       		.byte	0x1c
 4414 065f 94       		.byte	0x94
 4415 0660 01       		.byte	0x1
 4416 0661 08       		.byte	0x8
 4417 0662 FF       		.byte	0xff
 4418 0663 1A       		.byte	0x1a
 4419 0664 38       		.byte	0x38
 4420 0665 24       		.byte	0x24
 4421 0666 91       		.byte	0x91
 4422 0667 837B     		.sleb128 -637
 4423 0669 94       		.byte	0x94
 4424 066a 01       		.byte	0x1
 4425 066b 08       		.byte	0x8
 4426 066c FF       		.byte	0xff
 4427 066d 1A       		.byte	0x1a
 4428 066e 38       		.byte	0x38
 4429 066f 24       		.byte	0x24
 4430 0670 91       		.byte	0x91
 4431 0671 827B     		.sleb128 -638
 4432 0673 94       		.byte	0x94
 4433 0674 01       		.byte	0x1
 4434 0675 08       		.byte	0x8
 4435 0676 FF       		.byte	0xff
 4436 0677 1A       		.byte	0x1a
 4437 0678 21       		.byte	0x21
 4438 0679 91       		.byte	0x91
 4439 067a 00       		.sleb128 0
 4440 067b 22       		.byte	0x22
 4441 067c 0A       		.byte	0xa
 4442 067d 7C02     		.2byte	0x27c
ARM GAS  C:\Users\MICHA_~1\AppData\Local\Temp\ccX8T6Q1.s 			page 109


 4443 067f 1C       		.byte	0x1c
 4444 0680 94       		.byte	0x94
 4445 0681 01       		.byte	0x1
 4446 0682 08       		.byte	0x8
 4447 0683 FF       		.byte	0xff
 4448 0684 1A       		.byte	0x1a
 4449 0685 21       		.byte	0x21
 4450 0686 9F       		.byte	0x9f
 4451 0687 46030000 		.4byte	.LVL143
 4452 068b 48030000 		.4byte	.LVL144
 4453 068f 2000     		.2byte	0x20
 4454 0691 91       		.byte	0x91
 4455 0692 00       		.sleb128 0
 4456 0693 75       		.byte	0x75
 4457 0694 00       		.sleb128 0
 4458 0695 22       		.byte	0x22
 4459 0696 0A       		.byte	0xa
 4460 0697 7B02     		.2byte	0x27b
 4461 0699 1C       		.byte	0x1c
 4462 069a 94       		.byte	0x94
 4463 069b 01       		.byte	0x1
 4464 069c 08       		.byte	0x8
 4465 069d FF       		.byte	0xff
 4466 069e 1A       		.byte	0x1a
 4467 069f 38       		.byte	0x38
 4468 06a0 24       		.byte	0x24
 4469 06a1 91       		.byte	0x91
 4470 06a2 00       		.sleb128 0
 4471 06a3 75       		.byte	0x75
 4472 06a4 00       		.sleb128 0
 4473 06a5 22       		.byte	0x22
 4474 06a6 0A       		.byte	0xa
 4475 06a7 7C02     		.2byte	0x27c
 4476 06a9 1C       		.byte	0x1c
 4477 06aa 94       		.byte	0x94
 4478 06ab 01       		.byte	0x1
 4479 06ac 08       		.byte	0x8
 4480 06ad FF       		.byte	0xff
 4481 06ae 1A       		.byte	0x1a
 4482 06af 21       		.byte	0x21
 4483 06b0 9F       		.byte	0x9f
 4484 06b1 54030000 		.4byte	.LVL145
 4485 06b5 56030000 		.4byte	.LVL146
 4486 06b9 2000     		.2byte	0x20
 4487 06bb 91       		.byte	0x91
 4488 06bc 00       		.sleb128 0
 4489 06bd 75       		.byte	0x75
 4490 06be 00       		.sleb128 0
 4491 06bf 22       		.byte	0x22
 4492 06c0 0A       		.byte	0xa
 4493 06c1 7B02     		.2byte	0x27b
 4494 06c3 1C       		.byte	0x1c
 4495 06c4 94       		.byte	0x94
 4496 06c5 01       		.byte	0x1
 4497 06c6 08       		.byte	0x8
 4498 06c7 FF       		.byte	0xff
 4499 06c8 1A       		.byte	0x1a
ARM GAS  C:\Users\MICHA_~1\AppData\Local\Temp\ccX8T6Q1.s 			page 110


 4500 06c9 38       		.byte	0x38
 4501 06ca 24       		.byte	0x24
 4502 06cb 91       		.byte	0x91
 4503 06cc 00       		.sleb128 0
 4504 06cd 75       		.byte	0x75
 4505 06ce 00       		.sleb128 0
 4506 06cf 22       		.byte	0x22
 4507 06d0 0A       		.byte	0xa
 4508 06d1 7C02     		.2byte	0x27c
 4509 06d3 1C       		.byte	0x1c
 4510 06d4 94       		.byte	0x94
 4511 06d5 01       		.byte	0x1
 4512 06d6 08       		.byte	0x8
 4513 06d7 FF       		.byte	0xff
 4514 06d8 1A       		.byte	0x1a
 4515 06d9 21       		.byte	0x21
 4516 06da 9F       		.byte	0x9f
 4517 06db 56030000 		.4byte	.LVL146
 4518 06df 58030000 		.4byte	.LVL147
 4519 06e3 4200     		.2byte	0x42
 4520 06e5 91       		.byte	0x91
 4521 06e6 837B     		.sleb128 -637
 4522 06e8 94       		.byte	0x94
 4523 06e9 01       		.byte	0x1
 4524 06ea 08       		.byte	0x8
 4525 06eb FF       		.byte	0xff
 4526 06ec 1A       		.byte	0x1a
 4527 06ed 38       		.byte	0x38
 4528 06ee 24       		.byte	0x24
 4529 06ef 91       		.byte	0x91
 4530 06f0 827B     		.sleb128 -638
 4531 06f2 94       		.byte	0x94
 4532 06f3 01       		.byte	0x1
 4533 06f4 08       		.byte	0x8
 4534 06f5 FF       		.byte	0xff
 4535 06f6 1A       		.byte	0x1a
 4536 06f7 21       		.byte	0x21
 4537 06f8 91       		.byte	0x91
 4538 06f9 00       		.sleb128 0
 4539 06fa 22       		.byte	0x22
 4540 06fb 0A       		.byte	0xa
 4541 06fc 7B02     		.2byte	0x27b
 4542 06fe 1C       		.byte	0x1c
 4543 06ff 94       		.byte	0x94
 4544 0700 01       		.byte	0x1
 4545 0701 08       		.byte	0x8
 4546 0702 FF       		.byte	0xff
 4547 0703 1A       		.byte	0x1a
 4548 0704 38       		.byte	0x38
 4549 0705 24       		.byte	0x24
 4550 0706 91       		.byte	0x91
 4551 0707 837B     		.sleb128 -637
 4552 0709 94       		.byte	0x94
 4553 070a 01       		.byte	0x1
 4554 070b 08       		.byte	0x8
 4555 070c FF       		.byte	0xff
 4556 070d 1A       		.byte	0x1a
ARM GAS  C:\Users\MICHA_~1\AppData\Local\Temp\ccX8T6Q1.s 			page 111


 4557 070e 38       		.byte	0x38
 4558 070f 24       		.byte	0x24
 4559 0710 91       		.byte	0x91
 4560 0711 827B     		.sleb128 -638
 4561 0713 94       		.byte	0x94
 4562 0714 01       		.byte	0x1
 4563 0715 08       		.byte	0x8
 4564 0716 FF       		.byte	0xff
 4565 0717 1A       		.byte	0x1a
 4566 0718 21       		.byte	0x21
 4567 0719 91       		.byte	0x91
 4568 071a 00       		.sleb128 0
 4569 071b 22       		.byte	0x22
 4570 071c 0A       		.byte	0xa
 4571 071d 7C02     		.2byte	0x27c
 4572 071f 1C       		.byte	0x1c
 4573 0720 94       		.byte	0x94
 4574 0721 01       		.byte	0x1
 4575 0722 08       		.byte	0x8
 4576 0723 FF       		.byte	0xff
 4577 0724 1A       		.byte	0x1a
 4578 0725 21       		.byte	0x21
 4579 0726 9F       		.byte	0x9f
 4580 0727 58030000 		.4byte	.LVL147
 4581 072b 66030000 		.4byte	.LVL148
 4582 072f 2000     		.2byte	0x20
 4583 0731 91       		.byte	0x91
 4584 0732 00       		.sleb128 0
 4585 0733 75       		.byte	0x75
 4586 0734 00       		.sleb128 0
 4587 0735 22       		.byte	0x22
 4588 0736 0A       		.byte	0xa
 4589 0737 7B02     		.2byte	0x27b
 4590 0739 1C       		.byte	0x1c
 4591 073a 94       		.byte	0x94
 4592 073b 01       		.byte	0x1
 4593 073c 08       		.byte	0x8
 4594 073d FF       		.byte	0xff
 4595 073e 1A       		.byte	0x1a
 4596 073f 38       		.byte	0x38
 4597 0740 24       		.byte	0x24
 4598 0741 91       		.byte	0x91
 4599 0742 00       		.sleb128 0
 4600 0743 75       		.byte	0x75
 4601 0744 00       		.sleb128 0
 4602 0745 22       		.byte	0x22
 4603 0746 0A       		.byte	0xa
 4604 0747 7C02     		.2byte	0x27c
 4605 0749 1C       		.byte	0x1c
 4606 074a 94       		.byte	0x94
 4607 074b 01       		.byte	0x1
 4608 074c 08       		.byte	0x8
 4609 074d FF       		.byte	0xff
 4610 074e 1A       		.byte	0x1a
 4611 074f 21       		.byte	0x21
 4612 0750 9F       		.byte	0x9f
 4613 0751 00000000 		.4byte	0
ARM GAS  C:\Users\MICHA_~1\AppData\Local\Temp\ccX8T6Q1.s 			page 112


 4614 0755 00000000 		.4byte	0
 4615              	.LLST16:
 4616 0759 32000000 		.4byte	.LVL54
 4617 075d 68000000 		.4byte	.LVL56
 4618 0761 0100     		.2byte	0x1
 4619 0763 50       		.byte	0x50
 4620 0764 00000000 		.4byte	0
 4621 0768 00000000 		.4byte	0
 4622              	.LLST17:
 4623 076c 00000000 		.4byte	.LVL48
 4624 0770 1A000000 		.4byte	.LVL50
 4625 0774 0200     		.2byte	0x2
 4626 0776 30       		.byte	0x30
 4627 0777 9F       		.byte	0x9f
 4628 0778 72000000 		.4byte	.LVL57
 4629 077c D4000000 		.4byte	.LVL70
 4630 0780 0100     		.2byte	0x1
 4631 0782 55       		.byte	0x55
 4632 0783 D4000000 		.4byte	.LVL70
 4633 0787 DE000000 		.4byte	.LVL72
 4634 078b 1400     		.2byte	0x14
 4635 078d 91       		.byte	0x91
 4636 078e 837B     		.sleb128 -637
 4637 0790 94       		.byte	0x94
 4638 0791 01       		.byte	0x1
 4639 0792 08       		.byte	0x8
 4640 0793 FF       		.byte	0xff
 4641 0794 1A       		.byte	0x1a
 4642 0795 38       		.byte	0x38
 4643 0796 24       		.byte	0x24
 4644 0797 91       		.byte	0x91
 4645 0798 827B     		.sleb128 -638
 4646 079a 94       		.byte	0x94
 4647 079b 01       		.byte	0x1
 4648 079c 08       		.byte	0x8
 4649 079d FF       		.byte	0xff
 4650 079e 1A       		.byte	0x1a
 4651 079f 21       		.byte	0x21
 4652 07a0 9F       		.byte	0x9f
 4653 07a1 46010000 		.4byte	.LVL80
 4654 07a5 E2010000 		.4byte	.LVL91
 4655 07a9 0100     		.2byte	0x1
 4656 07ab 55       		.byte	0x55
 4657 07ac E2010000 		.4byte	.LVL91
 4658 07b0 00020000 		.4byte	.LVL94
 4659 07b4 0300     		.2byte	0x3
 4660 07b6 75       		.byte	0x75
 4661 07b7 03       		.sleb128 3
 4662 07b8 9F       		.byte	0x9f
 4663 07b9 00020000 		.4byte	.LVL94
 4664 07bd 04020000 		.4byte	.LVL95
 4665 07c1 0200     		.2byte	0x2
 4666 07c3 40       		.byte	0x40
 4667 07c4 9F       		.byte	0x9f
 4668 07c5 04020000 		.4byte	.LVL95
 4669 07c9 08020000 		.4byte	.LVL96
 4670 07cd 0300     		.2byte	0x3
ARM GAS  C:\Users\MICHA_~1\AppData\Local\Temp\ccX8T6Q1.s 			page 113


 4671 07cf 75       		.byte	0x75
 4672 07d0 03       		.sleb128 3
 4673 07d1 9F       		.byte	0x9f
 4674 07d2 08020000 		.4byte	.LVL96
 4675 07d6 5C020000 		.4byte	.LVL103
 4676 07da 0100     		.2byte	0x1
 4677 07dc 54       		.byte	0x54
 4678 07dd 5C020000 		.4byte	.LVL103
 4679 07e1 7C020000 		.4byte	.LVL107
 4680 07e5 0100     		.2byte	0x1
 4681 07e7 55       		.byte	0x55
 4682 07e8 80020000 		.4byte	.LVL108
 4683 07ec B4020000 		.4byte	.LVL114
 4684 07f0 0100     		.2byte	0x1
 4685 07f2 55       		.byte	0x55
 4686 07f3 B4020000 		.4byte	.LVL114
 4687 07f7 22030000 		.4byte	.LVL132
 4688 07fb 1400     		.2byte	0x14
 4689 07fd 91       		.byte	0x91
 4690 07fe 837B     		.sleb128 -637
 4691 0800 94       		.byte	0x94
 4692 0801 01       		.byte	0x1
 4693 0802 08       		.byte	0x8
 4694 0803 FF       		.byte	0xff
 4695 0804 1A       		.byte	0x1a
 4696 0805 38       		.byte	0x38
 4697 0806 24       		.byte	0x24
 4698 0807 91       		.byte	0x91
 4699 0808 827B     		.sleb128 -638
 4700 080a 94       		.byte	0x94
 4701 080b 01       		.byte	0x1
 4702 080c 08       		.byte	0x8
 4703 080d FF       		.byte	0xff
 4704 080e 1A       		.byte	0x1a
 4705 080f 21       		.byte	0x21
 4706 0810 9F       		.byte	0x9f
 4707 0811 26030000 		.4byte	.LVL133
 4708 0815 2E030000 		.4byte	.LVL135
 4709 0819 0100     		.2byte	0x1
 4710 081b 55       		.byte	0x55
 4711 081c 38030000 		.4byte	.LVL137
 4712 0820 3A030000 		.4byte	.LVL138
 4713 0824 0100     		.2byte	0x1
 4714 0826 55       		.byte	0x55
 4715 0827 3A030000 		.4byte	.LVL138
 4716 082b 3C030000 		.4byte	.LVL139
 4717 082f 1400     		.2byte	0x14
 4718 0831 91       		.byte	0x91
 4719 0832 837B     		.sleb128 -637
 4720 0834 94       		.byte	0x94
 4721 0835 01       		.byte	0x1
 4722 0836 08       		.byte	0x8
 4723 0837 FF       		.byte	0xff
 4724 0838 1A       		.byte	0x1a
 4725 0839 38       		.byte	0x38
 4726 083a 24       		.byte	0x24
 4727 083b 91       		.byte	0x91
ARM GAS  C:\Users\MICHA_~1\AppData\Local\Temp\ccX8T6Q1.s 			page 114


 4728 083c 827B     		.sleb128 -638
 4729 083e 94       		.byte	0x94
 4730 083f 01       		.byte	0x1
 4731 0840 08       		.byte	0x8
 4732 0841 FF       		.byte	0xff
 4733 0842 1A       		.byte	0x1a
 4734 0843 21       		.byte	0x21
 4735 0844 9F       		.byte	0x9f
 4736 0845 3C030000 		.4byte	.LVL139
 4737 0849 46030000 		.4byte	.LVL143
 4738 084d 0100     		.2byte	0x1
 4739 084f 54       		.byte	0x54
 4740 0850 46030000 		.4byte	.LVL143
 4741 0854 48030000 		.4byte	.LVL144
 4742 0858 0100     		.2byte	0x1
 4743 085a 55       		.byte	0x55
 4744 085b 54030000 		.4byte	.LVL145
 4745 085f 56030000 		.4byte	.LVL146
 4746 0863 0100     		.2byte	0x1
 4747 0865 55       		.byte	0x55
 4748 0866 00000000 		.4byte	0
 4749 086a 00000000 		.4byte	0
 4750              	.LLST18:
 4751 086e 00000000 		.4byte	.LVL48
 4752 0872 1A000000 		.4byte	.LVL50
 4753 0876 0200     		.2byte	0x2
 4754 0878 30       		.byte	0x30
 4755 0879 9F       		.byte	0x9f
 4756 087a DE000000 		.4byte	.LVL72
 4757 087e 42010000 		.4byte	.LVL79
 4758 0882 0100     		.2byte	0x1
 4759 0884 57       		.byte	0x57
 4760 0885 C8010000 		.4byte	.LVL87
 4761 0889 E0010000 		.4byte	.LVL90
 4762 088d 0100     		.2byte	0x1
 4763 088f 57       		.byte	0x57
 4764 0890 FA010000 		.4byte	.LVL93
 4765 0894 FF010000 		.4byte	.LVL94-1
 4766 0898 0100     		.2byte	0x1
 4767 089a 52       		.byte	0x52
 4768 089b FF010000 		.4byte	.LVL94-1
 4769 089f 04020000 		.4byte	.LVL95
 4770 08a3 0100     		.2byte	0x1
 4771 08a5 56       		.byte	0x56
 4772 08a6 04020000 		.4byte	.LVL95
 4773 08aa 08020000 		.4byte	.LVL96
 4774 08ae 0100     		.2byte	0x1
 4775 08b0 52       		.byte	0x52
 4776 08b1 08020000 		.4byte	.LVL96
 4777 08b5 1E020000 		.4byte	.LVL97
 4778 08b9 0100     		.2byte	0x1
 4779 08bb 56       		.byte	0x56
 4780 08bc 1E020000 		.4byte	.LVL97
 4781 08c0 5A020000 		.4byte	.LVL102
 4782 08c4 0100     		.2byte	0x1
 4783 08c6 55       		.byte	0x55
 4784 08c7 7C020000 		.4byte	.LVL107
ARM GAS  C:\Users\MICHA_~1\AppData\Local\Temp\ccX8T6Q1.s 			page 115


 4785 08cb 80020000 		.4byte	.LVL108
 4786 08cf 0100     		.2byte	0x1
 4787 08d1 57       		.byte	0x57
 4788 08d2 3C030000 		.4byte	.LVL139
 4789 08d6 3E030000 		.4byte	.LVL140
 4790 08da 0100     		.2byte	0x1
 4791 08dc 56       		.byte	0x56
 4792 08dd 3E030000 		.4byte	.LVL140
 4793 08e1 40030000 		.4byte	.LVL141
 4794 08e5 0600     		.2byte	0x6
 4795 08e7 77       		.byte	0x77
 4796 08e8 00       		.sleb128 0
 4797 08e9 75       		.byte	0x75
 4798 08ea 00       		.sleb128 0
 4799 08eb 22       		.byte	0x22
 4800 08ec 9F       		.byte	0x9f
 4801 08ed 42030000 		.4byte	.LVL142
 4802 08f1 46030000 		.4byte	.LVL143
 4803 08f5 0100     		.2byte	0x1
 4804 08f7 55       		.byte	0x55
 4805 08f8 58030000 		.4byte	.LVL147
 4806 08fc 66030000 		.4byte	.LVL148
 4807 0900 0200     		.2byte	0x2
 4808 0902 30       		.byte	0x30
 4809 0903 9F       		.byte	0x9f
 4810 0904 66030000 		.4byte	.LVL148
 4811 0908 84030000 		.4byte	.LFE64
 4812 090c 0100     		.2byte	0x1
 4813 090e 57       		.byte	0x57
 4814 090f 00000000 		.4byte	0
 4815 0913 00000000 		.4byte	0
 4816              	.LLST19:
 4817 0917 00000000 		.4byte	.LVL48
 4818 091b 1A000000 		.4byte	.LVL50
 4819 091f 0200     		.2byte	0x2
 4820 0921 3A       		.byte	0x3a
 4821 0922 9F       		.byte	0x9f
 4822 0923 1A000000 		.4byte	.LVL50
 4823 0927 20000000 		.4byte	.LVL51
 4824 092b 0100     		.2byte	0x1
 4825 092d 59       		.byte	0x59
 4826 092e 24000000 		.4byte	.LVL52
 4827 0932 26000000 		.4byte	.LVL53
 4828 0936 0100     		.2byte	0x1
 4829 0938 59       		.byte	0x59
 4830 0939 40000000 		.4byte	.LVL55
 4831 093d 84030000 		.4byte	.LFE64
 4832 0941 0100     		.2byte	0x1
 4833 0943 59       		.byte	0x59
 4834 0944 00000000 		.4byte	0
 4835 0948 00000000 		.4byte	0
 4836              	.LLST20:
 4837 094c 00000000 		.4byte	.LVL48
 4838 0950 1A000000 		.4byte	.LVL50
 4839 0954 0200     		.2byte	0x2
 4840 0956 30       		.byte	0x30
 4841 0957 9F       		.byte	0x9f
ARM GAS  C:\Users\MICHA_~1\AppData\Local\Temp\ccX8T6Q1.s 			page 116


 4842 0958 DE000000 		.4byte	.LVL72
 4843 095c 42010000 		.4byte	.LVL79
 4844 0960 0100     		.2byte	0x1
 4845 0962 5A       		.byte	0x5a
 4846 0963 40020000 		.4byte	.LVL99
 4847 0967 44020000 		.4byte	.LVL100
 4848 096b 0200     		.2byte	0x2
 4849 096d 31       		.byte	0x31
 4850 096e 9F       		.byte	0x9f
 4851 096f 44020000 		.4byte	.LVL100
 4852 0973 5C020000 		.4byte	.LVL103
 4853 0977 0100     		.2byte	0x1
 4854 0979 5A       		.byte	0x5a
 4855 097a 42030000 		.4byte	.LVL142
 4856 097e 46030000 		.4byte	.LVL143
 4857 0982 0100     		.2byte	0x1
 4858 0984 5A       		.byte	0x5a
 4859 0985 58030000 		.4byte	.LVL147
 4860 0989 84030000 		.4byte	.LFE64
 4861 098d 0100     		.2byte	0x1
 4862 098f 5A       		.byte	0x5a
 4863 0990 00000000 		.4byte	0
 4864 0994 00000000 		.4byte	0
 4865              	.LLST21:
 4866 0998 00000000 		.4byte	.LVL48
 4867 099c 1A000000 		.4byte	.LVL50
 4868 09a0 0200     		.2byte	0x2
 4869 09a2 30       		.byte	0x30
 4870 09a3 9F       		.byte	0x9f
 4871 09a4 DE000000 		.4byte	.LVL72
 4872 09a8 42010000 		.4byte	.LVL79
 4873 09ac 0100     		.2byte	0x1
 4874 09ae 56       		.byte	0x56
 4875 09af 90020000 		.4byte	.LVL110
 4876 09b3 9A020000 		.4byte	.LVL113
 4877 09b7 0200     		.2byte	0x2
 4878 09b9 31       		.byte	0x31
 4879 09ba 9F       		.byte	0x9f
 4880 09bb 58030000 		.4byte	.LVL147
 4881 09bf 66030000 		.4byte	.LVL148
 4882 09c3 0200     		.2byte	0x2
 4883 09c5 31       		.byte	0x31
 4884 09c6 9F       		.byte	0x9f
 4885 09c7 66030000 		.4byte	.LVL148
 4886 09cb 84030000 		.4byte	.LFE64
 4887 09cf 0100     		.2byte	0x1
 4888 09d1 56       		.byte	0x56
 4889 09d2 00000000 		.4byte	0
 4890 09d6 00000000 		.4byte	0
 4891              	.LLST22:
 4892 09da 8C000000 		.4byte	.LVL59
 4893 09de 98000000 		.4byte	.LVL61
 4894 09e2 0100     		.2byte	0x1
 4895 09e4 53       		.byte	0x53
 4896 09e5 98000000 		.4byte	.LVL61
 4897 09e9 9E000000 		.4byte	.LVL64
 4898 09ed 0300     		.2byte	0x3
ARM GAS  C:\Users\MICHA_~1\AppData\Local\Temp\ccX8T6Q1.s 			page 117


 4899 09ef 73       		.byte	0x73
 4900 09f0 01       		.sleb128 1
 4901 09f1 9F       		.byte	0x9f
 4902 09f2 9E000000 		.4byte	.LVL64
 4903 09f6 B0000000 		.4byte	.LVL68
 4904 09fa 0100     		.2byte	0x1
 4905 09fc 53       		.byte	0x53
 4906 09fd 46010000 		.4byte	.LVL80
 4907 0a01 52010000 		.4byte	.LVL83
 4908 0a05 0100     		.2byte	0x1
 4909 0a07 53       		.byte	0x53
 4910 0a08 54030000 		.4byte	.LVL145
 4911 0a0c 58030000 		.4byte	.LVL147
 4912 0a10 0100     		.2byte	0x1
 4913 0a12 53       		.byte	0x53
 4914 0a13 00000000 		.4byte	0
 4915 0a17 00000000 		.4byte	0
 4916              	.LLST23:
 4917 0a1b 8C000000 		.4byte	.LVL59
 4918 0a1f DE000000 		.4byte	.LVL72
 4919 0a23 0400     		.2byte	0x4
 4920 0a25 91       		.byte	0x91
 4921 0a26 807B     		.sleb128 -640
 4922 0a28 9F       		.byte	0x9f
 4923 0a29 46010000 		.4byte	.LVL80
 4924 0a2d 48030000 		.4byte	.LVL144
 4925 0a31 0400     		.2byte	0x4
 4926 0a33 91       		.byte	0x91
 4927 0a34 807B     		.sleb128 -640
 4928 0a36 9F       		.byte	0x9f
 4929 0a37 54030000 		.4byte	.LVL145
 4930 0a3b 66030000 		.4byte	.LVL148
 4931 0a3f 0400     		.2byte	0x4
 4932 0a41 91       		.byte	0x91
 4933 0a42 807B     		.sleb128 -640
 4934 0a44 9F       		.byte	0x9f
 4935 0a45 00000000 		.4byte	0
 4936 0a49 00000000 		.4byte	0
 4937              	.LLST24:
 4938 0a4d 8C000000 		.4byte	.LVL59
 4939 0a51 8E000000 		.4byte	.LVL60
 4940 0a55 0200     		.2byte	0x2
 4941 0a57 30       		.byte	0x30
 4942 0a58 9F       		.byte	0x9f
 4943 0a59 8E000000 		.4byte	.LVL60
 4944 0a5d 9A000000 		.4byte	.LVL62
 4945 0a61 0100     		.2byte	0x1
 4946 0a63 52       		.byte	0x52
 4947 0a64 9C000000 		.4byte	.LVL63
 4948 0a68 A2000000 		.4byte	.LVL65
 4949 0a6c 0100     		.2byte	0x1
 4950 0a6e 52       		.byte	0x52
 4951 0a6f A2000000 		.4byte	.LVL65
 4952 0a73 B0000000 		.4byte	.LVL68
 4953 0a77 0400     		.2byte	0x4
 4954 0a79 72       		.byte	0x72
 4955 0a7a 00       		.sleb128 0
ARM GAS  C:\Users\MICHA_~1\AppData\Local\Temp\ccX8T6Q1.s 			page 118


 4956 0a7b 1F       		.byte	0x1f
 4957 0a7c 9F       		.byte	0x9f
 4958 0a7d 46010000 		.4byte	.LVL80
 4959 0a81 4A010000 		.4byte	.LVL81
 4960 0a85 0400     		.2byte	0x4
 4961 0a87 72       		.byte	0x72
 4962 0a88 00       		.sleb128 0
 4963 0a89 1F       		.byte	0x1f
 4964 0a8a 9F       		.byte	0x9f
 4965 0a8b 54030000 		.4byte	.LVL145
 4966 0a8f 58030000 		.4byte	.LVL147
 4967 0a93 0400     		.2byte	0x4
 4968 0a95 72       		.byte	0x72
 4969 0a96 00       		.sleb128 0
 4970 0a97 1F       		.byte	0x1f
 4971 0a98 9F       		.byte	0x9f
 4972 0a99 00000000 		.4byte	0
 4973 0a9d 00000000 		.4byte	0
 4974              	.LLST25:
 4975 0aa1 B0000000 		.4byte	.LVL68
 4976 0aa5 DE000000 		.4byte	.LVL72
 4977 0aa9 0300     		.2byte	0x3
 4978 0aab 91       		.byte	0x91
 4979 0aac 847B     		.sleb128 -636
 4980 0aae 4E010000 		.4byte	.LVL82
 4981 0ab2 9B010000 		.4byte	.LVL84-1
 4982 0ab6 0300     		.2byte	0x3
 4983 0ab8 91       		.byte	0x91
 4984 0ab9 847B     		.sleb128 -636
 4985 0abb 9B010000 		.4byte	.LVL84-1
 4986 0abf AA010000 		.4byte	.LVL86
 4987 0ac3 0100     		.2byte	0x1
 4988 0ac5 5B       		.byte	0x5b
 4989 0ac6 AA010000 		.4byte	.LVL86
 4990 0aca D1010000 		.4byte	.LVL88-1
 4991 0ace 0300     		.2byte	0x3
 4992 0ad0 91       		.byte	0x91
 4993 0ad1 847B     		.sleb128 -636
 4994 0ad3 D1010000 		.4byte	.LVL88-1
 4995 0ad7 D4010000 		.4byte	.LVL89
 4996 0adb 0100     		.2byte	0x1
 4997 0add 5B       		.byte	0x5b
 4998 0ade D4010000 		.4byte	.LVL89
 4999 0ae2 E0010000 		.4byte	.LVL90
 5000 0ae6 0300     		.2byte	0x3
 5001 0ae8 91       		.byte	0x91
 5002 0ae9 847B     		.sleb128 -636
 5003 0aeb E0010000 		.4byte	.LVL90
 5004 0aef 5C020000 		.4byte	.LVL103
 5005 0af3 0100     		.2byte	0x1
 5006 0af5 5B       		.byte	0x5b
 5007 0af6 5C020000 		.4byte	.LVL103
 5008 0afa 76020000 		.4byte	.LVL105
 5009 0afe 0300     		.2byte	0x3
 5010 0b00 91       		.byte	0x91
 5011 0b01 847B     		.sleb128 -636
 5012 0b03 76020000 		.4byte	.LVL105
ARM GAS  C:\Users\MICHA_~1\AppData\Local\Temp\ccX8T6Q1.s 			page 119


 5013 0b07 79020000 		.4byte	.LVL106-1
 5014 0b0b 0200     		.2byte	0x2
 5015 0b0d 71       		.byte	0x71
 5016 0b0e 00       		.sleb128 0
 5017 0b0f 79020000 		.4byte	.LVL106-1
 5018 0b13 80020000 		.4byte	.LVL108
 5019 0b17 0100     		.2byte	0x1
 5020 0b19 5B       		.byte	0x5b
 5021 0b1a 80020000 		.4byte	.LVL108
 5022 0b1e 8A020000 		.4byte	.LVL109
 5023 0b22 0300     		.2byte	0x3
 5024 0b24 91       		.byte	0x91
 5025 0b25 847B     		.sleb128 -636
 5026 0b27 8A020000 		.4byte	.LVL109
 5027 0b2b 98020000 		.4byte	.LVL112
 5028 0b2f 0200     		.2byte	0x2
 5029 0b31 74       		.byte	0x74
 5030 0b32 00       		.sleb128 0
 5031 0b33 98020000 		.4byte	.LVL112
 5032 0b37 22030000 		.4byte	.LVL132
 5033 0b3b 0300     		.2byte	0x3
 5034 0b3d 91       		.byte	0x91
 5035 0b3e 847B     		.sleb128 -636
 5036 0b40 22030000 		.4byte	.LVL132
 5037 0b44 26030000 		.4byte	.LVL133
 5038 0b48 0100     		.2byte	0x1
 5039 0b4a 5B       		.byte	0x5b
 5040 0b4b 26030000 		.4byte	.LVL133
 5041 0b4f 29030000 		.4byte	.LVL134-1
 5042 0b53 0300     		.2byte	0x3
 5043 0b55 91       		.byte	0x91
 5044 0b56 847B     		.sleb128 -636
 5045 0b58 29030000 		.4byte	.LVL134-1
 5046 0b5c 38030000 		.4byte	.LVL137
 5047 0b60 0100     		.2byte	0x1
 5048 0b62 5B       		.byte	0x5b
 5049 0b63 38030000 		.4byte	.LVL137
 5050 0b67 3C030000 		.4byte	.LVL139
 5051 0b6b 0300     		.2byte	0x3
 5052 0b6d 91       		.byte	0x91
 5053 0b6e 847B     		.sleb128 -636
 5054 0b70 3C030000 		.4byte	.LVL139
 5055 0b74 46030000 		.4byte	.LVL143
 5056 0b78 0100     		.2byte	0x1
 5057 0b7a 5B       		.byte	0x5b
 5058 0b7b 46030000 		.4byte	.LVL143
 5059 0b7f 48030000 		.4byte	.LVL144
 5060 0b83 0300     		.2byte	0x3
 5061 0b85 91       		.byte	0x91
 5062 0b86 847B     		.sleb128 -636
 5063 0b88 58030000 		.4byte	.LVL147
 5064 0b8c 66030000 		.4byte	.LVL148
 5065 0b90 0300     		.2byte	0x3
 5066 0b92 91       		.byte	0x91
 5067 0b93 847B     		.sleb128 -636
 5068 0b95 00000000 		.4byte	0
 5069 0b99 00000000 		.4byte	0
ARM GAS  C:\Users\MICHA_~1\AppData\Local\Temp\ccX8T6Q1.s 			page 120


 5070              	.LLST26:
 5071 0b9d C8000000 		.4byte	.LVL69
 5072 0ba1 DE000000 		.4byte	.LVL72
 5073 0ba5 0200     		.2byte	0x2
 5074 0ba7 30       		.byte	0x30
 5075 0ba8 9F       		.byte	0x9f
 5076 0ba9 00000000 		.4byte	0
 5077 0bad 00000000 		.4byte	0
 5078              	.LLST27:
 5079 0bb1 B4020000 		.4byte	.LVL114
 5080 0bb5 B8020000 		.4byte	.LVL115
 5081 0bb9 0100     		.2byte	0x1
 5082 0bbb 55       		.byte	0x55
 5083 0bbc B8020000 		.4byte	.LVL115
 5084 0bc0 BC020000 		.4byte	.LVL116
 5085 0bc4 0800     		.2byte	0x8
 5086 0bc6 70       		.byte	0x70
 5087 0bc7 00       		.sleb128 0
 5088 0bc8 38       		.byte	0x38
 5089 0bc9 24       		.byte	0x24
 5090 0bca 71       		.byte	0x71
 5091 0bcb 00       		.sleb128 0
 5092 0bcc 21       		.byte	0x21
 5093 0bcd 9F       		.byte	0x9f
 5094 0bce BC020000 		.4byte	.LVL116
 5095 0bd2 CC020000 		.4byte	.LVL119
 5096 0bd6 1400     		.2byte	0x14
 5097 0bd8 91       		.byte	0x91
 5098 0bd9 867B     		.sleb128 -634
 5099 0bdb 94       		.byte	0x94
 5100 0bdc 01       		.byte	0x1
 5101 0bdd 08       		.byte	0x8
 5102 0bde FF       		.byte	0xff
 5103 0bdf 1A       		.byte	0x1a
 5104 0be0 38       		.byte	0x38
 5105 0be1 24       		.byte	0x24
 5106 0be2 91       		.byte	0x91
 5107 0be3 857B     		.sleb128 -635
 5108 0be5 94       		.byte	0x94
 5109 0be6 01       		.byte	0x1
 5110 0be7 08       		.byte	0x8
 5111 0be8 FF       		.byte	0xff
 5112 0be9 1A       		.byte	0x1a
 5113 0bea 21       		.byte	0x21
 5114 0beb 9F       		.byte	0x9f
 5115 0bec CC020000 		.4byte	.LVL119
 5116 0bf0 0C030000 		.4byte	.LVL128
 5117 0bf4 0100     		.2byte	0x1
 5118 0bf6 55       		.byte	0x55
 5119 0bf7 0C030000 		.4byte	.LVL128
 5120 0bfb 22030000 		.4byte	.LVL132
 5121 0bff 1400     		.2byte	0x14
 5122 0c01 91       		.byte	0x91
 5123 0c02 867B     		.sleb128 -634
 5124 0c04 94       		.byte	0x94
 5125 0c05 01       		.byte	0x1
 5126 0c06 08       		.byte	0x8
ARM GAS  C:\Users\MICHA_~1\AppData\Local\Temp\ccX8T6Q1.s 			page 121


 5127 0c07 FF       		.byte	0xff
 5128 0c08 1A       		.byte	0x1a
 5129 0c09 38       		.byte	0x38
 5130 0c0a 24       		.byte	0x24
 5131 0c0b 91       		.byte	0x91
 5132 0c0c 857B     		.sleb128 -635
 5133 0c0e 94       		.byte	0x94
 5134 0c0f 01       		.byte	0x1
 5135 0c10 08       		.byte	0x8
 5136 0c11 FF       		.byte	0xff
 5137 0c12 1A       		.byte	0x1a
 5138 0c13 21       		.byte	0x21
 5139 0c14 9F       		.byte	0x9f
 5140 0c15 00000000 		.4byte	0
 5141 0c19 00000000 		.4byte	0
 5142              	.LLST28:
 5143 0c1d B8020000 		.4byte	.LVL115
 5144 0c21 CC020000 		.4byte	.LVL119
 5145 0c25 0100     		.2byte	0x1
 5146 0c27 55       		.byte	0x55
 5147 0c28 D2020000 		.4byte	.LVL120
 5148 0c2c EE020000 		.4byte	.LVL125
 5149 0c30 0100     		.2byte	0x1
 5150 0c32 54       		.byte	0x54
 5151 0c33 EE020000 		.4byte	.LVL125
 5152 0c37 F4020000 		.4byte	.LVL126
 5153 0c3b 0A00     		.2byte	0xa
 5154 0c3d 7B       		.byte	0x7b
 5155 0c3e 00       		.sleb128 0
 5156 0c3f 38       		.byte	0x38
 5157 0c40 24       		.byte	0x24
 5158 0c41 75       		.byte	0x75
 5159 0c42 00       		.sleb128 0
 5160 0c43 22       		.byte	0x22
 5161 0c44 38       		.byte	0x38
 5162 0c45 24       		.byte	0x24
 5163 0c46 9F       		.byte	0x9f
 5164 0c47 F4020000 		.4byte	.LVL126
 5165 0c4b 12030000 		.4byte	.LVL129
 5166 0c4f 0100     		.2byte	0x1
 5167 0c51 51       		.byte	0x51
 5168 0c52 12030000 		.4byte	.LVL129
 5169 0c56 1A030000 		.4byte	.LVL130
 5170 0c5a 1D00     		.2byte	0x1d
 5171 0c5c 91       		.byte	0x91
 5172 0c5d 867B     		.sleb128 -634
 5173 0c5f 94       		.byte	0x94
 5174 0c60 01       		.byte	0x1
 5175 0c61 08       		.byte	0x8
 5176 0c62 FF       		.byte	0xff
 5177 0c63 1A       		.byte	0x1a
 5178 0c64 38       		.byte	0x38
 5179 0c65 24       		.byte	0x24
 5180 0c66 91       		.byte	0x91
 5181 0c67 857B     		.sleb128 -635
 5182 0c69 94       		.byte	0x94
 5183 0c6a 01       		.byte	0x1
ARM GAS  C:\Users\MICHA_~1\AppData\Local\Temp\ccX8T6Q1.s 			page 122


 5184 0c6b 08       		.byte	0x8
 5185 0c6c FF       		.byte	0xff
 5186 0c6d 1A       		.byte	0x1a
 5187 0c6e 21       		.byte	0x21
 5188 0c6f 7B       		.byte	0x7b
 5189 0c70 808009   		.sleb128 147456
 5190 0c73 38       		.byte	0x38
 5191 0c74 24       		.byte	0x24
 5192 0c75 22       		.byte	0x22
 5193 0c76 35       		.byte	0x35
 5194 0c77 24       		.byte	0x24
 5195 0c78 9F       		.byte	0x9f
 5196 0c79 00000000 		.4byte	0
 5197 0c7d 00000000 		.4byte	0
 5198              	.LLST29:
 5199 0c81 E4020000 		.4byte	.LVL124
 5200 0c85 F4020000 		.4byte	.LVL126
 5201 0c89 0100     		.2byte	0x1
 5202 0c8b 51       		.byte	0x51
 5203 0c8c FE020000 		.4byte	.LVL127
 5204 0c90 12030000 		.4byte	.LVL129
 5205 0c94 0100     		.2byte	0x1
 5206 0c96 53       		.byte	0x53
 5207 0c97 12030000 		.4byte	.LVL129
 5208 0c9b 1A030000 		.4byte	.LVL130
 5209 0c9f 0100     		.2byte	0x1
 5210 0ca1 51       		.byte	0x51
 5211 0ca2 1A030000 		.4byte	.LVL130
 5212 0ca6 22030000 		.4byte	.LVL132
 5213 0caa 0100     		.2byte	0x1
 5214 0cac 53       		.byte	0x53
 5215 0cad 00000000 		.4byte	0
 5216 0cb1 00000000 		.4byte	0
 5217              	.LLST30:
 5218 0cb5 B8020000 		.4byte	.LVL115
 5219 0cb9 CC020000 		.4byte	.LVL119
 5220 0cbd 0100     		.2byte	0x1
 5221 0cbf 55       		.byte	0x55
 5222 0cc0 00000000 		.4byte	0
 5223 0cc4 00000000 		.4byte	0
 5224              	.LLST31:
 5225 0cc8 B8020000 		.4byte	.LVL115
 5226 0ccc BC020000 		.4byte	.LVL116
 5227 0cd0 0200     		.2byte	0x2
 5228 0cd2 30       		.byte	0x30
 5229 0cd3 9F       		.byte	0x9f
 5230 0cd4 C8020000 		.4byte	.LVL118
 5231 0cd8 CC020000 		.4byte	.LVL119
 5232 0cdc 0100     		.2byte	0x1
 5233 0cde 53       		.byte	0x53
 5234 0cdf 00000000 		.4byte	0
 5235 0ce3 00000000 		.4byte	0
 5236              	.LLST32:
 5237 0ce7 B8020000 		.4byte	.LVL115
 5238 0ceb BC020000 		.4byte	.LVL116
 5239 0cef 0200     		.2byte	0x2
 5240 0cf1 40       		.byte	0x40
ARM GAS  C:\Users\MICHA_~1\AppData\Local\Temp\ccX8T6Q1.s 			page 123


 5241 0cf2 9F       		.byte	0x9f
 5242 0cf3 BC020000 		.4byte	.LVL116
 5243 0cf7 C4020000 		.4byte	.LVL117
 5244 0cfb 0300     		.2byte	0x3
 5245 0cfd 72       		.byte	0x72
 5246 0cfe 7F       		.sleb128 -1
 5247 0cff 9F       		.byte	0x9f
 5248 0d00 C4020000 		.4byte	.LVL117
 5249 0d04 C8020000 		.4byte	.LVL118
 5250 0d08 0100     		.2byte	0x1
 5251 0d0a 52       		.byte	0x52
 5252 0d0b 00000000 		.4byte	0
 5253 0d0f 00000000 		.4byte	0
 5254              	.LLST33:
 5255 0d13 D2020000 		.4byte	.LVL120
 5256 0d17 D8020000 		.4byte	.LVL121
 5257 0d1b 0400     		.2byte	0x4
 5258 0d1d 0A       		.byte	0xa
 5259 0d1e 0001     		.2byte	0x100
 5260 0d20 9F       		.byte	0x9f
 5261 0d21 DA020000 		.4byte	.LVL122
 5262 0d25 F4020000 		.4byte	.LVL126
 5263 0d29 0100     		.2byte	0x1
 5264 0d2b 52       		.byte	0x52
 5265 0d2c 00000000 		.4byte	0
 5266 0d30 00000000 		.4byte	0
 5267              	.LLST34:
 5268 0d34 D2020000 		.4byte	.LVL120
 5269 0d38 EE020000 		.4byte	.LVL125
 5270 0d3c 0100     		.2byte	0x1
 5271 0d3e 54       		.byte	0x54
 5272 0d3f EE020000 		.4byte	.LVL125
 5273 0d43 0C030000 		.4byte	.LVL128
 5274 0d47 0A00     		.2byte	0xa
 5275 0d49 7B       		.byte	0x7b
 5276 0d4a 00       		.sleb128 0
 5277 0d4b 38       		.byte	0x38
 5278 0d4c 24       		.byte	0x24
 5279 0d4d 75       		.byte	0x75
 5280 0d4e 00       		.sleb128 0
 5281 0d4f 22       		.byte	0x22
 5282 0d50 38       		.byte	0x38
 5283 0d51 24       		.byte	0x24
 5284 0d52 9F       		.byte	0x9f
 5285 0d53 0C030000 		.4byte	.LVL128
 5286 0d57 1A030000 		.4byte	.LVL130
 5287 0d5b 1B00     		.2byte	0x1b
 5288 0d5d 91       		.byte	0x91
 5289 0d5e 867B     		.sleb128 -634
 5290 0d60 94       		.byte	0x94
 5291 0d61 01       		.byte	0x1
 5292 0d62 08       		.byte	0x8
 5293 0d63 FF       		.byte	0xff
 5294 0d64 1A       		.byte	0x1a
 5295 0d65 38       		.byte	0x38
 5296 0d66 24       		.byte	0x24
 5297 0d67 91       		.byte	0x91
ARM GAS  C:\Users\MICHA_~1\AppData\Local\Temp\ccX8T6Q1.s 			page 124


 5298 0d68 857B     		.sleb128 -635
 5299 0d6a 94       		.byte	0x94
 5300 0d6b 01       		.byte	0x1
 5301 0d6c 08       		.byte	0x8
 5302 0d6d FF       		.byte	0xff
 5303 0d6e 1A       		.byte	0x1a
 5304 0d6f 21       		.byte	0x21
 5305 0d70 7B       		.byte	0x7b
 5306 0d71 00       		.sleb128 0
 5307 0d72 38       		.byte	0x38
 5308 0d73 24       		.byte	0x24
 5309 0d74 22       		.byte	0x22
 5310 0d75 38       		.byte	0x38
 5311 0d76 24       		.byte	0x24
 5312 0d77 9F       		.byte	0x9f
 5313 0d78 00000000 		.4byte	0
 5314 0d7c 00000000 		.4byte	0
 5315              	.LLST35:
 5316 0d80 D2020000 		.4byte	.LVL120
 5317 0d84 D8020000 		.4byte	.LVL121
 5318 0d88 0200     		.2byte	0x2
 5319 0d8a 30       		.byte	0x30
 5320 0d8b 9F       		.byte	0x9f
 5321 0d8c E0020000 		.4byte	.LVL123
 5322 0d90 F4020000 		.4byte	.LVL126
 5323 0d94 0100     		.2byte	0x1
 5324 0d96 51       		.byte	0x51
 5325 0d97 00000000 		.4byte	0
 5326 0d9b 00000000 		.4byte	0
 5327              	.LLST36:
 5328 0d9f DE000000 		.4byte	.LVL72
 5329 0da3 28010000 		.4byte	.LVL77
 5330 0da7 0400     		.2byte	0x4
 5331 0da9 91       		.byte	0x91
 5332 0daa 807B     		.sleb128 -640
 5333 0dac 9F       		.byte	0x9f
 5334 0dad 28010000 		.4byte	.LVL77
 5335 0db1 33010000 		.4byte	.LVL78-1
 5336 0db5 0100     		.2byte	0x1
 5337 0db7 50       		.byte	0x50
 5338 0db8 33010000 		.4byte	.LVL78-1
 5339 0dbc 34010000 		.4byte	.LVL78
 5340 0dc0 0400     		.2byte	0x4
 5341 0dc2 91       		.byte	0x91
 5342 0dc3 807B     		.sleb128 -640
 5343 0dc5 9F       		.byte	0x9f
 5344 0dc6 00000000 		.4byte	0
 5345 0dca 00000000 		.4byte	0
 5346              	.LLST37:
 5347 0dce DE000000 		.4byte	.LVL72
 5348 0dd2 34010000 		.4byte	.LVL78
 5349 0dd6 0100     		.2byte	0x1
 5350 0dd8 55       		.byte	0x55
 5351 0dd9 00000000 		.4byte	0
 5352 0ddd 00000000 		.4byte	0
 5353              	.LLST38:
 5354 0de1 08010000 		.4byte	.LVL74
ARM GAS  C:\Users\MICHA_~1\AppData\Local\Temp\ccX8T6Q1.s 			page 125


 5355 0de5 18010000 		.4byte	.LVL76
 5356 0de9 0100     		.2byte	0x1
 5357 0deb 53       		.byte	0x53
 5358 0dec 00000000 		.4byte	0
 5359 0df0 00000000 		.4byte	0
 5360              	.LLST39:
 5361 0df4 FA000000 		.4byte	.LVL73
 5362 0df8 28010000 		.4byte	.LVL77
 5363 0dfc 0400     		.2byte	0x4
 5364 0dfe 91       		.byte	0x91
 5365 0dff 807B     		.sleb128 -640
 5366 0e01 9F       		.byte	0x9f
 5367 0e02 28010000 		.4byte	.LVL77
 5368 0e06 33010000 		.4byte	.LVL78-1
 5369 0e0a 0100     		.2byte	0x1
 5370 0e0c 50       		.byte	0x50
 5371 0e0d 33010000 		.4byte	.LVL78-1
 5372 0e11 34010000 		.4byte	.LVL78
 5373 0e15 0400     		.2byte	0x4
 5374 0e17 91       		.byte	0x91
 5375 0e18 807B     		.sleb128 -640
 5376 0e1a 9F       		.byte	0x9f
 5377 0e1b 00000000 		.4byte	0
 5378 0e1f 00000000 		.4byte	0
 5379              	.LLST40:
 5380 0e23 08010000 		.4byte	.LVL74
 5381 0e27 14010000 		.4byte	.LVL75
 5382 0e2b 0100     		.2byte	0x1
 5383 0e2d 52       		.byte	0x52
 5384 0e2e 00000000 		.4byte	0
 5385 0e32 00000000 		.4byte	0
 5386              	.LLST41:
 5387 0e36 00000000 		.4byte	.LFB59
 5388 0e3a 02000000 		.4byte	.LCFI4
 5389 0e3e 0200     		.2byte	0x2
 5390 0e40 7D       		.byte	0x7d
 5391 0e41 00       		.sleb128 0
 5392 0e42 02000000 		.4byte	.LCFI4
 5393 0e46 04000000 		.4byte	.LCFI5
 5394 0e4a 0200     		.2byte	0x2
 5395 0e4c 7D       		.byte	0x7d
 5396 0e4d 08       		.sleb128 8
 5397 0e4e 04000000 		.4byte	.LCFI5
 5398 0e52 80000000 		.4byte	.LFE59
 5399 0e56 0300     		.2byte	0x3
 5400 0e58 7D       		.byte	0x7d
 5401 0e59 A802     		.sleb128 296
 5402 0e5b 00000000 		.4byte	0
 5403 0e5f 00000000 		.4byte	0
 5404              	.LLST42:
 5405 0e63 38000000 		.4byte	.LVL157
 5406 0e67 3E000000 		.4byte	.LVL158
 5407 0e6b 0700     		.2byte	0x7
 5408 0e6d 73       		.byte	0x73
 5409 0e6e 00       		.sleb128 0
 5410 0e6f 70       		.byte	0x70
 5411 0e70 00       		.sleb128 0
ARM GAS  C:\Users\MICHA_~1\AppData\Local\Temp\ccX8T6Q1.s 			page 126


 5412 0e71 1C       		.byte	0x1c
 5413 0e72 1F       		.byte	0x1f
 5414 0e73 9F       		.byte	0x9f
 5415 0e74 00000000 		.4byte	0
 5416 0e78 00000000 		.4byte	0
 5417              	.LLST43:
 5418 0e7c 50000000 		.4byte	.LVL160
 5419 0e80 5E000000 		.4byte	.LVL161
 5420 0e84 0100     		.2byte	0x1
 5421 0e86 50       		.byte	0x50
 5422 0e87 00000000 		.4byte	0
 5423 0e8b 00000000 		.4byte	0
 5424              	.LLST44:
 5425 0e8f 24000000 		.4byte	.LVL153
 5426 0e93 28000000 		.4byte	.LVL154
 5427 0e97 0100     		.2byte	0x1
 5428 0e99 51       		.byte	0x51
 5429 0e9a 00000000 		.4byte	0
 5430 0e9e 00000000 		.4byte	0
 5431              	.LLST45:
 5432 0ea2 24000000 		.4byte	.LVL153
 5433 0ea6 28000000 		.4byte	.LVL154
 5434 0eaa 0200     		.2byte	0x2
 5435 0eac 30       		.byte	0x30
 5436 0ead 9F       		.byte	0x9f
 5437 0eae 28000000 		.4byte	.LVL154
 5438 0eb2 30000000 		.4byte	.LVL155
 5439 0eb6 0100     		.2byte	0x1
 5440 0eb8 53       		.byte	0x53
 5441 0eb9 32000000 		.4byte	.LVL156
 5442 0ebd 3E000000 		.4byte	.LVL158
 5443 0ec1 0100     		.2byte	0x1
 5444 0ec3 53       		.byte	0x53
 5445 0ec4 00000000 		.4byte	0
 5446 0ec8 00000000 		.4byte	0
 5447              	.LLST46:
 5448 0ecc 00000000 		.4byte	.LFB61
 5449 0ed0 02000000 		.4byte	.LCFI6
 5450 0ed4 0200     		.2byte	0x2
 5451 0ed6 7D       		.byte	0x7d
 5452 0ed7 00       		.sleb128 0
 5453 0ed8 02000000 		.4byte	.LCFI6
 5454 0edc 30000000 		.4byte	.LFE61
 5455 0ee0 0200     		.2byte	0x2
 5456 0ee2 7D       		.byte	0x7d
 5457 0ee3 08       		.sleb128 8
 5458 0ee4 00000000 		.4byte	0
 5459 0ee8 00000000 		.4byte	0
 5460              	.LLST47:
 5461 0eec 00000000 		.4byte	.LFB66
 5462 0ef0 02000000 		.4byte	.LCFI7
 5463 0ef4 0200     		.2byte	0x2
 5464 0ef6 7D       		.byte	0x7d
 5465 0ef7 00       		.sleb128 0
 5466 0ef8 02000000 		.4byte	.LCFI7
 5467 0efc 08000000 		.4byte	.LCFI8
 5468 0f00 0200     		.2byte	0x2
ARM GAS  C:\Users\MICHA_~1\AppData\Local\Temp\ccX8T6Q1.s 			page 127


 5469 0f02 7D       		.byte	0x7d
 5470 0f03 10       		.sleb128 16
 5471 0f04 08000000 		.4byte	.LCFI8
 5472 0f08 34000000 		.4byte	.LFE66
 5473 0f0c 0300     		.2byte	0x3
 5474 0f0e 7D       		.byte	0x7d
 5475 0f0f 9002     		.sleb128 272
 5476 0f11 00000000 		.4byte	0
 5477 0f15 00000000 		.4byte	0
 5478              	.LLST48:
 5479 0f19 00000000 		.4byte	.LVL168
 5480 0f1d 22000000 		.4byte	.LVL172
 5481 0f21 0100     		.2byte	0x1
 5482 0f23 50       		.byte	0x50
 5483 0f24 22000000 		.4byte	.LVL172
 5484 0f28 34000000 		.4byte	.LFE66
 5485 0f2c 0400     		.2byte	0x4
 5486 0f2e F3       		.byte	0xf3
 5487 0f2f 01       		.uleb128 0x1
 5488 0f30 50       		.byte	0x50
 5489 0f31 9F       		.byte	0x9f
 5490 0f32 00000000 		.4byte	0
 5491 0f36 00000000 		.4byte	0
 5492              	.LLST49:
 5493 0f3a 00000000 		.4byte	.LVL168
 5494 0f3e 28000000 		.4byte	.LVL173
 5495 0f42 0100     		.2byte	0x1
 5496 0f44 51       		.byte	0x51
 5497 0f45 28000000 		.4byte	.LVL173
 5498 0f49 2A000000 		.4byte	.LVL174
 5499 0f4d 0900     		.2byte	0x9
 5500 0f4f 91       		.byte	0x91
 5501 0f50 00       		.sleb128 0
 5502 0f51 70       		.byte	0x70
 5503 0f52 00       		.sleb128 0
 5504 0f53 22       		.byte	0x22
 5505 0f54 0A       		.byte	0xa
 5506 0f55 1001     		.2byte	0x110
 5507 0f57 1C       		.byte	0x1c
 5508 0f58 2A000000 		.4byte	.LVL174
 5509 0f5c 34000000 		.4byte	.LFE66
 5510 0f60 0400     		.2byte	0x4
 5511 0f62 F3       		.byte	0xf3
 5512 0f63 01       		.uleb128 0x1
 5513 0f64 51       		.byte	0x51
 5514 0f65 9F       		.byte	0x9f
 5515 0f66 00000000 		.4byte	0
 5516 0f6a 00000000 		.4byte	0
 5517              	.LLST51:
 5518 0f6e 0C000000 		.4byte	.LVL169
 5519 0f72 2C000000 		.4byte	.LVL175
 5520 0f76 0100     		.2byte	0x1
 5521 0f78 52       		.byte	0x52
 5522 0f79 2C000000 		.4byte	.LVL175
 5523 0f7d 2F000000 		.4byte	.LVL176-1
 5524 0f81 0100     		.2byte	0x1
 5525 0f83 51       		.byte	0x51
ARM GAS  C:\Users\MICHA_~1\AppData\Local\Temp\ccX8T6Q1.s 			page 128


 5526 0f84 2F000000 		.4byte	.LVL176-1
 5527 0f88 34000000 		.4byte	.LFE66
 5528 0f8c 0A00     		.2byte	0xa
 5529 0f8e F3       		.byte	0xf3
 5530 0f8f 01       		.uleb128 0x1
 5531 0f90 50       		.byte	0x50
 5532 0f91 09       		.byte	0x9
 5533 0f92 F4       		.byte	0xf4
 5534 0f93 24       		.byte	0x24
 5535 0f94 09       		.byte	0x9
 5536 0f95 FC       		.byte	0xfc
 5537 0f96 25       		.byte	0x25
 5538 0f97 9F       		.byte	0x9f
 5539 0f98 00000000 		.4byte	0
 5540 0f9c 00000000 		.4byte	0
 5541              	.LLST52:
 5542 0fa0 10000000 		.4byte	.LVL170
 5543 0fa4 12000000 		.4byte	.LVL171
 5544 0fa8 0200     		.2byte	0x2
 5545 0faa 30       		.byte	0x30
 5546 0fab 9F       		.byte	0x9f
 5547 0fac 00000000 		.4byte	0
 5548 0fb0 00000000 		.4byte	0
 5549              		.section	.debug_aranges,"",%progbits
 5550 0000 4C000000 		.4byte	0x4c
 5551 0004 0200     		.2byte	0x2
 5552 0006 00000000 		.4byte	.Ldebug_info0
 5553 000a 04       		.byte	0x4
 5554 000b 00       		.byte	0
 5555 000c 0000     		.2byte	0
 5556 000e 0000     		.2byte	0
 5557 0010 00000000 		.4byte	.LFB62
 5558 0014 02000000 		.4byte	.LFE62-.LFB62
 5559 0018 00000000 		.4byte	.LFB69
 5560 001c 8C000000 		.4byte	.LFE69-.LFB69
 5561 0020 00000000 		.4byte	.LFB70
 5562 0024 84000000 		.4byte	.LFE70-.LFB70
 5563 0028 00000000 		.4byte	.LFB64
 5564 002c 84030000 		.4byte	.LFE64-.LFB64
 5565 0030 00000000 		.4byte	.LFB59
 5566 0034 80000000 		.4byte	.LFE59-.LFB59
 5567 0038 00000000 		.4byte	.LFB61
 5568 003c 30000000 		.4byte	.LFE61-.LFB61
 5569 0040 00000000 		.4byte	.LFB66
 5570 0044 34000000 		.4byte	.LFE66-.LFB66
 5571 0048 00000000 		.4byte	0
 5572 004c 00000000 		.4byte	0
 5573              		.section	.debug_ranges,"",%progbits
 5574              	.Ldebug_ranges0:
 5575 0000 B0000000 		.4byte	.LBB22
 5576 0004 DE000000 		.4byte	.LBE22
 5577 0008 46010000 		.4byte	.LBB36
 5578 000c 4C030000 		.4byte	.LBE36
 5579 0010 00000000 		.4byte	0
 5580 0014 00000000 		.4byte	0
 5581 0018 00000000 		.4byte	.LFB62
 5582 001c 02000000 		.4byte	.LFE62
ARM GAS  C:\Users\MICHA_~1\AppData\Local\Temp\ccX8T6Q1.s 			page 129


 5583 0020 00000000 		.4byte	.LFB69
 5584 0024 8C000000 		.4byte	.LFE69
 5585 0028 00000000 		.4byte	.LFB70
 5586 002c 84000000 		.4byte	.LFE70
 5587 0030 00000000 		.4byte	.LFB64
 5588 0034 84030000 		.4byte	.LFE64
 5589 0038 00000000 		.4byte	.LFB59
 5590 003c 80000000 		.4byte	.LFE59
 5591 0040 00000000 		.4byte	.LFB61
 5592 0044 30000000 		.4byte	.LFE61
 5593 0048 00000000 		.4byte	.LFB66
 5594 004c 34000000 		.4byte	.LFE66
 5595 0050 00000000 		.4byte	0
 5596 0054 00000000 		.4byte	0
 5597              		.section	.debug_line,"",%progbits
 5598              	.Ldebug_line0:
 5599 0000 D2030000 		.section	.debug_str,"MS",%progbits,1
 5599      02002401 
 5599      00000201 
 5599      FB0E0D00 
 5599      01010101 
 5600              	.LASF33:
 5601 0000 76616C69 		.ascii	"valid\000"
 5601      6400
 5602              	.LASF39:
 5603 0006 424C5F57 		.ascii	"BL_WritePacket\000"
 5603      72697465 
 5603      5061636B 
 5603      657400
 5604              	.LASF28:
 5605 0015 61707049 		.ascii	"appId\000"
 5605      6400
 5606              	.LASF31:
 5607 001b 72657375 		.ascii	"result\000"
 5607      6C7400
 5608              	.LASF66:
 5609 0022 746D7053 		.ascii	"tmpStatus\000"
 5609      74617475 
 5609      7300
 5610              	.LASF75:
 5611 002c 62617365 		.ascii	"baseAddr\000"
 5611      41646472 
 5611      00
 5612              	.LASF84:
 5613 0035 4379536F 		.ascii	"CySoftwareReset\000"
 5613      66747761 
 5613      72655265 
 5613      73657400 
 5614              	.LASF51:
 5615 0045 706B7453 		.ascii	"pktSize\000"
 5615      697A6500 
 5616              	.LASF44:
 5617 004d 61707041 		.ascii	"appAddr\000"
 5617      64647200 
 5618              	.LASF73:
 5619 0055 726F7744 		.ascii	"rowData\000"
 5619      61746100 
ARM GAS  C:\Users\MICHA_~1\AppData\Local\Temp\ccX8T6Q1.s 			page 130


 5620              	.LASF2:
 5621 005d 73686F72 		.ascii	"short int\000"
 5621      7420696E 
 5621      7400
 5622              	.LASF65:
 5623 0067 424C5F66 		.ascii	"BL_flashBuffer\000"
 5623      6C617368 
 5623      42756666 
 5623      657200
 5624              	.LASF48:
 5625 0076 61636B43 		.ascii	"ackCode\000"
 5625      6F646500 
 5626              	.LASF21:
 5627 007e 73697A65 		.ascii	"sizetype\000"
 5627      74797065 
 5627      00
 5628              	.LASF59:
 5629 0087 73746172 		.ascii	"startRow\000"
 5629      74526F77 
 5629      00
 5630              	.LASF58:
 5631 0090 62746C64 		.ascii	"btldrData\000"
 5631      72446174 
 5631      6100
 5632              	.LASF52:
 5633 009a 64617461 		.ascii	"dataOffset\000"
 5633      4F666673 
 5633      657400
 5634              	.LASF79:
 5635 00a5 424C5F53 		.ascii	"BL_SizeBytesAccess\000"
 5635      697A6542 
 5635      79746573 
 5635      41636365 
 5635      737300
 5636              	.LASF61:
 5637 00b8 42746C64 		.ascii	"BtldrVersion\000"
 5637      72566572 
 5637      73696F6E 
 5637      00
 5638              	.LASF86:
 5639 00c5 55534246 		.ascii	"USBFS_CyBtldrCommWrite\000"
 5639      535F4379 
 5639      42746C64 
 5639      72436F6D 
 5639      6D577269 
 5640              	.LASF82:
 5641 00dc 6D656D63 		.ascii	"memcpy\000"
 5641      707900
 5642              	.LASF94:
 5643 00e3 573A5C53 		.ascii	"W:\\SCSI2SD\\USB_Bootloader.cydsn\000"
 5643      43534932 
 5643      53445C55 
 5643      53425F42 
 5643      6F6F746C 
 5644              	.LASF71:
 5645 0103 72756E54 		.ascii	"runType\000"
 5645      79706500 
ARM GAS  C:\Users\MICHA_~1\AppData\Local\Temp\ccX8T6Q1.s 			page 131


 5646              	.LASF11:
 5647 010b 75696E74 		.ascii	"uint16\000"
 5647      313600
 5648              	.LASF41:
 5649 0112 63686563 		.ascii	"checksum\000"
 5649      6B73756D 
 5649      00
 5650              	.LASF32:
 5651 011b 424C5F56 		.ascii	"BL_ValidateBootloadable\000"
 5651      616C6964 
 5651      61746542 
 5651      6F6F746C 
 5651      6F616461 
 5652              	.LASF10:
 5653 0133 75696E74 		.ascii	"uint8\000"
 5653      3800
 5654              	.LASF96:
 5655 0139 43795365 		.ascii	"CySetTemp\000"
 5655      7454656D 
 5655      7000
 5656              	.LASF67:
 5657 0143 424C5F53 		.ascii	"BL_Start\000"
 5657      74617274 
 5657      00
 5658              	.LASF20:
 5659 014c 426F6F74 		.ascii	"BootLoaderVersion\000"
 5659      4C6F6164 
 5659      65725665 
 5659      7273696F 
 5659      6E00
 5660              	.LASF0:
 5661 015e 7369676E 		.ascii	"signed char\000"
 5661      65642063 
 5661      68617200 
 5662              	.LASF13:
 5663 016a 666C6F61 		.ascii	"float\000"
 5663      7400
 5664              	.LASF6:
 5665 0170 6C6F6E67 		.ascii	"long long int\000"
 5665      206C6F6E 
 5665      6720696E 
 5665      7400
 5666              	.LASF81:
 5667 017e 6D656D73 		.ascii	"memset\000"
 5667      657400
 5668              	.LASF15:
 5669 0185 63686172 		.ascii	"char\000"
 5669      00
 5670              	.LASF25:
 5671 018a 424C5F43 		.ascii	"BL_Calc8BitEepromSum\000"
 5671      616C6338 
 5671      42697445 
 5671      6570726F 
 5671      6D53756D 
 5672              	.LASF72:
 5673 019f 666C7341 		.ascii	"flsAddr\000"
 5673      64647200 
ARM GAS  C:\Users\MICHA_~1\AppData\Local\Temp\ccX8T6Q1.s 			page 132


 5674              	.LASF70:
 5675 01a7 61646472 		.ascii	"address\000"
 5675      65737300 
 5676              	.LASF35:
 5677 01af 63757242 		.ascii	"curByte\000"
 5677      79746500 
 5678              	.LASF64:
 5679 01b7 746D7049 		.ascii	"tmpIndex\000"
 5679      6E646578 
 5679      00
 5680              	.LASF46:
 5681 01c0 6E756D62 		.ascii	"numberRead\000"
 5681      65725265 
 5681      616400
 5682              	.LASF34:
 5683 01cb 63616C63 		.ascii	"calcedChecksum\000"
 5683      65644368 
 5683      65636B73 
 5683      756D00
 5684              	.LASF43:
 5685 01da 424C5F48 		.ascii	"BL_HostLink\000"
 5685      6F73744C 
 5685      696E6B00 
 5686              	.LASF55:
 5687 01e6 636F6D6D 		.ascii	"communicationState\000"
 5687      756E6963 
 5687      6174696F 
 5687      6E537461 
 5687      746500
 5688              	.LASF92:
 5689 01f9 474E5520 		.ascii	"GNU C 4.7.3 20130312 (release) [ARM/embedded-4_7-br"
 5689      4320342E 
 5689      372E3320 
 5689      32303133 
 5689      30333132 
 5690 022c 616E6368 		.ascii	"anch revision 196615]\000"
 5690      20726576 
 5690      6973696F 
 5690      6E203139 
 5690      36363135 
 5691              	.LASF93:
 5692 0242 2E5C4765 		.ascii	".\\Generated_Source\\PSoC5\\BL.c\000"
 5692      6E657261 
 5692      7465645F 
 5692      536F7572 
 5692      63655C50 
 5693              	.LASF54:
 5694 0260 636C6561 		.ascii	"clearedMetaData\000"
 5694      7265644D 
 5694      65746144 
 5694      61746100 
 5695              	.LASF29:
 5696 0270 6669656C 		.ascii	"fieldPtr\000"
 5696      64507472 
 5696      00
 5697              	.LASF53:
 5698 0279 74696D65 		.ascii	"timeOutCnt\000"
ARM GAS  C:\Users\MICHA_~1\AppData\Local\Temp\ccX8T6Q1.s 			page 133


 5698      4F757443 
 5698      6E7400
 5699              	.LASF95:
 5700 0284 424C5F4C 		.ascii	"BL_LaunchApplication\000"
 5700      61756E63 
 5700      68417070 
 5700      6C696361 
 5700      74696F6E 
 5701              	.LASF23:
 5702 0299 73746172 		.ascii	"start\000"
 5702      7400
 5703              	.LASF1:
 5704 029f 756E7369 		.ascii	"unsigned char\000"
 5704      676E6564 
 5704      20636861 
 5704      7200
 5705              	.LASF57:
 5706 02ad 64617461 		.ascii	"dataBuffer\000"
 5706      42756666 
 5706      657200
 5707              	.LASF83:
 5708 02b8 43794545 		.ascii	"CyEEPROM_Start\000"
 5708      50524F4D 
 5708      5F537461 
 5708      727400
 5709              	.LASF89:
 5710 02c7 43794861 		.ascii	"CyHalt\000"
 5710      6C7400
 5711              	.LASF9:
 5712 02ce 696E7433 		.ascii	"int32_t\000"
 5712      325F7400 
 5713              	.LASF7:
 5714 02d6 6C6F6E67 		.ascii	"long long unsigned int\000"
 5714      206C6F6E 
 5714      6720756E 
 5714      7369676E 
 5714      65642069 
 5715              	.LASF49:
 5716 02ed 706B7443 		.ascii	"pktChecksum\000"
 5716      6865636B 
 5716      73756D00 
 5717              	.LASF68:
 5718 02f9 43794274 		.ascii	"CyBtldr_CheckLaunch\000"
 5718      6C64725F 
 5718      43686563 
 5718      6B4C6175 
 5718      6E636800 
 5719              	.LASF16:
 5720 030d 63797374 		.ascii	"cystatus\000"
 5720      61747573 
 5720      00
 5721              	.LASF42:
 5722 0316 424C5F4C 		.ascii	"BL_LaunchBootloadable\000"
 5722      61756E63 
 5722      68426F6F 
 5722      746C6F61 
 5722      6461626C 
ARM GAS  C:\Users\MICHA_~1\AppData\Local\Temp\ccX8T6Q1.s 			page 134


 5723              	.LASF36:
 5724 032c 424C5F43 		.ascii	"BL_CalcPacketChecksum\000"
 5724      616C6350 
 5724      61636B65 
 5724      74436865 
 5724      636B7375 
 5725              	.LASF30:
 5726 0342 6669656C 		.ascii	"fieldSize\000"
 5726      6453697A 
 5726      6500
 5727              	.LASF40:
 5728 034c 73746174 		.ascii	"status\000"
 5728      757300
 5729              	.LASF62:
 5730 0353 726F774E 		.ascii	"rowNum\000"
 5730      756D00
 5731              	.LASF56:
 5732 035a 7061636B 		.ascii	"packetBuffer\000"
 5732      65744275 
 5732      66666572 
 5732      00
 5733              	.LASF38:
 5734 0367 424C5F43 		.ascii	"BL_Calc8BitFlashSum\000"
 5734      616C6338 
 5734      42697446 
 5734      6C617368 
 5734      53756D00 
 5735              	.LASF78:
 5736 037b 424C5F53 		.ascii	"BL_SizeBytes\000"
 5736      697A6542 
 5736      79746573 
 5736      00
 5737              	.LASF4:
 5738 0388 6C6F6E67 		.ascii	"long int\000"
 5738      20696E74 
 5738      00
 5739              	.LASF50:
 5740 0391 72656164 		.ascii	"readStat\000"
 5740      53746174 
 5740      00
 5741              	.LASF26:
 5742 039a 424C5F47 		.ascii	"BL_GetMetadata\000"
 5742      65744D65 
 5742      74616461 
 5742      746100
 5743              	.LASF3:
 5744 03a9 73686F72 		.ascii	"short unsigned int\000"
 5744      7420756E 
 5744      7369676E 
 5744      65642069 
 5744      6E7400
 5745              	.LASF45:
 5746 03bc 74696D65 		.ascii	"timeOut\000"
 5746      4F757400 
 5747              	.LASF47:
 5748 03c4 72737053 		.ascii	"rspSize\000"
 5748      697A6500 
ARM GAS  C:\Users\MICHA_~1\AppData\Local\Temp\ccX8T6Q1.s 			page 135


 5749              	.LASF18:
 5750 03cc 53696C69 		.ascii	"SiliconId\000"
 5750      636F6E49 
 5750      6400
 5751              	.LASF88:
 5752 03d6 55534246 		.ascii	"USBFS_CyBtldrCommRead\000"
 5752      535F4379 
 5752      42746C64 
 5752      72436F6D 
 5752      6D526561 
 5753              	.LASF37:
 5754 03ec 62756666 		.ascii	"buffer\000"
 5754      657200
 5755              	.LASF87:
 5756 03f3 55534246 		.ascii	"USBFS_CyBtldrCommStart\000"
 5756      535F4379 
 5756      42746C64 
 5756      72436F6D 
 5756      6D537461 
 5757              	.LASF12:
 5758 040a 75696E74 		.ascii	"uint32\000"
 5758      333200
 5759              	.LASF17:
 5760 0411 72656738 		.ascii	"reg8\000"
 5760      00
 5761              	.LASF5:
 5762 0416 6C6F6E67 		.ascii	"long unsigned int\000"
 5762      20756E73 
 5762      69676E65 
 5762      6420696E 
 5762      7400
 5763              	.LASF63:
 5764 0428 726F7741 		.ascii	"rowAddr\000"
 5764      64647200 
 5765              	.LASF14:
 5766 0430 646F7562 		.ascii	"double\000"
 5766      6C6500
 5767              	.LASF76:
 5768 0437 424C5F43 		.ascii	"BL_Checksum\000"
 5768      6865636B 
 5768      73756D00 
 5769              	.LASF24:
 5770 0443 73697A65 		.ascii	"size\000"
 5770      00
 5771              	.LASF90:
 5772 0448 43795365 		.ascii	"CySetFlashEEBuffer\000"
 5772      74466C61 
 5772      73684545 
 5772      42756666 
 5772      657200
 5773              	.LASF77:
 5774 045b 424C5F43 		.ascii	"BL_ChecksumAccess\000"
 5774      6865636B 
 5774      73756D41 
 5774      63636573 
 5774      7300
 5775              	.LASF91:
ARM GAS  C:\Users\MICHA_~1\AppData\Local\Temp\ccX8T6Q1.s 			page 136


 5776 046d 43795772 		.ascii	"CyWriteRowData\000"
 5776      69746552 
 5776      6F774461 
 5776      746100
 5777              	.LASF74:
 5778 047c 61727261 		.ascii	"arrayId\000"
 5778      79496400 
 5779              	.LASF60:
 5780 0484 65726173 		.ascii	"erase\000"
 5780      6500
 5781              	.LASF22:
 5782 048a 424C5F45 		.ascii	"BL_ENTER\000"
 5782      4E544552 
 5782      00
 5783              	.LASF19:
 5784 0493 52657669 		.ascii	"Revision\000"
 5784      73696F6E 
 5784      00
 5785              	.LASF80:
 5786 049c 49544D5F 		.ascii	"ITM_RxBuffer\000"
 5786      52784275 
 5786      66666572 
 5786      00
 5787              	.LASF8:
 5788 04a9 756E7369 		.ascii	"unsigned int\000"
 5788      676E6564 
 5788      20696E74 
 5788      00
 5789              	.LASF85:
 5790 04b6 43795772 		.ascii	"CyWriteRowFull\000"
 5790      69746552 
 5790      6F774675 
 5790      6C6C00
 5791              	.LASF27:
 5792 04c5 6669656C 		.ascii	"fieldName\000"
 5792      644E616D 
 5792      6500
 5793              	.LASF69:
 5794 04cf 424C5F53 		.ascii	"BL_SetFlashByte\000"
 5794      6574466C 
 5794      61736842 
 5794      79746500 
 5795              		.ident	"GCC: (GNU Tools for ARM Embedded Processors) 4.7.3 20130312 (release) [ARM/embedded-4_7-br
