ARM GAS  C:\Users\MICHA_~1\AppData\Local\Temp\cc1lqS7m.s 			page 1


   1              		.syntax unified
   2              		.cpu cortex-m3
   3              		.fpu softvfp
   4              		.eabi_attribute 20, 1
   5              		.eabi_attribute 21, 1
   6              		.eabi_attribute 23, 3
   7              		.eabi_attribute 24, 1
   8              		.eabi_attribute 25, 1
   9              		.eabi_attribute 26, 1
  10              		.eabi_attribute 30, 4
  11              		.eabi_attribute 34, 1
  12              		.eabi_attribute 18, 4
  13              		.thumb
  14              		.file	"CyDmac.c"
  15              		.text
  16              	.Ltext0:
  17              		.cfi_sections	.debug_frame
  18              		.section	.text.CyDmacConfigure,"ax",%progbits
  19              		.align	1
  20              		.global	CyDmacConfigure
  21              		.thumb
  22              		.thumb_func
  23              		.type	CyDmacConfigure, %function
  24              	CyDmacConfigure:
  25              	.LFB0:
  26              		.file 1 ".\\Generated_Source\\PSoC5\\CyDmac.c"
   1:.\Generated_Source\PSoC5/CyDmac.c **** /*******************************************************************************
   2:.\Generated_Source\PSoC5/CyDmac.c **** * File Name: CyDmac.c
   3:.\Generated_Source\PSoC5/CyDmac.c **** * Version 4.0
   4:.\Generated_Source\PSoC5/CyDmac.c **** *
   5:.\Generated_Source\PSoC5/CyDmac.c **** * Description:
   6:.\Generated_Source\PSoC5/CyDmac.c **** *  Provides an API for the DMAC component. The API includes functions for the
   7:.\Generated_Source\PSoC5/CyDmac.c **** *  DMA controller, DMA channels and Transfer Descriptors.
   8:.\Generated_Source\PSoC5/CyDmac.c **** *
   9:.\Generated_Source\PSoC5/CyDmac.c **** *  This API is the library version not the auto generated code that gets
  10:.\Generated_Source\PSoC5/CyDmac.c **** *  generated when the user places a DMA component on the schematic.
  11:.\Generated_Source\PSoC5/CyDmac.c **** *
  12:.\Generated_Source\PSoC5/CyDmac.c **** *  The auto generated code would use the APi's in this module.
  13:.\Generated_Source\PSoC5/CyDmac.c **** *
  14:.\Generated_Source\PSoC5/CyDmac.c **** * Note:
  15:.\Generated_Source\PSoC5/CyDmac.c **** *  This code is endian agnostic.
  16:.\Generated_Source\PSoC5/CyDmac.c **** *
  17:.\Generated_Source\PSoC5/CyDmac.c **** *  The Transfer Descriptor memory can be used as regular memory if the TD's are
  18:.\Generated_Source\PSoC5/CyDmac.c **** *  not being used.
  19:.\Generated_Source\PSoC5/CyDmac.c **** *
  20:.\Generated_Source\PSoC5/CyDmac.c **** *  This code uses the first byte of each TD to manage the free list of TD's.
  21:.\Generated_Source\PSoC5/CyDmac.c **** *  The user can over write this once the TD is allocated.
  22:.\Generated_Source\PSoC5/CyDmac.c **** *
  23:.\Generated_Source\PSoC5/CyDmac.c **** ********************************************************************************
  24:.\Generated_Source\PSoC5/CyDmac.c **** * Copyright 2008-2013, Cypress Semiconductor Corporation.  All rights reserved.
  25:.\Generated_Source\PSoC5/CyDmac.c **** * You may use this file only in accordance with the license, terms, conditions,
  26:.\Generated_Source\PSoC5/CyDmac.c **** * disclaimers, and limitations in the end user license agreement accompanying
  27:.\Generated_Source\PSoC5/CyDmac.c **** * the software package with which this file was provided.
  28:.\Generated_Source\PSoC5/CyDmac.c **** *******************************************************************************/
  29:.\Generated_Source\PSoC5/CyDmac.c **** 
  30:.\Generated_Source\PSoC5/CyDmac.c **** #include "CyDmac.h"
  31:.\Generated_Source\PSoC5/CyDmac.c **** 
ARM GAS  C:\Users\MICHA_~1\AppData\Local\Temp\cc1lqS7m.s 			page 2


  32:.\Generated_Source\PSoC5/CyDmac.c **** 
  33:.\Generated_Source\PSoC5/CyDmac.c **** /*******************************************************************************
  34:.\Generated_Source\PSoC5/CyDmac.c **** * The following variables are initialized from CyDmacConfigure() function that
  35:.\Generated_Source\PSoC5/CyDmac.c **** * is executed from initialize_psoc() at the early initialization stage.
  36:.\Generated_Source\PSoC5/CyDmac.c **** * In case of IAR EW IDE, initialize_psoc() is executed before the data sections
  37:.\Generated_Source\PSoC5/CyDmac.c **** * are initialized. To avoid zeroing, these variables should be initialized
  38:.\Generated_Source\PSoC5/CyDmac.c **** * properly during segments initialization as well.
  39:.\Generated_Source\PSoC5/CyDmac.c **** *******************************************************************************/
  40:.\Generated_Source\PSoC5/CyDmac.c **** static uint8  CyDmaTdCurrentNumber = CY_DMA_NUMBEROF_TDS;           /* Current Number of free eleme
  41:.\Generated_Source\PSoC5/CyDmac.c **** static uint8  CyDmaTdFreeIndex = (uint8)(CY_DMA_NUMBEROF_TDS - 1u); /* Index of the first available
  42:.\Generated_Source\PSoC5/CyDmac.c **** static uint32 CyDmaChannels = DMA_CHANNELS_USED__MASK0;              /* Bit map of DMA channel owne
  43:.\Generated_Source\PSoC5/CyDmac.c **** 
  44:.\Generated_Source\PSoC5/CyDmac.c **** 
  45:.\Generated_Source\PSoC5/CyDmac.c **** /*******************************************************************************
  46:.\Generated_Source\PSoC5/CyDmac.c **** * Function Name: CyDmacConfigure
  47:.\Generated_Source\PSoC5/CyDmac.c **** ********************************************************************************
  48:.\Generated_Source\PSoC5/CyDmac.c **** *
  49:.\Generated_Source\PSoC5/CyDmac.c **** * Summary:
  50:.\Generated_Source\PSoC5/CyDmac.c **** *  Creates a linked list of all the TDs to be allocated. This function is called
  51:.\Generated_Source\PSoC5/CyDmac.c **** *  by the startup code; you do not normally need to call it. You could call this
  52:.\Generated_Source\PSoC5/CyDmac.c **** *  function if all of the DMA channels are inactive.
  53:.\Generated_Source\PSoC5/CyDmac.c **** *
  54:.\Generated_Source\PSoC5/CyDmac.c **** * Parameters:
  55:.\Generated_Source\PSoC5/CyDmac.c **** *  None
  56:.\Generated_Source\PSoC5/CyDmac.c **** *
  57:.\Generated_Source\PSoC5/CyDmac.c **** * Return:
  58:.\Generated_Source\PSoC5/CyDmac.c **** *  None
  59:.\Generated_Source\PSoC5/CyDmac.c **** *
  60:.\Generated_Source\PSoC5/CyDmac.c **** *******************************************************************************/
  61:.\Generated_Source\PSoC5/CyDmac.c **** void CyDmacConfigure(void) 
  62:.\Generated_Source\PSoC5/CyDmac.c **** {
  27              		.loc 1 62 0
  28              		.cfi_startproc
  29              		@ args = 0, pretend = 0, frame = 0
  30              		@ frame_needed = 0, uses_anonymous_args = 0
  31              		@ link register save eliminated.
  63:.\Generated_Source\PSoC5/CyDmac.c ****     uint8 dmaIndex;
  64:.\Generated_Source\PSoC5/CyDmac.c **** 
  65:.\Generated_Source\PSoC5/CyDmac.c ****     /* Set TD list variables. */
  66:.\Generated_Source\PSoC5/CyDmac.c ****     CyDmaTdFreeIndex     = (uint8)(CY_DMA_NUMBEROF_TDS - 1u);
  32              		.loc 1 66 0
  33 0000 084B     		ldr	r3, .L5
  34 0002 7F22     		movs	r2, #127
  67:.\Generated_Source\PSoC5/CyDmac.c ****     CyDmaTdCurrentNumber = CY_DMA_NUMBEROF_TDS;
  35              		.loc 1 67 0
  36 0004 8020     		movs	r0, #128
  37 0006 0849     		ldr	r1, .L5+4
  66:.\Generated_Source\PSoC5/CyDmac.c ****     CyDmaTdFreeIndex     = (uint8)(CY_DMA_NUMBEROF_TDS - 1u);
  38              		.loc 1 66 0
  39 0008 1A70     		strb	r2, [r3, #0]
  40              		.loc 1 67 0
  41 000a 5870     		strb	r0, [r3, #1]
  42              	.LVL0:
  43 000c 7E22     		movs	r2, #126
  44              	.LVL1:
  45              	.L2:
  46 000e 531E     		subs	r3, r2, #1
ARM GAS  C:\Users\MICHA_~1\AppData\Local\Temp\cc1lqS7m.s 			page 3


  68:.\Generated_Source\PSoC5/CyDmac.c **** 
  69:.\Generated_Source\PSoC5/CyDmac.c ****     /* Make TD free list. */
  70:.\Generated_Source\PSoC5/CyDmac.c ****     for(dmaIndex = (uint8)(CY_DMA_NUMBEROF_TDS - 1u); dmaIndex != 0u; dmaIndex--)
  71:.\Generated_Source\PSoC5/CyDmac.c ****     {
  72:.\Generated_Source\PSoC5/CyDmac.c ****         CY_DMA_TDMEM_STRUCT_PTR[dmaIndex].TD0[0u] = (uint8)(dmaIndex - 1u);
  47              		.loc 1 72 0 discriminator 2
  48 0010 01F80829 		strb	r2, [r1], #-8
  49 0014 DAB2     		uxtb	r2, r3
  70:.\Generated_Source\PSoC5/CyDmac.c ****     for(dmaIndex = (uint8)(CY_DMA_NUMBEROF_TDS - 1u); dmaIndex != 0u; dmaIndex--)
  50              		.loc 1 70 0 discriminator 2
  51 0016 FF2A     		cmp	r2, #255
  52 0018 F9D1     		bne	.L2
  73:.\Generated_Source\PSoC5/CyDmac.c ****     }
  74:.\Generated_Source\PSoC5/CyDmac.c **** 
  75:.\Generated_Source\PSoC5/CyDmac.c ****     /* Make the last one point to zero. */
  76:.\Generated_Source\PSoC5/CyDmac.c ****     CY_DMA_TDMEM_STRUCT_PTR[dmaIndex].TD0[0u] = 0u;
  53              		.loc 1 76 0
  54 001a 0449     		ldr	r1, .L5+8
  55 001c 0020     		movs	r0, #0
  56 001e 0870     		strb	r0, [r1, #0]
  57 0020 7047     		bx	lr
  58              	.L6:
  59 0022 00BF     		.align	2
  60              	.L5:
  61 0024 00000000 		.word	.LANCHOR0
  62 0028 F87B0040 		.word	1073773560
  63 002c 00780040 		.word	1073772544
  64              		.cfi_endproc
  65              	.LFE0:
  66              		.size	CyDmacConfigure, .-CyDmacConfigure
  67              		.section	.text.CyDmacError,"ax",%progbits
  68              		.align	1
  69              		.global	CyDmacError
  70              		.thumb
  71              		.thumb_func
  72              		.type	CyDmacError, %function
  73              	CyDmacError:
  74              	.LFB1:
  77:.\Generated_Source\PSoC5/CyDmac.c **** }
  78:.\Generated_Source\PSoC5/CyDmac.c **** 
  79:.\Generated_Source\PSoC5/CyDmac.c **** 
  80:.\Generated_Source\PSoC5/CyDmac.c **** /*******************************************************************************
  81:.\Generated_Source\PSoC5/CyDmac.c **** * Function Name: CyDmacError
  82:.\Generated_Source\PSoC5/CyDmac.c **** ********************************************************************************
  83:.\Generated_Source\PSoC5/CyDmac.c **** *
  84:.\Generated_Source\PSoC5/CyDmac.c **** * Summary:
  85:.\Generated_Source\PSoC5/CyDmac.c **** *  Returns errors of the last failed DMA transaction.
  86:.\Generated_Source\PSoC5/CyDmac.c **** *
  87:.\Generated_Source\PSoC5/CyDmac.c **** * Parameters:
  88:.\Generated_Source\PSoC5/CyDmac.c **** *  None
  89:.\Generated_Source\PSoC5/CyDmac.c **** *
  90:.\Generated_Source\PSoC5/CyDmac.c **** * Return:
  91:.\Generated_Source\PSoC5/CyDmac.c **** *  Errors of the last failed DMA transaction.
  92:.\Generated_Source\PSoC5/CyDmac.c **** *
  93:.\Generated_Source\PSoC5/CyDmac.c **** *  DMAC_PERIPH_ERR:
  94:.\Generated_Source\PSoC5/CyDmac.c **** *   Set to 1 when a peripheral responds to a bus transaction with an error
  95:.\Generated_Source\PSoC5/CyDmac.c **** *   response.
ARM GAS  C:\Users\MICHA_~1\AppData\Local\Temp\cc1lqS7m.s 			page 4


  96:.\Generated_Source\PSoC5/CyDmac.c **** *
  97:.\Generated_Source\PSoC5/CyDmac.c **** *  DMAC_UNPOP_ACC:
  98:.\Generated_Source\PSoC5/CyDmac.c **** *   Set to 1 when an access is attempted to an invalid address.
  99:.\Generated_Source\PSoC5/CyDmac.c **** *
 100:.\Generated_Source\PSoC5/CyDmac.c **** *  DMAC_BUS_TIMEOUT:
 101:.\Generated_Source\PSoC5/CyDmac.c **** *   Set to 1 when a bus timeout occurs. Cleared by writing a 1. Timeout values
 102:.\Generated_Source\PSoC5/CyDmac.c **** *   are determined by the BUS_TIMEOUT field in the PHUBCFG register.
 103:.\Generated_Source\PSoC5/CyDmac.c **** *
 104:.\Generated_Source\PSoC5/CyDmac.c **** * Theory:
 105:.\Generated_Source\PSoC5/CyDmac.c **** *  Once an error occurs the error bits are sticky and are only cleared by a
 106:.\Generated_Source\PSoC5/CyDmac.c **** *  write 1 to the error register.
 107:.\Generated_Source\PSoC5/CyDmac.c **** *
 108:.\Generated_Source\PSoC5/CyDmac.c **** *******************************************************************************/
 109:.\Generated_Source\PSoC5/CyDmac.c **** uint8 CyDmacError(void) 
 110:.\Generated_Source\PSoC5/CyDmac.c **** {
  75              		.loc 1 110 0
  76              		.cfi_startproc
  77              		@ args = 0, pretend = 0, frame = 0
  78              		@ frame_needed = 0, uses_anonymous_args = 0
  79              		@ link register save eliminated.
 111:.\Generated_Source\PSoC5/CyDmac.c ****     return((uint8)(((uint32) 0x0Fu) & *CY_DMA_ERR_PTR));
  80              		.loc 1 111 0
  81 0000 024B     		ldr	r3, .L8
  82 0002 1868     		ldr	r0, [r3, #0]
 112:.\Generated_Source\PSoC5/CyDmac.c **** }
  83              		.loc 1 112 0
  84 0004 00F00F00 		and	r0, r0, #15
  85 0008 7047     		bx	lr
  86              	.L9:
  87 000a 00BF     		.align	2
  88              	.L8:
  89 000c 04700040 		.word	1073770500
  90              		.cfi_endproc
  91              	.LFE1:
  92              		.size	CyDmacError, .-CyDmacError
  93              		.section	.text.CyDmacClearError,"ax",%progbits
  94              		.align	1
  95              		.global	CyDmacClearError
  96              		.thumb
  97              		.thumb_func
  98              		.type	CyDmacClearError, %function
  99              	CyDmacClearError:
 100              	.LFB2:
 113:.\Generated_Source\PSoC5/CyDmac.c **** 
 114:.\Generated_Source\PSoC5/CyDmac.c **** 
 115:.\Generated_Source\PSoC5/CyDmac.c **** /*******************************************************************************
 116:.\Generated_Source\PSoC5/CyDmac.c **** * Function Name: CyDmacClearError
 117:.\Generated_Source\PSoC5/CyDmac.c **** ********************************************************************************
 118:.\Generated_Source\PSoC5/CyDmac.c **** *
 119:.\Generated_Source\PSoC5/CyDmac.c **** * Summary:
 120:.\Generated_Source\PSoC5/CyDmac.c **** *  Clears the error bits in the error register of the DMAC.
 121:.\Generated_Source\PSoC5/CyDmac.c **** *
 122:.\Generated_Source\PSoC5/CyDmac.c **** * Parameters:
 123:.\Generated_Source\PSoC5/CyDmac.c **** * error:
 124:.\Generated_Source\PSoC5/CyDmac.c **** *   Clears the error bits in the DMAC error register.
 125:.\Generated_Source\PSoC5/CyDmac.c **** *
 126:.\Generated_Source\PSoC5/CyDmac.c **** *  DMAC_PERIPH_ERR:
ARM GAS  C:\Users\MICHA_~1\AppData\Local\Temp\cc1lqS7m.s 			page 5


 127:.\Generated_Source\PSoC5/CyDmac.c **** *   Set to 1 when a peripheral responds to a bus transaction with an error
 128:.\Generated_Source\PSoC5/CyDmac.c **** *   response.
 129:.\Generated_Source\PSoC5/CyDmac.c **** *
 130:.\Generated_Source\PSoC5/CyDmac.c **** *  DMAC_UNPOP_ACC:
 131:.\Generated_Source\PSoC5/CyDmac.c **** *   Set to 1 when an access is attempted to an invalid address.
 132:.\Generated_Source\PSoC5/CyDmac.c **** *
 133:.\Generated_Source\PSoC5/CyDmac.c **** *  DMAC_BUS_TIMEOUT:
 134:.\Generated_Source\PSoC5/CyDmac.c **** *   Set to 1 when a bus timeout occurs. Cleared by writing a 1. Timeout values
 135:.\Generated_Source\PSoC5/CyDmac.c **** *   are determined by the BUS_TIMEOUT field in the PHUBCFG register.
 136:.\Generated_Source\PSoC5/CyDmac.c **** *
 137:.\Generated_Source\PSoC5/CyDmac.c **** * Return:
 138:.\Generated_Source\PSoC5/CyDmac.c **** *  None
 139:.\Generated_Source\PSoC5/CyDmac.c **** *
 140:.\Generated_Source\PSoC5/CyDmac.c **** * Theory:
 141:.\Generated_Source\PSoC5/CyDmac.c **** *  Once an error occurs the error bits are sticky and are only cleared by a
 142:.\Generated_Source\PSoC5/CyDmac.c **** *  write 1 to the error register.
 143:.\Generated_Source\PSoC5/CyDmac.c **** *
 144:.\Generated_Source\PSoC5/CyDmac.c **** *******************************************************************************/
 145:.\Generated_Source\PSoC5/CyDmac.c **** void CyDmacClearError(uint8 error) 
 146:.\Generated_Source\PSoC5/CyDmac.c **** {
 101              		.loc 1 146 0
 102              		.cfi_startproc
 103              		@ args = 0, pretend = 0, frame = 0
 104              		@ frame_needed = 0, uses_anonymous_args = 0
 105              		@ link register save eliminated.
 106              	.LVL2:
 147:.\Generated_Source\PSoC5/CyDmac.c ****     *CY_DMA_ERR_PTR = (((uint32)0x0Fu) & ((uint32)error));
 107              		.loc 1 147 0
 108 0000 024B     		ldr	r3, .L11
 109 0002 00F00F00 		and	r0, r0, #15
 110              	.LVL3:
 111 0006 1860     		str	r0, [r3, #0]
 112 0008 7047     		bx	lr
 113              	.L12:
 114 000a 00BF     		.align	2
 115              	.L11:
 116 000c 04700040 		.word	1073770500
 117              		.cfi_endproc
 118              	.LFE2:
 119              		.size	CyDmacClearError, .-CyDmacClearError
 120              		.section	.text.CyDmacErrorAddress,"ax",%progbits
 121              		.align	1
 122              		.global	CyDmacErrorAddress
 123              		.thumb
 124              		.thumb_func
 125              		.type	CyDmacErrorAddress, %function
 126              	CyDmacErrorAddress:
 127              	.LFB3:
 148:.\Generated_Source\PSoC5/CyDmac.c **** }
 149:.\Generated_Source\PSoC5/CyDmac.c **** 
 150:.\Generated_Source\PSoC5/CyDmac.c **** 
 151:.\Generated_Source\PSoC5/CyDmac.c **** /*******************************************************************************
 152:.\Generated_Source\PSoC5/CyDmac.c **** * Function Name: CyDmacErrorAddress
 153:.\Generated_Source\PSoC5/CyDmac.c **** ********************************************************************************
 154:.\Generated_Source\PSoC5/CyDmac.c **** *
 155:.\Generated_Source\PSoC5/CyDmac.c **** * Summary:
 156:.\Generated_Source\PSoC5/CyDmac.c **** *  When an DMAC_BUS_TIMEOUT, DMAC_UNPOP_ACC and DMAC_PERIPH_ERR occurs the
ARM GAS  C:\Users\MICHA_~1\AppData\Local\Temp\cc1lqS7m.s 			page 6


 157:.\Generated_Source\PSoC5/CyDmac.c **** *  address of the error is written to the error address register and can be read
 158:.\Generated_Source\PSoC5/CyDmac.c **** *  with this function.
 159:.\Generated_Source\PSoC5/CyDmac.c **** *
 160:.\Generated_Source\PSoC5/CyDmac.c **** *  If there are multiple errors, only the address of the first is saved.
 161:.\Generated_Source\PSoC5/CyDmac.c **** *
 162:.\Generated_Source\PSoC5/CyDmac.c **** * Parameters:
 163:.\Generated_Source\PSoC5/CyDmac.c **** *  None
 164:.\Generated_Source\PSoC5/CyDmac.c **** *
 165:.\Generated_Source\PSoC5/CyDmac.c **** * Return:
 166:.\Generated_Source\PSoC5/CyDmac.c **** *  The address that caused the error.
 167:.\Generated_Source\PSoC5/CyDmac.c **** *
 168:.\Generated_Source\PSoC5/CyDmac.c **** *******************************************************************************/
 169:.\Generated_Source\PSoC5/CyDmac.c **** uint32 CyDmacErrorAddress(void) 
 170:.\Generated_Source\PSoC5/CyDmac.c **** {
 128              		.loc 1 170 0
 129              		.cfi_startproc
 130              		@ args = 0, pretend = 0, frame = 0
 131              		@ frame_needed = 0, uses_anonymous_args = 0
 132              		@ link register save eliminated.
 171:.\Generated_Source\PSoC5/CyDmac.c ****     return(CY_GET_REG32(CY_DMA_ERR_ADR_PTR));
 133              		.loc 1 171 0
 134 0000 014B     		ldr	r3, .L14
 135 0002 1868     		ldr	r0, [r3, #0]
 172:.\Generated_Source\PSoC5/CyDmac.c **** }
 136              		.loc 1 172 0
 137 0004 7047     		bx	lr
 138              	.L15:
 139 0006 00BF     		.align	2
 140              	.L14:
 141 0008 08700040 		.word	1073770504
 142              		.cfi_endproc
 143              	.LFE3:
 144              		.size	CyDmacErrorAddress, .-CyDmacErrorAddress
 145              		.section	.text.CyDmaChAlloc,"ax",%progbits
 146              		.align	1
 147              		.global	CyDmaChAlloc
 148              		.thumb
 149              		.thumb_func
 150              		.type	CyDmaChAlloc, %function
 151              	CyDmaChAlloc:
 152              	.LFB4:
 173:.\Generated_Source\PSoC5/CyDmac.c **** 
 174:.\Generated_Source\PSoC5/CyDmac.c **** 
 175:.\Generated_Source\PSoC5/CyDmac.c **** /*******************************************************************************
 176:.\Generated_Source\PSoC5/CyDmac.c **** * Function Name: CyDmaChAlloc
 177:.\Generated_Source\PSoC5/CyDmac.c **** ********************************************************************************
 178:.\Generated_Source\PSoC5/CyDmac.c **** *
 179:.\Generated_Source\PSoC5/CyDmac.c **** * Summary:
 180:.\Generated_Source\PSoC5/CyDmac.c **** *  Allocates a channel from the DMAC to be used in all functions that require a
 181:.\Generated_Source\PSoC5/CyDmac.c **** *  channel handle.
 182:.\Generated_Source\PSoC5/CyDmac.c **** *
 183:.\Generated_Source\PSoC5/CyDmac.c **** * Parameters:
 184:.\Generated_Source\PSoC5/CyDmac.c **** *  None
 185:.\Generated_Source\PSoC5/CyDmac.c **** *
 186:.\Generated_Source\PSoC5/CyDmac.c **** * Return:
 187:.\Generated_Source\PSoC5/CyDmac.c **** *  The allocated channel number. Zero is a valid channel number.
 188:.\Generated_Source\PSoC5/CyDmac.c **** *  DMA_INVALID_CHANNEL is returned if there are no channels available.
ARM GAS  C:\Users\MICHA_~1\AppData\Local\Temp\cc1lqS7m.s 			page 7


 189:.\Generated_Source\PSoC5/CyDmac.c **** *
 190:.\Generated_Source\PSoC5/CyDmac.c **** *******************************************************************************/
 191:.\Generated_Source\PSoC5/CyDmac.c **** uint8 CyDmaChAlloc(void) 
 192:.\Generated_Source\PSoC5/CyDmac.c **** {
 153              		.loc 1 192 0
 154              		.cfi_startproc
 155              		@ args = 0, pretend = 0, frame = 0
 156              		@ frame_needed = 0, uses_anonymous_args = 0
 157              	.LVL4:
 158 0000 10B5     		push	{r4, lr}
 159              	.LCFI0:
 160              		.cfi_def_cfa_offset 8
 161              		.cfi_offset 4, -8
 162              		.cfi_offset 14, -4
 193:.\Generated_Source\PSoC5/CyDmac.c ****     uint8 interruptState;
 194:.\Generated_Source\PSoC5/CyDmac.c ****     uint8 dmaIndex;
 195:.\Generated_Source\PSoC5/CyDmac.c ****     uint32 channel = 1u;
 196:.\Generated_Source\PSoC5/CyDmac.c **** 
 197:.\Generated_Source\PSoC5/CyDmac.c **** 
 198:.\Generated_Source\PSoC5/CyDmac.c ****     /* Enter critical section! */
 199:.\Generated_Source\PSoC5/CyDmac.c ****     interruptState = CyEnterCriticalSection();
 163              		.loc 1 199 0
 164 0002 FFF7FEFF 		bl	CyEnterCriticalSection
 165              	.LVL5:
 200:.\Generated_Source\PSoC5/CyDmac.c **** 
 201:.\Generated_Source\PSoC5/CyDmac.c ****     /* Look for a free channel. */
 202:.\Generated_Source\PSoC5/CyDmac.c ****     for(dmaIndex = 0u; dmaIndex < CY_DMA_NUMBEROF_CHANNELS; dmaIndex++)
 203:.\Generated_Source\PSoC5/CyDmac.c ****     {
 204:.\Generated_Source\PSoC5/CyDmac.c ****         if(0uL == (CyDmaChannels & channel))
 166              		.loc 1 204 0
 167 0006 0A4B     		ldr	r3, .L21
 195:.\Generated_Source\PSoC5/CyDmac.c ****     uint32 channel = 1u;
 168              		.loc 1 195 0
 169 0008 0121     		movs	r1, #1
 170              		.loc 1 204 0
 171 000a 1A68     		ldr	r2, [r3, #0]
 202:.\Generated_Source\PSoC5/CyDmac.c ****     for(dmaIndex = 0u; dmaIndex < CY_DMA_NUMBEROF_CHANNELS; dmaIndex++)
 172              		.loc 1 202 0
 173 000c 0024     		movs	r4, #0
 174              	.LVL6:
 175              	.L19:
 176              		.loc 1 204 0
 177 000e 1142     		tst	r1, r2
 178 0010 04D1     		bne	.L17
 205:.\Generated_Source\PSoC5/CyDmac.c ****         {
 206:.\Generated_Source\PSoC5/CyDmac.c ****             /* Mark the channel as used. */
 207:.\Generated_Source\PSoC5/CyDmac.c ****             CyDmaChannels |= channel;
 179              		.loc 1 207 0
 180 0012 42EA0103 		orr	r3, r2, r1
 181 0016 064A     		ldr	r2, .L21
 182 0018 1360     		str	r3, [r2, #0]
 183 001a 05E0     		b	.L18
 184              	.L17:
 202:.\Generated_Source\PSoC5/CyDmac.c ****     for(dmaIndex = 0u; dmaIndex < CY_DMA_NUMBEROF_CHANNELS; dmaIndex++)
 185              		.loc 1 202 0
 186 001c 0134     		adds	r4, r4, #1
 187 001e E4B2     		uxtb	r4, r4
ARM GAS  C:\Users\MICHA_~1\AppData\Local\Temp\cc1lqS7m.s 			page 8


 208:.\Generated_Source\PSoC5/CyDmac.c ****             break;
 209:.\Generated_Source\PSoC5/CyDmac.c ****         }
 210:.\Generated_Source\PSoC5/CyDmac.c **** 
 211:.\Generated_Source\PSoC5/CyDmac.c ****         channel <<= 1u;
 188              		.loc 1 211 0
 189 0020 4900     		lsls	r1, r1, #1
 190              	.LVL7:
 202:.\Generated_Source\PSoC5/CyDmac.c ****     for(dmaIndex = 0u; dmaIndex < CY_DMA_NUMBEROF_CHANNELS; dmaIndex++)
 191              		.loc 1 202 0
 192 0022 182C     		cmp	r4, #24
 193 0024 F3D1     		bne	.L19
 212:.\Generated_Source\PSoC5/CyDmac.c ****     }
 213:.\Generated_Source\PSoC5/CyDmac.c **** 
 214:.\Generated_Source\PSoC5/CyDmac.c ****     if(dmaIndex >= CY_DMA_NUMBEROF_CHANNELS)
 215:.\Generated_Source\PSoC5/CyDmac.c ****     {
 216:.\Generated_Source\PSoC5/CyDmac.c ****         dmaIndex = CY_DMA_INVALID_CHANNEL;
 194              		.loc 1 216 0
 195 0026 FF24     		movs	r4, #255
 196              	.LVL8:
 197              	.L18:
 217:.\Generated_Source\PSoC5/CyDmac.c ****     }
 218:.\Generated_Source\PSoC5/CyDmac.c **** 
 219:.\Generated_Source\PSoC5/CyDmac.c ****     /* Exit critical section! */
 220:.\Generated_Source\PSoC5/CyDmac.c ****     CyExitCriticalSection(interruptState);
 198              		.loc 1 220 0
 199 0028 FFF7FEFF 		bl	CyExitCriticalSection
 200              	.LVL9:
 221:.\Generated_Source\PSoC5/CyDmac.c **** 
 222:.\Generated_Source\PSoC5/CyDmac.c ****     return(dmaIndex);
 223:.\Generated_Source\PSoC5/CyDmac.c **** }
 201              		.loc 1 223 0
 202 002c 2046     		mov	r0, r4
 203 002e 10BD     		pop	{r4, pc}
 204              	.L22:
 205              		.align	2
 206              	.L21:
 207 0030 00000000 		.word	.LANCHOR1
 208              		.cfi_endproc
 209              	.LFE4:
 210              		.size	CyDmaChAlloc, .-CyDmaChAlloc
 211              		.section	.text.CyDmaChFree,"ax",%progbits
 212              		.align	1
 213              		.global	CyDmaChFree
 214              		.thumb
 215              		.thumb_func
 216              		.type	CyDmaChFree, %function
 217              	CyDmaChFree:
 218              	.LFB5:
 224:.\Generated_Source\PSoC5/CyDmac.c **** 
 225:.\Generated_Source\PSoC5/CyDmac.c **** 
 226:.\Generated_Source\PSoC5/CyDmac.c **** /*******************************************************************************
 227:.\Generated_Source\PSoC5/CyDmac.c **** * Function Name: CyDmaChFree
 228:.\Generated_Source\PSoC5/CyDmac.c **** ********************************************************************************
 229:.\Generated_Source\PSoC5/CyDmac.c **** *
 230:.\Generated_Source\PSoC5/CyDmac.c **** * Summary:
 231:.\Generated_Source\PSoC5/CyDmac.c **** *  Frees a channel allocated by DmaChAlloc().
 232:.\Generated_Source\PSoC5/CyDmac.c **** *
ARM GAS  C:\Users\MICHA_~1\AppData\Local\Temp\cc1lqS7m.s 			page 9


 233:.\Generated_Source\PSoC5/CyDmac.c **** * Parameters:
 234:.\Generated_Source\PSoC5/CyDmac.c **** *  uint8 chHandle:
 235:.\Generated_Source\PSoC5/CyDmac.c **** *   The handle previously returned by CyDmaChAlloc() or DMA_DmaInitalize().
 236:.\Generated_Source\PSoC5/CyDmac.c **** *
 237:.\Generated_Source\PSoC5/CyDmac.c **** * Return:
 238:.\Generated_Source\PSoC5/CyDmac.c **** *  CYRET_SUCCESS if successful.
 239:.\Generated_Source\PSoC5/CyDmac.c **** *  CYRET_BAD_PARAM if chHandle is invalid.
 240:.\Generated_Source\PSoC5/CyDmac.c **** *
 241:.\Generated_Source\PSoC5/CyDmac.c **** *******************************************************************************/
 242:.\Generated_Source\PSoC5/CyDmac.c **** cystatus CyDmaChFree(uint8 chHandle) 
 243:.\Generated_Source\PSoC5/CyDmac.c **** {
 219              		.loc 1 243 0
 220              		.cfi_startproc
 221              		@ args = 0, pretend = 0, frame = 0
 222              		@ frame_needed = 0, uses_anonymous_args = 0
 223              	.LVL10:
 244:.\Generated_Source\PSoC5/CyDmac.c ****     cystatus status = CYRET_BAD_PARAM;
 245:.\Generated_Source\PSoC5/CyDmac.c ****     uint8 interruptState;
 246:.\Generated_Source\PSoC5/CyDmac.c **** 
 247:.\Generated_Source\PSoC5/CyDmac.c ****     if(chHandle < CY_DMA_NUMBEROF_CHANNELS)
 224              		.loc 1 247 0
 225 0000 1728     		cmp	r0, #23
 243:.\Generated_Source\PSoC5/CyDmac.c **** {
 226              		.loc 1 243 0
 227 0002 38B5     		push	{r3, r4, r5, lr}
 228              	.LCFI1:
 229              		.cfi_def_cfa_offset 16
 230              		.cfi_offset 3, -16
 231              		.cfi_offset 4, -12
 232              		.cfi_offset 5, -8
 233              		.cfi_offset 14, -4
 243:.\Generated_Source\PSoC5/CyDmac.c **** {
 234              		.loc 1 243 0
 235 0004 0546     		mov	r5, r0
 236 0006 4FF00104 		mov	r4, #1
 237              		.loc 1 247 0
 238 000a 0CD8     		bhi	.L25
 248:.\Generated_Source\PSoC5/CyDmac.c ****     {
 249:.\Generated_Source\PSoC5/CyDmac.c ****         /* Enter critical section */
 250:.\Generated_Source\PSoC5/CyDmac.c ****         interruptState = CyEnterCriticalSection();
 251:.\Generated_Source\PSoC5/CyDmac.c **** 
 252:.\Generated_Source\PSoC5/CyDmac.c ****         /* Clear the bit mask that keeps track of ownership. */
 253:.\Generated_Source\PSoC5/CyDmac.c ****         CyDmaChannels &= ~(((uint32) 1u) << chHandle);
 239              		.loc 1 253 0
 240 000c 04FA05F4 		lsl	r4, r4, r5
 250:.\Generated_Source\PSoC5/CyDmac.c ****         interruptState = CyEnterCriticalSection();
 241              		.loc 1 250 0
 242 0010 FFF7FEFF 		bl	CyEnterCriticalSection
 243              	.LVL11:
 244              		.loc 1 253 0
 245 0014 054B     		ldr	r3, .L26
 246 0016 1A68     		ldr	r2, [r3, #0]
 247 0018 22EA0402 		bic	r2, r2, r4
 248 001c 1A60     		str	r2, [r3, #0]
 254:.\Generated_Source\PSoC5/CyDmac.c **** 
 255:.\Generated_Source\PSoC5/CyDmac.c ****         /* Exit critical section */
 256:.\Generated_Source\PSoC5/CyDmac.c ****         CyExitCriticalSection(interruptState);
ARM GAS  C:\Users\MICHA_~1\AppData\Local\Temp\cc1lqS7m.s 			page 10


 249              		.loc 1 256 0
 250 001e FFF7FEFF 		bl	CyExitCriticalSection
 251              	.LVL12:
 257:.\Generated_Source\PSoC5/CyDmac.c ****         status = CYRET_SUCCESS;
 252              		.loc 1 257 0
 253 0022 0020     		movs	r0, #0
 254 0024 38BD     		pop	{r3, r4, r5, pc}
 255              	.LVL13:
 256              	.L25:
 244:.\Generated_Source\PSoC5/CyDmac.c ****     cystatus status = CYRET_BAD_PARAM;
 257              		.loc 1 244 0
 258 0026 2046     		mov	r0, r4
 259              	.LVL14:
 258:.\Generated_Source\PSoC5/CyDmac.c ****     }
 259:.\Generated_Source\PSoC5/CyDmac.c **** 
 260:.\Generated_Source\PSoC5/CyDmac.c ****     return(status);
 261:.\Generated_Source\PSoC5/CyDmac.c **** }
 260              		.loc 1 261 0
 261 0028 38BD     		pop	{r3, r4, r5, pc}
 262              	.L27:
 263 002a 00BF     		.align	2
 264              	.L26:
 265 002c 00000000 		.word	.LANCHOR1
 266              		.cfi_endproc
 267              	.LFE5:
 268              		.size	CyDmaChFree, .-CyDmaChFree
 269              		.section	.text.CyDmaChEnable,"ax",%progbits
 270              		.align	1
 271              		.global	CyDmaChEnable
 272              		.thumb
 273              		.thumb_func
 274              		.type	CyDmaChEnable, %function
 275              	CyDmaChEnable:
 276              	.LFB6:
 262:.\Generated_Source\PSoC5/CyDmac.c **** 
 263:.\Generated_Source\PSoC5/CyDmac.c **** 
 264:.\Generated_Source\PSoC5/CyDmac.c **** /*******************************************************************************
 265:.\Generated_Source\PSoC5/CyDmac.c **** * Function Name: CyDmaChEnable
 266:.\Generated_Source\PSoC5/CyDmac.c **** ********************************************************************************
 267:.\Generated_Source\PSoC5/CyDmac.c **** *
 268:.\Generated_Source\PSoC5/CyDmac.c **** * Summary:
 269:.\Generated_Source\PSoC5/CyDmac.c **** *  Enables the DMA channel. A software or hardware request still must happen
 270:.\Generated_Source\PSoC5/CyDmac.c **** *  before the channel is executed.
 271:.\Generated_Source\PSoC5/CyDmac.c **** *
 272:.\Generated_Source\PSoC5/CyDmac.c **** * Parameters:
 273:.\Generated_Source\PSoC5/CyDmac.c **** *  uint8 chHandle:
 274:.\Generated_Source\PSoC5/CyDmac.c **** *   A handle previously returned by CyDmaChAlloc() or DMA_DmaInitalize().
 275:.\Generated_Source\PSoC5/CyDmac.c **** *
 276:.\Generated_Source\PSoC5/CyDmac.c **** *  uint8 preserveTds:
 277:.\Generated_Source\PSoC5/CyDmac.c **** *   Preserves the original TD state when the TD has completed. This parameter
 278:.\Generated_Source\PSoC5/CyDmac.c **** *   applies to all TDs in the channel.
 279:.\Generated_Source\PSoC5/CyDmac.c **** *
 280:.\Generated_Source\PSoC5/CyDmac.c **** *   0 - When a TD is completed, the DMAC leaves the TD configuration values in
 281:.\Generated_Source\PSoC5/CyDmac.c **** *   their current state, and does not restore them to their original state.
 282:.\Generated_Source\PSoC5/CyDmac.c **** *
 283:.\Generated_Source\PSoC5/CyDmac.c **** *   1 - When a TD is completed, the DMAC restores the original configuration
 284:.\Generated_Source\PSoC5/CyDmac.c **** *   values of the TD.
ARM GAS  C:\Users\MICHA_~1\AppData\Local\Temp\cc1lqS7m.s 			page 11


 285:.\Generated_Source\PSoC5/CyDmac.c **** *
 286:.\Generated_Source\PSoC5/CyDmac.c **** *  When preserveTds is set, the TD slot that equals the channel number becomes
 287:.\Generated_Source\PSoC5/CyDmac.c **** *  RESERVED and that becomes where the working registers exist. So, for example,
 288:.\Generated_Source\PSoC5/CyDmac.c **** *  if you are using CH06 and preserveTds is set, you are not allowed to use TD
 289:.\Generated_Source\PSoC5/CyDmac.c **** *  slot 6. That is reclaimed by the DMA engine for its private use.
 290:.\Generated_Source\PSoC5/CyDmac.c **** *
 291:.\Generated_Source\PSoC5/CyDmac.c **** *  Note Do not chain back to a completed TD if the preserveTds for the channel
 292:.\Generated_Source\PSoC5/CyDmac.c **** *  is set to 0. When a TD has completed preserveTds for the channel set to 0,
 293:.\Generated_Source\PSoC5/CyDmac.c **** *  the transfer count will be at 0. If a TD with a transfer count of 0 is
 294:.\Generated_Source\PSoC5/CyDmac.c **** *  started, the TD will transfer an indefinite amount of data.
 295:.\Generated_Source\PSoC5/CyDmac.c **** *
 296:.\Generated_Source\PSoC5/CyDmac.c **** *  Take extra precautions when using the hardware request (DRQ) option when the
 297:.\Generated_Source\PSoC5/CyDmac.c **** *  preserveTds is set to 0, as you might be requesting the wrong data.
 298:.\Generated_Source\PSoC5/CyDmac.c **** *
 299:.\Generated_Source\PSoC5/CyDmac.c **** * Return:
 300:.\Generated_Source\PSoC5/CyDmac.c **** *  CYRET_SUCCESS if successful.
 301:.\Generated_Source\PSoC5/CyDmac.c **** *  CYRET_BAD_PARAM if chHandle is invalid.
 302:.\Generated_Source\PSoC5/CyDmac.c **** *
 303:.\Generated_Source\PSoC5/CyDmac.c **** *******************************************************************************/
 304:.\Generated_Source\PSoC5/CyDmac.c **** cystatus CyDmaChEnable(uint8 chHandle, uint8 preserveTds) 
 305:.\Generated_Source\PSoC5/CyDmac.c **** {
 277              		.loc 1 305 0
 278              		.cfi_startproc
 279              		@ args = 0, pretend = 0, frame = 0
 280              		@ frame_needed = 0, uses_anonymous_args = 0
 281              		@ link register save eliminated.
 282              	.LVL15:
 306:.\Generated_Source\PSoC5/CyDmac.c ****     cystatus status = CYRET_BAD_PARAM;
 307:.\Generated_Source\PSoC5/CyDmac.c **** 
 308:.\Generated_Source\PSoC5/CyDmac.c ****     if(chHandle < CY_DMA_NUMBEROF_CHANNELS)
 283              		.loc 1 308 0
 284 0000 1728     		cmp	r0, #23
 285 0002 12D8     		bhi	.L32
 286 0004 0201     		lsls	r2, r0, #4
 287 0006 0A4B     		ldr	r3, .L34
 309:.\Generated_Source\PSoC5/CyDmac.c ****     {
 310:.\Generated_Source\PSoC5/CyDmac.c ****         if (0u != preserveTds)
 288              		.loc 1 310 0
 289 0008 19B1     		cbz	r1, .L30
 311:.\Generated_Source\PSoC5/CyDmac.c ****         {
 312:.\Generated_Source\PSoC5/CyDmac.c ****             /* Store the intermediate TD states separately in CHn_SEP_TD0/1 to
 313:.\Generated_Source\PSoC5/CyDmac.c ****             *  preserve the original TD chain
 314:.\Generated_Source\PSoC5/CyDmac.c ****             */
 315:.\Generated_Source\PSoC5/CyDmac.c ****             CY_DMA_CH_STRUCT_PTR[chHandle].basic_cfg[0u] |= CY_DMA_CH_BASIC_CFG_WORK_SEP;
 290              		.loc 1 315 0
 291 000a D15C     		ldrb	r1, [r2, r3]	@ zero_extendqisi2
 292              	.LVL16:
 293 000c 41F02001 		orr	r1, r1, #32
 294 0010 02E0     		b	.L33
 295              	.LVL17:
 296              	.L30:
 316:.\Generated_Source\PSoC5/CyDmac.c ****         }
 317:.\Generated_Source\PSoC5/CyDmac.c ****         else
 318:.\Generated_Source\PSoC5/CyDmac.c ****         {
 319:.\Generated_Source\PSoC5/CyDmac.c ****             /* Store the intermediate and final TD states on top of the original TD chain */
 320:.\Generated_Source\PSoC5/CyDmac.c ****             CY_DMA_CH_STRUCT_PTR[chHandle].basic_cfg[0u] &= (uint8)(~CY_DMA_CH_BASIC_CFG_WORK_SEP);
 297              		.loc 1 320 0
ARM GAS  C:\Users\MICHA_~1\AppData\Local\Temp\cc1lqS7m.s 			page 12


 298 0012 D15C     		ldrb	r1, [r2, r3]	@ zero_extendqisi2
 299              	.LVL18:
 300 0014 01F0DF01 		and	r1, r1, #223
 301              	.L33:
 302 0018 D154     		strb	r1, [r2, r3]
 321:.\Generated_Source\PSoC5/CyDmac.c ****         }
 322:.\Generated_Source\PSoC5/CyDmac.c **** 
 323:.\Generated_Source\PSoC5/CyDmac.c ****         /* Enable channel */
 324:.\Generated_Source\PSoC5/CyDmac.c ****         CY_DMA_CH_STRUCT_PTR[chHandle].basic_cfg[0u] |= CY_DMA_CH_BASIC_CFG_EN;
 303              		.loc 1 324 0
 304 001a 054B     		ldr	r3, .L34
 305 001c 0001     		lsls	r0, r0, #4
 306              	.LVL19:
 307 001e C25C     		ldrb	r2, [r0, r3]	@ zero_extendqisi2
 308 0020 42F00101 		orr	r1, r2, #1
 309 0024 C154     		strb	r1, [r0, r3]
 310              	.LVL20:
 325:.\Generated_Source\PSoC5/CyDmac.c **** 
 326:.\Generated_Source\PSoC5/CyDmac.c ****         status = CYRET_SUCCESS;
 311              		.loc 1 326 0
 312 0026 0020     		movs	r0, #0
 313 0028 7047     		bx	lr
 314              	.LVL21:
 315              	.L32:
 306:.\Generated_Source\PSoC5/CyDmac.c ****     cystatus status = CYRET_BAD_PARAM;
 316              		.loc 1 306 0
 317 002a 0120     		movs	r0, #1
 318              	.LVL22:
 327:.\Generated_Source\PSoC5/CyDmac.c ****     }
 328:.\Generated_Source\PSoC5/CyDmac.c **** 
 329:.\Generated_Source\PSoC5/CyDmac.c ****     return(status);
 330:.\Generated_Source\PSoC5/CyDmac.c **** }
 319              		.loc 1 330 0
 320 002c 7047     		bx	lr
 321              	.L35:
 322 002e 00BF     		.align	2
 323              	.L34:
 324 0030 10700040 		.word	1073770512
 325              		.cfi_endproc
 326              	.LFE6:
 327              		.size	CyDmaChEnable, .-CyDmaChEnable
 328              		.section	.text.CyDmaChDisable,"ax",%progbits
 329              		.align	1
 330              		.global	CyDmaChDisable
 331              		.thumb
 332              		.thumb_func
 333              		.type	CyDmaChDisable, %function
 334              	CyDmaChDisable:
 335              	.LFB7:
 331:.\Generated_Source\PSoC5/CyDmac.c **** 
 332:.\Generated_Source\PSoC5/CyDmac.c **** 
 333:.\Generated_Source\PSoC5/CyDmac.c **** /*******************************************************************************
 334:.\Generated_Source\PSoC5/CyDmac.c **** * Function Name: CyDmaChDisable
 335:.\Generated_Source\PSoC5/CyDmac.c **** ********************************************************************************
 336:.\Generated_Source\PSoC5/CyDmac.c **** *
 337:.\Generated_Source\PSoC5/CyDmac.c **** * Summary:
 338:.\Generated_Source\PSoC5/CyDmac.c **** *  Disables the DMA channel. Once this function is called, CyDmaChStatus() may
ARM GAS  C:\Users\MICHA_~1\AppData\Local\Temp\cc1lqS7m.s 			page 13


 339:.\Generated_Source\PSoC5/CyDmac.c **** *  be called to determine when the channel is disabled and which TDs were being
 340:.\Generated_Source\PSoC5/CyDmac.c **** *  executed.
 341:.\Generated_Source\PSoC5/CyDmac.c **** *
 342:.\Generated_Source\PSoC5/CyDmac.c **** *  If it is currently executing it will allow the current burst to finish
 343:.\Generated_Source\PSoC5/CyDmac.c **** *  naturally.
 344:.\Generated_Source\PSoC5/CyDmac.c **** *
 345:.\Generated_Source\PSoC5/CyDmac.c **** * Parameters:
 346:.\Generated_Source\PSoC5/CyDmac.c **** *  uint8 chHandle:
 347:.\Generated_Source\PSoC5/CyDmac.c **** *   A handle previously returned by CyDmaChAlloc() or DMA_DmaInitalize().
 348:.\Generated_Source\PSoC5/CyDmac.c **** *
 349:.\Generated_Source\PSoC5/CyDmac.c **** * Return:
 350:.\Generated_Source\PSoC5/CyDmac.c **** *  CYRET_SUCCESS if successful.
 351:.\Generated_Source\PSoC5/CyDmac.c **** *  CYRET_BAD_PARAM if chHandle is invalid.
 352:.\Generated_Source\PSoC5/CyDmac.c **** *
 353:.\Generated_Source\PSoC5/CyDmac.c **** *******************************************************************************/
 354:.\Generated_Source\PSoC5/CyDmac.c **** cystatus CyDmaChDisable(uint8 chHandle) 
 355:.\Generated_Source\PSoC5/CyDmac.c **** {
 336              		.loc 1 355 0
 337              		.cfi_startproc
 338              		@ args = 0, pretend = 0, frame = 0
 339              		@ frame_needed = 0, uses_anonymous_args = 0
 340              		@ link register save eliminated.
 341              	.LVL23:
 356:.\Generated_Source\PSoC5/CyDmac.c ****     cystatus status = CYRET_BAD_PARAM;
 357:.\Generated_Source\PSoC5/CyDmac.c **** 
 358:.\Generated_Source\PSoC5/CyDmac.c ****     if(chHandle < CY_DMA_NUMBEROF_CHANNELS)
 342              		.loc 1 358 0
 343 0000 1728     		cmp	r0, #23
 344 0002 0BD8     		bhi	.L38
 359:.\Generated_Source\PSoC5/CyDmac.c ****     {
 360:.\Generated_Source\PSoC5/CyDmac.c ****         /***********************************************************************
 361:.\Generated_Source\PSoC5/CyDmac.c ****         * Should not change configuration information of a DMA channel when it
 362:.\Generated_Source\PSoC5/CyDmac.c ****         * is active (or vulnerable to becoming active).
 363:.\Generated_Source\PSoC5/CyDmac.c ****         ***********************************************************************/
 364:.\Generated_Source\PSoC5/CyDmac.c **** 
 365:.\Generated_Source\PSoC5/CyDmac.c ****         /* Disable channel */
 366:.\Generated_Source\PSoC5/CyDmac.c ****         CY_DMA_CH_STRUCT_PTR[chHandle].basic_cfg[0] &= ((uint8) (~CY_DMA_CH_BASIC_CFG_EN));
 345              		.loc 1 366 0
 346 0004 064B     		ldr	r3, .L39
 347 0006 0001     		lsls	r0, r0, #4
 348              	.LVL24:
 349 0008 C25C     		ldrb	r2, [r0, r3]	@ zero_extendqisi2
 350 000a 02F0FE01 		and	r1, r2, #254
 351 000e C154     		strb	r1, [r0, r3]
 367:.\Generated_Source\PSoC5/CyDmac.c **** 
 368:.\Generated_Source\PSoC5/CyDmac.c ****         /* Store the intermediate and final TD states on top of the original TD chain */
 369:.\Generated_Source\PSoC5/CyDmac.c ****         CY_DMA_CH_STRUCT_PTR[chHandle].basic_cfg[0] &= ((uint8) (~CY_DMA_CH_BASIC_CFG_WORK_SEP));
 352              		.loc 1 369 0
 353 0010 C25C     		ldrb	r2, [r0, r3]	@ zero_extendqisi2
 354 0012 02F0DF01 		and	r1, r2, #223
 355 0016 C154     		strb	r1, [r0, r3]
 356              	.LVL25:
 370:.\Generated_Source\PSoC5/CyDmac.c ****         status = CYRET_SUCCESS;
 357              		.loc 1 370 0
 358 0018 0020     		movs	r0, #0
 359 001a 7047     		bx	lr
 360              	.LVL26:
ARM GAS  C:\Users\MICHA_~1\AppData\Local\Temp\cc1lqS7m.s 			page 14


 361              	.L38:
 356:.\Generated_Source\PSoC5/CyDmac.c ****     cystatus status = CYRET_BAD_PARAM;
 362              		.loc 1 356 0
 363 001c 0120     		movs	r0, #1
 364              	.LVL27:
 371:.\Generated_Source\PSoC5/CyDmac.c ****     }
 372:.\Generated_Source\PSoC5/CyDmac.c **** 
 373:.\Generated_Source\PSoC5/CyDmac.c ****     return(status);
 374:.\Generated_Source\PSoC5/CyDmac.c **** }
 365              		.loc 1 374 0
 366 001e 7047     		bx	lr
 367              	.L40:
 368              		.align	2
 369              	.L39:
 370 0020 10700040 		.word	1073770512
 371              		.cfi_endproc
 372              	.LFE7:
 373              		.size	CyDmaChDisable, .-CyDmaChDisable
 374              		.section	.text.CyDmaClearPendingDrq,"ax",%progbits
 375              		.align	1
 376              		.global	CyDmaClearPendingDrq
 377              		.thumb
 378              		.thumb_func
 379              		.type	CyDmaClearPendingDrq, %function
 380              	CyDmaClearPendingDrq:
 381              	.LFB8:
 375:.\Generated_Source\PSoC5/CyDmac.c **** 
 376:.\Generated_Source\PSoC5/CyDmac.c **** 
 377:.\Generated_Source\PSoC5/CyDmac.c **** /*******************************************************************************
 378:.\Generated_Source\PSoC5/CyDmac.c **** * Function Name: CyDmaClearPendingDrq
 379:.\Generated_Source\PSoC5/CyDmac.c **** ********************************************************************************
 380:.\Generated_Source\PSoC5/CyDmac.c **** *
 381:.\Generated_Source\PSoC5/CyDmac.c **** * Summary:
 382:.\Generated_Source\PSoC5/CyDmac.c **** *  Clears pending DMA data request.
 383:.\Generated_Source\PSoC5/CyDmac.c **** *
 384:.\Generated_Source\PSoC5/CyDmac.c **** * Parameters:
 385:.\Generated_Source\PSoC5/CyDmac.c **** *  uint8 chHandle:
 386:.\Generated_Source\PSoC5/CyDmac.c **** *   Handle to the dma channel.
 387:.\Generated_Source\PSoC5/CyDmac.c **** *
 388:.\Generated_Source\PSoC5/CyDmac.c **** * Return:
 389:.\Generated_Source\PSoC5/CyDmac.c **** *  CYRET_SUCCESS if successful.
 390:.\Generated_Source\PSoC5/CyDmac.c **** *  CYRET_BAD_PARAM if chHandle is invalid.
 391:.\Generated_Source\PSoC5/CyDmac.c **** *
 392:.\Generated_Source\PSoC5/CyDmac.c **** *******************************************************************************/
 393:.\Generated_Source\PSoC5/CyDmac.c **** cystatus CyDmaClearPendingDrq(uint8 chHandle) 
 394:.\Generated_Source\PSoC5/CyDmac.c **** {
 382              		.loc 1 394 0
 383              		.cfi_startproc
 384              		@ args = 0, pretend = 0, frame = 0
 385              		@ frame_needed = 0, uses_anonymous_args = 0
 386              		@ link register save eliminated.
 387              	.LVL28:
 395:.\Generated_Source\PSoC5/CyDmac.c ****     cystatus status = CYRET_BAD_PARAM;
 396:.\Generated_Source\PSoC5/CyDmac.c **** 
 397:.\Generated_Source\PSoC5/CyDmac.c ****     if(chHandle < CY_DMA_NUMBEROF_CHANNELS)
 388              		.loc 1 397 0
 389 0000 1728     		cmp	r0, #23
ARM GAS  C:\Users\MICHA_~1\AppData\Local\Temp\cc1lqS7m.s 			page 15


 390 0002 0CD8     		bhi	.L43
 398:.\Generated_Source\PSoC5/CyDmac.c ****     {
 399:.\Generated_Source\PSoC5/CyDmac.c ****         CY_DMA_CH_STRUCT_PTR[chHandle].action[0] |= CY_DMA_CPU_TERM_CHAIN;
 391              		.loc 1 399 0
 392 0004 074A     		ldr	r2, .L44
 393 0006 0001     		lsls	r0, r0, #4
 394              	.LVL29:
 395 0008 8318     		adds	r3, r0, r2
 396 000a 1979     		ldrb	r1, [r3, #4]	@ zero_extendqisi2
 397 000c 41F00401 		orr	r1, r1, #4
 398 0010 1971     		strb	r1, [r3, #4]
 400:.\Generated_Source\PSoC5/CyDmac.c ****         CY_DMA_CH_STRUCT_PTR[chHandle].basic_cfg[0] |= 0x01u;
 399              		.loc 1 400 0
 400 0012 835C     		ldrb	r3, [r0, r2]	@ zero_extendqisi2
 401 0014 43F00101 		orr	r1, r3, #1
 402 0018 8154     		strb	r1, [r0, r2]
 403              	.LVL30:
 401:.\Generated_Source\PSoC5/CyDmac.c ****         status = CYRET_SUCCESS;
 404              		.loc 1 401 0
 405 001a 0020     		movs	r0, #0
 406 001c 7047     		bx	lr
 407              	.LVL31:
 408              	.L43:
 395:.\Generated_Source\PSoC5/CyDmac.c ****     cystatus status = CYRET_BAD_PARAM;
 409              		.loc 1 395 0
 410 001e 0120     		movs	r0, #1
 411              	.LVL32:
 402:.\Generated_Source\PSoC5/CyDmac.c ****     }
 403:.\Generated_Source\PSoC5/CyDmac.c **** 
 404:.\Generated_Source\PSoC5/CyDmac.c ****     return(status);
 405:.\Generated_Source\PSoC5/CyDmac.c **** }
 412              		.loc 1 405 0
 413 0020 7047     		bx	lr
 414              	.L45:
 415 0022 00BF     		.align	2
 416              	.L44:
 417 0024 10700040 		.word	1073770512
 418              		.cfi_endproc
 419              	.LFE8:
 420              		.size	CyDmaClearPendingDrq, .-CyDmaClearPendingDrq
 421              		.section	.text.CyDmaChPriority,"ax",%progbits
 422              		.align	1
 423              		.global	CyDmaChPriority
 424              		.thumb
 425              		.thumb_func
 426              		.type	CyDmaChPriority, %function
 427              	CyDmaChPriority:
 428              	.LFB9:
 406:.\Generated_Source\PSoC5/CyDmac.c **** 
 407:.\Generated_Source\PSoC5/CyDmac.c **** 
 408:.\Generated_Source\PSoC5/CyDmac.c **** /*******************************************************************************
 409:.\Generated_Source\PSoC5/CyDmac.c **** * Function Name: CyDmaChPriority
 410:.\Generated_Source\PSoC5/CyDmac.c **** ********************************************************************************
 411:.\Generated_Source\PSoC5/CyDmac.c **** *
 412:.\Generated_Source\PSoC5/CyDmac.c **** * Summary:
 413:.\Generated_Source\PSoC5/CyDmac.c **** *  Sets the priority of a DMA channel. You can use this function when you want
 414:.\Generated_Source\PSoC5/CyDmac.c **** *  to change the priority at run time. If the priority remains the same for a
ARM GAS  C:\Users\MICHA_~1\AppData\Local\Temp\cc1lqS7m.s 			page 16


 415:.\Generated_Source\PSoC5/CyDmac.c **** *  DMA channel, then you can configure the priority in the .cydwr file.
 416:.\Generated_Source\PSoC5/CyDmac.c **** *
 417:.\Generated_Source\PSoC5/CyDmac.c **** * Parameters:
 418:.\Generated_Source\PSoC5/CyDmac.c **** *  uint8 chHandle:
 419:.\Generated_Source\PSoC5/CyDmac.c **** *   A handle previously returned by CyDmaChAlloc() or DMA_DmaInitalize().
 420:.\Generated_Source\PSoC5/CyDmac.c **** *
 421:.\Generated_Source\PSoC5/CyDmac.c **** *  uint8 priority:
 422:.\Generated_Source\PSoC5/CyDmac.c **** *   Priority to set the channel to, 0 - 7.
 423:.\Generated_Source\PSoC5/CyDmac.c **** *
 424:.\Generated_Source\PSoC5/CyDmac.c **** * Return:
 425:.\Generated_Source\PSoC5/CyDmac.c **** *  CYRET_SUCCESS if successful.
 426:.\Generated_Source\PSoC5/CyDmac.c **** *  CYRET_BAD_PARAM if chHandle is invalid.
 427:.\Generated_Source\PSoC5/CyDmac.c **** *
 428:.\Generated_Source\PSoC5/CyDmac.c **** *******************************************************************************/
 429:.\Generated_Source\PSoC5/CyDmac.c **** cystatus CyDmaChPriority(uint8 chHandle, uint8 priority) 
 430:.\Generated_Source\PSoC5/CyDmac.c **** {
 429              		.loc 1 430 0
 430              		.cfi_startproc
 431              		@ args = 0, pretend = 0, frame = 0
 432              		@ frame_needed = 0, uses_anonymous_args = 0
 433              		@ link register save eliminated.
 434              	.LVL33:
 431:.\Generated_Source\PSoC5/CyDmac.c ****     uint8 value;
 432:.\Generated_Source\PSoC5/CyDmac.c ****     cystatus status = CYRET_BAD_PARAM;
 433:.\Generated_Source\PSoC5/CyDmac.c **** 
 434:.\Generated_Source\PSoC5/CyDmac.c ****     if(chHandle < CY_DMA_NUMBEROF_CHANNELS)
 435              		.loc 1 434 0
 436 0000 1728     		cmp	r0, #23
 437 0002 0BD8     		bhi	.L48
 435:.\Generated_Source\PSoC5/CyDmac.c ****     {
 436:.\Generated_Source\PSoC5/CyDmac.c ****         value = CY_DMA_CH_STRUCT_PTR[chHandle].basic_cfg[0u] & ((uint8)(~(0x0Eu)));
 438              		.loc 1 436 0
 439 0004 064B     		ldr	r3, .L49
 440 0006 0001     		lsls	r0, r0, #4
 441              	.LVL34:
 442 0008 C25C     		ldrb	r2, [r0, r3]	@ zero_extendqisi2
 443              	.LVL35:
 437:.\Generated_Source\PSoC5/CyDmac.c **** 
 438:.\Generated_Source\PSoC5/CyDmac.c ****         CY_DMA_CH_STRUCT_PTR[chHandle].basic_cfg[0u] = value | ((uint8) ((priority & 0x7u) << 0x01u
 444              		.loc 1 438 0
 445 000a 01F00701 		and	r1, r1, #7
 446              	.LVL36:
 436:.\Generated_Source\PSoC5/CyDmac.c ****         value = CY_DMA_CH_STRUCT_PTR[chHandle].basic_cfg[0u] & ((uint8)(~(0x0Eu)));
 447              		.loc 1 436 0
 448 000e 02F0F102 		and	r2, r2, #241
 449              	.LVL37:
 450              		.loc 1 438 0
 451 0012 42EA4101 		orr	r1, r2, r1, lsl #1
 452 0016 C154     		strb	r1, [r0, r3]
 453              	.LVL38:
 439:.\Generated_Source\PSoC5/CyDmac.c **** 
 440:.\Generated_Source\PSoC5/CyDmac.c ****         status = CYRET_SUCCESS;
 454              		.loc 1 440 0
 455 0018 0020     		movs	r0, #0
 456 001a 7047     		bx	lr
 457              	.LVL39:
 458              	.L48:
ARM GAS  C:\Users\MICHA_~1\AppData\Local\Temp\cc1lqS7m.s 			page 17


 432:.\Generated_Source\PSoC5/CyDmac.c ****     cystatus status = CYRET_BAD_PARAM;
 459              		.loc 1 432 0
 460 001c 0120     		movs	r0, #1
 461              	.LVL40:
 441:.\Generated_Source\PSoC5/CyDmac.c ****     }
 442:.\Generated_Source\PSoC5/CyDmac.c **** 
 443:.\Generated_Source\PSoC5/CyDmac.c ****     return(status);
 444:.\Generated_Source\PSoC5/CyDmac.c **** }
 462              		.loc 1 444 0
 463 001e 7047     		bx	lr
 464              	.L50:
 465              		.align	2
 466              	.L49:
 467 0020 10700040 		.word	1073770512
 468              		.cfi_endproc
 469              	.LFE9:
 470              		.size	CyDmaChPriority, .-CyDmaChPriority
 471              		.section	.text.CyDmaChSetExtendedAddress,"ax",%progbits
 472              		.align	1
 473              		.global	CyDmaChSetExtendedAddress
 474              		.thumb
 475              		.thumb_func
 476              		.type	CyDmaChSetExtendedAddress, %function
 477              	CyDmaChSetExtendedAddress:
 478              	.LFB10:
 445:.\Generated_Source\PSoC5/CyDmac.c **** 
 446:.\Generated_Source\PSoC5/CyDmac.c **** 
 447:.\Generated_Source\PSoC5/CyDmac.c **** /*******************************************************************************
 448:.\Generated_Source\PSoC5/CyDmac.c **** * Function Name: CyDmaChSetExtendedAddress
 449:.\Generated_Source\PSoC5/CyDmac.c **** ********************************************************************************
 450:.\Generated_Source\PSoC5/CyDmac.c **** *
 451:.\Generated_Source\PSoC5/CyDmac.c **** * Summary:
 452:.\Generated_Source\PSoC5/CyDmac.c **** *  Sets the high 16 bits of the source and destination addresses for the DMA
 453:.\Generated_Source\PSoC5/CyDmac.c **** *  channel (valid for all TDs in the chain).
 454:.\Generated_Source\PSoC5/CyDmac.c **** *
 455:.\Generated_Source\PSoC5/CyDmac.c **** * Parameters:
 456:.\Generated_Source\PSoC5/CyDmac.c **** *  uint8 chHandle:
 457:.\Generated_Source\PSoC5/CyDmac.c **** *   A handle previously returned by CyDmaChAlloc() or DMA_DmaInitalize().
 458:.\Generated_Source\PSoC5/CyDmac.c **** *
 459:.\Generated_Source\PSoC5/CyDmac.c **** *  uint16 source:
 460:.\Generated_Source\PSoC5/CyDmac.c **** *   Upper 16 bit address of the DMA transfer source.
 461:.\Generated_Source\PSoC5/CyDmac.c **** *
 462:.\Generated_Source\PSoC5/CyDmac.c **** *  uint16 destination:
 463:.\Generated_Source\PSoC5/CyDmac.c **** *   Upper 16 bit address of the DMA transfer destination.
 464:.\Generated_Source\PSoC5/CyDmac.c **** *
 465:.\Generated_Source\PSoC5/CyDmac.c **** * Return:
 466:.\Generated_Source\PSoC5/CyDmac.c **** *  CYRET_SUCCESS if successful.
 467:.\Generated_Source\PSoC5/CyDmac.c **** *  CYRET_BAD_PARAM if chHandle is invalid.
 468:.\Generated_Source\PSoC5/CyDmac.c **** *
 469:.\Generated_Source\PSoC5/CyDmac.c **** *******************************************************************************/
 470:.\Generated_Source\PSoC5/CyDmac.c **** cystatus CyDmaChSetExtendedAddress(uint8 chHandle, uint16 source, uint16 destination) \
 471:.\Generated_Source\PSoC5/CyDmac.c ****     
 472:.\Generated_Source\PSoC5/CyDmac.c **** {
 479              		.loc 1 472 0
 480              		.cfi_startproc
 481              		@ args = 0, pretend = 0, frame = 0
 482              		@ frame_needed = 0, uses_anonymous_args = 0
ARM GAS  C:\Users\MICHA_~1\AppData\Local\Temp\cc1lqS7m.s 			page 18


 483              		@ link register save eliminated.
 484              	.LVL41:
 473:.\Generated_Source\PSoC5/CyDmac.c ****     cystatus status = CYRET_BAD_PARAM;
 474:.\Generated_Source\PSoC5/CyDmac.c ****     reg16 *convert;
 475:.\Generated_Source\PSoC5/CyDmac.c **** 
 476:.\Generated_Source\PSoC5/CyDmac.c ****     #if(CY_PSOC5)
 477:.\Generated_Source\PSoC5/CyDmac.c **** 
 478:.\Generated_Source\PSoC5/CyDmac.c ****         /* 0x1FFF8000-0x1FFFFFFF needs to use alias at 0x20008000-0x2000FFFF */
 479:.\Generated_Source\PSoC5/CyDmac.c ****         if(source == 0x1FFFu)
 485              		.loc 1 479 0
 486 0000 41F6FF73 		movw	r3, #8191
 480:.\Generated_Source\PSoC5/CyDmac.c ****         {
 481:.\Generated_Source\PSoC5/CyDmac.c ****             source = 0x2000u;
 487              		.loc 1 481 0
 488 0004 9942     		cmp	r1, r3
 489 0006 08BF     		it	eq
 490 0008 4FF40051 		moveq	r1, #8192
 491              	.LVL42:
 482:.\Generated_Source\PSoC5/CyDmac.c ****         }
 483:.\Generated_Source\PSoC5/CyDmac.c **** 
 484:.\Generated_Source\PSoC5/CyDmac.c ****         if(destination == 0x1FFFu)
 485:.\Generated_Source\PSoC5/CyDmac.c ****         {
 486:.\Generated_Source\PSoC5/CyDmac.c ****             destination = 0x2000u;
 492              		.loc 1 486 0
 493 000c 9A42     		cmp	r2, r3
 494 000e 08BF     		it	eq
 495 0010 4FF40052 		moveq	r2, #8192
 496              	.LVL43:
 487:.\Generated_Source\PSoC5/CyDmac.c ****         }
 488:.\Generated_Source\PSoC5/CyDmac.c **** 
 489:.\Generated_Source\PSoC5/CyDmac.c ****     #endif  /* (CY_PSOC5) */
 490:.\Generated_Source\PSoC5/CyDmac.c **** 
 491:.\Generated_Source\PSoC5/CyDmac.c **** 
 492:.\Generated_Source\PSoC5/CyDmac.c ****     if(chHandle < CY_DMA_NUMBEROF_CHANNELS)
 497              		.loc 1 492 0
 498 0014 1728     		cmp	r0, #23
 499 0016 08D8     		bhi	.L57
 493:.\Generated_Source\PSoC5/CyDmac.c ****     {
 494:.\Generated_Source\PSoC5/CyDmac.c ****         /* Set source address */
 495:.\Generated_Source\PSoC5/CyDmac.c ****         convert = (reg16 *) &CY_DMA_CFGMEM_STRUCT_PTR[chHandle].CFG1[0];
 500              		.loc 1 495 0
 501 0018 C000     		lsls	r0, r0, #3
 502              	.LVL44:
 503 001a 00F18043 		add	r3, r0, #1073741824
 504 001e 03F5EC40 		add	r0, r3, #30208
 505              	.LVL45:
 496:.\Generated_Source\PSoC5/CyDmac.c ****         CY_SET_REG16(convert, source);
 506              		.loc 1 496 0
 507 0022 8180     		strh	r1, [r0, #4]	@ movhi
 508              	.LVL46:
 497:.\Generated_Source\PSoC5/CyDmac.c **** 
 498:.\Generated_Source\PSoC5/CyDmac.c ****         /* Set destination address */
 499:.\Generated_Source\PSoC5/CyDmac.c ****         convert = (reg16 *) &CY_DMA_CFGMEM_STRUCT_PTR[chHandle].CFG1[2u];
 500:.\Generated_Source\PSoC5/CyDmac.c ****         CY_SET_REG16(convert, destination);
 509              		.loc 1 500 0
 510 0024 C280     		strh	r2, [r0, #6]	@ movhi
 511              	.LVL47:
ARM GAS  C:\Users\MICHA_~1\AppData\Local\Temp\cc1lqS7m.s 			page 19


 501:.\Generated_Source\PSoC5/CyDmac.c ****         status = CYRET_SUCCESS;
 512              		.loc 1 501 0
 513 0026 0020     		movs	r0, #0
 514              	.LVL48:
 515 0028 7047     		bx	lr
 516              	.LVL49:
 517              	.L57:
 473:.\Generated_Source\PSoC5/CyDmac.c ****     cystatus status = CYRET_BAD_PARAM;
 518              		.loc 1 473 0
 519 002a 0120     		movs	r0, #1
 520              	.LVL50:
 502:.\Generated_Source\PSoC5/CyDmac.c ****     }
 503:.\Generated_Source\PSoC5/CyDmac.c **** 
 504:.\Generated_Source\PSoC5/CyDmac.c ****     return(status);
 505:.\Generated_Source\PSoC5/CyDmac.c **** }
 521              		.loc 1 505 0
 522 002c 7047     		bx	lr
 523              		.cfi_endproc
 524              	.LFE10:
 525              		.size	CyDmaChSetExtendedAddress, .-CyDmaChSetExtendedAddress
 526              		.section	.text.CyDmaChSetInitialTd,"ax",%progbits
 527              		.align	1
 528              		.global	CyDmaChSetInitialTd
 529              		.thumb
 530              		.thumb_func
 531              		.type	CyDmaChSetInitialTd, %function
 532              	CyDmaChSetInitialTd:
 533              	.LFB11:
 506:.\Generated_Source\PSoC5/CyDmac.c **** 
 507:.\Generated_Source\PSoC5/CyDmac.c **** 
 508:.\Generated_Source\PSoC5/CyDmac.c **** /*******************************************************************************
 509:.\Generated_Source\PSoC5/CyDmac.c **** * Function Name: CyDmaChSetInitialTd
 510:.\Generated_Source\PSoC5/CyDmac.c **** ********************************************************************************
 511:.\Generated_Source\PSoC5/CyDmac.c **** *
 512:.\Generated_Source\PSoC5/CyDmac.c **** * Summary:
 513:.\Generated_Source\PSoC5/CyDmac.c **** *  Sets the initial TD to be executed for the channel when the CyDmaChEnable()
 514:.\Generated_Source\PSoC5/CyDmac.c **** *  function is called.
 515:.\Generated_Source\PSoC5/CyDmac.c **** *
 516:.\Generated_Source\PSoC5/CyDmac.c **** * Parameters:
 517:.\Generated_Source\PSoC5/CyDmac.c **** *  uint8 chHandle:
 518:.\Generated_Source\PSoC5/CyDmac.c **** *   A handle previously returned by CyDmaChAlloc() or DMA_DmaInitialize().
 519:.\Generated_Source\PSoC5/CyDmac.c **** *
 520:.\Generated_Source\PSoC5/CyDmac.c **** *  uint8 startTd:
 521:.\Generated_Source\PSoC5/CyDmac.c **** *   The index of TD to set as the first TD associated with the channel. Zero is
 522:.\Generated_Source\PSoC5/CyDmac.c **** *   a valid TD index.
 523:.\Generated_Source\PSoC5/CyDmac.c **** *
 524:.\Generated_Source\PSoC5/CyDmac.c **** * Return:
 525:.\Generated_Source\PSoC5/CyDmac.c **** *  CYRET_SUCCESS if successful.
 526:.\Generated_Source\PSoC5/CyDmac.c **** *  CYRET_BAD_PARAM if chHandle is invalid.
 527:.\Generated_Source\PSoC5/CyDmac.c **** *
 528:.\Generated_Source\PSoC5/CyDmac.c **** *******************************************************************************/
 529:.\Generated_Source\PSoC5/CyDmac.c **** cystatus CyDmaChSetInitialTd(uint8 chHandle, uint8 startTd) 
 530:.\Generated_Source\PSoC5/CyDmac.c **** {
 534              		.loc 1 530 0
 535              		.cfi_startproc
 536              		@ args = 0, pretend = 0, frame = 0
 537              		@ frame_needed = 0, uses_anonymous_args = 0
ARM GAS  C:\Users\MICHA_~1\AppData\Local\Temp\cc1lqS7m.s 			page 20


 538              		@ link register save eliminated.
 539              	.LVL51:
 531:.\Generated_Source\PSoC5/CyDmac.c ****     cystatus status = CYRET_BAD_PARAM;
 532:.\Generated_Source\PSoC5/CyDmac.c **** 
 533:.\Generated_Source\PSoC5/CyDmac.c ****     if(chHandle < CY_DMA_NUMBEROF_CHANNELS)
 540              		.loc 1 533 0
 541 0000 1728     		cmp	r0, #23
 542 0002 05D8     		bhi	.L60
 534:.\Generated_Source\PSoC5/CyDmac.c ****     {
 535:.\Generated_Source\PSoC5/CyDmac.c ****         CY_DMA_CH_STRUCT_PTR[chHandle].basic_status[1u] = startTd;
 543              		.loc 1 535 0
 544 0004 034B     		ldr	r3, .L61
 545 0006 0001     		lsls	r0, r0, #4
 546              	.LVL52:
 547 0008 C218     		adds	r2, r0, r3
 548 000a 5172     		strb	r1, [r2, #9]
 549              	.LVL53:
 536:.\Generated_Source\PSoC5/CyDmac.c ****         status = CYRET_SUCCESS;
 550              		.loc 1 536 0
 551 000c 0020     		movs	r0, #0
 552 000e 7047     		bx	lr
 553              	.LVL54:
 554              	.L60:
 531:.\Generated_Source\PSoC5/CyDmac.c ****     cystatus status = CYRET_BAD_PARAM;
 555              		.loc 1 531 0
 556 0010 0120     		movs	r0, #1
 557              	.LVL55:
 537:.\Generated_Source\PSoC5/CyDmac.c ****     }
 538:.\Generated_Source\PSoC5/CyDmac.c **** 
 539:.\Generated_Source\PSoC5/CyDmac.c ****     return(status);
 540:.\Generated_Source\PSoC5/CyDmac.c **** }
 558              		.loc 1 540 0
 559 0012 7047     		bx	lr
 560              	.L62:
 561              		.align	2
 562              	.L61:
 563 0014 10700040 		.word	1073770512
 564              		.cfi_endproc
 565              	.LFE11:
 566              		.size	CyDmaChSetInitialTd, .-CyDmaChSetInitialTd
 567              		.section	.text.CyDmaChSetRequest,"ax",%progbits
 568              		.align	1
 569              		.global	CyDmaChSetRequest
 570              		.thumb
 571              		.thumb_func
 572              		.type	CyDmaChSetRequest, %function
 573              	CyDmaChSetRequest:
 574              	.LFB12:
 541:.\Generated_Source\PSoC5/CyDmac.c **** 
 542:.\Generated_Source\PSoC5/CyDmac.c **** 
 543:.\Generated_Source\PSoC5/CyDmac.c **** /*******************************************************************************
 544:.\Generated_Source\PSoC5/CyDmac.c **** * Function Name: CyDmaChSetRequest
 545:.\Generated_Source\PSoC5/CyDmac.c **** ********************************************************************************
 546:.\Generated_Source\PSoC5/CyDmac.c **** *
 547:.\Generated_Source\PSoC5/CyDmac.c **** * Summary:
 548:.\Generated_Source\PSoC5/CyDmac.c **** *  Allows the caller to terminate a chain of TDs, terminate one TD, or create a
 549:.\Generated_Source\PSoC5/CyDmac.c **** *  direct request to start the DMA channel.
ARM GAS  C:\Users\MICHA_~1\AppData\Local\Temp\cc1lqS7m.s 			page 21


 550:.\Generated_Source\PSoC5/CyDmac.c **** *
 551:.\Generated_Source\PSoC5/CyDmac.c **** * Parameters:
 552:.\Generated_Source\PSoC5/CyDmac.c **** *  uint8 chHandle:
 553:.\Generated_Source\PSoC5/CyDmac.c **** *   A handle previously returned by CyDmaChAlloc() or DMA_DmaInitalize().
 554:.\Generated_Source\PSoC5/CyDmac.c **** *
 555:.\Generated_Source\PSoC5/CyDmac.c **** *  uint8 request:
 556:.\Generated_Source\PSoC5/CyDmac.c **** *   One of the following constants. Each of the constants is a three-bit value.
 557:.\Generated_Source\PSoC5/CyDmac.c **** *
 558:.\Generated_Source\PSoC5/CyDmac.c **** *   CPU_REQ         - Create a direct request to start the DMA channel
 559:.\Generated_Source\PSoC5/CyDmac.c **** *   CPU_TERM_TD     - Terminate one TD
 560:.\Generated_Source\PSoC5/CyDmac.c **** *   CPU_TERM_CHAIN  - Terminate a chain of TDs
 561:.\Generated_Source\PSoC5/CyDmac.c **** *
 562:.\Generated_Source\PSoC5/CyDmac.c **** * Return:
 563:.\Generated_Source\PSoC5/CyDmac.c **** *  CYRET_SUCCESS if successful.
 564:.\Generated_Source\PSoC5/CyDmac.c **** *  CYRET_BAD_PARAM if chHandle is invalid.
 565:.\Generated_Source\PSoC5/CyDmac.c **** *
 566:.\Generated_Source\PSoC5/CyDmac.c **** *******************************************************************************/
 567:.\Generated_Source\PSoC5/CyDmac.c **** cystatus CyDmaChSetRequest(uint8 chHandle, uint8 request) 
 568:.\Generated_Source\PSoC5/CyDmac.c **** {
 575              		.loc 1 568 0
 576              		.cfi_startproc
 577              		@ args = 0, pretend = 0, frame = 0
 578              		@ frame_needed = 0, uses_anonymous_args = 0
 579              		@ link register save eliminated.
 580              	.LVL56:
 569:.\Generated_Source\PSoC5/CyDmac.c ****     cystatus status = CYRET_BAD_PARAM;
 570:.\Generated_Source\PSoC5/CyDmac.c **** 
 571:.\Generated_Source\PSoC5/CyDmac.c ****     if(chHandle < CY_DMA_NUMBEROF_CHANNELS)
 581              		.loc 1 571 0
 582 0000 1728     		cmp	r0, #23
 583 0002 0AD8     		bhi	.L65
 572:.\Generated_Source\PSoC5/CyDmac.c ****     {
 573:.\Generated_Source\PSoC5/CyDmac.c ****         CY_DMA_CH_STRUCT_PTR[chHandle].action[0u] |= (request & (CPU_REQ | CPU_TERM_TD | CPU_TERM_C
 584              		.loc 1 573 0
 585 0004 064B     		ldr	r3, .L66
 586 0006 0001     		lsls	r0, r0, #4
 587              	.LVL57:
 588 0008 C018     		adds	r0, r0, r3
 589 000a 0279     		ldrb	r2, [r0, #4]	@ zero_extendqisi2
 590 000c 01F00701 		and	r1, r1, #7
 591              	.LVL58:
 592 0010 42EA0103 		orr	r3, r2, r1
 593 0014 0371     		strb	r3, [r0, #4]
 594              	.LVL59:
 574:.\Generated_Source\PSoC5/CyDmac.c ****         status = CYRET_SUCCESS;
 595              		.loc 1 574 0
 596 0016 0020     		movs	r0, #0
 597 0018 7047     		bx	lr
 598              	.LVL60:
 599              	.L65:
 569:.\Generated_Source\PSoC5/CyDmac.c ****     cystatus status = CYRET_BAD_PARAM;
 600              		.loc 1 569 0
 601 001a 0120     		movs	r0, #1
 602              	.LVL61:
 575:.\Generated_Source\PSoC5/CyDmac.c ****     }
 576:.\Generated_Source\PSoC5/CyDmac.c **** 
 577:.\Generated_Source\PSoC5/CyDmac.c ****     return(status);
ARM GAS  C:\Users\MICHA_~1\AppData\Local\Temp\cc1lqS7m.s 			page 22


 578:.\Generated_Source\PSoC5/CyDmac.c **** }
 603              		.loc 1 578 0
 604 001c 7047     		bx	lr
 605              	.L67:
 606 001e 00BF     		.align	2
 607              	.L66:
 608 0020 10700040 		.word	1073770512
 609              		.cfi_endproc
 610              	.LFE12:
 611              		.size	CyDmaChSetRequest, .-CyDmaChSetRequest
 612              		.section	.text.CyDmaChGetRequest,"ax",%progbits
 613              		.align	1
 614              		.global	CyDmaChGetRequest
 615              		.thumb
 616              		.thumb_func
 617              		.type	CyDmaChGetRequest, %function
 618              	CyDmaChGetRequest:
 619              	.LFB13:
 579:.\Generated_Source\PSoC5/CyDmac.c **** 
 580:.\Generated_Source\PSoC5/CyDmac.c **** 
 581:.\Generated_Source\PSoC5/CyDmac.c **** /*******************************************************************************
 582:.\Generated_Source\PSoC5/CyDmac.c **** * Function Name: CyDmaChGetRequest
 583:.\Generated_Source\PSoC5/CyDmac.c **** ********************************************************************************
 584:.\Generated_Source\PSoC5/CyDmac.c **** *
 585:.\Generated_Source\PSoC5/CyDmac.c **** * Summary:
 586:.\Generated_Source\PSoC5/CyDmac.c **** *  This function allows the caller of CyDmaChSetRequest() to determine if the
 587:.\Generated_Source\PSoC5/CyDmac.c **** *  request was completed.
 588:.\Generated_Source\PSoC5/CyDmac.c **** *
 589:.\Generated_Source\PSoC5/CyDmac.c **** * Parameters:
 590:.\Generated_Source\PSoC5/CyDmac.c **** *  uint8 chHandle:
 591:.\Generated_Source\PSoC5/CyDmac.c **** *   A handle previously returned by CyDmaChAlloc() or DMA_DmaInitalize().
 592:.\Generated_Source\PSoC5/CyDmac.c **** *
 593:.\Generated_Source\PSoC5/CyDmac.c **** * Return:
 594:.\Generated_Source\PSoC5/CyDmac.c **** *  Returns a three-bit field, corresponding to the three bits of the request,
 595:.\Generated_Source\PSoC5/CyDmac.c **** *  which describes the state of the previously posted request. If the value is
 596:.\Generated_Source\PSoC5/CyDmac.c **** *  zero, the request was completed. CY_DMA_INVALID_CHANNEL if the handle is
 597:.\Generated_Source\PSoC5/CyDmac.c **** *  invalid.
 598:.\Generated_Source\PSoC5/CyDmac.c **** *
 599:.\Generated_Source\PSoC5/CyDmac.c **** *******************************************************************************/
 600:.\Generated_Source\PSoC5/CyDmac.c **** cystatus CyDmaChGetRequest(uint8 chHandle) 
 601:.\Generated_Source\PSoC5/CyDmac.c **** {
 620              		.loc 1 601 0
 621              		.cfi_startproc
 622              		@ args = 0, pretend = 0, frame = 0
 623              		@ frame_needed = 0, uses_anonymous_args = 0
 624              		@ link register save eliminated.
 625              	.LVL62:
 602:.\Generated_Source\PSoC5/CyDmac.c ****     cystatus status = CY_DMA_INVALID_CHANNEL;
 603:.\Generated_Source\PSoC5/CyDmac.c **** 
 604:.\Generated_Source\PSoC5/CyDmac.c ****     if(chHandle < CY_DMA_NUMBEROF_CHANNELS)
 626              		.loc 1 604 0
 627 0000 1728     		cmp	r0, #23
 628 0002 06D8     		bhi	.L70
 605:.\Generated_Source\PSoC5/CyDmac.c ****     {
 606:.\Generated_Source\PSoC5/CyDmac.c ****         status = (cystatus) ((uint32)CY_DMA_CH_STRUCT_PTR[chHandle].action[0u] &
 629              		.loc 1 606 0
 630 0004 044B     		ldr	r3, .L71
ARM GAS  C:\Users\MICHA_~1\AppData\Local\Temp\cc1lqS7m.s 			page 23


 631 0006 0001     		lsls	r0, r0, #4
 632              	.LVL63:
 633 0008 C118     		adds	r1, r0, r3
 634 000a 0A79     		ldrb	r2, [r1, #4]	@ zero_extendqisi2
 635 000c 02F00700 		and	r0, r2, #7
 636              	.LVL64:
 637 0010 7047     		bx	lr
 638              	.LVL65:
 639              	.L70:
 602:.\Generated_Source\PSoC5/CyDmac.c ****     cystatus status = CY_DMA_INVALID_CHANNEL;
 640              		.loc 1 602 0
 641 0012 FF20     		movs	r0, #255
 642              	.LVL66:
 607:.\Generated_Source\PSoC5/CyDmac.c ****                             (uint32)(CY_DMA_CPU_REQ | CY_DMA_CPU_TERM_TD | CY_DMA_CPU_TERM_CHAIN));
 608:.\Generated_Source\PSoC5/CyDmac.c ****     }
 609:.\Generated_Source\PSoC5/CyDmac.c **** 
 610:.\Generated_Source\PSoC5/CyDmac.c ****     return(status);
 611:.\Generated_Source\PSoC5/CyDmac.c **** }
 643              		.loc 1 611 0
 644 0014 7047     		bx	lr
 645              	.L72:
 646 0016 00BF     		.align	2
 647              	.L71:
 648 0018 10700040 		.word	1073770512
 649              		.cfi_endproc
 650              	.LFE13:
 651              		.size	CyDmaChGetRequest, .-CyDmaChGetRequest
 652              		.section	.text.CyDmaChStatus,"ax",%progbits
 653              		.align	1
 654              		.global	CyDmaChStatus
 655              		.thumb
 656              		.thumb_func
 657              		.type	CyDmaChStatus, %function
 658              	CyDmaChStatus:
 659              	.LFB14:
 612:.\Generated_Source\PSoC5/CyDmac.c **** 
 613:.\Generated_Source\PSoC5/CyDmac.c **** 
 614:.\Generated_Source\PSoC5/CyDmac.c **** /*******************************************************************************
 615:.\Generated_Source\PSoC5/CyDmac.c **** * Function Name: CyDmaChStatus
 616:.\Generated_Source\PSoC5/CyDmac.c **** ********************************************************************************
 617:.\Generated_Source\PSoC5/CyDmac.c **** *
 618:.\Generated_Source\PSoC5/CyDmac.c **** * Summary:
 619:.\Generated_Source\PSoC5/CyDmac.c **** *  Determines the status of the DMA channel.
 620:.\Generated_Source\PSoC5/CyDmac.c **** *
 621:.\Generated_Source\PSoC5/CyDmac.c **** * Parameters:
 622:.\Generated_Source\PSoC5/CyDmac.c **** *  uint8 chHandle:
 623:.\Generated_Source\PSoC5/CyDmac.c **** *   A handle previously returned by CyDmaChAlloc() or DMA_DmaInitalize().
 624:.\Generated_Source\PSoC5/CyDmac.c **** *
 625:.\Generated_Source\PSoC5/CyDmac.c **** *  uint8 * currentTd:
 626:.\Generated_Source\PSoC5/CyDmac.c **** *   The address to store the index of the current TD. Can be NULL if the value
 627:.\Generated_Source\PSoC5/CyDmac.c **** *   is not needed.
 628:.\Generated_Source\PSoC5/CyDmac.c **** *
 629:.\Generated_Source\PSoC5/CyDmac.c **** *  uint8 * state:
 630:.\Generated_Source\PSoC5/CyDmac.c **** *   The address to store the state of the channel. Can be NULL if the value is
 631:.\Generated_Source\PSoC5/CyDmac.c **** *   not needed.
 632:.\Generated_Source\PSoC5/CyDmac.c **** *
 633:.\Generated_Source\PSoC5/CyDmac.c **** *   STATUS_TD_ACTIVE
ARM GAS  C:\Users\MICHA_~1\AppData\Local\Temp\cc1lqS7m.s 			page 24


 634:.\Generated_Source\PSoC5/CyDmac.c **** *    0: Channel is not currently being serviced by DMAC
 635:.\Generated_Source\PSoC5/CyDmac.c **** *    1: Channel is currently being serviced by DMAC
 636:.\Generated_Source\PSoC5/CyDmac.c **** *
 637:.\Generated_Source\PSoC5/CyDmac.c **** *   STATUS_CHAIN_ACTIVE
 638:.\Generated_Source\PSoC5/CyDmac.c **** *    0: TD chain is inactive; either no DMA requests have triggered a new chain
 639:.\Generated_Source\PSoC5/CyDmac.c **** *       or the previous chain has completed.
 640:.\Generated_Source\PSoC5/CyDmac.c **** *    1: TD chain has been triggered by a DMA request
 641:.\Generated_Source\PSoC5/CyDmac.c **** *
 642:.\Generated_Source\PSoC5/CyDmac.c **** * Return:
 643:.\Generated_Source\PSoC5/CyDmac.c **** *  CYRET_SUCCESS if successful.
 644:.\Generated_Source\PSoC5/CyDmac.c **** *  CYRET_BAD_PARAM if chHandle is invalid.
 645:.\Generated_Source\PSoC5/CyDmac.c **** *
 646:.\Generated_Source\PSoC5/CyDmac.c **** * Theory:
 647:.\Generated_Source\PSoC5/CyDmac.c **** *   The caller can check on the activity of the Current TD and the Chain.
 648:.\Generated_Source\PSoC5/CyDmac.c **** *
 649:.\Generated_Source\PSoC5/CyDmac.c **** *******************************************************************************/
 650:.\Generated_Source\PSoC5/CyDmac.c **** cystatus CyDmaChStatus(uint8 chHandle, uint8 * currentTd, uint8 * state) 
 651:.\Generated_Source\PSoC5/CyDmac.c **** {
 660              		.loc 1 651 0
 661              		.cfi_startproc
 662              		@ args = 0, pretend = 0, frame = 0
 663              		@ frame_needed = 0, uses_anonymous_args = 0
 664              	.LVL67:
 652:.\Generated_Source\PSoC5/CyDmac.c ****     cystatus status = CYRET_BAD_PARAM;
 653:.\Generated_Source\PSoC5/CyDmac.c **** 
 654:.\Generated_Source\PSoC5/CyDmac.c ****     if(chHandle < CY_DMA_NUMBEROF_CHANNELS)
 665              		.loc 1 654 0
 666 0000 1728     		cmp	r0, #23
 651:.\Generated_Source\PSoC5/CyDmac.c **** {
 667              		.loc 1 651 0
 668 0002 10B5     		push	{r4, lr}
 669              	.LCFI2:
 670              		.cfi_def_cfa_offset 8
 671              		.cfi_offset 4, -8
 672              		.cfi_offset 14, -4
 673              		.loc 1 654 0
 674 0004 0FD8     		bhi	.L76
 655:.\Generated_Source\PSoC5/CyDmac.c ****     {
 656:.\Generated_Source\PSoC5/CyDmac.c ****         if(NULL != currentTd)
 675              		.loc 1 656 0
 676 0006 31B1     		cbz	r1, .L75
 657:.\Generated_Source\PSoC5/CyDmac.c ****         {
 658:.\Generated_Source\PSoC5/CyDmac.c ****             *currentTd = CY_DMA_CH_STRUCT_PTR[chHandle].basic_status[1] & 0x7Fu;
 677              		.loc 1 658 0
 678 0008 084B     		ldr	r3, .L82
 679 000a 0401     		lsls	r4, r0, #4
 680 000c E318     		adds	r3, r4, r3
 681 000e 5B7A     		ldrb	r3, [r3, #9]	@ zero_extendqisi2
 682 0010 03F07F03 		and	r3, r3, #127
 683 0014 0B70     		strb	r3, [r1, #0]
 684              	.L75:
 659:.\Generated_Source\PSoC5/CyDmac.c ****         }
 660:.\Generated_Source\PSoC5/CyDmac.c **** 
 661:.\Generated_Source\PSoC5/CyDmac.c ****         if(NULL != state)
 685              		.loc 1 661 0
 686 0016 22B1     		cbz	r2, .L81
 662:.\Generated_Source\PSoC5/CyDmac.c ****         {
ARM GAS  C:\Users\MICHA_~1\AppData\Local\Temp\cc1lqS7m.s 			page 25


 663:.\Generated_Source\PSoC5/CyDmac.c ****             *state= CY_DMA_CH_STRUCT_PTR[chHandle].basic_status[0];
 687              		.loc 1 663 0
 688 0018 0449     		ldr	r1, .L82
 689              	.LVL68:
 690 001a 0001     		lsls	r0, r0, #4
 691              	.LVL69:
 692 001c 4318     		adds	r3, r0, r1
 693 001e 187A     		ldrb	r0, [r3, #8]	@ zero_extendqisi2
 694 0020 1070     		strb	r0, [r2, #0]
 695              	.L81:
 664:.\Generated_Source\PSoC5/CyDmac.c ****         }
 665:.\Generated_Source\PSoC5/CyDmac.c **** 
 666:.\Generated_Source\PSoC5/CyDmac.c ****         status = CYRET_SUCCESS;
 696              		.loc 1 666 0
 697 0022 0020     		movs	r0, #0
 698 0024 10BD     		pop	{r4, pc}
 699              	.LVL70:
 700              	.L76:
 652:.\Generated_Source\PSoC5/CyDmac.c ****     cystatus status = CYRET_BAD_PARAM;
 701              		.loc 1 652 0
 702 0026 0120     		movs	r0, #1
 703              	.LVL71:
 704 0028 10BD     		pop	{r4, pc}
 705              	.L83:
 706 002a 00BF     		.align	2
 707              	.L82:
 708 002c 10700040 		.word	1073770512
 709              		.cfi_endproc
 710              	.LFE14:
 711              		.size	CyDmaChStatus, .-CyDmaChStatus
 712              		.section	.text.CyDmaChSetConfiguration,"ax",%progbits
 713              		.align	1
 714              		.global	CyDmaChSetConfiguration
 715              		.thumb
 716              		.thumb_func
 717              		.type	CyDmaChSetConfiguration, %function
 718              	CyDmaChSetConfiguration:
 719              	.LFB15:
 667:.\Generated_Source\PSoC5/CyDmac.c ****     }
 668:.\Generated_Source\PSoC5/CyDmac.c **** 
 669:.\Generated_Source\PSoC5/CyDmac.c ****     return (status);
 670:.\Generated_Source\PSoC5/CyDmac.c **** }
 671:.\Generated_Source\PSoC5/CyDmac.c **** 
 672:.\Generated_Source\PSoC5/CyDmac.c **** 
 673:.\Generated_Source\PSoC5/CyDmac.c **** /*******************************************************************************
 674:.\Generated_Source\PSoC5/CyDmac.c **** * Function Name: CyDmaChSetConfiguration
 675:.\Generated_Source\PSoC5/CyDmac.c **** ********************************************************************************
 676:.\Generated_Source\PSoC5/CyDmac.c **** *
 677:.\Generated_Source\PSoC5/CyDmac.c **** * Summary:
 678:.\Generated_Source\PSoC5/CyDmac.c **** * Sets configuration information of the channel.
 679:.\Generated_Source\PSoC5/CyDmac.c **** *
 680:.\Generated_Source\PSoC5/CyDmac.c **** * Parameters:
 681:.\Generated_Source\PSoC5/CyDmac.c **** *  uint8 chHandle:
 682:.\Generated_Source\PSoC5/CyDmac.c **** *   A handle previously returned by CyDmaChAlloc() or DMA_DmaInitialize().
 683:.\Generated_Source\PSoC5/CyDmac.c **** *
 684:.\Generated_Source\PSoC5/CyDmac.c **** *  uint8 burstCount:
 685:.\Generated_Source\PSoC5/CyDmac.c **** *   Specifies the size of bursts (1 to 127) the data transfer should be divided
ARM GAS  C:\Users\MICHA_~1\AppData\Local\Temp\cc1lqS7m.s 			page 26


 686:.\Generated_Source\PSoC5/CyDmac.c **** *   into. If this value is zero then the whole transfer is done in one burst.
 687:.\Generated_Source\PSoC5/CyDmac.c **** *
 688:.\Generated_Source\PSoC5/CyDmac.c **** *  uint8 requestPerBurst:
 689:.\Generated_Source\PSoC5/CyDmac.c **** *   The whole of the data can be split into multiple bursts, if this is
 690:.\Generated_Source\PSoC5/CyDmac.c **** *   required to complete the transaction:
 691:.\Generated_Source\PSoC5/CyDmac.c **** *    0: All subsequent bursts after the first burst will be automatically
 692:.\Generated_Source\PSoC5/CyDmac.c **** *       requested and carried out
 693:.\Generated_Source\PSoC5/CyDmac.c **** *    1: All subsequent bursts after the first burst must also be individually
 694:.\Generated_Source\PSoC5/CyDmac.c **** *       requested.
 695:.\Generated_Source\PSoC5/CyDmac.c **** *
 696:.\Generated_Source\PSoC5/CyDmac.c **** *  uint8 tdDone0:
 697:.\Generated_Source\PSoC5/CyDmac.c **** *   Selects one of the TERMOUT0 interrupt lines to signal completion. The line
 698:.\Generated_Source\PSoC5/CyDmac.c **** *   connected to the nrq terminal will determine the TERMOUT0_SEL definition and
 699:.\Generated_Source\PSoC5/CyDmac.c **** *   should be used as supplied by cyfitter.h
 700:.\Generated_Source\PSoC5/CyDmac.c **** *
 701:.\Generated_Source\PSoC5/CyDmac.c **** *  uint8 tdDone1:
 702:.\Generated_Source\PSoC5/CyDmac.c **** *   Selects one of the TERMOUT1 interrupt lines to signal completion. The line
 703:.\Generated_Source\PSoC5/CyDmac.c **** *   connected to the nrq terminal will determine the TERMOUT1_SEL definition and
 704:.\Generated_Source\PSoC5/CyDmac.c **** *   should be used as supplied by cyfitter.h
 705:.\Generated_Source\PSoC5/CyDmac.c **** *
 706:.\Generated_Source\PSoC5/CyDmac.c **** *  uint8 tdStop:
 707:.\Generated_Source\PSoC5/CyDmac.c **** *   Selects one of the TERMIN interrupt lines to signal to the DMAC that the TD
 708:.\Generated_Source\PSoC5/CyDmac.c **** *   should terminate. The signal connected to the trq terminal will determine
 709:.\Generated_Source\PSoC5/CyDmac.c **** *   which TERMIN (termination request) is used.
 710:.\Generated_Source\PSoC5/CyDmac.c **** *
 711:.\Generated_Source\PSoC5/CyDmac.c **** * Return:
 712:.\Generated_Source\PSoC5/CyDmac.c **** *  CYRET_SUCCESS if successful.
 713:.\Generated_Source\PSoC5/CyDmac.c **** *  CYRET_BAD_PARAM if chHandle is invalid.
 714:.\Generated_Source\PSoC5/CyDmac.c **** *
 715:.\Generated_Source\PSoC5/CyDmac.c **** *******************************************************************************/
 716:.\Generated_Source\PSoC5/CyDmac.c **** cystatus CyDmaChSetConfiguration(uint8 chHandle, uint8 burstCount, uint8 requestPerBurst,
 717:.\Generated_Source\PSoC5/CyDmac.c ****                                  uint8 tdDone0, uint8 tdDone1, uint8 tdStop) 
 718:.\Generated_Source\PSoC5/CyDmac.c **** {
 720              		.loc 1 718 0
 721              		.cfi_startproc
 722              		@ args = 8, pretend = 0, frame = 0
 723              		@ frame_needed = 0, uses_anonymous_args = 0
 724              	.LVL72:
 719:.\Generated_Source\PSoC5/CyDmac.c ****     cystatus status = CYRET_BAD_PARAM;
 720:.\Generated_Source\PSoC5/CyDmac.c **** 
 721:.\Generated_Source\PSoC5/CyDmac.c ****     if(chHandle < CY_DMA_NUMBEROF_CHANNELS)
 725              		.loc 1 721 0
 726 0000 1728     		cmp	r0, #23
 718:.\Generated_Source\PSoC5/CyDmac.c **** {
 727              		.loc 1 718 0
 728 0002 10B5     		push	{r4, lr}
 729              	.LCFI3:
 730              		.cfi_def_cfa_offset 8
 731              		.cfi_offset 4, -8
 732              		.cfi_offset 14, -4
 733              		.loc 1 721 0
 734 0004 1AD8     		bhi	.L86
 722:.\Generated_Source\PSoC5/CyDmac.c ****     {
 723:.\Generated_Source\PSoC5/CyDmac.c ****         CY_DMA_CFGMEM_STRUCT_PTR[chHandle].CFG0[0] = (burstCount & 0x7Fu) | ((uint8)((requestPerBur
 735              		.loc 1 723 0
 736 0006 01F07F01 		and	r1, r1, #127
 737              	.LVL73:
ARM GAS  C:\Users\MICHA_~1\AppData\Local\Temp\cc1lqS7m.s 			page 27


 738 000a C400     		lsls	r4, r0, #3
 739 000c 41EAC212 		orr	r2, r1, r2, lsl #7
 740              	.LVL74:
 724:.\Generated_Source\PSoC5/CyDmac.c ****         CY_DMA_CFGMEM_STRUCT_PTR[chHandle].CFG0[1] = ((uint8)((tdDone1 & 0xFu) << 4u)) | (tdDone0 &
 741              		.loc 1 724 0
 742 0010 9DF80810 		ldrb	r1, [sp, #8]	@ zero_extendqisi2
 723:.\Generated_Source\PSoC5/CyDmac.c ****         CY_DMA_CFGMEM_STRUCT_PTR[chHandle].CFG0[0] = (burstCount & 0x7Fu) | ((uint8)((requestPerBur
 743              		.loc 1 723 0
 744 0014 04F18040 		add	r0, r4, #1073741824
 745              	.LVL75:
 746              		.loc 1 724 0
 747 0018 03F00F03 		and	r3, r3, #15
 748              	.LVL76:
 723:.\Generated_Source\PSoC5/CyDmac.c ****         CY_DMA_CFGMEM_STRUCT_PTR[chHandle].CFG0[0] = (burstCount & 0x7Fu) | ((uint8)((requestPerBur
 749              		.loc 1 723 0
 750 001c 00F5EC44 		add	r4, r0, #30208
 751 0020 D0B2     		uxtb	r0, r2
 752              		.loc 1 724 0
 753 0022 43EA0112 		orr	r2, r3, r1, lsl #4
 725:.\Generated_Source\PSoC5/CyDmac.c ****         CY_DMA_CFGMEM_STRUCT_PTR[chHandle].CFG0[2] = 0x0Fu & tdStop;
 754              		.loc 1 725 0
 755 0026 9DF80C30 		ldrb	r3, [sp, #12]	@ zero_extendqisi2
 723:.\Generated_Source\PSoC5/CyDmac.c ****         CY_DMA_CFGMEM_STRUCT_PTR[chHandle].CFG0[0] = (burstCount & 0x7Fu) | ((uint8)((requestPerBur
 756              		.loc 1 723 0
 757 002a 2070     		strb	r0, [r4, #0]
 724:.\Generated_Source\PSoC5/CyDmac.c ****         CY_DMA_CFGMEM_STRUCT_PTR[chHandle].CFG0[1] = ((uint8)((tdDone1 & 0xFu) << 4u)) | (tdDone0 &
 758              		.loc 1 724 0
 759 002c D0B2     		uxtb	r0, r2
 760 002e 6070     		strb	r0, [r4, #1]
 761              		.loc 1 725 0
 762 0030 03F00F01 		and	r1, r3, #15
 726:.\Generated_Source\PSoC5/CyDmac.c ****         CY_DMA_CFGMEM_STRUCT_PTR[chHandle].CFG0[3] = 0u; /* burstcount_remain. */
 763              		.loc 1 726 0
 764 0034 0020     		movs	r0, #0
 725:.\Generated_Source\PSoC5/CyDmac.c ****         CY_DMA_CFGMEM_STRUCT_PTR[chHandle].CFG0[2] = 0x0Fu & tdStop;
 765              		.loc 1 725 0
 766 0036 A170     		strb	r1, [r4, #2]
 767              		.loc 1 726 0
 768 0038 E070     		strb	r0, [r4, #3]
 769              	.LVL77:
 770 003a 10BD     		pop	{r4, pc}
 771              	.LVL78:
 772              	.L86:
 719:.\Generated_Source\PSoC5/CyDmac.c ****     cystatus status = CYRET_BAD_PARAM;
 773              		.loc 1 719 0
 774 003c 0120     		movs	r0, #1
 775              	.LVL79:
 727:.\Generated_Source\PSoC5/CyDmac.c **** 
 728:.\Generated_Source\PSoC5/CyDmac.c ****         status = CYRET_SUCCESS;
 729:.\Generated_Source\PSoC5/CyDmac.c ****     }
 730:.\Generated_Source\PSoC5/CyDmac.c **** 
 731:.\Generated_Source\PSoC5/CyDmac.c ****     return (status);
 732:.\Generated_Source\PSoC5/CyDmac.c **** }
 776              		.loc 1 732 0
 777 003e 10BD     		pop	{r4, pc}
 778              		.cfi_endproc
 779              	.LFE15:
ARM GAS  C:\Users\MICHA_~1\AppData\Local\Temp\cc1lqS7m.s 			page 28


 780              		.size	CyDmaChSetConfiguration, .-CyDmaChSetConfiguration
 781              		.section	.text.CyDmaTdAllocate,"ax",%progbits
 782              		.align	1
 783              		.global	CyDmaTdAllocate
 784              		.thumb
 785              		.thumb_func
 786              		.type	CyDmaTdAllocate, %function
 787              	CyDmaTdAllocate:
 788              	.LFB16:
 733:.\Generated_Source\PSoC5/CyDmac.c **** 
 734:.\Generated_Source\PSoC5/CyDmac.c **** 
 735:.\Generated_Source\PSoC5/CyDmac.c **** /*******************************************************************************
 736:.\Generated_Source\PSoC5/CyDmac.c **** * Function Name: CyDmaTdAllocate
 737:.\Generated_Source\PSoC5/CyDmac.c **** ********************************************************************************
 738:.\Generated_Source\PSoC5/CyDmac.c **** *
 739:.\Generated_Source\PSoC5/CyDmac.c **** * Summary:
 740:.\Generated_Source\PSoC5/CyDmac.c **** *  Allocates a TD for use with an allocated DMA channel.
 741:.\Generated_Source\PSoC5/CyDmac.c **** *
 742:.\Generated_Source\PSoC5/CyDmac.c **** * Parameters:
 743:.\Generated_Source\PSoC5/CyDmac.c **** *  None
 744:.\Generated_Source\PSoC5/CyDmac.c **** *
 745:.\Generated_Source\PSoC5/CyDmac.c **** * Return:
 746:.\Generated_Source\PSoC5/CyDmac.c **** *  Zero-based index of the TD to be used by the caller. Since there are 128 TDs
 747:.\Generated_Source\PSoC5/CyDmac.c **** *  minus the reserved TDs (0 to 23), the value returned would range from 24 to
 748:.\Generated_Source\PSoC5/CyDmac.c **** *  127 not 24 to 128. DMA_INVALID_TD is returned if there are no free TDs
 749:.\Generated_Source\PSoC5/CyDmac.c **** *  available.
 750:.\Generated_Source\PSoC5/CyDmac.c **** *
 751:.\Generated_Source\PSoC5/CyDmac.c **** *******************************************************************************/
 752:.\Generated_Source\PSoC5/CyDmac.c **** uint8 CyDmaTdAllocate(void) 
 753:.\Generated_Source\PSoC5/CyDmac.c **** {
 789              		.loc 1 753 0
 790              		.cfi_startproc
 791              		@ args = 0, pretend = 0, frame = 0
 792              		@ frame_needed = 0, uses_anonymous_args = 0
 793              	.LVL80:
 794 0000 10B5     		push	{r4, lr}
 795              	.LCFI4:
 796              		.cfi_def_cfa_offset 8
 797              		.cfi_offset 4, -8
 798              		.cfi_offset 14, -4
 754:.\Generated_Source\PSoC5/CyDmac.c ****     uint8 interruptState;
 755:.\Generated_Source\PSoC5/CyDmac.c ****     uint8 element = CY_DMA_INVALID_TD;
 756:.\Generated_Source\PSoC5/CyDmac.c **** 
 757:.\Generated_Source\PSoC5/CyDmac.c ****     /* Enter critical section! */
 758:.\Generated_Source\PSoC5/CyDmac.c ****     interruptState = CyEnterCriticalSection();
 799              		.loc 1 758 0
 800 0002 FFF7FEFF 		bl	CyEnterCriticalSection
 801              	.LVL81:
 759:.\Generated_Source\PSoC5/CyDmac.c **** 
 760:.\Generated_Source\PSoC5/CyDmac.c ****     if(CyDmaTdCurrentNumber > NUMBEROF_CHANNELS)
 802              		.loc 1 760 0
 803 0006 0A4B     		ldr	r3, .L90
 804 0008 5A78     		ldrb	r2, [r3, #1]	@ zero_extendqisi2
 805 000a 182A     		cmp	r2, #24
 806 000c 0AD9     		bls	.L89
 761:.\Generated_Source\PSoC5/CyDmac.c ****     {
 762:.\Generated_Source\PSoC5/CyDmac.c ****         /* Get pointer to the Next available. */
ARM GAS  C:\Users\MICHA_~1\AppData\Local\Temp\cc1lqS7m.s 			page 29


 763:.\Generated_Source\PSoC5/CyDmac.c ****         element = CyDmaTdFreeIndex;
 807              		.loc 1 763 0
 808 000e 1C78     		ldrb	r4, [r3, #0]	@ zero_extendqisi2
 809              	.LVL82:
 764:.\Generated_Source\PSoC5/CyDmac.c **** 
 765:.\Generated_Source\PSoC5/CyDmac.c ****         /* Decrement the count. */
 766:.\Generated_Source\PSoC5/CyDmac.c ****         CyDmaTdCurrentNumber--;
 810              		.loc 1 766 0
 811 0010 511E     		subs	r1, r2, #1
 767:.\Generated_Source\PSoC5/CyDmac.c **** 
 768:.\Generated_Source\PSoC5/CyDmac.c ****         /* Update the next available pointer. */
 769:.\Generated_Source\PSoC5/CyDmac.c ****         CyDmaTdFreeIndex = CY_DMA_TDMEM_STRUCT_PTR[element].TD0[0];
 812              		.loc 1 769 0
 813 0012 E200     		lsls	r2, r4, #3
 766:.\Generated_Source\PSoC5/CyDmac.c ****         CyDmaTdCurrentNumber--;
 814              		.loc 1 766 0
 815 0014 5970     		strb	r1, [r3, #1]
 816              		.loc 1 769 0
 817 0016 02F18041 		add	r1, r2, #1073741824
 818 001a 01F5F042 		add	r2, r1, #30720
 819 001e 1178     		ldrb	r1, [r2, #0]	@ zero_extendqisi2
 820 0020 1970     		strb	r1, [r3, #0]
 821 0022 00E0     		b	.L88
 822              	.LVL83:
 823              	.L89:
 755:.\Generated_Source\PSoC5/CyDmac.c ****     uint8 element = CY_DMA_INVALID_TD;
 824              		.loc 1 755 0
 825 0024 FF24     		movs	r4, #255
 826              	.LVL84:
 827              	.L88:
 770:.\Generated_Source\PSoC5/CyDmac.c ****     }
 771:.\Generated_Source\PSoC5/CyDmac.c **** 
 772:.\Generated_Source\PSoC5/CyDmac.c ****     /* Exit critical section! */
 773:.\Generated_Source\PSoC5/CyDmac.c ****     CyExitCriticalSection(interruptState);
 828              		.loc 1 773 0
 829 0026 FFF7FEFF 		bl	CyExitCriticalSection
 830              	.LVL85:
 774:.\Generated_Source\PSoC5/CyDmac.c **** 
 775:.\Generated_Source\PSoC5/CyDmac.c ****     return(element);
 776:.\Generated_Source\PSoC5/CyDmac.c **** }
 831              		.loc 1 776 0
 832 002a 2046     		mov	r0, r4
 833 002c 10BD     		pop	{r4, pc}
 834              	.L91:
 835 002e 00BF     		.align	2
 836              	.L90:
 837 0030 00000000 		.word	.LANCHOR0
 838              		.cfi_endproc
 839              	.LFE16:
 840              		.size	CyDmaTdAllocate, .-CyDmaTdAllocate
 841              		.section	.text.CyDmaTdFree,"ax",%progbits
 842              		.align	1
 843              		.global	CyDmaTdFree
 844              		.thumb
 845              		.thumb_func
 846              		.type	CyDmaTdFree, %function
 847              	CyDmaTdFree:
ARM GAS  C:\Users\MICHA_~1\AppData\Local\Temp\cc1lqS7m.s 			page 30


 848              	.LFB17:
 777:.\Generated_Source\PSoC5/CyDmac.c **** 
 778:.\Generated_Source\PSoC5/CyDmac.c **** 
 779:.\Generated_Source\PSoC5/CyDmac.c **** /*******************************************************************************
 780:.\Generated_Source\PSoC5/CyDmac.c **** * Function Name: CyDmaTdFree
 781:.\Generated_Source\PSoC5/CyDmac.c **** ********************************************************************************
 782:.\Generated_Source\PSoC5/CyDmac.c **** *
 783:.\Generated_Source\PSoC5/CyDmac.c **** * Summary:
 784:.\Generated_Source\PSoC5/CyDmac.c **** *  Returns a TD to the free list.
 785:.\Generated_Source\PSoC5/CyDmac.c **** *
 786:.\Generated_Source\PSoC5/CyDmac.c **** * Parameters:
 787:.\Generated_Source\PSoC5/CyDmac.c **** *  uint8 tdHandle:
 788:.\Generated_Source\PSoC5/CyDmac.c **** *   The TD handle returned by the CyDmaTdAllocate().
 789:.\Generated_Source\PSoC5/CyDmac.c **** *
 790:.\Generated_Source\PSoC5/CyDmac.c **** * Return:
 791:.\Generated_Source\PSoC5/CyDmac.c **** *  None
 792:.\Generated_Source\PSoC5/CyDmac.c **** *
 793:.\Generated_Source\PSoC5/CyDmac.c **** *******************************************************************************/
 794:.\Generated_Source\PSoC5/CyDmac.c **** void CyDmaTdFree(uint8 tdHandle) 
 795:.\Generated_Source\PSoC5/CyDmac.c **** {
 849              		.loc 1 795 0
 850              		.cfi_startproc
 851              		@ args = 0, pretend = 0, frame = 0
 852              		@ frame_needed = 0, uses_anonymous_args = 0
 853              	.LVL86:
 796:.\Generated_Source\PSoC5/CyDmac.c ****     if(tdHandle < CY_DMA_NUMBEROF_TDS)
 854              		.loc 1 796 0
 855 0000 0306     		lsls	r3, r0, #24
 795:.\Generated_Source\PSoC5/CyDmac.c **** {
 856              		.loc 1 795 0
 857 0002 10B5     		push	{r4, lr}
 858              	.LCFI5:
 859              		.cfi_def_cfa_offset 8
 860              		.cfi_offset 4, -8
 861              		.cfi_offset 14, -4
 795:.\Generated_Source\PSoC5/CyDmac.c **** {
 862              		.loc 1 795 0
 863 0004 0446     		mov	r4, r0
 864              		.loc 1 796 0
 865 0006 11D4     		bmi	.L92
 866              	.LBB2:
 797:.\Generated_Source\PSoC5/CyDmac.c ****     {
 798:.\Generated_Source\PSoC5/CyDmac.c ****         /* Enter critical section! */
 799:.\Generated_Source\PSoC5/CyDmac.c ****         uint8 interruptState = CyEnterCriticalSection();
 867              		.loc 1 799 0
 868 0008 FFF7FEFF 		bl	CyEnterCriticalSection
 869              	.LVL87:
 800:.\Generated_Source\PSoC5/CyDmac.c **** 
 801:.\Generated_Source\PSoC5/CyDmac.c ****         /* Get pointer to the Next available. */
 802:.\Generated_Source\PSoC5/CyDmac.c ****         CY_DMA_TDMEM_STRUCT_PTR[tdHandle].TD0[0u] = CyDmaTdFreeIndex;
 870              		.loc 1 802 0
 871 000c 084B     		ldr	r3, .L94
 872 000e E200     		lsls	r2, r4, #3
 873 0010 02F18041 		add	r1, r2, #1073741824
 874 0014 01F5F042 		add	r2, r1, #30720
 875 0018 1978     		ldrb	r1, [r3, #0]	@ zero_extendqisi2
 803:.\Generated_Source\PSoC5/CyDmac.c **** 
ARM GAS  C:\Users\MICHA_~1\AppData\Local\Temp\cc1lqS7m.s 			page 31


 804:.\Generated_Source\PSoC5/CyDmac.c ****         /* Set new Next Available. */
 805:.\Generated_Source\PSoC5/CyDmac.c ****         CyDmaTdFreeIndex = tdHandle;
 876              		.loc 1 805 0
 877 001a 1C70     		strb	r4, [r3, #0]
 802:.\Generated_Source\PSoC5/CyDmac.c ****         CY_DMA_TDMEM_STRUCT_PTR[tdHandle].TD0[0u] = CyDmaTdFreeIndex;
 878              		.loc 1 802 0
 879 001c 1170     		strb	r1, [r2, #0]
 806:.\Generated_Source\PSoC5/CyDmac.c **** 
 807:.\Generated_Source\PSoC5/CyDmac.c ****         /* Keep track of how many left. */
 808:.\Generated_Source\PSoC5/CyDmac.c ****         CyDmaTdCurrentNumber++;
 880              		.loc 1 808 0
 881 001e 5A78     		ldrb	r2, [r3, #1]	@ zero_extendqisi2
 882 0020 511C     		adds	r1, r2, #1
 883 0022 5970     		strb	r1, [r3, #1]
 884              	.LBE2:
 809:.\Generated_Source\PSoC5/CyDmac.c **** 
 810:.\Generated_Source\PSoC5/CyDmac.c ****         /* Exit critical section! */
 811:.\Generated_Source\PSoC5/CyDmac.c ****         CyExitCriticalSection(interruptState);
 812:.\Generated_Source\PSoC5/CyDmac.c ****     }
 813:.\Generated_Source\PSoC5/CyDmac.c **** }
 885              		.loc 1 813 0
 886 0024 BDE81040 		pop	{r4, lr}
 887              	.LBB3:
 811:.\Generated_Source\PSoC5/CyDmac.c ****         CyExitCriticalSection(interruptState);
 888              		.loc 1 811 0
 889 0028 FFF7FEBF 		b	CyExitCriticalSection
 890              	.LVL88:
 891              	.L92:
 892 002c 10BD     		pop	{r4, pc}
 893              	.L95:
 894 002e 00BF     		.align	2
 895              	.L94:
 896 0030 00000000 		.word	.LANCHOR0
 897              	.LBE3:
 898              		.cfi_endproc
 899              	.LFE17:
 900              		.size	CyDmaTdFree, .-CyDmaTdFree
 901              		.section	.text.CyDmaTdFreeCount,"ax",%progbits
 902              		.align	1
 903              		.global	CyDmaTdFreeCount
 904              		.thumb
 905              		.thumb_func
 906              		.type	CyDmaTdFreeCount, %function
 907              	CyDmaTdFreeCount:
 908              	.LFB18:
 814:.\Generated_Source\PSoC5/CyDmac.c **** 
 815:.\Generated_Source\PSoC5/CyDmac.c **** 
 816:.\Generated_Source\PSoC5/CyDmac.c **** /*******************************************************************************
 817:.\Generated_Source\PSoC5/CyDmac.c **** * Function Name: CyDmaTdFreeCount
 818:.\Generated_Source\PSoC5/CyDmac.c **** ********************************************************************************
 819:.\Generated_Source\PSoC5/CyDmac.c **** *
 820:.\Generated_Source\PSoC5/CyDmac.c **** * Summary:
 821:.\Generated_Source\PSoC5/CyDmac.c **** *  Returns the number of free TDs available to be allocated.
 822:.\Generated_Source\PSoC5/CyDmac.c **** *
 823:.\Generated_Source\PSoC5/CyDmac.c **** * Parameters:
 824:.\Generated_Source\PSoC5/CyDmac.c **** *  None
 825:.\Generated_Source\PSoC5/CyDmac.c **** *
ARM GAS  C:\Users\MICHA_~1\AppData\Local\Temp\cc1lqS7m.s 			page 32


 826:.\Generated_Source\PSoC5/CyDmac.c **** * Return:
 827:.\Generated_Source\PSoC5/CyDmac.c **** *  The number of free TDs.
 828:.\Generated_Source\PSoC5/CyDmac.c **** *
 829:.\Generated_Source\PSoC5/CyDmac.c **** *******************************************************************************/
 830:.\Generated_Source\PSoC5/CyDmac.c **** uint8 CyDmaTdFreeCount(void) 
 831:.\Generated_Source\PSoC5/CyDmac.c **** {
 909              		.loc 1 831 0
 910              		.cfi_startproc
 911              		@ args = 0, pretend = 0, frame = 0
 912              		@ frame_needed = 0, uses_anonymous_args = 0
 913              		@ link register save eliminated.
 832:.\Generated_Source\PSoC5/CyDmac.c ****     return(CyDmaTdCurrentNumber - CY_DMA_NUMBEROF_CHANNELS);
 914              		.loc 1 832 0
 915 0000 024B     		ldr	r3, .L97
 916 0002 5878     		ldrb	r0, [r3, #1]	@ zero_extendqisi2
 917 0004 1838     		subs	r0, r0, #24
 833:.\Generated_Source\PSoC5/CyDmac.c **** }
 918              		.loc 1 833 0
 919 0006 C0B2     		uxtb	r0, r0
 920 0008 7047     		bx	lr
 921              	.L98:
 922 000a 00BF     		.align	2
 923              	.L97:
 924 000c 00000000 		.word	.LANCHOR0
 925              		.cfi_endproc
 926              	.LFE18:
 927              		.size	CyDmaTdFreeCount, .-CyDmaTdFreeCount
 928              		.section	.text.CyDmaTdSetConfiguration,"ax",%progbits
 929              		.align	1
 930              		.global	CyDmaTdSetConfiguration
 931              		.thumb
 932              		.thumb_func
 933              		.type	CyDmaTdSetConfiguration, %function
 934              	CyDmaTdSetConfiguration:
 935              	.LFB19:
 834:.\Generated_Source\PSoC5/CyDmac.c **** 
 835:.\Generated_Source\PSoC5/CyDmac.c **** 
 836:.\Generated_Source\PSoC5/CyDmac.c **** /*******************************************************************************
 837:.\Generated_Source\PSoC5/CyDmac.c **** * Function Name: CyDmaTdSetConfiguration
 838:.\Generated_Source\PSoC5/CyDmac.c **** ********************************************************************************
 839:.\Generated_Source\PSoC5/CyDmac.c **** *
 840:.\Generated_Source\PSoC5/CyDmac.c **** * Summary:
 841:.\Generated_Source\PSoC5/CyDmac.c **** *  Configures the TD.
 842:.\Generated_Source\PSoC5/CyDmac.c **** *
 843:.\Generated_Source\PSoC5/CyDmac.c **** * Parameters:
 844:.\Generated_Source\PSoC5/CyDmac.c **** *  uint8 tdHandle:
 845:.\Generated_Source\PSoC5/CyDmac.c **** *   A handle previously returned by CyDmaTdAlloc().
 846:.\Generated_Source\PSoC5/CyDmac.c **** *
 847:.\Generated_Source\PSoC5/CyDmac.c **** *  uint16 transferCount:
 848:.\Generated_Source\PSoC5/CyDmac.c **** *   The size of the data transfer (in bytes) for this TD. A size of zero will
 849:.\Generated_Source\PSoC5/CyDmac.c **** *   cause the transfer to continue indefinitely. This parameter is limited to
 850:.\Generated_Source\PSoC5/CyDmac.c **** *   4095 bytes; the TD is not initialized at all when a higher value is passed.
 851:.\Generated_Source\PSoC5/CyDmac.c **** *
 852:.\Generated_Source\PSoC5/CyDmac.c **** *  uint8 nextTd:
 853:.\Generated_Source\PSoC5/CyDmac.c **** *   Zero based index of the next Transfer Descriptor in the TD chain. Zero is a
 854:.\Generated_Source\PSoC5/CyDmac.c **** *   valid pointer to the next TD; DMA_END_CHAIN_TD is the end of the chain.
 855:.\Generated_Source\PSoC5/CyDmac.c **** *   DMA_DISABLE_TD indicates an end to the chain and the DMA is disabled. No
ARM GAS  C:\Users\MICHA_~1\AppData\Local\Temp\cc1lqS7m.s 			page 33


 856:.\Generated_Source\PSoC5/CyDmac.c **** *   further TDs are fetched. DMA_DISABLE_TD is only supported on PSoC3 and
 857:.\Generated_Source\PSoC5/CyDmac.c **** *   PSoC 5LP silicons.
 858:.\Generated_Source\PSoC5/CyDmac.c **** *
 859:.\Generated_Source\PSoC5/CyDmac.c **** *  uint8 configuration:
 860:.\Generated_Source\PSoC5/CyDmac.c **** *   Stores the Bit field of configuration bits.
 861:.\Generated_Source\PSoC5/CyDmac.c **** *
 862:.\Generated_Source\PSoC5/CyDmac.c **** *   CY_DMA_TD_SWAP_EN        - Perform endian swap
 863:.\Generated_Source\PSoC5/CyDmac.c **** *
 864:.\Generated_Source\PSoC5/CyDmac.c **** *   CY_DMA_TD_SWAP_SIZE4     - Swap size = 4 bytes
 865:.\Generated_Source\PSoC5/CyDmac.c **** *
 866:.\Generated_Source\PSoC5/CyDmac.c **** *   CY_DMA_TD_AUTO_EXEC_NEXT - The next TD in the chain will trigger
 867:.\Generated_Source\PSoC5/CyDmac.c **** *                              automatically when the current TD completes.
 868:.\Generated_Source\PSoC5/CyDmac.c **** *
 869:.\Generated_Source\PSoC5/CyDmac.c **** *   CY_DMA_TD_TERMIN_EN      - Terminate this TD if a positive edge on the trq
 870:.\Generated_Source\PSoC5/CyDmac.c **** *                              input line occurs. The positive edge must occur
 871:.\Generated_Source\PSoC5/CyDmac.c **** *                              during a burst. That is the only time the DMAC
 872:.\Generated_Source\PSoC5/CyDmac.c **** *                              will listen for it.
 873:.\Generated_Source\PSoC5/CyDmac.c **** *
 874:.\Generated_Source\PSoC5/CyDmac.c **** *   DMA__TD_TERMOUT_EN       - When this TD completes, the TERMOUT signal will
 875:.\Generated_Source\PSoC5/CyDmac.c **** *                              generate a pulse. Note that this option is
 876:.\Generated_Source\PSoC5/CyDmac.c **** *                              instance specific with the instance name followed
 877:.\Generated_Source\PSoC5/CyDmac.c **** *                              by two underscores. In this example, the instance
 878:.\Generated_Source\PSoC5/CyDmac.c **** *                              name is DMA.
 879:.\Generated_Source\PSoC5/CyDmac.c **** *
 880:.\Generated_Source\PSoC5/CyDmac.c **** *   CY_DMA_TD_INC_DST_ADR    - Increment DST_ADR according to the size of each
 881:.\Generated_Source\PSoC5/CyDmac.c **** *                              data transaction in the burst.
 882:.\Generated_Source\PSoC5/CyDmac.c **** *
 883:.\Generated_Source\PSoC5/CyDmac.c **** *   CY_DMA_TD_INC_SRC_ADR    - Increment SRC_ADR according to the size of each
 884:.\Generated_Source\PSoC5/CyDmac.c **** *                              data transaction in the burst.
 885:.\Generated_Source\PSoC5/CyDmac.c **** *
 886:.\Generated_Source\PSoC5/CyDmac.c **** * Return:
 887:.\Generated_Source\PSoC5/CyDmac.c **** *  CYRET_SUCCESS if successful.
 888:.\Generated_Source\PSoC5/CyDmac.c **** *  CYRET_BAD_PARAM if tdHandle or transferCount is invalid.
 889:.\Generated_Source\PSoC5/CyDmac.c **** *
 890:.\Generated_Source\PSoC5/CyDmac.c **** *******************************************************************************/
 891:.\Generated_Source\PSoC5/CyDmac.c **** cystatus CyDmaTdSetConfiguration(uint8 tdHandle, uint16 transferCount, uint8 nextTd, uint8 configur
 892:.\Generated_Source\PSoC5/CyDmac.c ****     
 893:.\Generated_Source\PSoC5/CyDmac.c **** {
 936              		.loc 1 893 0
 937              		.cfi_startproc
 938              		@ args = 0, pretend = 0, frame = 0
 939              		@ frame_needed = 0, uses_anonymous_args = 0
 940              	.LVL89:
 894:.\Generated_Source\PSoC5/CyDmac.c ****     cystatus status = CYRET_BAD_PARAM;
 895:.\Generated_Source\PSoC5/CyDmac.c **** 
 896:.\Generated_Source\PSoC5/CyDmac.c ****     if((tdHandle < CY_DMA_NUMBEROF_TDS) && (0u == (0xF000u & transferCount)))
 941              		.loc 1 896 0
 942 0000 10F0800F 		tst	r0, #128
 893:.\Generated_Source\PSoC5/CyDmac.c **** {
 943              		.loc 1 893 0
 944 0004 30B5     		push	{r4, r5, lr}
 945              	.LCFI6:
 946              		.cfi_def_cfa_offset 12
 947              		.cfi_offset 4, -12
 948              		.cfi_offset 5, -8
 949              		.cfi_offset 14, -4
 950              		.loc 1 896 0
ARM GAS  C:\Users\MICHA_~1\AppData\Local\Temp\cc1lqS7m.s 			page 34


 951 0006 0CD1     		bne	.L102
 952              		.loc 1 896 0 is_stmt 0 discriminator 1
 953 0008 11F47045 		ands	r5, r1, #61440
 954 000c 09D1     		bne	.L102
 955              	.LBB4:
 897:.\Generated_Source\PSoC5/CyDmac.c ****     {
 898:.\Generated_Source\PSoC5/CyDmac.c ****         /* Set 12 bits transfer count. */
 899:.\Generated_Source\PSoC5/CyDmac.c ****         reg16 *convert = (reg16 *) &CY_DMA_TDMEM_STRUCT_PTR[tdHandle].TD0[0u];
 956              		.loc 1 899 0 is_stmt 1
 957 000e C400     		lsls	r4, r0, #3
 958 0010 04F18040 		add	r0, r4, #1073741824
 959              	.LVL90:
 960 0014 00F5F044 		add	r4, r0, #30720
 961              	.LVL91:
 900:.\Generated_Source\PSoC5/CyDmac.c ****         CY_SET_REG16(convert, transferCount);
 962              		.loc 1 900 0
 963 0018 2180     		strh	r1, [r4, #0]	@ movhi
 901:.\Generated_Source\PSoC5/CyDmac.c **** 
 902:.\Generated_Source\PSoC5/CyDmac.c ****         /* Set Next TD pointer. */
 903:.\Generated_Source\PSoC5/CyDmac.c ****         CY_DMA_TDMEM_STRUCT_PTR[tdHandle].TD0[2u] = nextTd;
 904:.\Generated_Source\PSoC5/CyDmac.c **** 
 905:.\Generated_Source\PSoC5/CyDmac.c ****         /* Configure the TD */
 906:.\Generated_Source\PSoC5/CyDmac.c ****         CY_DMA_TDMEM_STRUCT_PTR[tdHandle].TD0[3u] = configuration;
 907:.\Generated_Source\PSoC5/CyDmac.c **** 
 908:.\Generated_Source\PSoC5/CyDmac.c ****         status = CYRET_SUCCESS;
 964              		.loc 1 908 0
 965 001a 2846     		mov	r0, r5
 903:.\Generated_Source\PSoC5/CyDmac.c ****         CY_DMA_TDMEM_STRUCT_PTR[tdHandle].TD0[2u] = nextTd;
 966              		.loc 1 903 0
 967 001c A270     		strb	r2, [r4, #2]
 906:.\Generated_Source\PSoC5/CyDmac.c ****         CY_DMA_TDMEM_STRUCT_PTR[tdHandle].TD0[3u] = configuration;
 968              		.loc 1 906 0
 969 001e E370     		strb	r3, [r4, #3]
 970              	.LVL92:
 971 0020 30BD     		pop	{r4, r5, pc}
 972              	.LVL93:
 973              	.L102:
 974              	.LBE4:
 894:.\Generated_Source\PSoC5/CyDmac.c ****     cystatus status = CYRET_BAD_PARAM;
 975              		.loc 1 894 0
 976 0022 0120     		movs	r0, #1
 977              	.LVL94:
 909:.\Generated_Source\PSoC5/CyDmac.c ****     }
 910:.\Generated_Source\PSoC5/CyDmac.c **** 
 911:.\Generated_Source\PSoC5/CyDmac.c ****     return(status);
 912:.\Generated_Source\PSoC5/CyDmac.c **** }
 978              		.loc 1 912 0
 979 0024 30BD     		pop	{r4, r5, pc}
 980              		.cfi_endproc
 981              	.LFE19:
 982              		.size	CyDmaTdSetConfiguration, .-CyDmaTdSetConfiguration
 983              		.section	.text.CyDmaTdGetConfiguration,"ax",%progbits
 984              		.align	1
 985              		.global	CyDmaTdGetConfiguration
 986              		.thumb
 987              		.thumb_func
 988              		.type	CyDmaTdGetConfiguration, %function
ARM GAS  C:\Users\MICHA_~1\AppData\Local\Temp\cc1lqS7m.s 			page 35


 989              	CyDmaTdGetConfiguration:
 990              	.LFB20:
 913:.\Generated_Source\PSoC5/CyDmac.c **** 
 914:.\Generated_Source\PSoC5/CyDmac.c **** 
 915:.\Generated_Source\PSoC5/CyDmac.c **** /*******************************************************************************
 916:.\Generated_Source\PSoC5/CyDmac.c **** * Function Name: CyDmaTdGetConfiguration
 917:.\Generated_Source\PSoC5/CyDmac.c **** ********************************************************************************
 918:.\Generated_Source\PSoC5/CyDmac.c **** *
 919:.\Generated_Source\PSoC5/CyDmac.c **** * Summary:
 920:.\Generated_Source\PSoC5/CyDmac.c **** *  Retrieves the configuration of the TD. If a NULL pointer is passed as a
 921:.\Generated_Source\PSoC5/CyDmac.c **** *  parameter, that parameter is skipped. You may request only the values you are
 922:.\Generated_Source\PSoC5/CyDmac.c **** *  interested in.
 923:.\Generated_Source\PSoC5/CyDmac.c **** *
 924:.\Generated_Source\PSoC5/CyDmac.c **** * Parameters:
 925:.\Generated_Source\PSoC5/CyDmac.c **** *  uint8 tdHandle:
 926:.\Generated_Source\PSoC5/CyDmac.c **** *   A handle previously returned by CyDmaTdAlloc().
 927:.\Generated_Source\PSoC5/CyDmac.c **** *
 928:.\Generated_Source\PSoC5/CyDmac.c **** *  uint16 * transferCount:
 929:.\Generated_Source\PSoC5/CyDmac.c **** *   The address to store the size of the data transfer (in bytes) for this TD.
 930:.\Generated_Source\PSoC5/CyDmac.c **** *   A size of zero could indicate that the TD has completed its transfer, or
 931:.\Generated_Source\PSoC5/CyDmac.c **** *   that the TD is doing an indefinite transfer.
 932:.\Generated_Source\PSoC5/CyDmac.c **** *
 933:.\Generated_Source\PSoC5/CyDmac.c **** *  uint8 * nextTd:
 934:.\Generated_Source\PSoC5/CyDmac.c **** *   The address to store the index of the next TD in the TD chain.
 935:.\Generated_Source\PSoC5/CyDmac.c **** *
 936:.\Generated_Source\PSoC5/CyDmac.c **** *  uint8 * configuration:
 937:.\Generated_Source\PSoC5/CyDmac.c **** *   The address to store the Bit field of configuration bits.
 938:.\Generated_Source\PSoC5/CyDmac.c **** *   See CyDmaTdSetConfiguration() function description.
 939:.\Generated_Source\PSoC5/CyDmac.c **** *
 940:.\Generated_Source\PSoC5/CyDmac.c **** * Return:
 941:.\Generated_Source\PSoC5/CyDmac.c **** *  CYRET_SUCCESS if successful.
 942:.\Generated_Source\PSoC5/CyDmac.c **** *  CYRET_BAD_PARAM if tdHandle is invalid.
 943:.\Generated_Source\PSoC5/CyDmac.c **** *
 944:.\Generated_Source\PSoC5/CyDmac.c **** * Side Effects:
 945:.\Generated_Source\PSoC5/CyDmac.c **** *  If a TD has a transfer count of N and is executed, the transfer count becomes
 946:.\Generated_Source\PSoC5/CyDmac.c **** *  0. If it is reexecuted, the Transfer count of zero will be interpreted as a
 947:.\Generated_Source\PSoC5/CyDmac.c **** *  request for indefinite transfer. Be careful when requesting a TD with a
 948:.\Generated_Source\PSoC5/CyDmac.c **** *  transfer count of zero.
 949:.\Generated_Source\PSoC5/CyDmac.c **** *
 950:.\Generated_Source\PSoC5/CyDmac.c **** *******************************************************************************/
 951:.\Generated_Source\PSoC5/CyDmac.c **** cystatus CyDmaTdGetConfiguration(uint8 tdHandle, uint16 * transferCount, uint8 * nextTd, uint8 * co
 952:.\Generated_Source\PSoC5/CyDmac.c ****     
 953:.\Generated_Source\PSoC5/CyDmac.c **** {
 991              		.loc 1 953 0
 992              		.cfi_startproc
 993              		@ args = 0, pretend = 0, frame = 0
 994              		@ frame_needed = 0, uses_anonymous_args = 0
 995              	.LVL95:
 954:.\Generated_Source\PSoC5/CyDmac.c ****     cystatus status = CYRET_BAD_PARAM;
 955:.\Generated_Source\PSoC5/CyDmac.c **** 
 956:.\Generated_Source\PSoC5/CyDmac.c ****     if(tdHandle < CY_DMA_NUMBEROF_TDS)
 996              		.loc 1 956 0
 997 0000 10F0800F 		tst	r0, #128
 953:.\Generated_Source\PSoC5/CyDmac.c **** {
 998              		.loc 1 953 0
 999 0004 10B5     		push	{r4, lr}
 1000              	.LCFI7:
ARM GAS  C:\Users\MICHA_~1\AppData\Local\Temp\cc1lqS7m.s 			page 36


 1001              		.cfi_def_cfa_offset 8
 1002              		.cfi_offset 4, -8
 1003              		.cfi_offset 14, -4
 1004              		.loc 1 956 0
 1005 0006 1BD1     		bne	.L107
 957:.\Generated_Source\PSoC5/CyDmac.c ****     {
 958:.\Generated_Source\PSoC5/CyDmac.c ****         /* If we have a pointer */
 959:.\Generated_Source\PSoC5/CyDmac.c ****         if(NULL != transferCount)
 1006              		.loc 1 959 0
 1007 0008 41B1     		cbz	r1, .L105
 1008              	.LBB5:
 960:.\Generated_Source\PSoC5/CyDmac.c ****         {
 961:.\Generated_Source\PSoC5/CyDmac.c ****             /* Get the 12 bits of the transfer count */
 962:.\Generated_Source\PSoC5/CyDmac.c ****             reg16 *convert = (reg16 *) &CY_DMA_TDMEM_STRUCT_PTR[tdHandle].TD0[0];
 1009              		.loc 1 962 0
 1010 000a C400     		lsls	r4, r0, #3
 1011 000c 04F18044 		add	r4, r4, #1073741824
 1012 0010 04F5F044 		add	r4, r4, #30720
 1013              	.LVL96:
 963:.\Generated_Source\PSoC5/CyDmac.c ****             *transferCount = 0x0FFFu & CY_GET_REG16(convert);
 1014              		.loc 1 963 0
 1015 0014 2488     		ldrh	r4, [r4, #0]
 1016              	.LVL97:
 1017 0016 24F47044 		bic	r4, r4, #61440
 1018 001a 0C80     		strh	r4, [r1, #0]	@ movhi
 1019              	.LVL98:
 1020              	.L105:
 1021              	.LBE5:
 964:.\Generated_Source\PSoC5/CyDmac.c ****         }
 965:.\Generated_Source\PSoC5/CyDmac.c **** 
 966:.\Generated_Source\PSoC5/CyDmac.c ****         /* If we have a pointer */
 967:.\Generated_Source\PSoC5/CyDmac.c ****         if(NULL != nextTd)
 1022              		.loc 1 967 0
 1023 001c 32B1     		cbz	r2, .L106
 968:.\Generated_Source\PSoC5/CyDmac.c ****         {
 969:.\Generated_Source\PSoC5/CyDmac.c ****             /* Get the Next TD pointer */
 970:.\Generated_Source\PSoC5/CyDmac.c ****             *nextTd = CY_DMA_TDMEM_STRUCT_PTR[tdHandle].TD0[2u];
 1024              		.loc 1 970 0
 1025 001e C100     		lsls	r1, r0, #3
 1026              	.LVL99:
 1027 0020 01F18041 		add	r1, r1, #1073741824
 1028 0024 01F5F041 		add	r1, r1, #30720
 1029 0028 8978     		ldrb	r1, [r1, #2]	@ zero_extendqisi2
 1030 002a 1170     		strb	r1, [r2, #0]
 1031              	.L106:
 971:.\Generated_Source\PSoC5/CyDmac.c ****         }
 972:.\Generated_Source\PSoC5/CyDmac.c **** 
 973:.\Generated_Source\PSoC5/CyDmac.c ****         /* If we have a pointer */
 974:.\Generated_Source\PSoC5/CyDmac.c ****         if(NULL != configuration)
 1032              		.loc 1 974 0
 1033 002c 33B1     		cbz	r3, .L115
 975:.\Generated_Source\PSoC5/CyDmac.c ****         {
 976:.\Generated_Source\PSoC5/CyDmac.c ****             /* Get the configuration the TD */
 977:.\Generated_Source\PSoC5/CyDmac.c ****             *configuration = CY_DMA_TDMEM_STRUCT_PTR[tdHandle].TD0[3u];
 1034              		.loc 1 977 0
 1035 002e C000     		lsls	r0, r0, #3
 1036              	.LVL100:
ARM GAS  C:\Users\MICHA_~1\AppData\Local\Temp\cc1lqS7m.s 			page 37


 1037 0030 00F18042 		add	r2, r0, #1073741824
 1038              	.LVL101:
 1039 0034 02F5F041 		add	r1, r2, #30720
 1040 0038 C878     		ldrb	r0, [r1, #3]	@ zero_extendqisi2
 1041 003a 1870     		strb	r0, [r3, #0]
 1042              	.L115:
 978:.\Generated_Source\PSoC5/CyDmac.c ****         }
 979:.\Generated_Source\PSoC5/CyDmac.c **** 
 980:.\Generated_Source\PSoC5/CyDmac.c ****         status = CYRET_SUCCESS;
 1043              		.loc 1 980 0
 1044 003c 0020     		movs	r0, #0
 1045 003e 10BD     		pop	{r4, pc}
 1046              	.LVL102:
 1047              	.L107:
 954:.\Generated_Source\PSoC5/CyDmac.c ****     cystatus status = CYRET_BAD_PARAM;
 1048              		.loc 1 954 0
 1049 0040 0120     		movs	r0, #1
 1050              	.LVL103:
 1051 0042 10BD     		pop	{r4, pc}
 1052              		.cfi_endproc
 1053              	.LFE20:
 1054              		.size	CyDmaTdGetConfiguration, .-CyDmaTdGetConfiguration
 1055              		.section	.text.CyDmaTdSetAddress,"ax",%progbits
 1056              		.align	1
 1057              		.global	CyDmaTdSetAddress
 1058              		.thumb
 1059              		.thumb_func
 1060              		.type	CyDmaTdSetAddress, %function
 1061              	CyDmaTdSetAddress:
 1062              	.LFB21:
 981:.\Generated_Source\PSoC5/CyDmac.c ****     }
 982:.\Generated_Source\PSoC5/CyDmac.c **** 
 983:.\Generated_Source\PSoC5/CyDmac.c ****     return(status);
 984:.\Generated_Source\PSoC5/CyDmac.c **** }
 985:.\Generated_Source\PSoC5/CyDmac.c **** 
 986:.\Generated_Source\PSoC5/CyDmac.c **** 
 987:.\Generated_Source\PSoC5/CyDmac.c **** /*******************************************************************************
 988:.\Generated_Source\PSoC5/CyDmac.c **** * Function Name: CyDmaTdSetAddress
 989:.\Generated_Source\PSoC5/CyDmac.c **** ********************************************************************************
 990:.\Generated_Source\PSoC5/CyDmac.c **** *
 991:.\Generated_Source\PSoC5/CyDmac.c **** * Summary:
 992:.\Generated_Source\PSoC5/CyDmac.c **** *  Sets the lower 16 bits of the source and destination addresses for this TD
 993:.\Generated_Source\PSoC5/CyDmac.c **** *  only.
 994:.\Generated_Source\PSoC5/CyDmac.c **** *
 995:.\Generated_Source\PSoC5/CyDmac.c **** * Parameters:
 996:.\Generated_Source\PSoC5/CyDmac.c **** *  uint8 tdHandle:
 997:.\Generated_Source\PSoC5/CyDmac.c **** *   A handle previously returned by CyDmaTdAlloc().
 998:.\Generated_Source\PSoC5/CyDmac.c **** *
 999:.\Generated_Source\PSoC5/CyDmac.c **** *  uint16 source:
1000:.\Generated_Source\PSoC5/CyDmac.c **** *   The lower 16 address bits of the source of the data transfer.
1001:.\Generated_Source\PSoC5/CyDmac.c **** *
1002:.\Generated_Source\PSoC5/CyDmac.c **** *  uint16 destination:
1003:.\Generated_Source\PSoC5/CyDmac.c **** *   The lower 16 address bits of the destination of the data transfer.
1004:.\Generated_Source\PSoC5/CyDmac.c **** *
1005:.\Generated_Source\PSoC5/CyDmac.c **** * Return:
1006:.\Generated_Source\PSoC5/CyDmac.c **** *  CYRET_SUCCESS if successful.
1007:.\Generated_Source\PSoC5/CyDmac.c **** *  CYRET_BAD_PARAM if tdHandle is invalid.
ARM GAS  C:\Users\MICHA_~1\AppData\Local\Temp\cc1lqS7m.s 			page 38


1008:.\Generated_Source\PSoC5/CyDmac.c **** *
1009:.\Generated_Source\PSoC5/CyDmac.c **** *******************************************************************************/
1010:.\Generated_Source\PSoC5/CyDmac.c **** cystatus CyDmaTdSetAddress(uint8 tdHandle, uint16 source, uint16 destination) 
1011:.\Generated_Source\PSoC5/CyDmac.c **** {
 1063              		.loc 1 1011 0
 1064              		.cfi_startproc
 1065              		@ args = 0, pretend = 0, frame = 0
 1066              		@ frame_needed = 0, uses_anonymous_args = 0
 1067              		@ link register save eliminated.
 1068              	.LVL104:
1012:.\Generated_Source\PSoC5/CyDmac.c ****     cystatus status = CYRET_BAD_PARAM;
1013:.\Generated_Source\PSoC5/CyDmac.c ****     reg16 *convert;
1014:.\Generated_Source\PSoC5/CyDmac.c **** 
1015:.\Generated_Source\PSoC5/CyDmac.c ****     if(tdHandle < CY_DMA_NUMBEROF_TDS)
 1069              		.loc 1 1015 0
 1070 0000 0306     		lsls	r3, r0, #24
 1071 0002 08D4     		bmi	.L118
1016:.\Generated_Source\PSoC5/CyDmac.c ****     {
1017:.\Generated_Source\PSoC5/CyDmac.c ****         /* Set source address */
1018:.\Generated_Source\PSoC5/CyDmac.c ****         convert = (reg16 *) &CY_DMA_TDMEM_STRUCT_PTR[tdHandle].TD1[0u];
 1072              		.loc 1 1018 0
 1073 0004 C000     		lsls	r0, r0, #3
 1074              	.LVL105:
 1075 0006 00F18043 		add	r3, r0, #1073741824
 1076 000a 03F5F040 		add	r0, r3, #30720
 1077              	.LVL106:
1019:.\Generated_Source\PSoC5/CyDmac.c ****         CY_SET_REG16(convert, source);
 1078              		.loc 1 1019 0
 1079 000e 8180     		strh	r1, [r0, #4]	@ movhi
 1080              	.LVL107:
1020:.\Generated_Source\PSoC5/CyDmac.c **** 
1021:.\Generated_Source\PSoC5/CyDmac.c ****         /* Set destination address */
1022:.\Generated_Source\PSoC5/CyDmac.c ****         convert = (reg16 *) &CY_DMA_TDMEM_STRUCT_PTR[tdHandle].TD1[2u];
1023:.\Generated_Source\PSoC5/CyDmac.c ****         CY_SET_REG16(convert, destination);
 1081              		.loc 1 1023 0
 1082 0010 C280     		strh	r2, [r0, #6]	@ movhi
 1083              	.LVL108:
1024:.\Generated_Source\PSoC5/CyDmac.c **** 
1025:.\Generated_Source\PSoC5/CyDmac.c ****         status = CYRET_SUCCESS;
 1084              		.loc 1 1025 0
 1085 0012 0020     		movs	r0, #0
 1086              	.LVL109:
 1087 0014 7047     		bx	lr
 1088              	.LVL110:
 1089              	.L118:
1012:.\Generated_Source\PSoC5/CyDmac.c ****     cystatus status = CYRET_BAD_PARAM;
 1090              		.loc 1 1012 0
 1091 0016 0120     		movs	r0, #1
 1092              	.LVL111:
1026:.\Generated_Source\PSoC5/CyDmac.c ****     }
1027:.\Generated_Source\PSoC5/CyDmac.c **** 
1028:.\Generated_Source\PSoC5/CyDmac.c ****     return(status);
1029:.\Generated_Source\PSoC5/CyDmac.c **** }
 1093              		.loc 1 1029 0
 1094 0018 7047     		bx	lr
 1095              		.cfi_endproc
 1096              	.LFE21:
ARM GAS  C:\Users\MICHA_~1\AppData\Local\Temp\cc1lqS7m.s 			page 39


 1097              		.size	CyDmaTdSetAddress, .-CyDmaTdSetAddress
 1098              		.section	.text.CyDmaTdGetAddress,"ax",%progbits
 1099              		.align	1
 1100              		.global	CyDmaTdGetAddress
 1101              		.thumb
 1102              		.thumb_func
 1103              		.type	CyDmaTdGetAddress, %function
 1104              	CyDmaTdGetAddress:
 1105              	.LFB22:
1030:.\Generated_Source\PSoC5/CyDmac.c **** 
1031:.\Generated_Source\PSoC5/CyDmac.c **** 
1032:.\Generated_Source\PSoC5/CyDmac.c **** /*******************************************************************************
1033:.\Generated_Source\PSoC5/CyDmac.c **** * Function Name: CyDmaTdGetAddress
1034:.\Generated_Source\PSoC5/CyDmac.c **** ********************************************************************************
1035:.\Generated_Source\PSoC5/CyDmac.c **** *
1036:.\Generated_Source\PSoC5/CyDmac.c **** * Summary:
1037:.\Generated_Source\PSoC5/CyDmac.c **** *  Retrieves the lower 16 bits of the source and/or destination addresses for
1038:.\Generated_Source\PSoC5/CyDmac.c **** *  this TD only. If NULL is passed for a pointer parameter, that value is
1039:.\Generated_Source\PSoC5/CyDmac.c **** *  skipped. You may request only the values of interest.
1040:.\Generated_Source\PSoC5/CyDmac.c **** *
1041:.\Generated_Source\PSoC5/CyDmac.c **** * Parameters:
1042:.\Generated_Source\PSoC5/CyDmac.c **** *  uint8 tdHandle:
1043:.\Generated_Source\PSoC5/CyDmac.c **** *   A handle previously returned by CyDmaTdAlloc().
1044:.\Generated_Source\PSoC5/CyDmac.c **** *
1045:.\Generated_Source\PSoC5/CyDmac.c **** *  uint16 * source:
1046:.\Generated_Source\PSoC5/CyDmac.c **** *   The address to store the lower 16 address bits of the source of the data
1047:.\Generated_Source\PSoC5/CyDmac.c **** *   transfer.
1048:.\Generated_Source\PSoC5/CyDmac.c **** *
1049:.\Generated_Source\PSoC5/CyDmac.c **** *  uint16 * destination:
1050:.\Generated_Source\PSoC5/CyDmac.c **** *   The address to store the lower 16 address bits of the destination of the
1051:.\Generated_Source\PSoC5/CyDmac.c **** *   data transfer.
1052:.\Generated_Source\PSoC5/CyDmac.c **** *
1053:.\Generated_Source\PSoC5/CyDmac.c **** * Return:
1054:.\Generated_Source\PSoC5/CyDmac.c **** *  CYRET_SUCCESS if successful.
1055:.\Generated_Source\PSoC5/CyDmac.c **** *  CYRET_BAD_PARAM if tdHandle is invalid.
1056:.\Generated_Source\PSoC5/CyDmac.c **** *
1057:.\Generated_Source\PSoC5/CyDmac.c **** *******************************************************************************/
1058:.\Generated_Source\PSoC5/CyDmac.c **** cystatus CyDmaTdGetAddress(uint8 tdHandle, uint16 * source, uint16 * destination) 
1059:.\Generated_Source\PSoC5/CyDmac.c **** {
 1106              		.loc 1 1059 0
 1107              		.cfi_startproc
 1108              		@ args = 0, pretend = 0, frame = 0
 1109              		@ frame_needed = 0, uses_anonymous_args = 0
 1110              		@ link register save eliminated.
 1111              	.LVL112:
1060:.\Generated_Source\PSoC5/CyDmac.c ****     cystatus status = CYRET_BAD_PARAM;
1061:.\Generated_Source\PSoC5/CyDmac.c ****     reg16 *convert;
1062:.\Generated_Source\PSoC5/CyDmac.c **** 
1063:.\Generated_Source\PSoC5/CyDmac.c ****     if(tdHandle < CY_DMA_NUMBEROF_TDS)
 1112              		.loc 1 1063 0
 1113 0000 0306     		lsls	r3, r0, #24
 1114 0002 11D4     		bmi	.L122
1064:.\Generated_Source\PSoC5/CyDmac.c ****     {
1065:.\Generated_Source\PSoC5/CyDmac.c ****         /* If we have a pointer. */
1066:.\Generated_Source\PSoC5/CyDmac.c ****         if(NULL != source)
 1115              		.loc 1 1066 0
 1116 0004 31B1     		cbz	r1, .L121
ARM GAS  C:\Users\MICHA_~1\AppData\Local\Temp\cc1lqS7m.s 			page 40


1067:.\Generated_Source\PSoC5/CyDmac.c ****         {
1068:.\Generated_Source\PSoC5/CyDmac.c ****             /* Get source address */
1069:.\Generated_Source\PSoC5/CyDmac.c ****             convert = (reg16 *) &CY_DMA_TDMEM_STRUCT_PTR[tdHandle].TD1[0u];
 1117              		.loc 1 1069 0
 1118 0006 C300     		lsls	r3, r0, #3
 1119 0008 03F18043 		add	r3, r3, #1073741824
 1120 000c 03F5F043 		add	r3, r3, #30720
 1121              	.LVL113:
1070:.\Generated_Source\PSoC5/CyDmac.c ****             *source = CY_GET_REG16(convert);
 1122              		.loc 1 1070 0
 1123 0010 9B88     		ldrh	r3, [r3, #4]
 1124              	.LVL114:
 1125 0012 0B80     		strh	r3, [r1, #0]	@ movhi
 1126              	.LVL115:
 1127              	.L121:
1071:.\Generated_Source\PSoC5/CyDmac.c ****         }
1072:.\Generated_Source\PSoC5/CyDmac.c **** 
1073:.\Generated_Source\PSoC5/CyDmac.c ****         /* If we have a pointer. */
1074:.\Generated_Source\PSoC5/CyDmac.c ****         if(NULL != destination)
 1128              		.loc 1 1074 0
 1129 0014 32B1     		cbz	r2, .L127
1075:.\Generated_Source\PSoC5/CyDmac.c ****         {
1076:.\Generated_Source\PSoC5/CyDmac.c ****             /* Get Destination address. */
1077:.\Generated_Source\PSoC5/CyDmac.c ****             convert = (reg16 *) &CY_DMA_TDMEM_STRUCT_PTR[tdHandle].TD1[2u];
 1130              		.loc 1 1077 0
 1131 0016 C000     		lsls	r0, r0, #3
 1132              	.LVL116:
 1133 0018 00F18041 		add	r1, r0, #1073741824
 1134              	.LVL117:
 1135 001c 01F5F043 		add	r3, r1, #30720
 1136              	.LVL118:
1078:.\Generated_Source\PSoC5/CyDmac.c ****             *destination = CY_GET_REG16(convert);
 1137              		.loc 1 1078 0
 1138 0020 D888     		ldrh	r0, [r3, #6]
 1139 0022 1080     		strh	r0, [r2, #0]	@ movhi
 1140              	.LVL119:
 1141              	.L127:
1079:.\Generated_Source\PSoC5/CyDmac.c ****         }
1080:.\Generated_Source\PSoC5/CyDmac.c **** 
1081:.\Generated_Source\PSoC5/CyDmac.c ****         status = CYRET_SUCCESS;
 1142              		.loc 1 1081 0
 1143 0024 0020     		movs	r0, #0
 1144 0026 7047     		bx	lr
 1145              	.LVL120:
 1146              	.L122:
1060:.\Generated_Source\PSoC5/CyDmac.c ****     cystatus status = CYRET_BAD_PARAM;
 1147              		.loc 1 1060 0
 1148 0028 0120     		movs	r0, #1
 1149              	.LVL121:
 1150 002a 7047     		bx	lr
 1151              		.cfi_endproc
 1152              	.LFE22:
 1153              		.size	CyDmaTdGetAddress, .-CyDmaTdGetAddress
 1154              		.section	.text.CyDmaChRoundRobin,"ax",%progbits
 1155              		.align	1
 1156              		.global	CyDmaChRoundRobin
 1157              		.thumb
ARM GAS  C:\Users\MICHA_~1\AppData\Local\Temp\cc1lqS7m.s 			page 41


 1158              		.thumb_func
 1159              		.type	CyDmaChRoundRobin, %function
 1160              	CyDmaChRoundRobin:
 1161              	.LFB23:
1082:.\Generated_Source\PSoC5/CyDmac.c ****     }
1083:.\Generated_Source\PSoC5/CyDmac.c **** 
1084:.\Generated_Source\PSoC5/CyDmac.c ****     return(status);
1085:.\Generated_Source\PSoC5/CyDmac.c **** }
1086:.\Generated_Source\PSoC5/CyDmac.c **** 
1087:.\Generated_Source\PSoC5/CyDmac.c **** 
1088:.\Generated_Source\PSoC5/CyDmac.c **** /*******************************************************************************
1089:.\Generated_Source\PSoC5/CyDmac.c **** * Function Name: CyDmaChRoundRobin
1090:.\Generated_Source\PSoC5/CyDmac.c **** ********************************************************************************
1091:.\Generated_Source\PSoC5/CyDmac.c **** *
1092:.\Generated_Source\PSoC5/CyDmac.c **** * Summary:
1093:.\Generated_Source\PSoC5/CyDmac.c **** *  Either enables or disables the Round-Robin scheduling enforcement algorithm.
1094:.\Generated_Source\PSoC5/CyDmac.c **** *  Within a priority level a Round-Robin fairness algorithm is enforced.
1095:.\Generated_Source\PSoC5/CyDmac.c **** *
1096:.\Generated_Source\PSoC5/CyDmac.c **** * Parameters:
1097:.\Generated_Source\PSoC5/CyDmac.c **** *  uint8 chHandle:
1098:.\Generated_Source\PSoC5/CyDmac.c **** *   A handle previously returned by CyDmaChAlloc() or Dma_DmaInitialize().
1099:.\Generated_Source\PSoC5/CyDmac.c **** *
1100:.\Generated_Source\PSoC5/CyDmac.c **** *  uint8 enableRR:
1101:.\Generated_Source\PSoC5/CyDmac.c **** *   0: Disable Round-Robin fairness algorithm
1102:.\Generated_Source\PSoC5/CyDmac.c **** *   1: Enable Round-Robin fairness algorithm
1103:.\Generated_Source\PSoC5/CyDmac.c **** *
1104:.\Generated_Source\PSoC5/CyDmac.c **** * Return:
1105:.\Generated_Source\PSoC5/CyDmac.c **** *  CYRET_SUCCESS if successful.
1106:.\Generated_Source\PSoC5/CyDmac.c **** *  CYRET_BAD_PARAM if chHandle is invalid.
1107:.\Generated_Source\PSoC5/CyDmac.c **** *
1108:.\Generated_Source\PSoC5/CyDmac.c **** *******************************************************************************/
1109:.\Generated_Source\PSoC5/CyDmac.c **** cystatus CyDmaChRoundRobin(uint8 chHandle, uint8 enableRR) 
1110:.\Generated_Source\PSoC5/CyDmac.c **** {
 1162              		.loc 1 1110 0
 1163              		.cfi_startproc
 1164              		@ args = 0, pretend = 0, frame = 0
 1165              		@ frame_needed = 0, uses_anonymous_args = 0
 1166              		@ link register save eliminated.
 1167              	.LVL122:
1111:.\Generated_Source\PSoC5/CyDmac.c ****     cystatus status = CYRET_BAD_PARAM;
1112:.\Generated_Source\PSoC5/CyDmac.c **** 
1113:.\Generated_Source\PSoC5/CyDmac.c ****     if(chHandle < CY_DMA_NUMBEROF_CHANNELS)
 1168              		.loc 1 1113 0
 1169 0000 1728     		cmp	r0, #23
 1170 0002 0DD8     		bhi	.L131
 1171 0004 0201     		lsls	r2, r0, #4
 1172 0006 074B     		ldr	r3, .L133
1114:.\Generated_Source\PSoC5/CyDmac.c ****     {
1115:.\Generated_Source\PSoC5/CyDmac.c ****         if (0u != enableRR)
 1173              		.loc 1 1115 0
 1174 0008 29B1     		cbz	r1, .L130
1116:.\Generated_Source\PSoC5/CyDmac.c ****         {
1117:.\Generated_Source\PSoC5/CyDmac.c ****             CY_DMA_CH_STRUCT_PTR[chHandle].basic_cfg[0u] |= (uint8)CY_DMA_ROUND_ROBIN_ENABLE;
 1175              		.loc 1 1117 0
 1176 000a D05C     		ldrb	r0, [r2, r3]	@ zero_extendqisi2
 1177              	.LVL123:
 1178 000c 40F01001 		orr	r1, r0, #16
ARM GAS  C:\Users\MICHA_~1\AppData\Local\Temp\cc1lqS7m.s 			page 42


 1179              	.LVL124:
 1180 0010 D154     		strb	r1, [r2, r3]
 1181              	.L132:
1118:.\Generated_Source\PSoC5/CyDmac.c ****         }
1119:.\Generated_Source\PSoC5/CyDmac.c ****         else
1120:.\Generated_Source\PSoC5/CyDmac.c ****         {
1121:.\Generated_Source\PSoC5/CyDmac.c ****             CY_DMA_CH_STRUCT_PTR[chHandle].basic_cfg[0u] &= (uint8)(~CY_DMA_ROUND_ROBIN_ENABLE);
1122:.\Generated_Source\PSoC5/CyDmac.c ****         }
1123:.\Generated_Source\PSoC5/CyDmac.c **** 
1124:.\Generated_Source\PSoC5/CyDmac.c ****         status = CYRET_SUCCESS;
 1182              		.loc 1 1124 0
 1183 0012 0020     		movs	r0, #0
 1184 0014 7047     		bx	lr
 1185              	.LVL125:
 1186              	.L130:
1121:.\Generated_Source\PSoC5/CyDmac.c ****             CY_DMA_CH_STRUCT_PTR[chHandle].basic_cfg[0u] &= (uint8)(~CY_DMA_ROUND_ROBIN_ENABLE);
 1187              		.loc 1 1121 0
 1188 0016 D05C     		ldrb	r0, [r2, r3]	@ zero_extendqisi2
 1189              	.LVL126:
 1190 0018 00F0EF01 		and	r1, r0, #239
 1191              	.LVL127:
 1192 001c D154     		strb	r1, [r2, r3]
 1193 001e F8E7     		b	.L132
 1194              	.LVL128:
 1195              	.L131:
1111:.\Generated_Source\PSoC5/CyDmac.c ****     cystatus status = CYRET_BAD_PARAM;
 1196              		.loc 1 1111 0
 1197 0020 0120     		movs	r0, #1
 1198              	.LVL129:
1125:.\Generated_Source\PSoC5/CyDmac.c ****     }
1126:.\Generated_Source\PSoC5/CyDmac.c **** 
1127:.\Generated_Source\PSoC5/CyDmac.c ****     return(status);
1128:.\Generated_Source\PSoC5/CyDmac.c **** }
 1199              		.loc 1 1128 0
 1200 0022 7047     		bx	lr
 1201              	.L134:
 1202              		.align	2
 1203              	.L133:
 1204 0024 10700040 		.word	1073770512
 1205              		.cfi_endproc
 1206              	.LFE23:
 1207              		.size	CyDmaChRoundRobin, .-CyDmaChRoundRobin
 1208              		.data
 1209              		.set	.LANCHOR0,. + 0
 1210              		.type	CyDmaTdFreeIndex, %object
 1211              		.size	CyDmaTdFreeIndex, 1
 1212              	CyDmaTdFreeIndex:
 1213 0000 7F       		.byte	127
 1214              		.type	CyDmaTdCurrentNumber, %object
 1215              		.size	CyDmaTdCurrentNumber, 1
 1216              	CyDmaTdCurrentNumber:
 1217 0001 80       		.byte	-128
 1218              		.bss
 1219              		.align	2
 1220              		.set	.LANCHOR1,. + 0
 1221              		.type	CyDmaChannels, %object
 1222              		.size	CyDmaChannels, 4
ARM GAS  C:\Users\MICHA_~1\AppData\Local\Temp\cc1lqS7m.s 			page 43


 1223              	CyDmaChannels:
 1224 0000 00000000 		.space	4
 1225              		.text
 1226              	.Letext0:
 1227              		.file 2 ".\\Generated_Source\\PSoC5\\cytypes.h"
 1228              		.file 3 ".\\Generated_Source\\PSoC5\\CyDmac.h"
 1229              		.file 4 ".\\Generated_Source\\PSoC5\\CyLib.h"