ARM GAS  C:\Users\MICHA_~1\AppData\Local\Temp\ccuuLLS2.s 			page 1


   1              		.syntax unified
   2              		.cpu cortex-m3
   3              		.fpu softvfp
   4              		.eabi_attribute 20, 1
   5              		.eabi_attribute 21, 1
   6              		.eabi_attribute 23, 3
   7              		.eabi_attribute 24, 1
   8              		.eabi_attribute 25, 1
   9              		.eabi_attribute 26, 1
  10              		.eabi_attribute 30, 4
  11              		.eabi_attribute 34, 1
  12              		.eabi_attribute 18, 4
  13              		.thumb
  14              		.file	"cyfitter_cfg.c"
  15              		.text
  16              	.Ltext0:
  17              		.cfi_sections	.debug_frame
  18              		.section	.text.SetAnalogRoutingPumps,"ax",%progbits
  19              		.align	1
  20              		.global	SetAnalogRoutingPumps
  21              		.thumb
  22              		.thumb_func
  23              		.type	SetAnalogRoutingPumps, %function
  24              	SetAnalogRoutingPumps:
  25              	.LFB7:
  26              		.file 1 ".\\Generated_Source\\PSoC5\\cyfitter_cfg.c"
   1:.\Generated_Source\PSoC5/cyfitter_cfg.c **** /*******************************************************************************
   2:.\Generated_Source\PSoC5/cyfitter_cfg.c **** * FILENAME: cyfitter_cfg.c
   3:.\Generated_Source\PSoC5/cyfitter_cfg.c **** * PSoC Creator 3.0
   4:.\Generated_Source\PSoC5/cyfitter_cfg.c **** *
   5:.\Generated_Source\PSoC5/cyfitter_cfg.c **** * Description:
   6:.\Generated_Source\PSoC5/cyfitter_cfg.c **** * This file is automatically generated by PSoC Creator with device 
   7:.\Generated_Source\PSoC5/cyfitter_cfg.c **** * initialization code.  Except for the user defined sections in
   8:.\Generated_Source\PSoC5/cyfitter_cfg.c **** * CyClockStartupError(), this file should not be modified.
   9:.\Generated_Source\PSoC5/cyfitter_cfg.c **** *
  10:.\Generated_Source\PSoC5/cyfitter_cfg.c **** ********************************************************************************
  11:.\Generated_Source\PSoC5/cyfitter_cfg.c **** * Copyright 2013, Cypress Semiconductor Corporation.  All rights reserved.
  12:.\Generated_Source\PSoC5/cyfitter_cfg.c **** * You may use this file only in accordance with the license, terms, conditions, 
  13:.\Generated_Source\PSoC5/cyfitter_cfg.c **** * disclaimers, and limitations in the end user license agreement accompanying 
  14:.\Generated_Source\PSoC5/cyfitter_cfg.c **** * the software package with which this file was provided.
  15:.\Generated_Source\PSoC5/cyfitter_cfg.c **** ********************************************************************************/
  16:.\Generated_Source\PSoC5/cyfitter_cfg.c **** 
  17:.\Generated_Source\PSoC5/cyfitter_cfg.c **** #include <string.h>
  18:.\Generated_Source\PSoC5/cyfitter_cfg.c **** #include <cytypes.h>
  19:.\Generated_Source\PSoC5/cyfitter_cfg.c **** #include <cydevice_trm.h>
  20:.\Generated_Source\PSoC5/cyfitter_cfg.c **** #include <cyfitter.h>
  21:.\Generated_Source\PSoC5/cyfitter_cfg.c **** #include <CyLib.h>
  22:.\Generated_Source\PSoC5/cyfitter_cfg.c **** #include <cyfitter_cfg.h>
  23:.\Generated_Source\PSoC5/cyfitter_cfg.c **** 
  24:.\Generated_Source\PSoC5/cyfitter_cfg.c **** #define CY_NEED_CYCLOCKSTARTUPERROR 1
  25:.\Generated_Source\PSoC5/cyfitter_cfg.c **** 
  26:.\Generated_Source\PSoC5/cyfitter_cfg.c **** 
  27:.\Generated_Source\PSoC5/cyfitter_cfg.c **** #if defined(__GNUC__) || defined(__ARMCC_VERSION)
  28:.\Generated_Source\PSoC5/cyfitter_cfg.c ****     #define CYPACKED 
  29:.\Generated_Source\PSoC5/cyfitter_cfg.c ****     #define CYPACKED_ATTR __attribute__ ((packed))
  30:.\Generated_Source\PSoC5/cyfitter_cfg.c ****     #define CYALIGNED __attribute__ ((aligned))
  31:.\Generated_Source\PSoC5/cyfitter_cfg.c ****     #define CY_CFG_UNUSED __attribute__ ((unused))
ARM GAS  C:\Users\MICHA_~1\AppData\Local\Temp\ccuuLLS2.s 			page 2


  32:.\Generated_Source\PSoC5/cyfitter_cfg.c ****     #define CY_CFG_SECTION __attribute__ ((section(".psocinit")))
  33:.\Generated_Source\PSoC5/cyfitter_cfg.c ****     
  34:.\Generated_Source\PSoC5/cyfitter_cfg.c ****     #if defined(__ARMCC_VERSION)
  35:.\Generated_Source\PSoC5/cyfitter_cfg.c ****         #define CY_CFG_MEMORY_BARRIER() __memory_changed()
  36:.\Generated_Source\PSoC5/cyfitter_cfg.c ****     #else
  37:.\Generated_Source\PSoC5/cyfitter_cfg.c ****         #define CY_CFG_MEMORY_BARRIER() __sync_synchronize()
  38:.\Generated_Source\PSoC5/cyfitter_cfg.c ****     #endif
  39:.\Generated_Source\PSoC5/cyfitter_cfg.c ****     
  40:.\Generated_Source\PSoC5/cyfitter_cfg.c **** #elif defined(__ICCARM__)
  41:.\Generated_Source\PSoC5/cyfitter_cfg.c ****     #include <intrinsics.h>
  42:.\Generated_Source\PSoC5/cyfitter_cfg.c **** 
  43:.\Generated_Source\PSoC5/cyfitter_cfg.c ****     #define CYPACKED __packed
  44:.\Generated_Source\PSoC5/cyfitter_cfg.c ****     #define CYPACKED_ATTR 
  45:.\Generated_Source\PSoC5/cyfitter_cfg.c ****     #define CYALIGNED _Pragma("data_alignment=4")
  46:.\Generated_Source\PSoC5/cyfitter_cfg.c ****     #define CY_CFG_UNUSED _Pragma("diag_suppress=Pe177")
  47:.\Generated_Source\PSoC5/cyfitter_cfg.c ****     #define CY_CFG_SECTION _Pragma("location=\".psocinit\"")
  48:.\Generated_Source\PSoC5/cyfitter_cfg.c ****     
  49:.\Generated_Source\PSoC5/cyfitter_cfg.c ****     #define CY_CFG_MEMORY_BARRIER() __DMB()
  50:.\Generated_Source\PSoC5/cyfitter_cfg.c ****     
  51:.\Generated_Source\PSoC5/cyfitter_cfg.c **** #else
  52:.\Generated_Source\PSoC5/cyfitter_cfg.c ****     #error Unsupported toolchain
  53:.\Generated_Source\PSoC5/cyfitter_cfg.c **** #endif
  54:.\Generated_Source\PSoC5/cyfitter_cfg.c **** 
  55:.\Generated_Source\PSoC5/cyfitter_cfg.c **** 
  56:.\Generated_Source\PSoC5/cyfitter_cfg.c **** CY_CFG_UNUSED
  57:.\Generated_Source\PSoC5/cyfitter_cfg.c **** static void CYMEMZERO(void *s, size_t n);
  58:.\Generated_Source\PSoC5/cyfitter_cfg.c **** CY_CFG_UNUSED
  59:.\Generated_Source\PSoC5/cyfitter_cfg.c **** static void CYMEMZERO(void *s, size_t n)
  60:.\Generated_Source\PSoC5/cyfitter_cfg.c **** {
  61:.\Generated_Source\PSoC5/cyfitter_cfg.c **** 	(void)memset(s, 0, n);
  62:.\Generated_Source\PSoC5/cyfitter_cfg.c **** }
  63:.\Generated_Source\PSoC5/cyfitter_cfg.c **** CY_CFG_UNUSED
  64:.\Generated_Source\PSoC5/cyfitter_cfg.c **** static void CYCONFIGCPY(void *dest, const void *src, size_t n);
  65:.\Generated_Source\PSoC5/cyfitter_cfg.c **** CY_CFG_UNUSED
  66:.\Generated_Source\PSoC5/cyfitter_cfg.c **** static void CYCONFIGCPY(void *dest, const void *src, size_t n)
  67:.\Generated_Source\PSoC5/cyfitter_cfg.c **** {
  68:.\Generated_Source\PSoC5/cyfitter_cfg.c **** 	(void)memcpy(dest, src, n);
  69:.\Generated_Source\PSoC5/cyfitter_cfg.c **** }
  70:.\Generated_Source\PSoC5/cyfitter_cfg.c **** CY_CFG_UNUSED
  71:.\Generated_Source\PSoC5/cyfitter_cfg.c **** static void CYCONFIGCPYCODE(void *dest, const void *src, size_t n);
  72:.\Generated_Source\PSoC5/cyfitter_cfg.c **** CY_CFG_UNUSED
  73:.\Generated_Source\PSoC5/cyfitter_cfg.c **** static void CYCONFIGCPYCODE(void *dest, const void *src, size_t n)
  74:.\Generated_Source\PSoC5/cyfitter_cfg.c **** {
  75:.\Generated_Source\PSoC5/cyfitter_cfg.c **** 	(void)memcpy(dest, src, n);
  76:.\Generated_Source\PSoC5/cyfitter_cfg.c **** }
  77:.\Generated_Source\PSoC5/cyfitter_cfg.c **** 
  78:.\Generated_Source\PSoC5/cyfitter_cfg.c **** 
  79:.\Generated_Source\PSoC5/cyfitter_cfg.c **** 
  80:.\Generated_Source\PSoC5/cyfitter_cfg.c **** /* Clock startup error codes                                                   */
  81:.\Generated_Source\PSoC5/cyfitter_cfg.c **** #define CYCLOCKSTART_NO_ERROR    0u
  82:.\Generated_Source\PSoC5/cyfitter_cfg.c **** #define CYCLOCKSTART_XTAL_ERROR  1u
  83:.\Generated_Source\PSoC5/cyfitter_cfg.c **** #define CYCLOCKSTART_32KHZ_ERROR 2u
  84:.\Generated_Source\PSoC5/cyfitter_cfg.c **** #define CYCLOCKSTART_PLL_ERROR   3u
  85:.\Generated_Source\PSoC5/cyfitter_cfg.c **** 
  86:.\Generated_Source\PSoC5/cyfitter_cfg.c **** #ifdef CY_NEED_CYCLOCKSTARTUPERROR
  87:.\Generated_Source\PSoC5/cyfitter_cfg.c **** /*******************************************************************************
  88:.\Generated_Source\PSoC5/cyfitter_cfg.c **** * Function Name: CyClockStartupError
ARM GAS  C:\Users\MICHA_~1\AppData\Local\Temp\ccuuLLS2.s 			page 3


  89:.\Generated_Source\PSoC5/cyfitter_cfg.c **** ********************************************************************************
  90:.\Generated_Source\PSoC5/cyfitter_cfg.c **** * Summary:
  91:.\Generated_Source\PSoC5/cyfitter_cfg.c **** *  If an error is encountered during clock configuration (crystal startup error,
  92:.\Generated_Source\PSoC5/cyfitter_cfg.c **** *  PLL lock error, etc.), the system will end up here.  Unless reimplemented by
  93:.\Generated_Source\PSoC5/cyfitter_cfg.c **** *  the customer, this function will stop in an infinite loop.
  94:.\Generated_Source\PSoC5/cyfitter_cfg.c **** *
  95:.\Generated_Source\PSoC5/cyfitter_cfg.c **** * Parameters:
  96:.\Generated_Source\PSoC5/cyfitter_cfg.c **** *   void
  97:.\Generated_Source\PSoC5/cyfitter_cfg.c **** *
  98:.\Generated_Source\PSoC5/cyfitter_cfg.c **** * Return:
  99:.\Generated_Source\PSoC5/cyfitter_cfg.c **** *   void
 100:.\Generated_Source\PSoC5/cyfitter_cfg.c **** *
 101:.\Generated_Source\PSoC5/cyfitter_cfg.c **** *******************************************************************************/
 102:.\Generated_Source\PSoC5/cyfitter_cfg.c **** CY_CFG_UNUSED
 103:.\Generated_Source\PSoC5/cyfitter_cfg.c **** static void CyClockStartupError(uint8 errorCode);
 104:.\Generated_Source\PSoC5/cyfitter_cfg.c **** CY_CFG_UNUSED
 105:.\Generated_Source\PSoC5/cyfitter_cfg.c **** static void CyClockStartupError(uint8 errorCode)
 106:.\Generated_Source\PSoC5/cyfitter_cfg.c **** {
 107:.\Generated_Source\PSoC5/cyfitter_cfg.c ****     /* To remove the compiler warning if errorCode not used.                */
 108:.\Generated_Source\PSoC5/cyfitter_cfg.c ****     errorCode = errorCode;
 109:.\Generated_Source\PSoC5/cyfitter_cfg.c **** 
 110:.\Generated_Source\PSoC5/cyfitter_cfg.c ****     /* `#START CyClockStartupError` */
 111:.\Generated_Source\PSoC5/cyfitter_cfg.c **** 
 112:.\Generated_Source\PSoC5/cyfitter_cfg.c ****     /* If we have a clock startup error (bad MHz crystal, PLL lock, etc.),  */
 113:.\Generated_Source\PSoC5/cyfitter_cfg.c ****     /* we will end up here to allow the customer to implement something to  */
 114:.\Generated_Source\PSoC5/cyfitter_cfg.c ****     /* deal with the clock condition.                                       */
 115:.\Generated_Source\PSoC5/cyfitter_cfg.c **** 
 116:.\Generated_Source\PSoC5/cyfitter_cfg.c ****     /* `#END` */
 117:.\Generated_Source\PSoC5/cyfitter_cfg.c **** 
 118:.\Generated_Source\PSoC5/cyfitter_cfg.c ****     /* If nothing else, stop here since the clocks have not started         */
 119:.\Generated_Source\PSoC5/cyfitter_cfg.c ****     /* correctly.                                                           */
 120:.\Generated_Source\PSoC5/cyfitter_cfg.c ****     while(1) {}
 121:.\Generated_Source\PSoC5/cyfitter_cfg.c **** }
 122:.\Generated_Source\PSoC5/cyfitter_cfg.c **** #endif
 123:.\Generated_Source\PSoC5/cyfitter_cfg.c **** 
 124:.\Generated_Source\PSoC5/cyfitter_cfg.c **** #define CY_CFG_BASE_ADDR_COUNT 12u
 125:.\Generated_Source\PSoC5/cyfitter_cfg.c **** CYPACKED typedef struct
 126:.\Generated_Source\PSoC5/cyfitter_cfg.c **** {
 127:.\Generated_Source\PSoC5/cyfitter_cfg.c **** 	uint8 offset;
 128:.\Generated_Source\PSoC5/cyfitter_cfg.c **** 	uint8 value;
 129:.\Generated_Source\PSoC5/cyfitter_cfg.c **** } CYPACKED_ATTR cy_cfg_addrvalue_t;
 130:.\Generated_Source\PSoC5/cyfitter_cfg.c **** 
 131:.\Generated_Source\PSoC5/cyfitter_cfg.c **** 
 132:.\Generated_Source\PSoC5/cyfitter_cfg.c **** 
 133:.\Generated_Source\PSoC5/cyfitter_cfg.c **** /*******************************************************************************
 134:.\Generated_Source\PSoC5/cyfitter_cfg.c **** * Function Name: cfg_write_bytes32
 135:.\Generated_Source\PSoC5/cyfitter_cfg.c **** ********************************************************************************
 136:.\Generated_Source\PSoC5/cyfitter_cfg.c **** * Summary:
 137:.\Generated_Source\PSoC5/cyfitter_cfg.c **** *  This function is used for setting up the chip configuration areas that
 138:.\Generated_Source\PSoC5/cyfitter_cfg.c **** *  contain relatively sparse data.
 139:.\Generated_Source\PSoC5/cyfitter_cfg.c **** *
 140:.\Generated_Source\PSoC5/cyfitter_cfg.c **** * Parameters:
 141:.\Generated_Source\PSoC5/cyfitter_cfg.c **** *   void
 142:.\Generated_Source\PSoC5/cyfitter_cfg.c **** *
 143:.\Generated_Source\PSoC5/cyfitter_cfg.c **** * Return:
 144:.\Generated_Source\PSoC5/cyfitter_cfg.c **** *   void
 145:.\Generated_Source\PSoC5/cyfitter_cfg.c **** *
ARM GAS  C:\Users\MICHA_~1\AppData\Local\Temp\ccuuLLS2.s 			page 4


 146:.\Generated_Source\PSoC5/cyfitter_cfg.c **** *******************************************************************************/
 147:.\Generated_Source\PSoC5/cyfitter_cfg.c **** static void cfg_write_bytes32(const uint32 addr_table[], const cy_cfg_addrvalue_t data_table[]);
 148:.\Generated_Source\PSoC5/cyfitter_cfg.c **** static void cfg_write_bytes32(const uint32 addr_table[], const cy_cfg_addrvalue_t data_table[])
 149:.\Generated_Source\PSoC5/cyfitter_cfg.c **** {
 150:.\Generated_Source\PSoC5/cyfitter_cfg.c **** 	/* For 32-bit little-endian architectures */
 151:.\Generated_Source\PSoC5/cyfitter_cfg.c **** 	uint32 i, j = 0u;
 152:.\Generated_Source\PSoC5/cyfitter_cfg.c **** 	for (i = 0u; i < CY_CFG_BASE_ADDR_COUNT; i++)
 153:.\Generated_Source\PSoC5/cyfitter_cfg.c **** 	{
 154:.\Generated_Source\PSoC5/cyfitter_cfg.c **** 		uint32 baseAddr = addr_table[i];
 155:.\Generated_Source\PSoC5/cyfitter_cfg.c **** 		uint8 count = (uint8)baseAddr;
 156:.\Generated_Source\PSoC5/cyfitter_cfg.c **** 		baseAddr &= 0xFFFFFF00u;
 157:.\Generated_Source\PSoC5/cyfitter_cfg.c **** 		while (count != 0u)
 158:.\Generated_Source\PSoC5/cyfitter_cfg.c **** 		{
 159:.\Generated_Source\PSoC5/cyfitter_cfg.c **** 			CY_SET_XTND_REG8((void CYFAR *)(baseAddr + data_table[j].offset), data_table[j].value);
 160:.\Generated_Source\PSoC5/cyfitter_cfg.c **** 			j++;
 161:.\Generated_Source\PSoC5/cyfitter_cfg.c **** 			count--;
 162:.\Generated_Source\PSoC5/cyfitter_cfg.c **** 		}
 163:.\Generated_Source\PSoC5/cyfitter_cfg.c **** 	}
 164:.\Generated_Source\PSoC5/cyfitter_cfg.c **** }
 165:.\Generated_Source\PSoC5/cyfitter_cfg.c **** 
 166:.\Generated_Source\PSoC5/cyfitter_cfg.c **** /*******************************************************************************
 167:.\Generated_Source\PSoC5/cyfitter_cfg.c **** * Function Name: ClockSetup
 168:.\Generated_Source\PSoC5/cyfitter_cfg.c **** ********************************************************************************
 169:.\Generated_Source\PSoC5/cyfitter_cfg.c **** *
 170:.\Generated_Source\PSoC5/cyfitter_cfg.c **** * Summary:
 171:.\Generated_Source\PSoC5/cyfitter_cfg.c **** *  Performs the initialization of all of the clocks in the device based on the
 172:.\Generated_Source\PSoC5/cyfitter_cfg.c **** *  settings in the Clock tab of the DWR.  This includes enabling the requested
 173:.\Generated_Source\PSoC5/cyfitter_cfg.c **** *  clocks and setting the necessary dividers to produce the desired frequency. 
 174:.\Generated_Source\PSoC5/cyfitter_cfg.c **** *
 175:.\Generated_Source\PSoC5/cyfitter_cfg.c **** * Parameters:
 176:.\Generated_Source\PSoC5/cyfitter_cfg.c **** *  void
 177:.\Generated_Source\PSoC5/cyfitter_cfg.c **** *
 178:.\Generated_Source\PSoC5/cyfitter_cfg.c **** * Return:
 179:.\Generated_Source\PSoC5/cyfitter_cfg.c **** *  void
 180:.\Generated_Source\PSoC5/cyfitter_cfg.c **** *
 181:.\Generated_Source\PSoC5/cyfitter_cfg.c **** *******************************************************************************/
 182:.\Generated_Source\PSoC5/cyfitter_cfg.c **** static void ClockSetup(void);
 183:.\Generated_Source\PSoC5/cyfitter_cfg.c **** static void ClockSetup(void)
 184:.\Generated_Source\PSoC5/cyfitter_cfg.c **** {
 185:.\Generated_Source\PSoC5/cyfitter_cfg.c **** 	uint32 timeout;
 186:.\Generated_Source\PSoC5/cyfitter_cfg.c **** 	uint8 pllLock;
 187:.\Generated_Source\PSoC5/cyfitter_cfg.c **** 
 188:.\Generated_Source\PSoC5/cyfitter_cfg.c **** 
 189:.\Generated_Source\PSoC5/cyfitter_cfg.c **** 	/* Configure ILO based on settings from Clock DWR */
 190:.\Generated_Source\PSoC5/cyfitter_cfg.c **** 	CY_SET_XTND_REG8((void CYFAR *)(CYREG_SLOWCLK_ILO_CR0), 0x06u);
 191:.\Generated_Source\PSoC5/cyfitter_cfg.c **** 
 192:.\Generated_Source\PSoC5/cyfitter_cfg.c **** 	/* Configure IMO based on settings from Clock DWR */
 193:.\Generated_Source\PSoC5/cyfitter_cfg.c **** 	CY_SET_XTND_REG8((void CYFAR *)(CYREG_FASTCLK_IMO_CR), 0x52u);
 194:.\Generated_Source\PSoC5/cyfitter_cfg.c **** 	CY_SET_XTND_REG8((void CYFAR *)(CYREG_IMO_TR1), (CY_GET_XTND_REG8((void CYFAR *)CYREG_FLSHID_CUST_
 195:.\Generated_Source\PSoC5/cyfitter_cfg.c **** 
 196:.\Generated_Source\PSoC5/cyfitter_cfg.c **** 	/* Configure PLL based on settings from Clock DWR */
 197:.\Generated_Source\PSoC5/cyfitter_cfg.c **** 	CY_SET_XTND_REG16((void CYFAR *)(CYREG_FASTCLK_PLL_P), 0x0818u);
 198:.\Generated_Source\PSoC5/cyfitter_cfg.c **** 	CY_SET_XTND_REG16((void CYFAR *)(CYREG_FASTCLK_PLL_CFG0), 0x1251u);
 199:.\Generated_Source\PSoC5/cyfitter_cfg.c **** 	/* Wait up to 250us for the PLL to lock */
 200:.\Generated_Source\PSoC5/cyfitter_cfg.c **** 	pllLock = 0u;
 201:.\Generated_Source\PSoC5/cyfitter_cfg.c **** 	for (timeout = 250u / 10u; (timeout > 0u) && (pllLock != 0x03u); timeout--)
 202:.\Generated_Source\PSoC5/cyfitter_cfg.c **** 	{ 
ARM GAS  C:\Users\MICHA_~1\AppData\Local\Temp\ccuuLLS2.s 			page 5


 203:.\Generated_Source\PSoC5/cyfitter_cfg.c **** 		pllLock = 0x03u & ((uint8)((uint8)pllLock << 1) | ((CY_GET_XTND_REG8((void CYFAR *)CYREG_FASTCLK_
 204:.\Generated_Source\PSoC5/cyfitter_cfg.c **** 		CyDelayCycles(10u * 48u); /* Delay 10us based on 48MHz clock */
 205:.\Generated_Source\PSoC5/cyfitter_cfg.c **** 	}
 206:.\Generated_Source\PSoC5/cyfitter_cfg.c **** 	/* If we ran out of time the PLL didn't lock so go to the error function */
 207:.\Generated_Source\PSoC5/cyfitter_cfg.c **** 	if (timeout == 0u)
 208:.\Generated_Source\PSoC5/cyfitter_cfg.c **** 	{
 209:.\Generated_Source\PSoC5/cyfitter_cfg.c **** 		CyClockStartupError(CYCLOCKSTART_PLL_ERROR);
 210:.\Generated_Source\PSoC5/cyfitter_cfg.c **** 	}
 211:.\Generated_Source\PSoC5/cyfitter_cfg.c **** 
 212:.\Generated_Source\PSoC5/cyfitter_cfg.c **** 	/* Configure Bus/Master Clock based on settings from Clock DWR */
 213:.\Generated_Source\PSoC5/cyfitter_cfg.c **** 	CY_SET_XTND_REG16((void CYFAR *)(CYREG_CLKDIST_MSTR0), 0x0100u);
 214:.\Generated_Source\PSoC5/cyfitter_cfg.c **** 	CY_SET_XTND_REG8((void CYFAR *)(CYREG_CLKDIST_MSTR0), 0x07u);
 215:.\Generated_Source\PSoC5/cyfitter_cfg.c **** 	CY_SET_XTND_REG8((void CYFAR *)(CYREG_CLKDIST_BCFG0), 0x00u);
 216:.\Generated_Source\PSoC5/cyfitter_cfg.c **** 	CY_SET_XTND_REG8((void CYFAR *)(CYREG_CLKDIST_BCFG2), 0x48u);
 217:.\Generated_Source\PSoC5/cyfitter_cfg.c **** 	CY_SET_XTND_REG8((void CYFAR *)(CYREG_CLKDIST_MSTR0), 0x00u);
 218:.\Generated_Source\PSoC5/cyfitter_cfg.c **** 
 219:.\Generated_Source\PSoC5/cyfitter_cfg.c **** 	/* Configure USB Clock based on settings from Clock DWR */
 220:.\Generated_Source\PSoC5/cyfitter_cfg.c **** 	CY_SET_XTND_REG8((void CYFAR *)(CYREG_CLKDIST_UCFG), 0x00u);
 221:.\Generated_Source\PSoC5/cyfitter_cfg.c **** 	CY_SET_XTND_REG8((void CYFAR *)(CYREG_CLKDIST_LD), 0x02u);
 222:.\Generated_Source\PSoC5/cyfitter_cfg.c **** }
 223:.\Generated_Source\PSoC5/cyfitter_cfg.c **** 
 224:.\Generated_Source\PSoC5/cyfitter_cfg.c **** 
 225:.\Generated_Source\PSoC5/cyfitter_cfg.c **** /* Analog API Functions */
 226:.\Generated_Source\PSoC5/cyfitter_cfg.c **** 
 227:.\Generated_Source\PSoC5/cyfitter_cfg.c **** 
 228:.\Generated_Source\PSoC5/cyfitter_cfg.c **** /*******************************************************************************
 229:.\Generated_Source\PSoC5/cyfitter_cfg.c **** * Function Name: AnalogSetDefault
 230:.\Generated_Source\PSoC5/cyfitter_cfg.c **** ********************************************************************************
 231:.\Generated_Source\PSoC5/cyfitter_cfg.c **** *
 232:.\Generated_Source\PSoC5/cyfitter_cfg.c **** * Summary:
 233:.\Generated_Source\PSoC5/cyfitter_cfg.c **** *  Sets up the analog portions of the chip to default values based on chip
 234:.\Generated_Source\PSoC5/cyfitter_cfg.c **** *  configuration options from the project.
 235:.\Generated_Source\PSoC5/cyfitter_cfg.c **** *
 236:.\Generated_Source\PSoC5/cyfitter_cfg.c **** * Parameters:
 237:.\Generated_Source\PSoC5/cyfitter_cfg.c **** *  void
 238:.\Generated_Source\PSoC5/cyfitter_cfg.c **** *
 239:.\Generated_Source\PSoC5/cyfitter_cfg.c **** * Return:
 240:.\Generated_Source\PSoC5/cyfitter_cfg.c **** *  void
 241:.\Generated_Source\PSoC5/cyfitter_cfg.c **** *
 242:.\Generated_Source\PSoC5/cyfitter_cfg.c **** *******************************************************************************/
 243:.\Generated_Source\PSoC5/cyfitter_cfg.c **** static void AnalogSetDefault(void);
 244:.\Generated_Source\PSoC5/cyfitter_cfg.c **** static void AnalogSetDefault(void)
 245:.\Generated_Source\PSoC5/cyfitter_cfg.c **** {
 246:.\Generated_Source\PSoC5/cyfitter_cfg.c **** 	uint8 bg_xover_inl_trim = CY_GET_XTND_REG8((void CYFAR *)(CYREG_FLSHID_MFG_CFG_BG_XOVER_INL_TRIM +
 247:.\Generated_Source\PSoC5/cyfitter_cfg.c **** 	CY_SET_XTND_REG8((void CYFAR *)(CYREG_BG_DFT0), (bg_xover_inl_trim & 0x07u));
 248:.\Generated_Source\PSoC5/cyfitter_cfg.c **** 	CY_SET_XTND_REG8((void CYFAR *)(CYREG_BG_DFT1), ((bg_xover_inl_trim >> 4) & 0x0Fu));
 249:.\Generated_Source\PSoC5/cyfitter_cfg.c **** 	CY_SET_XTND_REG8((void CYFAR *)CYREG_PUMP_CR0, 0x44u);
 250:.\Generated_Source\PSoC5/cyfitter_cfg.c **** }
 251:.\Generated_Source\PSoC5/cyfitter_cfg.c **** 
 252:.\Generated_Source\PSoC5/cyfitter_cfg.c **** 
 253:.\Generated_Source\PSoC5/cyfitter_cfg.c **** /*******************************************************************************
 254:.\Generated_Source\PSoC5/cyfitter_cfg.c **** * Function Name: SetAnalogRoutingPumps
 255:.\Generated_Source\PSoC5/cyfitter_cfg.c **** ********************************************************************************
 256:.\Generated_Source\PSoC5/cyfitter_cfg.c **** *
 257:.\Generated_Source\PSoC5/cyfitter_cfg.c **** * Summary:
 258:.\Generated_Source\PSoC5/cyfitter_cfg.c **** * Enables or disables the analog pumps feeding analog routing switches.
 259:.\Generated_Source\PSoC5/cyfitter_cfg.c **** * Intended to be called at startup, based on the Vdda system configuration;
ARM GAS  C:\Users\MICHA_~1\AppData\Local\Temp\ccuuLLS2.s 			page 6


 260:.\Generated_Source\PSoC5/cyfitter_cfg.c **** * may be called during operation when the user informs us that the Vdda voltage
 261:.\Generated_Source\PSoC5/cyfitter_cfg.c **** * crossed the pump threshold.
 262:.\Generated_Source\PSoC5/cyfitter_cfg.c **** *
 263:.\Generated_Source\PSoC5/cyfitter_cfg.c **** * Parameters:
 264:.\Generated_Source\PSoC5/cyfitter_cfg.c **** *  enabled - 1 to enable the pumps, 0 to disable the pumps
 265:.\Generated_Source\PSoC5/cyfitter_cfg.c **** *
 266:.\Generated_Source\PSoC5/cyfitter_cfg.c **** * Return:
 267:.\Generated_Source\PSoC5/cyfitter_cfg.c **** *  void
 268:.\Generated_Source\PSoC5/cyfitter_cfg.c **** *
 269:.\Generated_Source\PSoC5/cyfitter_cfg.c **** *******************************************************************************/
 270:.\Generated_Source\PSoC5/cyfitter_cfg.c **** void SetAnalogRoutingPumps(uint8 enabled)
 271:.\Generated_Source\PSoC5/cyfitter_cfg.c **** {
  27              		.loc 1 271 0
  28              		.cfi_startproc
  29              		@ args = 0, pretend = 0, frame = 0
  30              		@ frame_needed = 0, uses_anonymous_args = 0
  31              		@ link register save eliminated.
  32              	.LVL0:
 272:.\Generated_Source\PSoC5/cyfitter_cfg.c **** 	uint8 regValue = CY_GET_XTND_REG8((void CYFAR *)CYREG_PUMP_CR0);
  33              		.loc 1 272 0
  34 0000 014B     		ldr	r3, .L2
  35 0002 1A78     		ldrb	r2, [r3, #0]	@ zero_extendqisi2
  36              	.LVL1:
 273:.\Generated_Source\PSoC5/cyfitter_cfg.c **** 	if (enabled != 0u)
 274:.\Generated_Source\PSoC5/cyfitter_cfg.c **** 	{
 275:.\Generated_Source\PSoC5/cyfitter_cfg.c **** 		regValue |= 0x00u;
 276:.\Generated_Source\PSoC5/cyfitter_cfg.c **** 	}
 277:.\Generated_Source\PSoC5/cyfitter_cfg.c **** 	else
 278:.\Generated_Source\PSoC5/cyfitter_cfg.c **** 	{
 279:.\Generated_Source\PSoC5/cyfitter_cfg.c **** 		regValue &= (uint8)~0x00u;
 280:.\Generated_Source\PSoC5/cyfitter_cfg.c **** 	}
 281:.\Generated_Source\PSoC5/cyfitter_cfg.c **** 	CY_SET_XTND_REG8((void CYFAR *)CYREG_PUMP_CR0, regValue);
  37              		.loc 1 281 0
  38 0004 1A70     		strb	r2, [r3, #0]
  39 0006 7047     		bx	lr
  40              	.L3:
  41              		.align	2
  42              	.L2:
  43 0008 76580040 		.word	1073764470
  44              		.cfi_endproc
  45              	.LFE7:
  46              		.size	SetAnalogRoutingPumps, .-SetAnalogRoutingPumps
  47              		.section	.text.cyfitter_cfg,"ax",%progbits
  48              		.align	1
  49              		.global	cyfitter_cfg
  50              		.thumb
  51              		.thumb_func
  52              		.type	cyfitter_cfg, %function
  53              	cyfitter_cfg:
  54              	.LFB8:
 282:.\Generated_Source\PSoC5/cyfitter_cfg.c **** }
 283:.\Generated_Source\PSoC5/cyfitter_cfg.c **** 
 284:.\Generated_Source\PSoC5/cyfitter_cfg.c **** #define CY_AMUX_UNUSED CYREG_BOOST_SR
 285:.\Generated_Source\PSoC5/cyfitter_cfg.c **** 
 286:.\Generated_Source\PSoC5/cyfitter_cfg.c **** 
 287:.\Generated_Source\PSoC5/cyfitter_cfg.c **** /*******************************************************************************
 288:.\Generated_Source\PSoC5/cyfitter_cfg.c **** * Function Name: cyfitter_cfg
ARM GAS  C:\Users\MICHA_~1\AppData\Local\Temp\ccuuLLS2.s 			page 7


 289:.\Generated_Source\PSoC5/cyfitter_cfg.c **** ********************************************************************************
 290:.\Generated_Source\PSoC5/cyfitter_cfg.c **** * Summary:
 291:.\Generated_Source\PSoC5/cyfitter_cfg.c **** *  This function is called by the start-up code for the selected device. It
 292:.\Generated_Source\PSoC5/cyfitter_cfg.c **** *  performs all of the necessary device configuration based on the design
 293:.\Generated_Source\PSoC5/cyfitter_cfg.c **** *  settings.  This includes settings from the Design Wide Resources (DWR) such
 294:.\Generated_Source\PSoC5/cyfitter_cfg.c **** *  as Clocks and Pins as well as any component configuration that is necessary.
 295:.\Generated_Source\PSoC5/cyfitter_cfg.c **** *
 296:.\Generated_Source\PSoC5/cyfitter_cfg.c **** * Parameters:  
 297:.\Generated_Source\PSoC5/cyfitter_cfg.c **** *   void
 298:.\Generated_Source\PSoC5/cyfitter_cfg.c **** *
 299:.\Generated_Source\PSoC5/cyfitter_cfg.c **** * Return:
 300:.\Generated_Source\PSoC5/cyfitter_cfg.c **** *   void
 301:.\Generated_Source\PSoC5/cyfitter_cfg.c **** *
 302:.\Generated_Source\PSoC5/cyfitter_cfg.c **** *******************************************************************************/
 303:.\Generated_Source\PSoC5/cyfitter_cfg.c **** 
 304:.\Generated_Source\PSoC5/cyfitter_cfg.c **** void cyfitter_cfg(void)
 305:.\Generated_Source\PSoC5/cyfitter_cfg.c **** {
  55              		.loc 1 305 0
  56              		.cfi_startproc
  57              		@ args = 0, pretend = 0, frame = 0
  58              		@ frame_needed = 0, uses_anonymous_args = 0
  59 0000 F8B5     		push	{r3, r4, r5, r6, r7, lr}
  60              	.LCFI0:
  61              		.cfi_def_cfa_offset 24
  62              		.cfi_offset 3, -24
  63              		.cfi_offset 4, -20
  64              		.cfi_offset 5, -16
  65              		.cfi_offset 6, -12
  66              		.cfi_offset 7, -8
  67              		.cfi_offset 14, -4
 306:.\Generated_Source\PSoC5/cyfitter_cfg.c **** 	/* IOPINS0_0 Address: CYREG_PRT0_DM0 Size (bytes): 8 */
 307:.\Generated_Source\PSoC5/cyfitter_cfg.c **** 	static const uint8 CYCODE BS_IOPINS0_0_VAL[] = {
 308:.\Generated_Source\PSoC5/cyfitter_cfg.c **** 		0x00u, 0xFFu, 0xFFu, 0x00u, 0x00u, 0x00u, 0x00u, 0x00u};
 309:.\Generated_Source\PSoC5/cyfitter_cfg.c **** 
 310:.\Generated_Source\PSoC5/cyfitter_cfg.c **** 	/* IOPINS0_8 Address: CYREG_PRT15_DR Size (bytes): 10 */
 311:.\Generated_Source\PSoC5/cyfitter_cfg.c **** 	static const uint8 CYCODE BS_IOPINS0_8_VAL[] = {
 312:.\Generated_Source\PSoC5/cyfitter_cfg.c **** 		0x00u, 0x00u, 0x00u, 0x00u, 0x00u, 0x00u, 0x00u, 0x00u, 0xC0u, 0x00u};
 313:.\Generated_Source\PSoC5/cyfitter_cfg.c **** 
 314:.\Generated_Source\PSoC5/cyfitter_cfg.c **** 	/* IOPINS0_4 Address: CYREG_PRT4_DM0 Size (bytes): 8 */
 315:.\Generated_Source\PSoC5/cyfitter_cfg.c **** 	static const uint8 CYCODE BS_IOPINS0_4_VAL[] = {
 316:.\Generated_Source\PSoC5/cyfitter_cfg.c **** 		0x00u, 0xFCu, 0xFCu, 0x00u, 0x00u, 0x00u, 0x00u, 0x00u};
 317:.\Generated_Source\PSoC5/cyfitter_cfg.c **** 
 318:.\Generated_Source\PSoC5/cyfitter_cfg.c **** 	/* IOPINS0_6 Address: CYREG_PRT6_DM0 Size (bytes): 8 */
 319:.\Generated_Source\PSoC5/cyfitter_cfg.c **** 	static const uint8 CYCODE BS_IOPINS0_6_VAL[] = {
 320:.\Generated_Source\PSoC5/cyfitter_cfg.c **** 		0x00u, 0x0Fu, 0x0Fu, 0x00u, 0x00u, 0x00u, 0x00u, 0x00u};
 321:.\Generated_Source\PSoC5/cyfitter_cfg.c **** 
 322:.\Generated_Source\PSoC5/cyfitter_cfg.c **** #ifdef CYGlobalIntDisable
 323:.\Generated_Source\PSoC5/cyfitter_cfg.c **** 	/* Disable interrupts by default. Let user enable if/when they want. */
 324:.\Generated_Source\PSoC5/cyfitter_cfg.c **** 	CYGlobalIntDisable
  68              		.loc 1 324 0
  69              	@ 324 ".\Generated_Source\PSoC5\cyfitter_cfg.c" 1
  70 0002 72B6     		CPSID   i
  71              	@ 0 "" 2
 325:.\Generated_Source\PSoC5/cyfitter_cfg.c **** #endif
 326:.\Generated_Source\PSoC5/cyfitter_cfg.c **** 
 327:.\Generated_Source\PSoC5/cyfitter_cfg.c **** 
 328:.\Generated_Source\PSoC5/cyfitter_cfg.c **** 	/* Set Flash Cycles based on max possible frequency in case a glitch occurs during ClockSetup(). *
ARM GAS  C:\Users\MICHA_~1\AppData\Local\Temp\ccuuLLS2.s 			page 8


 329:.\Generated_Source\PSoC5/cyfitter_cfg.c **** 	CY_SET_XTND_REG8((void CYFAR *)(CYREG_CACHE_CC_CTL), (((CYDEV_INSTRUCT_CACHE_ENABLED) != 0) ? 0x01
  72              		.loc 1 329 0
  73              		.thumb
  74 0004 5A4B     		ldr	r3, .L23
  75 0006 0122     		movs	r2, #1
  76              	.LBB30:
  77              	.LBB31:
 190:.\Generated_Source\PSoC5/cyfitter_cfg.c **** 	CY_SET_XTND_REG8((void CYFAR *)(CYREG_SLOWCLK_ILO_CR0), 0x06u);
  78              		.loc 1 190 0
  79 0008 A3F5A061 		sub	r1, r3, #1280
 193:.\Generated_Source\PSoC5/cyfitter_cfg.c **** 	CY_SET_XTND_REG8((void CYFAR *)(CYREG_FASTCLK_IMO_CR), 0x52u);
  80              		.loc 1 193 0
  81 000c A1F58075 		sub	r5, r1, #256
 190:.\Generated_Source\PSoC5/cyfitter_cfg.c **** 	CY_SET_XTND_REG8((void CYFAR *)(CYREG_SLOWCLK_ILO_CR0), 0x06u);
  82              		.loc 1 190 0
  83 0010 0620     		movs	r0, #6
 193:.\Generated_Source\PSoC5/cyfitter_cfg.c **** 	CY_SET_XTND_REG8((void CYFAR *)(CYREG_FASTCLK_IMO_CR), 0x52u);
  84              		.loc 1 193 0
  85 0012 5224     		movs	r4, #82
 194:.\Generated_Source\PSoC5/cyfitter_cfg.c **** 	CY_SET_XTND_REG8((void CYFAR *)(CYREG_IMO_TR1), (CY_GET_XTND_REG8((void CYFAR *)CYREG_FLSHID_CUST_
  86              		.loc 1 194 0
  87 0014 574E     		ldr	r6, .L23+4
  88              	.LBE31:
  89              	.LBE30:
  90              		.loc 1 329 0
  91 0016 1A70     		strb	r2, [r3, #0]
  92              	.LBB34:
  93              	.LBB32:
 190:.\Generated_Source\PSoC5/cyfitter_cfg.c **** 	CY_SET_XTND_REG8((void CYFAR *)(CYREG_SLOWCLK_ILO_CR0), 0x06u);
  94              		.loc 1 190 0
  95 0018 0870     		strb	r0, [r1, #0]
 193:.\Generated_Source\PSoC5/cyfitter_cfg.c **** 	CY_SET_XTND_REG8((void CYFAR *)(CYREG_FASTCLK_IMO_CR), 0x52u);
  96              		.loc 1 193 0
  97 001a 2C70     		strb	r4, [r5, #0]
 194:.\Generated_Source\PSoC5/cyfitter_cfg.c **** 	CY_SET_XTND_REG8((void CYFAR *)(CYREG_IMO_TR1), (CY_GET_XTND_REG8((void CYFAR *)CYREG_FLSHID_CUST_
  98              		.loc 1 194 0
  99 001c 3778     		ldrb	r7, [r6, #0]	@ zero_extendqisi2
 197:.\Generated_Source\PSoC5/cyfitter_cfg.c **** 	CY_SET_XTND_REG16((void CYFAR *)(CYREG_FASTCLK_PLL_P), 0x0818u);
 100              		.loc 1 197 0
 101 001e 564B     		ldr	r3, .L23+8
 194:.\Generated_Source\PSoC5/cyfitter_cfg.c **** 	CY_SET_XTND_REG8((void CYFAR *)(CYREG_IMO_TR1), (CY_GET_XTND_REG8((void CYFAR *)CYREG_FLSHID_CUST_
 102              		.loc 1 194 0
 103 0020 564A     		ldr	r2, .L23+12
 197:.\Generated_Source\PSoC5/cyfitter_cfg.c **** 	CY_SET_XTND_REG16((void CYFAR *)(CYREG_FASTCLK_PLL_P), 0x0818u);
 104              		.loc 1 197 0
 105 0022 40F61800 		movw	r0, #2072
 198:.\Generated_Source\PSoC5/cyfitter_cfg.c **** 	CY_SET_XTND_REG16((void CYFAR *)(CYREG_FASTCLK_PLL_CFG0), 0x1251u);
 106              		.loc 1 198 0
 107 0026 41F25121 		movw	r1, #4689
 194:.\Generated_Source\PSoC5/cyfitter_cfg.c **** 	CY_SET_XTND_REG8((void CYFAR *)(CYREG_IMO_TR1), (CY_GET_XTND_REG8((void CYFAR *)CYREG_FLSHID_CUST_
 108              		.loc 1 194 0
 109 002a 1770     		strb	r7, [r2, #0]
 198:.\Generated_Source\PSoC5/cyfitter_cfg.c **** 	CY_SET_XTND_REG16((void CYFAR *)(CYREG_FASTCLK_PLL_CFG0), 0x1251u);
 110              		.loc 1 198 0
 111 002c 1925     		movs	r5, #25
 197:.\Generated_Source\PSoC5/cyfitter_cfg.c **** 	CY_SET_XTND_REG16((void CYFAR *)(CYREG_FASTCLK_PLL_P), 0x0818u);
 112              		.loc 1 197 0
ARM GAS  C:\Users\MICHA_~1\AppData\Local\Temp\ccuuLLS2.s 			page 9


 113 002e 1880     		strh	r0, [r3, #0]	@ movhi
 200:.\Generated_Source\PSoC5/cyfitter_cfg.c **** 	pllLock = 0u;
 114              		.loc 1 200 0
 115 0030 0024     		movs	r4, #0
 198:.\Generated_Source\PSoC5/cyfitter_cfg.c **** 	CY_SET_XTND_REG16((void CYFAR *)(CYREG_FASTCLK_PLL_CFG0), 0x1251u);
 116              		.loc 1 198 0
 117 0032 23F8021C 		strh	r1, [r3, #-2]	@ movhi
 118              	.LVL2:
 119              	.L6:
 203:.\Generated_Source\PSoC5/cyfitter_cfg.c **** 		pllLock = 0x03u & ((uint8)((uint8)pllLock << 1) | ((CY_GET_XTND_REG8((void CYFAR *)CYREG_FASTCLK_
 120              		.loc 1 203 0
 121 0036 524E     		ldr	r6, .L23+16
 204:.\Generated_Source\PSoC5/cyfitter_cfg.c **** 		CyDelayCycles(10u * 48u); /* Delay 10us based on 48MHz clock */
 122              		.loc 1 204 0
 123 0038 4FF4F070 		mov	r0, #480
 203:.\Generated_Source\PSoC5/cyfitter_cfg.c **** 		pllLock = 0x03u & ((uint8)((uint8)pllLock << 1) | ((CY_GET_XTND_REG8((void CYFAR *)CYREG_FASTCLK_
 124              		.loc 1 203 0
 125 003c 3778     		ldrb	r7, [r6, #0]	@ zero_extendqisi2
 126 003e 07F00102 		and	r2, r7, #1
 127 0042 42EA4404 		orr	r4, r2, r4, lsl #1
 204:.\Generated_Source\PSoC5/cyfitter_cfg.c **** 		CyDelayCycles(10u * 48u); /* Delay 10us based on 48MHz clock */
 128              		.loc 1 204 0
 129 0046 FFF7FEFF 		bl	CyDelayCycles
 130              	.LVL3:
 201:.\Generated_Source\PSoC5/cyfitter_cfg.c **** 	for (timeout = 250u / 10u; (timeout > 0u) && (pllLock != 0x03u); timeout--)
 131              		.loc 1 201 0
 132 004a 013D     		subs	r5, r5, #1
 203:.\Generated_Source\PSoC5/cyfitter_cfg.c **** 		pllLock = 0x03u & ((uint8)((uint8)pllLock << 1) | ((CY_GET_XTND_REG8((void CYFAR *)CYREG_FASTCLK_
 133              		.loc 1 203 0
 134 004c 04F00304 		and	r4, r4, #3
 135              	.LVL4:
 201:.\Generated_Source\PSoC5/cyfitter_cfg.c **** 	for (timeout = 250u / 10u; (timeout > 0u) && (pllLock != 0x03u); timeout--)
 136              		.loc 1 201 0
 137 0050 17D0     		beq	.L5
 138 0052 032C     		cmp	r4, #3
 139 0054 EFD1     		bne	.L6
 213:.\Generated_Source\PSoC5/cyfitter_cfg.c **** 	CY_SET_XTND_REG16((void CYFAR *)(CYREG_CLKDIST_MSTR0), 0x0100u);
 140              		.loc 1 213 0
 141 0056 4B48     		ldr	r0, .L23+20
 215:.\Generated_Source\PSoC5/cyfitter_cfg.c **** 	CY_SET_XTND_REG8((void CYFAR *)(CYREG_CLKDIST_BCFG0), 0x00u);
 142              		.loc 1 215 0
 143 0058 4B4F     		ldr	r7, .L23+24
 144 005a 0026     		movs	r6, #0
 213:.\Generated_Source\PSoC5/cyfitter_cfg.c **** 	CY_SET_XTND_REG16((void CYFAR *)(CYREG_CLKDIST_MSTR0), 0x0100u);
 145              		.loc 1 213 0
 146 005c 4FF48073 		mov	r3, #256
 147              	.LBE32:
 148              	.LBE34:
 330:.\Generated_Source\PSoC5/cyfitter_cfg.c **** 	/* Setup clocks based on selections from Clock DWR */
 331:.\Generated_Source\PSoC5/cyfitter_cfg.c **** 	ClockSetup();
 332:.\Generated_Source\PSoC5/cyfitter_cfg.c **** 	/* Enable/Disable Debug functionality based on settings from System DWR */
 333:.\Generated_Source\PSoC5/cyfitter_cfg.c **** 	CY_SET_XTND_REG8((void CYFAR *)CYREG_MLOGIC_DEBUG, (CY_GET_XTND_REG8((void CYFAR *)CYREG_MLOGIC_DE
 149              		.loc 1 333 0
 150 0060 4A4D     		ldr	r5, .L23+28
 151              	.LBB35:
 152              	.LBB33:
 214:.\Generated_Source\PSoC5/cyfitter_cfg.c **** 	CY_SET_XTND_REG8((void CYFAR *)(CYREG_CLKDIST_MSTR0), 0x07u);
ARM GAS  C:\Users\MICHA_~1\AppData\Local\Temp\ccuuLLS2.s 			page 10


 153              		.loc 1 214 0
 154 0062 0721     		movs	r1, #7
 216:.\Generated_Source\PSoC5/cyfitter_cfg.c **** 	CY_SET_XTND_REG8((void CYFAR *)(CYREG_CLKDIST_BCFG2), 0x48u);
 155              		.loc 1 216 0
 156 0064 4822     		movs	r2, #72
 221:.\Generated_Source\PSoC5/cyfitter_cfg.c **** 	CY_SET_XTND_REG8((void CYFAR *)(CYREG_CLKDIST_LD), 0x02u);
 157              		.loc 1 221 0
 158 0066 0224     		movs	r4, #2
 159              	.LVL5:
 213:.\Generated_Source\PSoC5/cyfitter_cfg.c **** 	CY_SET_XTND_REG16((void CYFAR *)(CYREG_CLKDIST_MSTR0), 0x0100u);
 160              		.loc 1 213 0
 161 0068 0380     		strh	r3, [r0, #0]	@ movhi
 214:.\Generated_Source\PSoC5/cyfitter_cfg.c **** 	CY_SET_XTND_REG8((void CYFAR *)(CYREG_CLKDIST_MSTR0), 0x07u);
 162              		.loc 1 214 0
 163 006a 0170     		strb	r1, [r0, #0]
 215:.\Generated_Source\PSoC5/cyfitter_cfg.c **** 	CY_SET_XTND_REG8((void CYFAR *)(CYREG_CLKDIST_BCFG0), 0x00u);
 164              		.loc 1 215 0
 165 006c 3E70     		strb	r6, [r7, #0]
 216:.\Generated_Source\PSoC5/cyfitter_cfg.c **** 	CY_SET_XTND_REG8((void CYFAR *)(CYREG_CLKDIST_BCFG2), 0x48u);
 166              		.loc 1 216 0
 167 006e BA70     		strb	r2, [r7, #2]
 217:.\Generated_Source\PSoC5/cyfitter_cfg.c **** 	CY_SET_XTND_REG8((void CYFAR *)(CYREG_CLKDIST_MSTR0), 0x00u);
 168              		.loc 1 217 0
 169 0070 0670     		strb	r6, [r0, #0]
 220:.\Generated_Source\PSoC5/cyfitter_cfg.c **** 	CY_SET_XTND_REG8((void CYFAR *)(CYREG_CLKDIST_UCFG), 0x00u);
 170              		.loc 1 220 0
 171 0072 4671     		strb	r6, [r0, #5]
 221:.\Generated_Source\PSoC5/cyfitter_cfg.c **** 	CY_SET_XTND_REG8((void CYFAR *)(CYREG_CLKDIST_LD), 0x02u);
 172              		.loc 1 221 0
 173 0074 00F8034C 		strb	r4, [r0, #-3]
 174              	.LBE33:
 175              	.LBE35:
 176              		.loc 1 333 0
 177 0078 2878     		ldrb	r0, [r5, #0]	@ zero_extendqisi2
 178 007a 40F00403 		orr	r3, r0, #4
 179 007e 2B70     		strb	r3, [r5, #0]
 180              	.LVL6:
 181 0080 00E0     		b	.L8
 182              	.LVL7:
 183              	.L5:
 184 0082 FEE7     		b	.L5
 185              	.LVL8:
 186              	.L8:
 187              	.LBB36:
 188              	.LBB37:
 334:.\Generated_Source\PSoC5/cyfitter_cfg.c **** 
 335:.\Generated_Source\PSoC5/cyfitter_cfg.c **** 	{
 336:.\Generated_Source\PSoC5/cyfitter_cfg.c **** 		static const uint32 CYCODE cy_cfg_addr_table[] = {
 337:.\Generated_Source\PSoC5/cyfitter_cfg.c **** 			0x40004501u, /* Base address: 0x40004500 Count: 1 */
 338:.\Generated_Source\PSoC5/cyfitter_cfg.c **** 			0x40005201u, /* Base address: 0x40005200 Count: 1 */
 339:.\Generated_Source\PSoC5/cyfitter_cfg.c **** 			0x40011701u, /* Base address: 0x40011700 Count: 1 */
 340:.\Generated_Source\PSoC5/cyfitter_cfg.c **** 			0x40011901u, /* Base address: 0x40011900 Count: 1 */
 341:.\Generated_Source\PSoC5/cyfitter_cfg.c **** 			0x40014003u, /* Base address: 0x40014000 Count: 3 */
 342:.\Generated_Source\PSoC5/cyfitter_cfg.c **** 			0x40014102u, /* Base address: 0x40014100 Count: 2 */
 343:.\Generated_Source\PSoC5/cyfitter_cfg.c **** 			0x40014202u, /* Base address: 0x40014200 Count: 2 */
 344:.\Generated_Source\PSoC5/cyfitter_cfg.c **** 			0x40014302u, /* Base address: 0x40014300 Count: 2 */
 345:.\Generated_Source\PSoC5/cyfitter_cfg.c **** 			0x40014703u, /* Base address: 0x40014700 Count: 3 */
ARM GAS  C:\Users\MICHA_~1\AppData\Local\Temp\ccuuLLS2.s 			page 11


 346:.\Generated_Source\PSoC5/cyfitter_cfg.c **** 			0x40014803u, /* Base address: 0x40014800 Count: 3 */
 347:.\Generated_Source\PSoC5/cyfitter_cfg.c **** 			0x40014C02u, /* Base address: 0x40014C00 Count: 2 */
 348:.\Generated_Source\PSoC5/cyfitter_cfg.c **** 			0x40015101u, /* Base address: 0x40015100 Count: 1 */
 349:.\Generated_Source\PSoC5/cyfitter_cfg.c **** 		};
 350:.\Generated_Source\PSoC5/cyfitter_cfg.c **** 
 351:.\Generated_Source\PSoC5/cyfitter_cfg.c **** 		static const cy_cfg_addrvalue_t CYCODE cy_cfg_data_table[] = {
 352:.\Generated_Source\PSoC5/cyfitter_cfg.c **** 			{0x7Eu, 0x02u},
 353:.\Generated_Source\PSoC5/cyfitter_cfg.c **** 			{0x7Cu, 0x40u},
 354:.\Generated_Source\PSoC5/cyfitter_cfg.c **** 			{0xEEu, 0x0Au},
 355:.\Generated_Source\PSoC5/cyfitter_cfg.c **** 			{0xEEu, 0x0Au},
 356:.\Generated_Source\PSoC5/cyfitter_cfg.c **** 			{0x33u, 0x80u},
 357:.\Generated_Source\PSoC5/cyfitter_cfg.c **** 			{0x36u, 0x40u},
 358:.\Generated_Source\PSoC5/cyfitter_cfg.c **** 			{0xCCu, 0x30u},
 359:.\Generated_Source\PSoC5/cyfitter_cfg.c **** 			{0xA6u, 0x40u},
 360:.\Generated_Source\PSoC5/cyfitter_cfg.c **** 			{0xA7u, 0x80u},
 361:.\Generated_Source\PSoC5/cyfitter_cfg.c **** 			{0xA6u, 0x40u},
 362:.\Generated_Source\PSoC5/cyfitter_cfg.c **** 			{0xA7u, 0x80u},
 363:.\Generated_Source\PSoC5/cyfitter_cfg.c **** 			{0xA6u, 0x40u},
 364:.\Generated_Source\PSoC5/cyfitter_cfg.c **** 			{0xA7u, 0x80u},
 365:.\Generated_Source\PSoC5/cyfitter_cfg.c **** 			{0x08u, 0x08u},
 366:.\Generated_Source\PSoC5/cyfitter_cfg.c **** 			{0x0Fu, 0x40u},
 367:.\Generated_Source\PSoC5/cyfitter_cfg.c **** 			{0xC2u, 0x0Cu},
 368:.\Generated_Source\PSoC5/cyfitter_cfg.c **** 			{0xAEu, 0x40u},
 369:.\Generated_Source\PSoC5/cyfitter_cfg.c **** 			{0xAFu, 0x80u},
 370:.\Generated_Source\PSoC5/cyfitter_cfg.c **** 			{0xEEu, 0x50u},
 371:.\Generated_Source\PSoC5/cyfitter_cfg.c **** 			{0xACu, 0x08u},
 372:.\Generated_Source\PSoC5/cyfitter_cfg.c **** 			{0xAFu, 0x40u},
 373:.\Generated_Source\PSoC5/cyfitter_cfg.c **** 			{0x00u, 0x0Au},
 374:.\Generated_Source\PSoC5/cyfitter_cfg.c **** 		};
 375:.\Generated_Source\PSoC5/cyfitter_cfg.c **** 
 376:.\Generated_Source\PSoC5/cyfitter_cfg.c **** 
 377:.\Generated_Source\PSoC5/cyfitter_cfg.c **** 
 378:.\Generated_Source\PSoC5/cyfitter_cfg.c **** 		CYPACKED typedef struct {
 379:.\Generated_Source\PSoC5/cyfitter_cfg.c **** 			void CYFAR *address;
 380:.\Generated_Source\PSoC5/cyfitter_cfg.c **** 			uint16 size;
 381:.\Generated_Source\PSoC5/cyfitter_cfg.c **** 		} CYPACKED_ATTR cfg_memset_t;
 382:.\Generated_Source\PSoC5/cyfitter_cfg.c **** 
 383:.\Generated_Source\PSoC5/cyfitter_cfg.c **** 		static const cfg_memset_t CYCODE cfg_memset_list [] = {
 384:.\Generated_Source\PSoC5/cyfitter_cfg.c **** 			/* address, size */
 385:.\Generated_Source\PSoC5/cyfitter_cfg.c **** 			{(void CYFAR *)(CYREG_PRT1_DR), 48u},
 386:.\Generated_Source\PSoC5/cyfitter_cfg.c **** 			{(void CYFAR *)(CYREG_PRT5_DR), 16u},
 387:.\Generated_Source\PSoC5/cyfitter_cfg.c **** 			{(void CYFAR *)(CYREG_PRT12_DR), 16u},
 388:.\Generated_Source\PSoC5/cyfitter_cfg.c **** 			{(void CYFAR *)(CYDEV_UCFG_B0_P0_U0_BASE), 4096u},
 389:.\Generated_Source\PSoC5/cyfitter_cfg.c **** 			{(void CYFAR *)(CYDEV_UCFG_B1_P2_U0_BASE), 2048u},
 390:.\Generated_Source\PSoC5/cyfitter_cfg.c **** 			{(void CYFAR *)(CYDEV_UCFG_DSI0_BASE), 2560u},
 391:.\Generated_Source\PSoC5/cyfitter_cfg.c **** 			{(void CYFAR *)(CYDEV_UCFG_DSI12_BASE), 512u},
 392:.\Generated_Source\PSoC5/cyfitter_cfg.c **** 			{(void CYFAR *)(CYREG_BCTL0_MDCLK_EN), 32u},
 393:.\Generated_Source\PSoC5/cyfitter_cfg.c **** 		};
 394:.\Generated_Source\PSoC5/cyfitter_cfg.c **** 
 395:.\Generated_Source\PSoC5/cyfitter_cfg.c **** 		uint8 CYDATA i;
 396:.\Generated_Source\PSoC5/cyfitter_cfg.c **** 
 397:.\Generated_Source\PSoC5/cyfitter_cfg.c **** 		/* Zero out critical memory blocks before beginning configuration */
 398:.\Generated_Source\PSoC5/cyfitter_cfg.c **** 		for (i = 0u; i < (sizeof(cfg_memset_list)/sizeof(cfg_memset_list[0])); i++)
 399:.\Generated_Source\PSoC5/cyfitter_cfg.c **** 		{
 400:.\Generated_Source\PSoC5/cyfitter_cfg.c **** 			const cfg_memset_t CYCODE * CYDATA ms = &cfg_memset_list[i];
 189              		.loc 1 400 0 discriminator 2
 190 0084 424F     		ldr	r7, .L23+32
ARM GAS  C:\Users\MICHA_~1\AppData\Local\Temp\ccuuLLS2.s 			page 12


 191 0086 0621     		movs	r1, #6
 192 0088 01FB0672 		mla	r2, r1, r6, r7
 193              	.LVL9:
 194              	.LBB38:
 195              	.LBB39:
  61:.\Generated_Source\PSoC5/cyfitter_cfg.c **** 	(void)memset(s, 0, n);
 196              		.loc 1 61 0 discriminator 2
 197 008c 0021     		movs	r1, #0
 198 008e 1068     		ldr	r0, [r2, #0]	@ unaligned
 199 0090 0136     		adds	r6, r6, #1
 200              	.LVL10:
 201 0092 9288     		ldrh	r2, [r2, #4]	@ unaligned
 202              	.LVL11:
 203 0094 FFF7FEFF 		bl	memset
 204              	.LVL12:
 205              	.LBE39:
 206              	.LBE38:
 207              	.LBE37:
 398:.\Generated_Source\PSoC5/cyfitter_cfg.c **** 		for (i = 0u; i < (sizeof(cfg_memset_list)/sizeof(cfg_memset_list[0])); i++)
 208              		.loc 1 398 0 discriminator 2
 209 0098 082E     		cmp	r6, #8
 210 009a F3D1     		bne	.L8
 398:.\Generated_Source\PSoC5/cyfitter_cfg.c **** 		for (i = 0u; i < (sizeof(cfg_memset_list)/sizeof(cfg_memset_list[0])); i++)
 211              		.loc 1 398 0 is_stmt 0
 212 009c 0023     		movs	r3, #0
 213 009e 1946     		mov	r1, r3
 214              	.LVL13:
 215              	.L11:
 216              	.LBB40:
 217              	.LBB41:
 218              	.LBB42:
 154:.\Generated_Source\PSoC5/cyfitter_cfg.c **** 		uint32 baseAddr = addr_table[i];
 219              		.loc 1 154 0 is_stmt 1
 220 00a0 3C4C     		ldr	r4, .L23+36
 221              	.LBE42:
 222              	.LBE41:
 223              	.LBE40:
 304:.\Generated_Source\PSoC5/cyfitter_cfg.c **** void cyfitter_cfg(void)
 224              		.loc 1 304 0
 225 00a2 0022     		movs	r2, #0
 226              	.LBB45:
 227              	.LBB44:
 228              	.LBB43:
 154:.\Generated_Source\PSoC5/cyfitter_cfg.c **** 		uint32 baseAddr = addr_table[i];
 229              		.loc 1 154 0
 230 00a4 1859     		ldr	r0, [r3, r4]
 231              	.LVL14:
 304:.\Generated_Source\PSoC5/cyfitter_cfg.c **** void cyfitter_cfg(void)
 232              		.loc 1 304 0
 233 00a6 3034     		adds	r4, r4, #48
 155:.\Generated_Source\PSoC5/cyfitter_cfg.c **** 		uint8 count = (uint8)baseAddr;
 234              		.loc 1 155 0
 235 00a8 C6B2     		uxtb	r6, r0
 236              	.LVL15:
 156:.\Generated_Source\PSoC5/cyfitter_cfg.c **** 		baseAddr &= 0xFFFFFF00u;
 237              		.loc 1 156 0
 238 00aa 20F0FF07 		bic	r7, r0, #255
ARM GAS  C:\Users\MICHA_~1\AppData\Local\Temp\ccuuLLS2.s 			page 13


 239              	.LVL16:
 304:.\Generated_Source\PSoC5/cyfitter_cfg.c **** void cyfitter_cfg(void)
 240              		.loc 1 304 0
 241 00ae 04EB4104 		add	r4, r4, r1, lsl #1
 242              	.LVL17:
 243              	.L9:
 157:.\Generated_Source\PSoC5/cyfitter_cfg.c **** 		while (count != 0u)
 244              		.loc 1 157 0
 245 00b2 D5B2     		uxtb	r5, r2
 246 00b4 AE42     		cmp	r6, r5
 247 00b6 09D0     		beq	.L22
 248              	.L10:
 304:.\Generated_Source\PSoC5/cyfitter_cfg.c **** void cyfitter_cfg(void)
 249              		.loc 1 304 0
 250 00b8 04EB420C 		add	ip, r4, r2, lsl #1
 159:.\Generated_Source\PSoC5/cyfitter_cfg.c **** 			CY_SET_XTND_REG8((void CYFAR *)(baseAddr + data_table[j].offset), data_table[j].value);
 251              		.loc 1 159 0
 252 00bc 14F81250 		ldrb	r5, [r4, r2, lsl #1]	@ zero_extendqisi2
 253 00c0 9CF801E0 		ldrb	lr, [ip, #1]	@ zero_extendqisi2
 254 00c4 0132     		adds	r2, r2, #1
 255 00c6 05F807E0 		strb	lr, [r5, r7]
 256 00ca F2E7     		b	.L9
 257              	.L22:
 258 00cc 0433     		adds	r3, r3, #4
 304:.\Generated_Source\PSoC5/cyfitter_cfg.c **** void cyfitter_cfg(void)
 259              		.loc 1 304 0
 260 00ce C0B2     		uxtb	r0, r0
 261              	.LBE43:
 152:.\Generated_Source\PSoC5/cyfitter_cfg.c **** 	for (i = 0u; i < CY_CFG_BASE_ADDR_COUNT; i++)
 262              		.loc 1 152 0
 263 00d0 302B     		cmp	r3, #48
 264 00d2 0144     		add	r1, r1, r0
 265              	.LVL18:
 266 00d4 E4D1     		bne	.L11
 267              	.LBE44:
 268              	.LBE45:
 401:.\Generated_Source\PSoC5/cyfitter_cfg.c **** 			CYMEMZERO(ms->address, (uint32)(ms->size));
 402:.\Generated_Source\PSoC5/cyfitter_cfg.c **** 		}
 403:.\Generated_Source\PSoC5/cyfitter_cfg.c **** 
 404:.\Generated_Source\PSoC5/cyfitter_cfg.c **** 		cfg_write_bytes32(cy_cfg_addr_table, cy_cfg_data_table);
 405:.\Generated_Source\PSoC5/cyfitter_cfg.c **** 
 406:.\Generated_Source\PSoC5/cyfitter_cfg.c **** 		/* Enable digital routing */
 407:.\Generated_Source\PSoC5/cyfitter_cfg.c **** 		CY_SET_XTND_REG8((void CYFAR *)CYREG_BCTL0_BANK_CTL, CY_GET_XTND_REG8((void CYFAR *)CYREG_BCTL0_B
 269              		.loc 1 407 0
 270 00d6 304C     		ldr	r4, .L23+40
 271 00d8 2278     		ldrb	r2, [r4, #0]	@ zero_extendqisi2
 272 00da 42F00200 		orr	r0, r2, #2
 273 00de 2070     		strb	r0, [r4, #0]
 408:.\Generated_Source\PSoC5/cyfitter_cfg.c **** 		CY_SET_XTND_REG8((void CYFAR *)CYREG_BCTL1_BANK_CTL, CY_GET_XTND_REG8((void CYFAR *)CYREG_BCTL1_B
 274              		.loc 1 408 0
 275 00e0 217C     		ldrb	r1, [r4, #16]	@ zero_extendqisi2
 276              	.LVL19:
 409:.\Generated_Source\PSoC5/cyfitter_cfg.c **** 
 410:.\Generated_Source\PSoC5/cyfitter_cfg.c **** 		/* Enable UDB array */
 411:.\Generated_Source\PSoC5/cyfitter_cfg.c **** 		CY_SET_XTND_REG8((void CYFAR *)CYREG_PM_ACT_CFG0, CY_GET_XTND_REG8((void CYFAR *)CYREG_PM_ACT_CFG
 412:.\Generated_Source\PSoC5/cyfitter_cfg.c **** 		CY_SET_XTND_REG8((void CYFAR *)CYREG_PM_AVAIL_CR2, CY_GET_XTND_REG8((void CYFAR *)CYREG_PM_AVAIL_
 277              		.loc 1 412 0
ARM GAS  C:\Users\MICHA_~1\AppData\Local\Temp\ccuuLLS2.s 			page 14


 278 00e2 2E48     		ldr	r0, .L23+44
 408:.\Generated_Source\PSoC5/cyfitter_cfg.c **** 		CY_SET_XTND_REG8((void CYFAR *)CYREG_BCTL1_BANK_CTL, CY_GET_XTND_REG8((void CYFAR *)CYREG_BCTL1_B
 279              		.loc 1 408 0
 280 00e4 41F00203 		orr	r3, r1, #2
 411:.\Generated_Source\PSoC5/cyfitter_cfg.c **** 		CY_SET_XTND_REG8((void CYFAR *)CYREG_PM_ACT_CFG0, CY_GET_XTND_REG8((void CYFAR *)CYREG_PM_ACT_CFG
 281              		.loc 1 411 0
 282 00e8 2D49     		ldr	r1, .L23+48
 408:.\Generated_Source\PSoC5/cyfitter_cfg.c **** 		CY_SET_XTND_REG8((void CYFAR *)CYREG_BCTL1_BANK_CTL, CY_GET_XTND_REG8((void CYFAR *)CYREG_BCTL1_B
 283              		.loc 1 408 0
 284 00ea 2374     		strb	r3, [r4, #16]
 411:.\Generated_Source\PSoC5/cyfitter_cfg.c **** 		CY_SET_XTND_REG8((void CYFAR *)CYREG_PM_ACT_CFG0, CY_GET_XTND_REG8((void CYFAR *)CYREG_PM_ACT_CFG
 285              		.loc 1 411 0
 286 00ec 0C78     		ldrb	r4, [r1, #0]	@ zero_extendqisi2
 287 00ee 44F04002 		orr	r2, r4, #64
 288 00f2 0A70     		strb	r2, [r1, #0]
 289              		.loc 1 412 0
 290 00f4 0378     		ldrb	r3, [r0, #0]	@ zero_extendqisi2
  75:.\Generated_Source\PSoC5/cyfitter_cfg.c **** 	(void)memcpy(dest, src, n);
 291              		.loc 1 75 0
 292 00f6 2B4A     		ldr	r2, .L23+52
 293              		.loc 1 412 0
 294 00f8 43F01004 		orr	r4, r3, #16
  75:.\Generated_Source\PSoC5/cyfitter_cfg.c **** 	(void)memcpy(dest, src, n);
 295              		.loc 1 75 0
 296 00fc 2A4B     		ldr	r3, .L23+56
 297              		.loc 1 412 0
 298 00fe 0470     		strb	r4, [r0, #0]
 299              	.LVL20:
  75:.\Generated_Source\PSoC5/cyfitter_cfg.c **** 	(void)memcpy(dest, src, n);
 300              		.loc 1 75 0
 301 0100 1868     		ldr	r0, [r3, #0]	@ unaligned
 302 0102 5C68     		ldr	r4, [r3, #4]	@ unaligned
 303 0104 1060     		str	r0, [r2, #0]	@ unaligned
 304 0106 5460     		str	r4, [r2, #4]	@ unaligned
 305              	.LVL21:
 306 0108 1A46     		mov	r2, r3
 307 010a 2848     		ldr	r0, .L23+60
 308 010c 52F8084F 		ldr	r4, [r2, #8]!	@ unaligned
 309 0110 0460     		str	r4, [r0, #0]	@ unaligned
 310 0112 5468     		ldr	r4, [r2, #4]	@ unaligned
 311 0114 1289     		ldrh	r2, [r2, #8]	@ unaligned
 312 0116 4460     		str	r4, [r0, #4]	@ unaligned
 313 0118 0281     		strh	r2, [r0, #8]	@ unaligned
 314              	.LVL22:
 315 011a 1A46     		mov	r2, r3
 316 011c 52F8124F 		ldr	r4, [r2, #18]!	@ unaligned
 317 0120 5268     		ldr	r2, [r2, #4]	@ unaligned
 318 0122 40F8AE4C 		str	r4, [r0, #-174]	@ unaligned
 319 0126 40F8AA2C 		str	r2, [r0, #-170]	@ unaligned
 320              	.LVL23:
 321 012a 53F81A0F 		ldr	r0, [r3, #26]!	@ unaligned
 322 012e 204A     		ldr	r2, .L23+64
 323 0130 5B68     		ldr	r3, [r3, #4]	@ unaligned
 324 0132 1060     		str	r0, [r2, #0]	@ unaligned
 325              	.LBE36:
 413:.\Generated_Source\PSoC5/cyfitter_cfg.c **** 	}
 414:.\Generated_Source\PSoC5/cyfitter_cfg.c **** 
ARM GAS  C:\Users\MICHA_~1\AppData\Local\Temp\ccuuLLS2.s 			page 15


 415:.\Generated_Source\PSoC5/cyfitter_cfg.c **** 	/* Perform second pass device configuration. These items must be configured in specific order afte
 416:.\Generated_Source\PSoC5/cyfitter_cfg.c **** 	CYCONFIGCPYCODE((void CYFAR *)(CYREG_PRT0_DM0), (const void CYCODE *)(BS_IOPINS0_0_VAL), 8u);
 417:.\Generated_Source\PSoC5/cyfitter_cfg.c **** 	CYCONFIGCPYCODE((void CYFAR *)(CYREG_PRT15_DR), (const void CYCODE *)(BS_IOPINS0_8_VAL), 10u);
 418:.\Generated_Source\PSoC5/cyfitter_cfg.c **** 	CYCONFIGCPYCODE((void CYFAR *)(CYREG_PRT4_DM0), (const void CYCODE *)(BS_IOPINS0_4_VAL), 8u);
 419:.\Generated_Source\PSoC5/cyfitter_cfg.c **** 	CYCONFIGCPYCODE((void CYFAR *)(CYREG_PRT6_DM0), (const void CYCODE *)(BS_IOPINS0_6_VAL), 8u);
 420:.\Generated_Source\PSoC5/cyfitter_cfg.c **** 
 421:.\Generated_Source\PSoC5/cyfitter_cfg.c **** 	/* Switch Boost to the precision bandgap reference from its internal reference */
 422:.\Generated_Source\PSoC5/cyfitter_cfg.c **** 	CY_SET_REG8((void CYXDATA *)CYREG_BOOST_CR2, (CY_GET_REG8((void CYXDATA *)CYREG_BOOST_CR2) | 0x08u
 326              		.loc 1 422 0
 327 0134 1F48     		ldr	r0, .L23+68
 328              	.LBB46:
  75:.\Generated_Source\PSoC5/cyfitter_cfg.c **** 	(void)memcpy(dest, src, n);
 329              		.loc 1 75 0
 330 0136 5360     		str	r3, [r2, #4]	@ unaligned
 331              	.LBE46:
 332              		.loc 1 422 0
 333 0138 0278     		ldrb	r2, [r0, #0]	@ zero_extendqisi2
 334 013a 42F00803 		orr	r3, r2, #8
 335 013e 0370     		strb	r3, [r0, #0]
 336              	.LBB47:
 337              	.LBB48:
 246:.\Generated_Source\PSoC5/cyfitter_cfg.c **** 	uint8 bg_xover_inl_trim = CY_GET_XTND_REG8((void CYFAR *)(CYREG_FLSHID_MFG_CFG_BG_XOVER_INL_TRIM +
 338              		.loc 1 246 0
 339 0140 1D48     		ldr	r0, .L23+72
 247:.\Generated_Source\PSoC5/cyfitter_cfg.c **** 	CY_SET_XTND_REG8((void CYFAR *)(CYREG_BG_DFT0), (bg_xover_inl_trim & 0x07u));
 340              		.loc 1 247 0
 341 0142 1E4A     		ldr	r2, .L23+76
 246:.\Generated_Source\PSoC5/cyfitter_cfg.c **** 	uint8 bg_xover_inl_trim = CY_GET_XTND_REG8((void CYFAR *)(CYREG_FLSHID_MFG_CFG_BG_XOVER_INL_TRIM +
 342              		.loc 1 246 0
 343 0144 0378     		ldrb	r3, [r0, #0]	@ zero_extendqisi2
 344              	.LVL24:
 247:.\Generated_Source\PSoC5/cyfitter_cfg.c **** 	CY_SET_XTND_REG8((void CYFAR *)(CYREG_BG_DFT0), (bg_xover_inl_trim & 0x07u));
 345              		.loc 1 247 0
 346 0146 03F00700 		and	r0, r3, #7
 248:.\Generated_Source\PSoC5/cyfitter_cfg.c **** 	CY_SET_XTND_REG8((void CYFAR *)(CYREG_BG_DFT1), ((bg_xover_inl_trim >> 4) & 0x0Fu));
 347              		.loc 1 248 0
 348 014a 1B09     		lsrs	r3, r3, #4
 349              	.LVL25:
 247:.\Generated_Source\PSoC5/cyfitter_cfg.c **** 	CY_SET_XTND_REG8((void CYFAR *)(CYREG_BG_DFT0), (bg_xover_inl_trim & 0x07u));
 350              		.loc 1 247 0
 351 014c 1070     		strb	r0, [r2, #0]
 248:.\Generated_Source\PSoC5/cyfitter_cfg.c **** 	CY_SET_XTND_REG8((void CYFAR *)(CYREG_BG_DFT1), ((bg_xover_inl_trim >> 4) & 0x0Fu));
 352              		.loc 1 248 0
 353 014e 5370     		strb	r3, [r2, #1]
 249:.\Generated_Source\PSoC5/cyfitter_cfg.c **** 	CY_SET_XTND_REG8((void CYFAR *)CYREG_PUMP_CR0, 0x44u);
 354              		.loc 1 249 0
 355 0150 1B4A     		ldr	r2, .L23+80
 356 0152 4420     		movs	r0, #68
 357 0154 1070     		strb	r0, [r2, #0]
 358              	.LVL26:
 359              	.LBE48:
 360              	.LBE47:
 361              	.LBB49:
 362              	.LBB50:
  68:.\Generated_Source\PSoC5/cyfitter_cfg.c **** 	(void)memcpy(dest, src, n);
 363              		.loc 1 68 0
 364 0156 1B4A     		ldr	r2, .L23+84
ARM GAS  C:\Users\MICHA_~1\AppData\Local\Temp\ccuuLLS2.s 			page 16


 365 0158 0B46     		mov	r3, r1
 366 015a 0C31     		adds	r1, r1, #12
 367              	.L12:
 368 015c 53F8040B 		ldr	r0, [r3], #4	@ unaligned
 369 0160 8B42     		cmp	r3, r1
 370 0162 42F8040B 		str	r0, [r2], #4	@ unaligned
 371 0166 F9D1     		bne	.L12
 372 0168 1988     		ldrh	r1, [r3, #0]	@ unaligned
 373 016a 1180     		strh	r1, [r2, #0]	@ unaligned
 374 016c F8BD     		pop	{r3, r4, r5, r6, r7, pc}
 375              	.L24:
 376 016e 00BF     		.align	2
 377              	.L23:
 378 0170 00480040 		.word	1073760256
 379 0174 0F010049 		.word	1224737039
 380 0178 22420040 		.word	1073758754
 381 017c A1460040 		.word	1073759905
 382 0180 25420040 		.word	1073758757
 383 0184 04400040 		.word	1073758212
 384 0188 06400040 		.word	1073758214
 385 018c E8460040 		.word	1073759976
 386 0190 00000000 		.word	.LANCHOR0
 387 0194 30000000 		.word	.LANCHOR0+48
 388 0198 03500140 		.word	1073827843
 389 019c C2430040 		.word	1073759170
 390 01a0 A0430040 		.word	1073759136
 391 01a4 02510040 		.word	1073762562
 392 01a8 8C000000 		.word	.LANCHOR0+140
 393 01ac F0510040 		.word	1073762800
 394 01b0 62510040 		.word	1073762658
 395 01b4 22430040 		.word	1073759010
 396 01b8 CF010049 		.word	1224737231
 397 01bc 6E580040 		.word	1073764462
 398 01c0 76580040 		.word	1073764470
 399 01c4 B0430040 		.word	1073759152
 400              	.LBE50:
 401              	.LBE49:
 402              		.cfi_endproc
 403              	.LFE8:
 404              		.size	cyfitter_cfg, .-cyfitter_cfg
 405              		.section	.rodata
 406              		.align	2
 407              		.set	.LANCHOR0,. + 0
 408              		.type	cfg_memset_list.4818, %object
 409              		.size	cfg_memset_list.4818, 48
 410              	cfg_memset_list.4818:
 411 0000 10510040 		.4byte	1073762576
 412 0004 3000     		.2byte	48
 413 0006 50510040 		.4byte	1073762640
 414 000a 1000     		.2byte	16
 415 000c C0510040 		.4byte	1073762752
 416 0010 1000     		.2byte	16
 417 0012 00000140 		.4byte	1073807360
 418 0016 0010     		.2byte	4096
 419 0018 00140140 		.4byte	1073812480
 420 001c 0008     		.2byte	2048
 421 001e 00400140 		.4byte	1073823744
ARM GAS  C:\Users\MICHA_~1\AppData\Local\Temp\ccuuLLS2.s 			page 17


 422 0022 000A     		.2byte	2560
 423 0024 004C0140 		.4byte	1073826816
 424 0028 0002     		.2byte	512
 425 002a 00500140 		.4byte	1073827840
 426 002e 2000     		.2byte	32
 427              		.type	cy_cfg_addr_table.4812, %object
 428              		.size	cy_cfg_addr_table.4812, 48
 429              	cy_cfg_addr_table.4812:
 430 0030 01450040 		.word	1073759489
 431 0034 01520040 		.word	1073762817
 432 0038 01170140 		.word	1073813249
 433 003c 01190140 		.word	1073813761
 434 0040 03400140 		.word	1073823747
 435 0044 02410140 		.word	1073824002
 436 0048 02420140 		.word	1073824258
 437 004c 02430140 		.word	1073824514
 438 0050 03470140 		.word	1073825539
 439 0054 03480140 		.word	1073825795
 440 0058 024C0140 		.word	1073826818
 441 005c 01510140 		.word	1073828097
 442              		.type	cy_cfg_data_table.4813, %object
 443              		.size	cy_cfg_data_table.4813, 44
 444              	cy_cfg_data_table.4813:
 445 0060 7E       		.byte	126
 446 0061 02       		.byte	2
 447 0062 7C       		.byte	124
 448 0063 40       		.byte	64
 449 0064 EE       		.byte	-18
 450 0065 0A       		.byte	10
 451 0066 EE       		.byte	-18
 452 0067 0A       		.byte	10
 453 0068 33       		.byte	51
 454 0069 80       		.byte	-128
 455 006a 36       		.byte	54
 456 006b 40       		.byte	64
 457 006c CC       		.byte	-52
 458 006d 30       		.byte	48
 459 006e A6       		.byte	-90
 460 006f 40       		.byte	64
 461 0070 A7       		.byte	-89
 462 0071 80       		.byte	-128
 463 0072 A6       		.byte	-90
 464 0073 40       		.byte	64
 465 0074 A7       		.byte	-89
 466 0075 80       		.byte	-128
 467 0076 A6       		.byte	-90
 468 0077 40       		.byte	64
 469 0078 A7       		.byte	-89
 470 0079 80       		.byte	-128
 471 007a 08       		.byte	8
 472 007b 08       		.byte	8
 473 007c 0F       		.byte	15
 474 007d 40       		.byte	64
 475 007e C2       		.byte	-62
 476 007f 0C       		.byte	12
 477 0080 AE       		.byte	-82
 478 0081 40       		.byte	64
ARM GAS  C:\Users\MICHA_~1\AppData\Local\Temp\ccuuLLS2.s 			page 18


 479 0082 AF       		.byte	-81
 480 0083 80       		.byte	-128
 481 0084 EE       		.byte	-18
 482 0085 50       		.byte	80
 483 0086 AC       		.byte	-84
 484 0087 08       		.byte	8
 485 0088 AF       		.byte	-81
 486 0089 40       		.byte	64
 487 008a 00       		.byte	0
 488 008b 0A       		.byte	10
 489              		.type	BS_IOPINS0_0_VAL.4808, %object
 490              		.size	BS_IOPINS0_0_VAL.4808, 8
 491              	BS_IOPINS0_0_VAL.4808:
 492 008c 00       		.byte	0
 493 008d FF       		.byte	-1
 494 008e FF       		.byte	-1
 495 008f 00       		.byte	0
 496 0090 00       		.byte	0
 497 0091 00       		.byte	0
 498 0092 00       		.byte	0
 499 0093 00       		.byte	0
 500              		.type	BS_IOPINS0_8_VAL.4809, %object
 501              		.size	BS_IOPINS0_8_VAL.4809, 10
 502              	BS_IOPINS0_8_VAL.4809:
 503 0094 00       		.byte	0
 504 0095 00       		.byte	0
 505 0096 00       		.byte	0
 506 0097 00       		.byte	0
 507 0098 00       		.byte	0
 508 0099 00       		.byte	0
 509 009a 00       		.byte	0
 510 009b 00       		.byte	0
 511 009c C0       		.byte	-64
 512 009d 00       		.byte	0
 513              		.type	BS_IOPINS0_4_VAL.4810, %object
 514              		.size	BS_IOPINS0_4_VAL.4810, 8
 515              	BS_IOPINS0_4_VAL.4810:
 516 009e 00       		.byte	0
 517 009f FC       		.byte	-4
 518 00a0 FC       		.byte	-4
 519 00a1 00       		.byte	0
 520 00a2 00       		.byte	0
 521 00a3 00       		.byte	0
 522 00a4 00       		.byte	0
 523 00a5 00       		.byte	0
 524              		.type	BS_IOPINS0_6_VAL.4811, %object
 525              		.size	BS_IOPINS0_6_VAL.4811, 8
 526              	BS_IOPINS0_6_VAL.4811:
 527 00a6 00       		.byte	0
 528 00a7 0F       		.byte	15
 529 00a8 0F       		.byte	15
 530 00a9 00       		.byte	0
 531 00aa 00       		.byte	0
 532 00ab 00       		.byte	0
 533 00ac 00       		.byte	0
 534 00ad 00       		.byte	0
 535 00ae 0000     		.text
ARM GAS  C:\Users\MICHA_~1\AppData\Local\Temp\ccuuLLS2.s 			page 19


 536              	.Letext0:
 537              		.file 2 "c:\\program files (x86)\\cypress\\psoc creator\\3.0\\psoc creator\\import\\gnu_cs\\arm\\4
 538              		.file 3 "./Generated_Source/PSoC5/cytypes.h"
 539              		.file 4 "./Generated_Source/PSoC5/CyLib.h"