ARM GAS  C:\Users\MICHA_~1\AppData\Local\Temp\ccAOLfnb.s 			page 1


   1              		.syntax unified
   2              		.cpu cortex-m3
   3              		.fpu softvfp
   4              		.eabi_attribute 20, 1
   5              		.eabi_attribute 21, 1
   6              		.eabi_attribute 23, 3
   7              		.eabi_attribute 24, 1
   8              		.eabi_attribute 25, 1
   9              		.eabi_attribute 26, 1
  10              		.eabi_attribute 30, 4
  11              		.eabi_attribute 34, 1
  12              		.eabi_attribute 18, 4
  13              		.thumb
  14              		.file	"CyLib.c"
  15              		.text
  16              	.Ltext0:
  17              		.cfi_sections	.debug_frame
  18              		.section	.text.CyIMO_SetTrimValue,"ax",%progbits
  19              		.align	1
  20              		.thumb
  21              		.thumb_func
  22              		.type	CyIMO_SetTrimValue, %function
  23              	CyIMO_SetTrimValue:
  24              	.LFB7:
  25              		.file 1 ".\\Generated_Source\\PSoC5\\CyLib.c"
   1:.\Generated_Source\PSoC5/CyLib.c **** /*******************************************************************************
   2:.\Generated_Source\PSoC5/CyLib.c **** * File Name: CyLib.c
   3:.\Generated_Source\PSoC5/CyLib.c **** * Version 4.0
   4:.\Generated_Source\PSoC5/CyLib.c **** *
   5:.\Generated_Source\PSoC5/CyLib.c **** *  Description:
   6:.\Generated_Source\PSoC5/CyLib.c **** *   Provides system API for the clocking, interrupts and watchdog timer.
   7:.\Generated_Source\PSoC5/CyLib.c **** *
   8:.\Generated_Source\PSoC5/CyLib.c **** *  Note:
   9:.\Generated_Source\PSoC5/CyLib.c **** *   Documentation of the API's in this file is located in the
  10:.\Generated_Source\PSoC5/CyLib.c **** *   System Reference Guide provided with PSoC Creator.
  11:.\Generated_Source\PSoC5/CyLib.c **** *
  12:.\Generated_Source\PSoC5/CyLib.c **** ********************************************************************************
  13:.\Generated_Source\PSoC5/CyLib.c **** * Copyright 2008-2013, Cypress Semiconductor Corporation.  All rights reserved.
  14:.\Generated_Source\PSoC5/CyLib.c **** * You may use this file only in accordance with the license, terms, conditions,
  15:.\Generated_Source\PSoC5/CyLib.c **** * disclaimers, and limitations in the end user license agreement accompanying
  16:.\Generated_Source\PSoC5/CyLib.c **** * the software package with which this file was provided.
  17:.\Generated_Source\PSoC5/CyLib.c **** *******************************************************************************/
  18:.\Generated_Source\PSoC5/CyLib.c **** 
  19:.\Generated_Source\PSoC5/CyLib.c **** #include "CyLib.h"
  20:.\Generated_Source\PSoC5/CyLib.c **** 
  21:.\Generated_Source\PSoC5/CyLib.c **** 
  22:.\Generated_Source\PSoC5/CyLib.c **** /*******************************************************************************
  23:.\Generated_Source\PSoC5/CyLib.c **** * The CyResetStatus variable is used to obtain value of RESET_SR0 register after
  24:.\Generated_Source\PSoC5/CyLib.c **** * a device reset. It is set from initialize_psoc() at the early initialization
  25:.\Generated_Source\PSoC5/CyLib.c **** * stage. In case of IAR EW IDE, initialize_psoc() is executed before the data
  26:.\Generated_Source\PSoC5/CyLib.c **** * sections are initialized. To avoid zeroing, CyResetStatus should be placed
  27:.\Generated_Source\PSoC5/CyLib.c **** * to the .noinit section.
  28:.\Generated_Source\PSoC5/CyLib.c **** *******************************************************************************/
  29:.\Generated_Source\PSoC5/CyLib.c **** CY_NOINIT uint8 CYXDATA CyResetStatus;
  30:.\Generated_Source\PSoC5/CyLib.c **** 
  31:.\Generated_Source\PSoC5/CyLib.c **** 
  32:.\Generated_Source\PSoC5/CyLib.c **** /* Variable Vdda */
ARM GAS  C:\Users\MICHA_~1\AppData\Local\Temp\ccAOLfnb.s 			page 2


  33:.\Generated_Source\PSoC5/CyLib.c **** #if(CYDEV_VARIABLE_VDDA == 1)
  34:.\Generated_Source\PSoC5/CyLib.c **** 
  35:.\Generated_Source\PSoC5/CyLib.c ****     uint8 CyScPumpEnabled = (uint8)(CYDEV_VDDA_MV < 2700);
  36:.\Generated_Source\PSoC5/CyLib.c **** 
  37:.\Generated_Source\PSoC5/CyLib.c **** #endif  /* (CYDEV_VARIABLE_VDDA == 1) */
  38:.\Generated_Source\PSoC5/CyLib.c **** 
  39:.\Generated_Source\PSoC5/CyLib.c **** 
  40:.\Generated_Source\PSoC5/CyLib.c **** /* Do not use these definitions directly in your application */
  41:.\Generated_Source\PSoC5/CyLib.c **** uint32 cydelay_freq_hz  = BCLK__BUS_CLK__HZ;
  42:.\Generated_Source\PSoC5/CyLib.c **** uint32 cydelay_freq_khz = (BCLK__BUS_CLK__HZ + 999u) / 1000u;
  43:.\Generated_Source\PSoC5/CyLib.c **** uint8  cydelay_freq_mhz = (uint8)((BCLK__BUS_CLK__HZ + 999999u) / 1000000u);
  44:.\Generated_Source\PSoC5/CyLib.c **** uint32 cydelay_32k_ms   = 32768u * ((BCLK__BUS_CLK__HZ + 999u) / 1000u);
  45:.\Generated_Source\PSoC5/CyLib.c **** 
  46:.\Generated_Source\PSoC5/CyLib.c **** 
  47:.\Generated_Source\PSoC5/CyLib.c **** /* Function Prototypes */
  48:.\Generated_Source\PSoC5/CyLib.c **** static uint8 CyUSB_PowerOnCheck(void)  ;
  49:.\Generated_Source\PSoC5/CyLib.c **** static void CyIMO_SetTrimValue(uint8 freq) ;
  50:.\Generated_Source\PSoC5/CyLib.c **** static void CyBusClk_Internal_SetDivider(uint16 divider);
  51:.\Generated_Source\PSoC5/CyLib.c **** 
  52:.\Generated_Source\PSoC5/CyLib.c **** 
  53:.\Generated_Source\PSoC5/CyLib.c **** /*******************************************************************************
  54:.\Generated_Source\PSoC5/CyLib.c **** * Function Name: CyPLL_OUT_Start
  55:.\Generated_Source\PSoC5/CyLib.c **** ********************************************************************************
  56:.\Generated_Source\PSoC5/CyLib.c **** *
  57:.\Generated_Source\PSoC5/CyLib.c **** * Summary:
  58:.\Generated_Source\PSoC5/CyLib.c **** *   Enables the PLL.  Optionally waits for it to become stable.
  59:.\Generated_Source\PSoC5/CyLib.c **** *   Waits at least 250 us or until it is detected that the PLL is stable.
  60:.\Generated_Source\PSoC5/CyLib.c **** *
  61:.\Generated_Source\PSoC5/CyLib.c **** * Parameters:
  62:.\Generated_Source\PSoC5/CyLib.c **** *   wait:
  63:.\Generated_Source\PSoC5/CyLib.c **** *    0: Return immediately after configuration
  64:.\Generated_Source\PSoC5/CyLib.c **** *    1: Wait for PLL lock or timeout.
  65:.\Generated_Source\PSoC5/CyLib.c **** *
  66:.\Generated_Source\PSoC5/CyLib.c **** * Return:
  67:.\Generated_Source\PSoC5/CyLib.c **** *   Status
  68:.\Generated_Source\PSoC5/CyLib.c **** *    CYRET_SUCCESS - Completed successfully
  69:.\Generated_Source\PSoC5/CyLib.c **** *    CYRET_TIMEOUT - Timeout occurred without detecting a stable clock.
  70:.\Generated_Source\PSoC5/CyLib.c **** *     If the input source of the clock is jittery, then the lock indication
  71:.\Generated_Source\PSoC5/CyLib.c **** *     may not occur.  However, after the timeout has expired the generated PLL
  72:.\Generated_Source\PSoC5/CyLib.c **** *     clock can still be used.
  73:.\Generated_Source\PSoC5/CyLib.c **** *
  74:.\Generated_Source\PSoC5/CyLib.c **** * Side Effects:
  75:.\Generated_Source\PSoC5/CyLib.c **** *  If wait is enabled: This function wses the Fast Time Wheel to time the wait.
  76:.\Generated_Source\PSoC5/CyLib.c **** *  Any other use of the Fast Time Wheel will be stopped during the period of
  77:.\Generated_Source\PSoC5/CyLib.c **** *  this function and then restored. This function also uses the 100 KHz ILO.
  78:.\Generated_Source\PSoC5/CyLib.c **** *  If not enabled, this function will enable the 100 KHz ILO for the period of
  79:.\Generated_Source\PSoC5/CyLib.c **** *  this function.
  80:.\Generated_Source\PSoC5/CyLib.c **** *
  81:.\Generated_Source\PSoC5/CyLib.c **** *  No changes to the setup of the ILO, Fast Time Wheel, Central Time Wheel or
  82:.\Generated_Source\PSoC5/CyLib.c **** *  Once Per Second interrupt may be made by interrupt routines during the period
  83:.\Generated_Source\PSoC5/CyLib.c **** *  of this function execution. The current operation of the ILO, Central Time
  84:.\Generated_Source\PSoC5/CyLib.c **** *  Wheel and Once Per Second interrupt are maintained during the operation of
  85:.\Generated_Source\PSoC5/CyLib.c **** *  this function provided the reading of the Power Manager Interrupt Status
  86:.\Generated_Source\PSoC5/CyLib.c **** *  Register is only done using the CyPmReadStatus() function.
  87:.\Generated_Source\PSoC5/CyLib.c **** *
  88:.\Generated_Source\PSoC5/CyLib.c **** *******************************************************************************/
  89:.\Generated_Source\PSoC5/CyLib.c **** cystatus CyPLL_OUT_Start(uint8 wait) 
ARM GAS  C:\Users\MICHA_~1\AppData\Local\Temp\ccAOLfnb.s 			page 3


  90:.\Generated_Source\PSoC5/CyLib.c **** {
  91:.\Generated_Source\PSoC5/CyLib.c ****     cystatus status = CYRET_SUCCESS;
  92:.\Generated_Source\PSoC5/CyLib.c **** 
  93:.\Generated_Source\PSoC5/CyLib.c ****     uint8 iloEnableState;
  94:.\Generated_Source\PSoC5/CyLib.c ****     uint8 pmTwCfg0State;
  95:.\Generated_Source\PSoC5/CyLib.c ****     uint8 pmTwCfg2State;
  96:.\Generated_Source\PSoC5/CyLib.c **** 
  97:.\Generated_Source\PSoC5/CyLib.c **** 
  98:.\Generated_Source\PSoC5/CyLib.c ****     /* Enables the PLL circuit  */
  99:.\Generated_Source\PSoC5/CyLib.c ****     CY_CLK_PLL_CFG0_REG |= CY_CLK_PLL_ENABLE;
 100:.\Generated_Source\PSoC5/CyLib.c **** 
 101:.\Generated_Source\PSoC5/CyLib.c ****     if(wait != 0u)
 102:.\Generated_Source\PSoC5/CyLib.c ****     {
 103:.\Generated_Source\PSoC5/CyLib.c ****         /* Save 100 KHz ILO, FTW interval, enable and interrupt enable */
 104:.\Generated_Source\PSoC5/CyLib.c ****         iloEnableState = CY_LIB_SLOWCLK_ILO_CR0_REG & CY_LIB_SLOWCLK_ILO_CR0_EN_100KHZ;
 105:.\Generated_Source\PSoC5/CyLib.c ****         pmTwCfg0State = CY_LIB_PM_TW_CFG0_REG;
 106:.\Generated_Source\PSoC5/CyLib.c ****         pmTwCfg2State = CY_LIB_PM_TW_CFG2_REG;
 107:.\Generated_Source\PSoC5/CyLib.c **** 
 108:.\Generated_Source\PSoC5/CyLib.c ****         CyPmFtwSetInterval(CY_CLK_PLL_FTW_INTERVAL);
 109:.\Generated_Source\PSoC5/CyLib.c **** 
 110:.\Generated_Source\PSoC5/CyLib.c ****         status = CYRET_TIMEOUT;
 111:.\Generated_Source\PSoC5/CyLib.c **** 
 112:.\Generated_Source\PSoC5/CyLib.c ****         while(0u == (CY_PM_FTW_INT & CyPmReadStatus(CY_PM_FTW_INT)))
 113:.\Generated_Source\PSoC5/CyLib.c ****         {
 114:.\Generated_Source\PSoC5/CyLib.c ****             /* Wait for the interrupt status */
 115:.\Generated_Source\PSoC5/CyLib.c ****             if(0u != (CY_CLK_PLL_SR_REG & CY_CLK_PLL_LOCK_STATUS))
 116:.\Generated_Source\PSoC5/CyLib.c ****             {
 117:.\Generated_Source\PSoC5/CyLib.c ****                 if(0u != (CY_CLK_PLL_SR_REG & CY_CLK_PLL_LOCK_STATUS))
 118:.\Generated_Source\PSoC5/CyLib.c ****                 {
 119:.\Generated_Source\PSoC5/CyLib.c ****                     status = CYRET_SUCCESS;
 120:.\Generated_Source\PSoC5/CyLib.c ****                     break;
 121:.\Generated_Source\PSoC5/CyLib.c ****                 }
 122:.\Generated_Source\PSoC5/CyLib.c ****             }
 123:.\Generated_Source\PSoC5/CyLib.c ****         }
 124:.\Generated_Source\PSoC5/CyLib.c **** 
 125:.\Generated_Source\PSoC5/CyLib.c ****         /* Restore 100 KHz ILO, FTW interval, enable and interrupt enable */
 126:.\Generated_Source\PSoC5/CyLib.c ****         if(0u == iloEnableState)
 127:.\Generated_Source\PSoC5/CyLib.c ****         {
 128:.\Generated_Source\PSoC5/CyLib.c ****             CyILO_Stop100K();
 129:.\Generated_Source\PSoC5/CyLib.c ****         }
 130:.\Generated_Source\PSoC5/CyLib.c **** 
 131:.\Generated_Source\PSoC5/CyLib.c ****         CY_LIB_PM_TW_CFG0_REG = pmTwCfg0State;
 132:.\Generated_Source\PSoC5/CyLib.c ****         CY_LIB_PM_TW_CFG2_REG = pmTwCfg2State;
 133:.\Generated_Source\PSoC5/CyLib.c ****     }
 134:.\Generated_Source\PSoC5/CyLib.c **** 
 135:.\Generated_Source\PSoC5/CyLib.c ****     return(status);
 136:.\Generated_Source\PSoC5/CyLib.c **** }
 137:.\Generated_Source\PSoC5/CyLib.c **** 
 138:.\Generated_Source\PSoC5/CyLib.c **** 
 139:.\Generated_Source\PSoC5/CyLib.c **** /*******************************************************************************
 140:.\Generated_Source\PSoC5/CyLib.c **** * Function Name: CyPLL_OUT_Stop
 141:.\Generated_Source\PSoC5/CyLib.c **** ********************************************************************************
 142:.\Generated_Source\PSoC5/CyLib.c **** *
 143:.\Generated_Source\PSoC5/CyLib.c **** * Summary:
 144:.\Generated_Source\PSoC5/CyLib.c **** *  Disables the PLL.
 145:.\Generated_Source\PSoC5/CyLib.c **** *
 146:.\Generated_Source\PSoC5/CyLib.c **** * Parameters:
ARM GAS  C:\Users\MICHA_~1\AppData\Local\Temp\ccAOLfnb.s 			page 4


 147:.\Generated_Source\PSoC5/CyLib.c **** *  None
 148:.\Generated_Source\PSoC5/CyLib.c **** *
 149:.\Generated_Source\PSoC5/CyLib.c **** * Return:
 150:.\Generated_Source\PSoC5/CyLib.c **** *  None
 151:.\Generated_Source\PSoC5/CyLib.c **** *
 152:.\Generated_Source\PSoC5/CyLib.c **** *******************************************************************************/
 153:.\Generated_Source\PSoC5/CyLib.c **** void CyPLL_OUT_Stop(void) 
 154:.\Generated_Source\PSoC5/CyLib.c **** {
 155:.\Generated_Source\PSoC5/CyLib.c ****     CY_CLK_PLL_CFG0_REG &= ((uint8)(~CY_CLK_PLL_ENABLE));
 156:.\Generated_Source\PSoC5/CyLib.c **** }
 157:.\Generated_Source\PSoC5/CyLib.c **** 
 158:.\Generated_Source\PSoC5/CyLib.c **** 
 159:.\Generated_Source\PSoC5/CyLib.c **** /*******************************************************************************
 160:.\Generated_Source\PSoC5/CyLib.c **** * Function Name: CyPLL_OUT_SetPQ
 161:.\Generated_Source\PSoC5/CyLib.c **** ********************************************************************************
 162:.\Generated_Source\PSoC5/CyLib.c **** *
 163:.\Generated_Source\PSoC5/CyLib.c **** * Summary:
 164:.\Generated_Source\PSoC5/CyLib.c **** *  Sets the P and Q dividers and the charge pump current.
 165:.\Generated_Source\PSoC5/CyLib.c **** *  The Frequency Out will be P/Q * Frequency In.
 166:.\Generated_Source\PSoC5/CyLib.c **** *  The PLL must be disabled before calling this function.
 167:.\Generated_Source\PSoC5/CyLib.c **** *
 168:.\Generated_Source\PSoC5/CyLib.c **** * Parameters:
 169:.\Generated_Source\PSoC5/CyLib.c **** *  uint8 pDiv:
 170:.\Generated_Source\PSoC5/CyLib.c **** *   Valid range [8 - 255].
 171:.\Generated_Source\PSoC5/CyLib.c **** *
 172:.\Generated_Source\PSoC5/CyLib.c **** *  uint8 qDiv:
 173:.\Generated_Source\PSoC5/CyLib.c **** *   Valid range [1 - 16]. Input Frequency / Q must be in range of 1 to 3 MHz.
 174:.\Generated_Source\PSoC5/CyLib.c **** 
 175:.\Generated_Source\PSoC5/CyLib.c **** *  uint8 current:
 176:.\Generated_Source\PSoC5/CyLib.c **** *   Valid range [1 - 7]. Charge pump current in uA. Refer to the device TRM and
 177:.\Generated_Source\PSoC5/CyLib.c **** *   datasheet for more information.
 178:.\Generated_Source\PSoC5/CyLib.c **** *
 179:.\Generated_Source\PSoC5/CyLib.c **** * Return:
 180:.\Generated_Source\PSoC5/CyLib.c **** *  None
 181:.\Generated_Source\PSoC5/CyLib.c **** *
 182:.\Generated_Source\PSoC5/CyLib.c **** * Side Effects:
 183:.\Generated_Source\PSoC5/CyLib.c **** *  If as result of this function execution the CPU clock frequency is increased
 184:.\Generated_Source\PSoC5/CyLib.c **** *  then the number of clock cycles the cache will wait before it samples data
 185:.\Generated_Source\PSoC5/CyLib.c **** *  coming back from Flash must be adjusted by calling CyFlash_SetWaitCycles()
 186:.\Generated_Source\PSoC5/CyLib.c **** *  with appropriate parameter. It can be optionally called if CPU clock
 187:.\Generated_Source\PSoC5/CyLib.c **** *  frequency is lowered in order to improve CPU performance.
 188:.\Generated_Source\PSoC5/CyLib.c **** *  See CyFlash_SetWaitCycles() description for more information.
 189:.\Generated_Source\PSoC5/CyLib.c **** *
 190:.\Generated_Source\PSoC5/CyLib.c **** *******************************************************************************/
 191:.\Generated_Source\PSoC5/CyLib.c **** void CyPLL_OUT_SetPQ(uint8 pDiv, uint8 qDiv, uint8 current) 
 192:.\Generated_Source\PSoC5/CyLib.c **** {
 193:.\Generated_Source\PSoC5/CyLib.c ****     /* Halt CPU in debug mode if PLL is enabled */
 194:.\Generated_Source\PSoC5/CyLib.c ****     CYASSERT(0u == (CY_CLK_PLL_CFG0_REG & CY_CLK_PLL_ENABLE));
 195:.\Generated_Source\PSoC5/CyLib.c **** 
 196:.\Generated_Source\PSoC5/CyLib.c ****     if((pDiv    >= CY_CLK_PLL_MIN_P_VALUE  ) &&
 197:.\Generated_Source\PSoC5/CyLib.c ****        (qDiv    <= CY_CLK_PLL_MAX_Q_VALUE  ) && (qDiv    >= CY_CLK_PLL_MIN_Q_VALUE  ) &&
 198:.\Generated_Source\PSoC5/CyLib.c ****        (current >= CY_CLK_PLL_MIN_CUR_VALUE) && (current <= CY_CLK_PLL_MAX_CUR_VALUE))
 199:.\Generated_Source\PSoC5/CyLib.c ****     {
 200:.\Generated_Source\PSoC5/CyLib.c ****         /* Set new values */
 201:.\Generated_Source\PSoC5/CyLib.c ****         CY_CLK_PLL_P_REG = pDiv;
 202:.\Generated_Source\PSoC5/CyLib.c ****         CY_CLK_PLL_Q_REG = ((uint8)(qDiv - 1u));
 203:.\Generated_Source\PSoC5/CyLib.c ****         CY_CLK_PLL_CFG1_REG = (CY_CLK_PLL_CFG1_REG & CY_CLK_PLL_CURRENT_MASK) |
ARM GAS  C:\Users\MICHA_~1\AppData\Local\Temp\ccAOLfnb.s 			page 5


 204:.\Generated_Source\PSoC5/CyLib.c ****                                 ((uint8)(((uint8)(current - 1u)) << CY_CLK_PLL_CURRENT_POSITION));
 205:.\Generated_Source\PSoC5/CyLib.c ****     }
 206:.\Generated_Source\PSoC5/CyLib.c ****     else
 207:.\Generated_Source\PSoC5/CyLib.c ****     {
 208:.\Generated_Source\PSoC5/CyLib.c ****         /***********************************************************************
 209:.\Generated_Source\PSoC5/CyLib.c ****         * Halt CPU in debug mode if:
 210:.\Generated_Source\PSoC5/CyLib.c ****         * - P divider is less than required
 211:.\Generated_Source\PSoC5/CyLib.c ****         * - Q divider is out of range
 212:.\Generated_Source\PSoC5/CyLib.c ****         * - pump current is out of range
 213:.\Generated_Source\PSoC5/CyLib.c ****         ***********************************************************************/
 214:.\Generated_Source\PSoC5/CyLib.c ****         CYASSERT(0u != 0u);
 215:.\Generated_Source\PSoC5/CyLib.c ****     }
 216:.\Generated_Source\PSoC5/CyLib.c **** 
 217:.\Generated_Source\PSoC5/CyLib.c **** }
 218:.\Generated_Source\PSoC5/CyLib.c **** 
 219:.\Generated_Source\PSoC5/CyLib.c **** 
 220:.\Generated_Source\PSoC5/CyLib.c **** /*******************************************************************************
 221:.\Generated_Source\PSoC5/CyLib.c **** * Function Name: CyPLL_OUT_SetSource
 222:.\Generated_Source\PSoC5/CyLib.c **** ********************************************************************************
 223:.\Generated_Source\PSoC5/CyLib.c **** *
 224:.\Generated_Source\PSoC5/CyLib.c **** * Summary:
 225:.\Generated_Source\PSoC5/CyLib.c **** *  Sets the input clock source to the PLL. The PLL must be disabled before
 226:.\Generated_Source\PSoC5/CyLib.c **** *  calling this function.
 227:.\Generated_Source\PSoC5/CyLib.c **** *
 228:.\Generated_Source\PSoC5/CyLib.c **** * Parameters:
 229:.\Generated_Source\PSoC5/CyLib.c **** *   source: One of the three available PLL clock sources
 230:.\Generated_Source\PSoC5/CyLib.c **** *    CY_PLL_SOURCE_IMO  :   IMO
 231:.\Generated_Source\PSoC5/CyLib.c **** *    CY_PLL_SOURCE_XTAL :   MHz Crystal
 232:.\Generated_Source\PSoC5/CyLib.c **** *    CY_PLL_SOURCE_DSI  :   DSI
 233:.\Generated_Source\PSoC5/CyLib.c **** *
 234:.\Generated_Source\PSoC5/CyLib.c **** * Return:
 235:.\Generated_Source\PSoC5/CyLib.c **** *  None
 236:.\Generated_Source\PSoC5/CyLib.c **** *
 237:.\Generated_Source\PSoC5/CyLib.c **** * Side Effects:
 238:.\Generated_Source\PSoC5/CyLib.c **** *  If as result of this function execution the CPU clock frequency is increased
 239:.\Generated_Source\PSoC5/CyLib.c **** *  then the number of clock cycles the cache will wait before it samples data
 240:.\Generated_Source\PSoC5/CyLib.c **** *  coming back from Flash must be adjusted by calling CyFlash_SetWaitCycles()
 241:.\Generated_Source\PSoC5/CyLib.c **** *  with appropriate parameter. It can be optionally called if CPU clock
 242:.\Generated_Source\PSoC5/CyLib.c **** *  frequency is lowered in order to improve CPU performance.
 243:.\Generated_Source\PSoC5/CyLib.c **** *  See CyFlash_SetWaitCycles() description for more information.
 244:.\Generated_Source\PSoC5/CyLib.c **** *
 245:.\Generated_Source\PSoC5/CyLib.c **** *******************************************************************************/
 246:.\Generated_Source\PSoC5/CyLib.c **** void CyPLL_OUT_SetSource(uint8 source) 
 247:.\Generated_Source\PSoC5/CyLib.c **** {
 248:.\Generated_Source\PSoC5/CyLib.c ****     /* Halt CPU in debug mode if PLL is enabled */
 249:.\Generated_Source\PSoC5/CyLib.c ****     CYASSERT(0u == (CY_CLK_PLL_CFG0_REG & CY_CLK_PLL_ENABLE));
 250:.\Generated_Source\PSoC5/CyLib.c **** 
 251:.\Generated_Source\PSoC5/CyLib.c ****     switch(source)
 252:.\Generated_Source\PSoC5/CyLib.c ****     {
 253:.\Generated_Source\PSoC5/CyLib.c ****         case CY_PLL_SOURCE_IMO:
 254:.\Generated_Source\PSoC5/CyLib.c ****         case CY_PLL_SOURCE_XTAL:
 255:.\Generated_Source\PSoC5/CyLib.c ****         case CY_PLL_SOURCE_DSI:
 256:.\Generated_Source\PSoC5/CyLib.c ****             CY_LIB_CLKDIST_CR_REG = ((CY_LIB_CLKDIST_CR_REG & CY_LIB_CLKDIST_CR_PLL_SCR_MASK) | sou
 257:.\Generated_Source\PSoC5/CyLib.c ****         break;
 258:.\Generated_Source\PSoC5/CyLib.c **** 
 259:.\Generated_Source\PSoC5/CyLib.c ****         default:
 260:.\Generated_Source\PSoC5/CyLib.c ****             CYASSERT(0u != 0u);
ARM GAS  C:\Users\MICHA_~1\AppData\Local\Temp\ccAOLfnb.s 			page 6


 261:.\Generated_Source\PSoC5/CyLib.c ****         break;
 262:.\Generated_Source\PSoC5/CyLib.c ****     }
 263:.\Generated_Source\PSoC5/CyLib.c **** }
 264:.\Generated_Source\PSoC5/CyLib.c **** 
 265:.\Generated_Source\PSoC5/CyLib.c **** 
 266:.\Generated_Source\PSoC5/CyLib.c **** /*******************************************************************************
 267:.\Generated_Source\PSoC5/CyLib.c **** * Function Name: CyIMO_Start
 268:.\Generated_Source\PSoC5/CyLib.c **** ********************************************************************************
 269:.\Generated_Source\PSoC5/CyLib.c **** *
 270:.\Generated_Source\PSoC5/CyLib.c **** * Summary:
 271:.\Generated_Source\PSoC5/CyLib.c **** *  Enables the IMO. Optionally waits at least 6 us for it to settle.
 272:.\Generated_Source\PSoC5/CyLib.c **** *
 273:.\Generated_Source\PSoC5/CyLib.c **** * Parameters:
 274:.\Generated_Source\PSoC5/CyLib.c **** *  uint8 wait:
 275:.\Generated_Source\PSoC5/CyLib.c **** *   0: Return immediately after configuration
 276:.\Generated_Source\PSoC5/CyLib.c **** *   1: Wait for at least 6 us for the IMO to settle.
 277:.\Generated_Source\PSoC5/CyLib.c **** *
 278:.\Generated_Source\PSoC5/CyLib.c **** * Return:
 279:.\Generated_Source\PSoC5/CyLib.c **** *  None
 280:.\Generated_Source\PSoC5/CyLib.c **** *
 281:.\Generated_Source\PSoC5/CyLib.c **** * Side Effects:
 282:.\Generated_Source\PSoC5/CyLib.c **** *  If wait is enabled: This function wses the Fast Time Wheel to time the wait.
 283:.\Generated_Source\PSoC5/CyLib.c **** *  Any other use of the Fast Time Wheel will be stopped during the period of
 284:.\Generated_Source\PSoC5/CyLib.c **** *  this function and then restored. This function also uses the 100 KHz ILO.
 285:.\Generated_Source\PSoC5/CyLib.c **** *  If not enabled, this function will enable the 100 KHz ILO for the period of
 286:.\Generated_Source\PSoC5/CyLib.c **** *  this function.
 287:.\Generated_Source\PSoC5/CyLib.c **** *
 288:.\Generated_Source\PSoC5/CyLib.c **** *  No changes to the setup of the ILO, Fast Time Wheel, Central Time Wheel or
 289:.\Generated_Source\PSoC5/CyLib.c **** *  Once Per Second interrupt may be made by interrupt routines during the period
 290:.\Generated_Source\PSoC5/CyLib.c **** *  of this function execution. The current operation of the ILO, Central Time
 291:.\Generated_Source\PSoC5/CyLib.c **** *  Wheel and Once Per Second interrupt are maintained during the operation of
 292:.\Generated_Source\PSoC5/CyLib.c **** *  this function provided the reading of the Power Manager Interrupt Status
 293:.\Generated_Source\PSoC5/CyLib.c **** *  Register is only done using the CyPmReadStatus() function.
 294:.\Generated_Source\PSoC5/CyLib.c **** *
 295:.\Generated_Source\PSoC5/CyLib.c **** *******************************************************************************/
 296:.\Generated_Source\PSoC5/CyLib.c **** void CyIMO_Start(uint8 wait) 
 297:.\Generated_Source\PSoC5/CyLib.c **** {
 298:.\Generated_Source\PSoC5/CyLib.c ****     uint8 pmFtwCfg2Reg;
 299:.\Generated_Source\PSoC5/CyLib.c ****     uint8 pmFtwCfg0Reg;
 300:.\Generated_Source\PSoC5/CyLib.c ****     uint8 ilo100KhzEnable;
 301:.\Generated_Source\PSoC5/CyLib.c **** 
 302:.\Generated_Source\PSoC5/CyLib.c **** 
 303:.\Generated_Source\PSoC5/CyLib.c ****     CY_LIB_PM_ACT_CFG0_REG  |= CY_LIB_PM_ACT_CFG0_IMO_EN;
 304:.\Generated_Source\PSoC5/CyLib.c ****     CY_LIB_PM_STBY_CFG0_REG |= CY_LIB_PM_STBY_CFG0_IMO_EN;
 305:.\Generated_Source\PSoC5/CyLib.c **** 
 306:.\Generated_Source\PSoC5/CyLib.c ****     if(0u != wait)
 307:.\Generated_Source\PSoC5/CyLib.c ****     {
 308:.\Generated_Source\PSoC5/CyLib.c ****         /* Need to turn on the 100KHz ILO if it happens to not already be running.*/
 309:.\Generated_Source\PSoC5/CyLib.c ****         ilo100KhzEnable = CY_LIB_SLOWCLK_ILO_CR0_REG & CY_LIB_SLOWCLK_ILO_CR0_EN_100KHZ;
 310:.\Generated_Source\PSoC5/CyLib.c ****         pmFtwCfg0Reg = CY_LIB_PM_TW_CFG0_REG;
 311:.\Generated_Source\PSoC5/CyLib.c ****         pmFtwCfg2Reg = CY_LIB_PM_TW_CFG2_REG;
 312:.\Generated_Source\PSoC5/CyLib.c **** 
 313:.\Generated_Source\PSoC5/CyLib.c ****         CyPmFtwSetInterval(CY_LIB_CLK_IMO_FTW_TIMEOUT);
 314:.\Generated_Source\PSoC5/CyLib.c **** 
 315:.\Generated_Source\PSoC5/CyLib.c ****         while (0u == (CY_PM_FTW_INT & CyPmReadStatus(CY_PM_FTW_INT)))
 316:.\Generated_Source\PSoC5/CyLib.c ****         {
 317:.\Generated_Source\PSoC5/CyLib.c ****             /* Wait for the interrupt status */
ARM GAS  C:\Users\MICHA_~1\AppData\Local\Temp\ccAOLfnb.s 			page 7


 318:.\Generated_Source\PSoC5/CyLib.c ****         }
 319:.\Generated_Source\PSoC5/CyLib.c **** 
 320:.\Generated_Source\PSoC5/CyLib.c ****         if(0u == ilo100KhzEnable)
 321:.\Generated_Source\PSoC5/CyLib.c ****         {
 322:.\Generated_Source\PSoC5/CyLib.c ****             CyILO_Stop100K();
 323:.\Generated_Source\PSoC5/CyLib.c ****         }
 324:.\Generated_Source\PSoC5/CyLib.c **** 
 325:.\Generated_Source\PSoC5/CyLib.c ****         CY_LIB_PM_TW_CFG0_REG = pmFtwCfg0Reg;
 326:.\Generated_Source\PSoC5/CyLib.c ****         CY_LIB_PM_TW_CFG2_REG = pmFtwCfg2Reg;
 327:.\Generated_Source\PSoC5/CyLib.c ****     }
 328:.\Generated_Source\PSoC5/CyLib.c **** }
 329:.\Generated_Source\PSoC5/CyLib.c **** 
 330:.\Generated_Source\PSoC5/CyLib.c **** 
 331:.\Generated_Source\PSoC5/CyLib.c **** /*******************************************************************************
 332:.\Generated_Source\PSoC5/CyLib.c **** * Function Name: CyIMO_Stop
 333:.\Generated_Source\PSoC5/CyLib.c **** ********************************************************************************
 334:.\Generated_Source\PSoC5/CyLib.c **** *
 335:.\Generated_Source\PSoC5/CyLib.c **** * Summary:
 336:.\Generated_Source\PSoC5/CyLib.c **** *   Disables the IMO.
 337:.\Generated_Source\PSoC5/CyLib.c **** *
 338:.\Generated_Source\PSoC5/CyLib.c **** * Parameters:
 339:.\Generated_Source\PSoC5/CyLib.c **** *  None
 340:.\Generated_Source\PSoC5/CyLib.c **** *
 341:.\Generated_Source\PSoC5/CyLib.c **** * Return:
 342:.\Generated_Source\PSoC5/CyLib.c **** *  None
 343:.\Generated_Source\PSoC5/CyLib.c **** *
 344:.\Generated_Source\PSoC5/CyLib.c **** *******************************************************************************/
 345:.\Generated_Source\PSoC5/CyLib.c **** void CyIMO_Stop(void) 
 346:.\Generated_Source\PSoC5/CyLib.c **** {
 347:.\Generated_Source\PSoC5/CyLib.c ****     CY_LIB_PM_ACT_CFG0_REG  &= ((uint8) (~CY_LIB_PM_ACT_CFG0_IMO_EN));
 348:.\Generated_Source\PSoC5/CyLib.c ****     CY_LIB_PM_STBY_CFG0_REG &= ((uint8) (~CY_LIB_PM_STBY_CFG0_IMO_EN));
 349:.\Generated_Source\PSoC5/CyLib.c **** }
 350:.\Generated_Source\PSoC5/CyLib.c **** 
 351:.\Generated_Source\PSoC5/CyLib.c **** 
 352:.\Generated_Source\PSoC5/CyLib.c **** /*******************************************************************************
 353:.\Generated_Source\PSoC5/CyLib.c **** * Function Name: CyUSB_PowerOnCheck
 354:.\Generated_Source\PSoC5/CyLib.c **** ********************************************************************************
 355:.\Generated_Source\PSoC5/CyLib.c **** *
 356:.\Generated_Source\PSoC5/CyLib.c **** * Summary:
 357:.\Generated_Source\PSoC5/CyLib.c **** *  Returns the USB power status value. A private function to cy_boot.
 358:.\Generated_Source\PSoC5/CyLib.c **** *
 359:.\Generated_Source\PSoC5/CyLib.c **** * Parameters:
 360:.\Generated_Source\PSoC5/CyLib.c **** *   None
 361:.\Generated_Source\PSoC5/CyLib.c **** *
 362:.\Generated_Source\PSoC5/CyLib.c **** * Return:
 363:.\Generated_Source\PSoC5/CyLib.c **** *   uint8: one if the USB is enabled, 0 if not enabled.
 364:.\Generated_Source\PSoC5/CyLib.c **** *
 365:.\Generated_Source\PSoC5/CyLib.c **** *******************************************************************************/
 366:.\Generated_Source\PSoC5/CyLib.c **** static uint8 CyUSB_PowerOnCheck(void)  
 367:.\Generated_Source\PSoC5/CyLib.c **** {
 368:.\Generated_Source\PSoC5/CyLib.c ****     uint8 poweredOn = 0u;
 369:.\Generated_Source\PSoC5/CyLib.c **** 
 370:.\Generated_Source\PSoC5/CyLib.c ****     /* Check whether device is in Active or AltActiv and if USB is powered on */
 371:.\Generated_Source\PSoC5/CyLib.c ****     if((((CY_PM_MODE_CSR_REG & CY_PM_MODE_CSR_MASK) == CY_PM_MODE_CSR_ACTIVE ) &&
 372:.\Generated_Source\PSoC5/CyLib.c ****        (0u != (CY_LIB_PM_ACT_CFG5_REG & CY_ACT_USB_ENABLED     )))  ||
 373:.\Generated_Source\PSoC5/CyLib.c ****        (((CY_PM_MODE_CSR_REG & CY_PM_MODE_CSR_MASK) == CY_PM_MODE_CSR_ALT_ACT) &&
 374:.\Generated_Source\PSoC5/CyLib.c ****        (0u != (CY_LIB_PM_STBY_CFG5_REG & CY_ALT_ACT_USB_ENABLED))))
ARM GAS  C:\Users\MICHA_~1\AppData\Local\Temp\ccAOLfnb.s 			page 8


 375:.\Generated_Source\PSoC5/CyLib.c ****     {
 376:.\Generated_Source\PSoC5/CyLib.c ****         poweredOn = 1u;
 377:.\Generated_Source\PSoC5/CyLib.c ****     }
 378:.\Generated_Source\PSoC5/CyLib.c **** 
 379:.\Generated_Source\PSoC5/CyLib.c ****     return (poweredOn);
 380:.\Generated_Source\PSoC5/CyLib.c **** }
 381:.\Generated_Source\PSoC5/CyLib.c **** 
 382:.\Generated_Source\PSoC5/CyLib.c **** 
 383:.\Generated_Source\PSoC5/CyLib.c **** /*******************************************************************************
 384:.\Generated_Source\PSoC5/CyLib.c **** * Function Name: CyIMO_SetTrimValue
 385:.\Generated_Source\PSoC5/CyLib.c **** ********************************************************************************
 386:.\Generated_Source\PSoC5/CyLib.c **** *
 387:.\Generated_Source\PSoC5/CyLib.c **** * Summary:
 388:.\Generated_Source\PSoC5/CyLib.c **** *  Sets the IMO factory trim values.
 389:.\Generated_Source\PSoC5/CyLib.c **** *
 390:.\Generated_Source\PSoC5/CyLib.c **** * Parameters:
 391:.\Generated_Source\PSoC5/CyLib.c **** *  uint8 freq - frequency for which trims must be set
 392:.\Generated_Source\PSoC5/CyLib.c **** *
 393:.\Generated_Source\PSoC5/CyLib.c **** * Return:
 394:.\Generated_Source\PSoC5/CyLib.c **** *  None
 395:.\Generated_Source\PSoC5/CyLib.c **** *
 396:.\Generated_Source\PSoC5/CyLib.c **** *******************************************************************************/
 397:.\Generated_Source\PSoC5/CyLib.c **** static void CyIMO_SetTrimValue(uint8 freq) 
 398:.\Generated_Source\PSoC5/CyLib.c **** {
  26              		.loc 1 398 0
  27              		.cfi_startproc
  28              		@ args = 0, pretend = 0, frame = 0
  29              		@ frame_needed = 0, uses_anonymous_args = 0
  30              		@ link register save eliminated.
  31              	.LVL0:
  32              	.LBB10:
  33              	.LBB11:
 371:.\Generated_Source\PSoC5/CyLib.c ****     if((((CY_PM_MODE_CSR_REG & CY_PM_MODE_CSR_MASK) == CY_PM_MODE_CSR_ACTIVE ) &&
  34              		.loc 1 371 0
  35 0000 204B     		ldr	r3, .L19
  36 0002 1978     		ldrb	r1, [r3, #0]	@ zero_extendqisi2
  37 0004 4A07     		lsls	r2, r1, #29
  38 0006 03D1     		bne	.L2
 372:.\Generated_Source\PSoC5/CyLib.c ****        (0u != (CY_LIB_PM_ACT_CFG5_REG & CY_ACT_USB_ENABLED     )))  ||
  39              		.loc 1 372 0
  40 0008 1F4A     		ldr	r2, .L19+4
  41 000a 1378     		ldrb	r3, [r2, #0]	@ zero_extendqisi2
 371:.\Generated_Source\PSoC5/CyLib.c ****     if((((CY_PM_MODE_CSR_REG & CY_PM_MODE_CSR_MASK) == CY_PM_MODE_CSR_ACTIVE ) &&
  42              		.loc 1 371 0
  43 000c DB07     		lsls	r3, r3, #31
  44 000e 30D4     		bmi	.L3
  45              	.L2:
 373:.\Generated_Source\PSoC5/CyLib.c ****        (((CY_PM_MODE_CSR_REG & CY_PM_MODE_CSR_MASK) == CY_PM_MODE_CSR_ALT_ACT) &&
  46              		.loc 1 373 0
  47 0010 1C49     		ldr	r1, .L19
  48 0012 0A78     		ldrb	r2, [r1, #0]	@ zero_extendqisi2
 372:.\Generated_Source\PSoC5/CyLib.c ****        (0u != (CY_LIB_PM_ACT_CFG5_REG & CY_ACT_USB_ENABLED     )))  ||
  49              		.loc 1 372 0
  50 0014 02F00703 		and	r3, r2, #7
  51 0018 012B     		cmp	r3, #1
  52 001a 05D1     		bne	.L15
 374:.\Generated_Source\PSoC5/CyLib.c ****        (0u != (CY_LIB_PM_STBY_CFG5_REG & CY_ALT_ACT_USB_ENABLED))))
ARM GAS  C:\Users\MICHA_~1\AppData\Local\Temp\ccAOLfnb.s 			page 9


  53              		.loc 1 374 0
  54 001c 1B49     		ldr	r1, .L19+8
  55 001e 0A78     		ldrb	r2, [r1, #0]	@ zero_extendqisi2
 373:.\Generated_Source\PSoC5/CyLib.c ****        (((CY_PM_MODE_CSR_REG & CY_PM_MODE_CSR_MASK) == CY_PM_MODE_CSR_ALT_ACT) &&
  56              		.loc 1 373 0
  57 0020 12F00103 		ands	r3, r2, #1
  58 0024 25D1     		bne	.L3
  59 0026 00E0     		b	.L4
  60              	.L15:
 372:.\Generated_Source\PSoC5/CyLib.c ****        (0u != (CY_LIB_PM_ACT_CFG5_REG & CY_ACT_USB_ENABLED     )))  ||
  61              		.loc 1 372 0
  62 0028 0023     		movs	r3, #0
  63              	.LVL1:
  64              	.L4:
  65              	.LBE11:
  66              	.LBE10:
 399:.\Generated_Source\PSoC5/CyLib.c ****     uint8 usbPowerOn = CyUSB_PowerOnCheck();
 400:.\Generated_Source\PSoC5/CyLib.c **** 
 401:.\Generated_Source\PSoC5/CyLib.c ****     /* If USB is powered */
 402:.\Generated_Source\PSoC5/CyLib.c ****     if(usbPowerOn == 1u)
 403:.\Generated_Source\PSoC5/CyLib.c ****     {
 404:.\Generated_Source\PSoC5/CyLib.c ****         /* Unlock USB write */
 405:.\Generated_Source\PSoC5/CyLib.c ****         CY_LIB_USB_CR1_REG &= ((uint8)(~CY_LIB_USB_CLK_EN));
 406:.\Generated_Source\PSoC5/CyLib.c ****     }
 407:.\Generated_Source\PSoC5/CyLib.c ****     switch(freq)
  67              		.loc 1 407 0
  68 002a 0828     		cmp	r0, #8
  69 002c 28D8     		bhi	.L1
  70 002e DFE800F0 		tbb	[pc, r0]
  71              	.L14:
  72 0032 05       		.byte	(.L6-.L14)/2
  73 0033 07       		.byte	(.L7-.L14)/2
  74 0034 09       		.byte	(.L8-.L14)/2
  75 0035 0B       		.byte	(.L9-.L14)/2
  76 0036 0D       		.byte	(.L10-.L14)/2
  77 0037 0F       		.byte	(.L11-.L14)/2
  78 0038 11       		.byte	(.L12-.L14)/2
  79 0039 27       		.byte	(.L1-.L14)/2
  80 003a 15       		.byte	(.L13-.L14)/2
  81 003b 00       		.align	1
  82              	.L6:
 408:.\Generated_Source\PSoC5/CyLib.c ****     {
 409:.\Generated_Source\PSoC5/CyLib.c ****     case CY_IMO_FREQ_3MHZ:
 410:.\Generated_Source\PSoC5/CyLib.c ****         CY_LIB_IMO_TR1_REG = CY_GET_XTND_REG8(CY_LIB_TRIM_IMO_3MHZ_PTR);
  83              		.loc 1 410 0
  84 003c 144A     		ldr	r2, .L19+12
  85 003e 0AE0     		b	.L17
  86              	.L7:
 411:.\Generated_Source\PSoC5/CyLib.c ****         break;
 412:.\Generated_Source\PSoC5/CyLib.c **** 
 413:.\Generated_Source\PSoC5/CyLib.c ****     case CY_IMO_FREQ_6MHZ:
 414:.\Generated_Source\PSoC5/CyLib.c ****         CY_LIB_IMO_TR1_REG = CY_GET_XTND_REG8(CY_LIB_TRIM_IMO_6MHZ_PTR);
  87              		.loc 1 414 0
  88 0040 144A     		ldr	r2, .L19+16
  89 0042 08E0     		b	.L17
  90              	.L8:
 415:.\Generated_Source\PSoC5/CyLib.c ****         break;
ARM GAS  C:\Users\MICHA_~1\AppData\Local\Temp\ccAOLfnb.s 			page 10


 416:.\Generated_Source\PSoC5/CyLib.c **** 
 417:.\Generated_Source\PSoC5/CyLib.c ****     case CY_IMO_FREQ_12MHZ:
 418:.\Generated_Source\PSoC5/CyLib.c ****         CY_LIB_IMO_TR1_REG = CY_GET_XTND_REG8(CY_LIB_TRIM_IMO_12MHZ_PTR);
  91              		.loc 1 418 0
  92 0044 144A     		ldr	r2, .L19+20
  93 0046 06E0     		b	.L17
  94              	.L9:
 419:.\Generated_Source\PSoC5/CyLib.c ****         break;
 420:.\Generated_Source\PSoC5/CyLib.c **** 
 421:.\Generated_Source\PSoC5/CyLib.c ****     case CY_IMO_FREQ_24MHZ:
 422:.\Generated_Source\PSoC5/CyLib.c ****         CY_LIB_IMO_TR1_REG = CY_GET_XTND_REG8(CY_LIB_TRIM_IMO_24MHZ_PTR);
  95              		.loc 1 422 0
  96 0048 144A     		ldr	r2, .L19+24
  97 004a 04E0     		b	.L17
  98              	.L10:
 423:.\Generated_Source\PSoC5/CyLib.c ****         break;
 424:.\Generated_Source\PSoC5/CyLib.c **** 
 425:.\Generated_Source\PSoC5/CyLib.c ****     case CY_IMO_FREQ_48MHZ:
 426:.\Generated_Source\PSoC5/CyLib.c ****         CY_LIB_IMO_TR1_REG = CY_GET_XTND_REG8(CY_LIB_TRIM_IMO_TR1_PTR);
  99              		.loc 1 426 0
 100 004c 144A     		ldr	r2, .L19+28
 101 004e 02E0     		b	.L17
 102              	.L11:
 427:.\Generated_Source\PSoC5/CyLib.c ****         break;
 428:.\Generated_Source\PSoC5/CyLib.c **** 
 429:.\Generated_Source\PSoC5/CyLib.c ****     case CY_IMO_FREQ_62MHZ:
 430:.\Generated_Source\PSoC5/CyLib.c ****         CY_LIB_IMO_TR1_REG = CY_GET_XTND_REG8(CY_LIB_TRIM_IMO_67MHZ_PTR);
 103              		.loc 1 430 0
 104 0050 144A     		ldr	r2, .L19+32
 105 0052 00E0     		b	.L17
 106              	.L12:
 431:.\Generated_Source\PSoC5/CyLib.c ****         break;
 432:.\Generated_Source\PSoC5/CyLib.c **** 
 433:.\Generated_Source\PSoC5/CyLib.c **** #if(CY_PSOC5)
 434:.\Generated_Source\PSoC5/CyLib.c ****     case CY_IMO_FREQ_74MHZ:
 435:.\Generated_Source\PSoC5/CyLib.c ****         CY_LIB_IMO_TR1_REG = CY_GET_XTND_REG8(CY_LIB_TRIM_IMO_80MHZ_PTR);
 107              		.loc 1 435 0
 108 0054 144A     		ldr	r2, .L19+36
 109              	.L17:
 110 0056 1178     		ldrb	r1, [r2, #0]	@ zero_extendqisi2
 111 0058 144B     		ldr	r3, .L19+40
 112 005a 08E0     		b	.L16
 113              	.L13:
 436:.\Generated_Source\PSoC5/CyLib.c ****         break;
 437:.\Generated_Source\PSoC5/CyLib.c **** #endif  /* (CY_PSOC5) */
 438:.\Generated_Source\PSoC5/CyLib.c **** 
 439:.\Generated_Source\PSoC5/CyLib.c ****     case CY_IMO_FREQ_USB:
 440:.\Generated_Source\PSoC5/CyLib.c ****         CY_LIB_IMO_TR1_REG = CY_GET_XTND_REG8(CY_LIB_TRIM_IMO_USB_PTR);
 114              		.loc 1 440 0
 115 005c 1448     		ldr	r0, .L19+44
 116              	.LVL2:
 117 005e 134A     		ldr	r2, .L19+40
 118 0060 0178     		ldrb	r1, [r0, #0]	@ zero_extendqisi2
 119 0062 1170     		strb	r1, [r2, #0]
 441:.\Generated_Source\PSoC5/CyLib.c **** 
 442:.\Generated_Source\PSoC5/CyLib.c ****         /* If USB is powered */
 443:.\Generated_Source\PSoC5/CyLib.c ****         if(usbPowerOn == 1u)
ARM GAS  C:\Users\MICHA_~1\AppData\Local\Temp\ccAOLfnb.s 			page 11


 120              		.loc 1 443 0
 121 0064 63B1     		cbz	r3, .L1
 444:.\Generated_Source\PSoC5/CyLib.c ****         {
 445:.\Generated_Source\PSoC5/CyLib.c ****             /* Lock the USB Oscillator */
 446:.\Generated_Source\PSoC5/CyLib.c ****             CY_LIB_USB_CR1_REG |= CY_LIB_USB_CLK_EN;
 122              		.loc 1 446 0
 123 0066 134B     		ldr	r3, .L19+48
 124 0068 1878     		ldrb	r0, [r3, #0]	@ zero_extendqisi2
 125 006a 40F00201 		orr	r1, r0, #2
 126              	.L16:
 127 006e 1970     		strb	r1, [r3, #0]
 128 0070 7047     		bx	lr
 129              	.LVL3:
 130              	.L3:
 405:.\Generated_Source\PSoC5/CyLib.c ****         CY_LIB_USB_CR1_REG &= ((uint8)(~CY_LIB_USB_CLK_EN));
 131              		.loc 1 405 0
 132 0072 104B     		ldr	r3, .L19+48
 133 0074 1978     		ldrb	r1, [r3, #0]	@ zero_extendqisi2
 134 0076 01F0FD02 		and	r2, r1, #253
 135 007a 1A70     		strb	r2, [r3, #0]
 136 007c 0123     		movs	r3, #1
 137 007e D4E7     		b	.L4
 138              	.LVL4:
 139              	.L1:
 140 0080 7047     		bx	lr
 141              	.L20:
 142 0082 00BF     		.align	2
 143              	.L19:
 144 0084 93430040 		.word	1073759123
 145 0088 A5430040 		.word	1073759141
 146 008c B5430040 		.word	1073759157
 147 0090 08010049 		.word	1224737032
 148 0094 09010049 		.word	1224737033
 149 0098 0A010049 		.word	1224737034
 150 009c 0B010049 		.word	1224737035
 151 00a0 89010049 		.word	1224737161
 152 00a4 0C010049 		.word	1224737036
 153 00a8 0D010049 		.word	1224737037
 154 00ac A1460040 		.word	1073759905
 155 00b0 0F010049 		.word	1224737039
 156 00b4 09600040 		.word	1073766409
 157              		.cfi_endproc
 158              	.LFE7:
 159              		.size	CyIMO_SetTrimValue, .-CyIMO_SetTrimValue
 160              		.section	.text.CyBusClk_Internal_SetDivider,"ax",%progbits
 161              		.align	1
 162              		.thumb
 163              		.thumb_func
 164              		.type	CyBusClk_Internal_SetDivider, %function
 165              	CyBusClk_Internal_SetDivider:
 166              	.LFB14:
 447:.\Generated_Source\PSoC5/CyLib.c ****         }
 448:.\Generated_Source\PSoC5/CyLib.c ****         break;
 449:.\Generated_Source\PSoC5/CyLib.c **** 
 450:.\Generated_Source\PSoC5/CyLib.c ****     default:
 451:.\Generated_Source\PSoC5/CyLib.c ****             CYASSERT(0u != 0u);
 452:.\Generated_Source\PSoC5/CyLib.c ****         break;
ARM GAS  C:\Users\MICHA_~1\AppData\Local\Temp\ccAOLfnb.s 			page 12


 453:.\Generated_Source\PSoC5/CyLib.c ****     }
 454:.\Generated_Source\PSoC5/CyLib.c **** 
 455:.\Generated_Source\PSoC5/CyLib.c **** }
 456:.\Generated_Source\PSoC5/CyLib.c **** 
 457:.\Generated_Source\PSoC5/CyLib.c **** 
 458:.\Generated_Source\PSoC5/CyLib.c **** /*******************************************************************************
 459:.\Generated_Source\PSoC5/CyLib.c **** * Function Name: CyIMO_SetFreq
 460:.\Generated_Source\PSoC5/CyLib.c **** ********************************************************************************
 461:.\Generated_Source\PSoC5/CyLib.c **** *
 462:.\Generated_Source\PSoC5/CyLib.c **** * Summary:
 463:.\Generated_Source\PSoC5/CyLib.c **** *  Sets the frequency of the IMO. Changes may be made while the IMO is running.
 464:.\Generated_Source\PSoC5/CyLib.c **** *
 465:.\Generated_Source\PSoC5/CyLib.c **** * Parameters:
 466:.\Generated_Source\PSoC5/CyLib.c **** *  freq: Frequency of IMO operation
 467:.\Generated_Source\PSoC5/CyLib.c **** *       CY_IMO_FREQ_3MHZ  to set  3   MHz
 468:.\Generated_Source\PSoC5/CyLib.c **** *       CY_IMO_FREQ_6MHZ  to set  6   MHz
 469:.\Generated_Source\PSoC5/CyLib.c **** *       CY_IMO_FREQ_12MHZ to set 12   MHz
 470:.\Generated_Source\PSoC5/CyLib.c **** *       CY_IMO_FREQ_24MHZ to set 24   MHz
 471:.\Generated_Source\PSoC5/CyLib.c **** *       CY_IMO_FREQ_48MHZ to set 48   MHz
 472:.\Generated_Source\PSoC5/CyLib.c **** *       CY_IMO_FREQ_62MHZ to set 62.6 MHz
 473:.\Generated_Source\PSoC5/CyLib.c **** *       CY_IMO_FREQ_74MHZ to set 74.7 MHz (not applicable for PSoC 3)
 474:.\Generated_Source\PSoC5/CyLib.c **** *       CY_IMO_FREQ_USB   to set 24   MHz (Trimmed for USB operation)
 475:.\Generated_Source\PSoC5/CyLib.c **** *
 476:.\Generated_Source\PSoC5/CyLib.c **** * Return:
 477:.\Generated_Source\PSoC5/CyLib.c **** *  None
 478:.\Generated_Source\PSoC5/CyLib.c **** *
 479:.\Generated_Source\PSoC5/CyLib.c **** * Side Effects:
 480:.\Generated_Source\PSoC5/CyLib.c **** *  If as result of this function execution the CPU clock frequency is increased
 481:.\Generated_Source\PSoC5/CyLib.c **** *  then the number of clock cycles the cache will wait before it samples data
 482:.\Generated_Source\PSoC5/CyLib.c **** *  coming back from Flash must be adjusted by calling CyFlash_SetWaitCycles()
 483:.\Generated_Source\PSoC5/CyLib.c **** *  with appropriate parameter. It can be optionally called if CPU clock
 484:.\Generated_Source\PSoC5/CyLib.c **** *  frequency is lowered in order to improve CPU performance.
 485:.\Generated_Source\PSoC5/CyLib.c **** *  See CyFlash_SetWaitCycles() description for more information.
 486:.\Generated_Source\PSoC5/CyLib.c **** *
 487:.\Generated_Source\PSoC5/CyLib.c **** *  When the USB setting is chosen, the USB clock locking circuit is enabled.
 488:.\Generated_Source\PSoC5/CyLib.c **** *  Otherwise this circuit is disabled. The USB block must be powered before
 489:.\Generated_Source\PSoC5/CyLib.c **** *  selecting the USB setting.
 490:.\Generated_Source\PSoC5/CyLib.c **** *
 491:.\Generated_Source\PSoC5/CyLib.c **** *******************************************************************************/
 492:.\Generated_Source\PSoC5/CyLib.c **** void CyIMO_SetFreq(uint8 freq) 
 493:.\Generated_Source\PSoC5/CyLib.c **** {
 494:.\Generated_Source\PSoC5/CyLib.c ****     uint8 currentFreq;
 495:.\Generated_Source\PSoC5/CyLib.c ****     uint8 nextFreq;
 496:.\Generated_Source\PSoC5/CyLib.c **** 
 497:.\Generated_Source\PSoC5/CyLib.c ****     /***************************************************************************
 498:.\Generated_Source\PSoC5/CyLib.c ****     * When changing the IMO frequency the Trim values must also be set
 499:.\Generated_Source\PSoC5/CyLib.c ****     * accordingly.This requires reading the current frequency. If the new
 500:.\Generated_Source\PSoC5/CyLib.c ****     * frequency is faster, then set the new trim and then change the frequency,
 501:.\Generated_Source\PSoC5/CyLib.c ****     * otherwise change the frequency and then set the new trim values.
 502:.\Generated_Source\PSoC5/CyLib.c ****     ***************************************************************************/
 503:.\Generated_Source\PSoC5/CyLib.c **** 
 504:.\Generated_Source\PSoC5/CyLib.c ****     currentFreq = CY_LIB_FASTCLK_IMO_CR_REG & ((uint8)(~CY_LIB_FASTCLK_IMO_CR_RANGE_MASK));
 505:.\Generated_Source\PSoC5/CyLib.c **** 
 506:.\Generated_Source\PSoC5/CyLib.c ****     /* Check if the requested frequency is USB. */
 507:.\Generated_Source\PSoC5/CyLib.c ****     nextFreq = (freq == CY_IMO_FREQ_USB) ? CY_IMO_FREQ_24MHZ : freq;
 508:.\Generated_Source\PSoC5/CyLib.c **** 
 509:.\Generated_Source\PSoC5/CyLib.c ****     switch (currentFreq)
ARM GAS  C:\Users\MICHA_~1\AppData\Local\Temp\ccAOLfnb.s 			page 13


 510:.\Generated_Source\PSoC5/CyLib.c ****     {
 511:.\Generated_Source\PSoC5/CyLib.c ****     case 0u:
 512:.\Generated_Source\PSoC5/CyLib.c ****         currentFreq = CY_IMO_FREQ_12MHZ;
 513:.\Generated_Source\PSoC5/CyLib.c ****         break;
 514:.\Generated_Source\PSoC5/CyLib.c **** 
 515:.\Generated_Source\PSoC5/CyLib.c ****     case 1u:
 516:.\Generated_Source\PSoC5/CyLib.c ****         currentFreq = CY_IMO_FREQ_6MHZ;
 517:.\Generated_Source\PSoC5/CyLib.c ****         break;
 518:.\Generated_Source\PSoC5/CyLib.c **** 
 519:.\Generated_Source\PSoC5/CyLib.c ****     case 2u:
 520:.\Generated_Source\PSoC5/CyLib.c ****         currentFreq = CY_IMO_FREQ_24MHZ;
 521:.\Generated_Source\PSoC5/CyLib.c ****         break;
 522:.\Generated_Source\PSoC5/CyLib.c **** 
 523:.\Generated_Source\PSoC5/CyLib.c ****     case 3u:
 524:.\Generated_Source\PSoC5/CyLib.c ****         currentFreq = CY_IMO_FREQ_3MHZ;
 525:.\Generated_Source\PSoC5/CyLib.c ****         break;
 526:.\Generated_Source\PSoC5/CyLib.c **** 
 527:.\Generated_Source\PSoC5/CyLib.c ****     case 4u:
 528:.\Generated_Source\PSoC5/CyLib.c ****         currentFreq = CY_IMO_FREQ_48MHZ;
 529:.\Generated_Source\PSoC5/CyLib.c ****         break;
 530:.\Generated_Source\PSoC5/CyLib.c **** 
 531:.\Generated_Source\PSoC5/CyLib.c ****     case 5u:
 532:.\Generated_Source\PSoC5/CyLib.c ****         currentFreq = CY_IMO_FREQ_62MHZ;
 533:.\Generated_Source\PSoC5/CyLib.c ****         break;
 534:.\Generated_Source\PSoC5/CyLib.c **** 
 535:.\Generated_Source\PSoC5/CyLib.c **** #if(CY_PSOC5)
 536:.\Generated_Source\PSoC5/CyLib.c ****     case 6u:
 537:.\Generated_Source\PSoC5/CyLib.c ****         currentFreq = CY_IMO_FREQ_74MHZ;
 538:.\Generated_Source\PSoC5/CyLib.c ****         break;
 539:.\Generated_Source\PSoC5/CyLib.c **** #endif  /* (CY_PSOC5) */
 540:.\Generated_Source\PSoC5/CyLib.c **** 
 541:.\Generated_Source\PSoC5/CyLib.c ****     default:
 542:.\Generated_Source\PSoC5/CyLib.c ****         CYASSERT(0u != 0u);
 543:.\Generated_Source\PSoC5/CyLib.c ****         break;
 544:.\Generated_Source\PSoC5/CyLib.c ****     }
 545:.\Generated_Source\PSoC5/CyLib.c **** 
 546:.\Generated_Source\PSoC5/CyLib.c ****     if (nextFreq >= currentFreq)
 547:.\Generated_Source\PSoC5/CyLib.c ****     {
 548:.\Generated_Source\PSoC5/CyLib.c ****         /* Set the new trim first */
 549:.\Generated_Source\PSoC5/CyLib.c ****         CyIMO_SetTrimValue(freq);
 550:.\Generated_Source\PSoC5/CyLib.c ****     }
 551:.\Generated_Source\PSoC5/CyLib.c **** 
 552:.\Generated_Source\PSoC5/CyLib.c ****     /* Set the usbclk_on bit when using CY_IMO_FREQ_USB, if not clear it */
 553:.\Generated_Source\PSoC5/CyLib.c ****     switch(freq)
 554:.\Generated_Source\PSoC5/CyLib.c ****     {
 555:.\Generated_Source\PSoC5/CyLib.c ****     case CY_IMO_FREQ_3MHZ:
 556:.\Generated_Source\PSoC5/CyLib.c ****         CY_LIB_FASTCLK_IMO_CR_REG = ((CY_LIB_FASTCLK_IMO_CR_REG & CY_LIB_FASTCLK_IMO_CR_RANGE_MASK)
 557:.\Generated_Source\PSoC5/CyLib.c ****             CY_LIB_IMO_3MHZ_VALUE) & ((uint8)(~CY_LIB_IMO_USBCLK_ON_SET));
 558:.\Generated_Source\PSoC5/CyLib.c ****         break;
 559:.\Generated_Source\PSoC5/CyLib.c **** 
 560:.\Generated_Source\PSoC5/CyLib.c ****     case CY_IMO_FREQ_6MHZ:
 561:.\Generated_Source\PSoC5/CyLib.c ****         CY_LIB_FASTCLK_IMO_CR_REG = ((CY_LIB_FASTCLK_IMO_CR_REG & CY_LIB_FASTCLK_IMO_CR_RANGE_MASK)
 562:.\Generated_Source\PSoC5/CyLib.c ****             CY_LIB_IMO_6MHZ_VALUE) & ((uint8)(~CY_LIB_IMO_USBCLK_ON_SET));
 563:.\Generated_Source\PSoC5/CyLib.c ****         break;
 564:.\Generated_Source\PSoC5/CyLib.c **** 
 565:.\Generated_Source\PSoC5/CyLib.c ****     case CY_IMO_FREQ_12MHZ:
 566:.\Generated_Source\PSoC5/CyLib.c ****         CY_LIB_FASTCLK_IMO_CR_REG = ((CY_LIB_FASTCLK_IMO_CR_REG & CY_LIB_FASTCLK_IMO_CR_RANGE_MASK)
ARM GAS  C:\Users\MICHA_~1\AppData\Local\Temp\ccAOLfnb.s 			page 14


 567:.\Generated_Source\PSoC5/CyLib.c ****             CY_LIB_IMO_12MHZ_VALUE) & ((uint8)(~CY_LIB_IMO_USBCLK_ON_SET));
 568:.\Generated_Source\PSoC5/CyLib.c ****         break;
 569:.\Generated_Source\PSoC5/CyLib.c **** 
 570:.\Generated_Source\PSoC5/CyLib.c ****     case CY_IMO_FREQ_24MHZ:
 571:.\Generated_Source\PSoC5/CyLib.c ****         CY_LIB_FASTCLK_IMO_CR_REG = ((CY_LIB_FASTCLK_IMO_CR_REG & CY_LIB_FASTCLK_IMO_CR_RANGE_MASK)
 572:.\Generated_Source\PSoC5/CyLib.c ****             CY_LIB_IMO_24MHZ_VALUE) & ((uint8)(~CY_LIB_IMO_USBCLK_ON_SET));
 573:.\Generated_Source\PSoC5/CyLib.c ****         break;
 574:.\Generated_Source\PSoC5/CyLib.c **** 
 575:.\Generated_Source\PSoC5/CyLib.c ****     case CY_IMO_FREQ_48MHZ:
 576:.\Generated_Source\PSoC5/CyLib.c ****         CY_LIB_FASTCLK_IMO_CR_REG = ((CY_LIB_FASTCLK_IMO_CR_REG & CY_LIB_FASTCLK_IMO_CR_RANGE_MASK)
 577:.\Generated_Source\PSoC5/CyLib.c ****             CY_LIB_IMO_48MHZ_VALUE) & ((uint8)(~CY_LIB_IMO_USBCLK_ON_SET));
 578:.\Generated_Source\PSoC5/CyLib.c ****         break;
 579:.\Generated_Source\PSoC5/CyLib.c **** 
 580:.\Generated_Source\PSoC5/CyLib.c ****     case CY_IMO_FREQ_62MHZ:
 581:.\Generated_Source\PSoC5/CyLib.c ****         CY_LIB_FASTCLK_IMO_CR_REG = ((CY_LIB_FASTCLK_IMO_CR_REG & CY_LIB_FASTCLK_IMO_CR_RANGE_MASK)
 582:.\Generated_Source\PSoC5/CyLib.c ****             CY_LIB_IMO_62MHZ_VALUE) & ((uint8)(~CY_LIB_IMO_USBCLK_ON_SET));
 583:.\Generated_Source\PSoC5/CyLib.c ****         break;
 584:.\Generated_Source\PSoC5/CyLib.c **** 
 585:.\Generated_Source\PSoC5/CyLib.c **** #if(CY_PSOC5)
 586:.\Generated_Source\PSoC5/CyLib.c ****     case CY_IMO_FREQ_74MHZ:
 587:.\Generated_Source\PSoC5/CyLib.c ****         CY_LIB_FASTCLK_IMO_CR_REG = ((CY_LIB_FASTCLK_IMO_CR_REG & CY_LIB_FASTCLK_IMO_CR_RANGE_MASK)
 588:.\Generated_Source\PSoC5/CyLib.c ****             CY_LIB_IMO_74MHZ_VALUE) & ((uint8)(~CY_LIB_IMO_USBCLK_ON_SET));
 589:.\Generated_Source\PSoC5/CyLib.c ****         break;
 590:.\Generated_Source\PSoC5/CyLib.c **** #endif  /* (CY_PSOC5) */
 591:.\Generated_Source\PSoC5/CyLib.c **** 
 592:.\Generated_Source\PSoC5/CyLib.c ****     case CY_IMO_FREQ_USB:
 593:.\Generated_Source\PSoC5/CyLib.c ****         CY_LIB_FASTCLK_IMO_CR_REG = ((CY_LIB_FASTCLK_IMO_CR_REG & CY_LIB_FASTCLK_IMO_CR_RANGE_MASK)
 594:.\Generated_Source\PSoC5/CyLib.c ****             CY_LIB_IMO_24MHZ_VALUE) | CY_LIB_IMO_USBCLK_ON_SET;
 595:.\Generated_Source\PSoC5/CyLib.c ****         break;
 596:.\Generated_Source\PSoC5/CyLib.c **** 
 597:.\Generated_Source\PSoC5/CyLib.c ****     default:
 598:.\Generated_Source\PSoC5/CyLib.c ****         CYASSERT(0u != 0u);
 599:.\Generated_Source\PSoC5/CyLib.c ****         break;
 600:.\Generated_Source\PSoC5/CyLib.c ****     }
 601:.\Generated_Source\PSoC5/CyLib.c **** 
 602:.\Generated_Source\PSoC5/CyLib.c ****     /* Turn on the IMO Doubler, if switching to CY_IMO_FREQ_USB */
 603:.\Generated_Source\PSoC5/CyLib.c ****     if (freq == CY_IMO_FREQ_USB)
 604:.\Generated_Source\PSoC5/CyLib.c ****     {
 605:.\Generated_Source\PSoC5/CyLib.c ****         CyIMO_EnableDoubler();
 606:.\Generated_Source\PSoC5/CyLib.c ****     }
 607:.\Generated_Source\PSoC5/CyLib.c ****     else
 608:.\Generated_Source\PSoC5/CyLib.c ****     {
 609:.\Generated_Source\PSoC5/CyLib.c ****         CyIMO_DisableDoubler();
 610:.\Generated_Source\PSoC5/CyLib.c ****     }
 611:.\Generated_Source\PSoC5/CyLib.c **** 
 612:.\Generated_Source\PSoC5/CyLib.c ****     if (nextFreq < currentFreq)
 613:.\Generated_Source\PSoC5/CyLib.c ****     {
 614:.\Generated_Source\PSoC5/CyLib.c ****         /* Set the new trim after setting the frequency */
 615:.\Generated_Source\PSoC5/CyLib.c ****         CyIMO_SetTrimValue(freq);
 616:.\Generated_Source\PSoC5/CyLib.c ****     }
 617:.\Generated_Source\PSoC5/CyLib.c **** }
 618:.\Generated_Source\PSoC5/CyLib.c **** 
 619:.\Generated_Source\PSoC5/CyLib.c **** 
 620:.\Generated_Source\PSoC5/CyLib.c **** /*******************************************************************************
 621:.\Generated_Source\PSoC5/CyLib.c **** * Function Name: CyIMO_SetSource
 622:.\Generated_Source\PSoC5/CyLib.c **** ********************************************************************************
 623:.\Generated_Source\PSoC5/CyLib.c **** *
ARM GAS  C:\Users\MICHA_~1\AppData\Local\Temp\ccAOLfnb.s 			page 15


 624:.\Generated_Source\PSoC5/CyLib.c **** * Summary:
 625:.\Generated_Source\PSoC5/CyLib.c **** *  Sets the source of the clock output from the IMO block.
 626:.\Generated_Source\PSoC5/CyLib.c **** *
 627:.\Generated_Source\PSoC5/CyLib.c **** *  The output from the IMO is by default the IMO itself. Optionally the MHz
 628:.\Generated_Source\PSoC5/CyLib.c **** *  Crystal or a DSI input can be the source of the IMO output instead.
 629:.\Generated_Source\PSoC5/CyLib.c **** *
 630:.\Generated_Source\PSoC5/CyLib.c **** * Parameters:
 631:.\Generated_Source\PSoC5/CyLib.c **** *   source: CY_IMO_SOURCE_DSI to set the DSI as source.
 632:.\Generated_Source\PSoC5/CyLib.c **** *           CY_IMO_SOURCE_XTAL to set the MHz as source.
 633:.\Generated_Source\PSoC5/CyLib.c **** *           CY_IMO_SOURCE_IMO to set the IMO itself.
 634:.\Generated_Source\PSoC5/CyLib.c **** *
 635:.\Generated_Source\PSoC5/CyLib.c **** * Return:
 636:.\Generated_Source\PSoC5/CyLib.c **** *  None
 637:.\Generated_Source\PSoC5/CyLib.c **** *
 638:.\Generated_Source\PSoC5/CyLib.c **** * Side Effects:
 639:.\Generated_Source\PSoC5/CyLib.c **** *  If as result of this function execution the CPU clock frequency is increased
 640:.\Generated_Source\PSoC5/CyLib.c **** *  then the number of clock cycles the cache will wait before it samples data
 641:.\Generated_Source\PSoC5/CyLib.c **** *  coming back from Flash must be adjusted by calling CyFlash_SetWaitCycles()
 642:.\Generated_Source\PSoC5/CyLib.c **** *  with appropriate parameter. It can be optionally called if CPU clock
 643:.\Generated_Source\PSoC5/CyLib.c **** *  frequency is lowered in order to improve CPU performance.
 644:.\Generated_Source\PSoC5/CyLib.c **** *  See CyFlash_SetWaitCycles() description for more information.
 645:.\Generated_Source\PSoC5/CyLib.c **** *
 646:.\Generated_Source\PSoC5/CyLib.c **** *******************************************************************************/
 647:.\Generated_Source\PSoC5/CyLib.c **** void CyIMO_SetSource(uint8 source) 
 648:.\Generated_Source\PSoC5/CyLib.c **** {
 649:.\Generated_Source\PSoC5/CyLib.c ****     switch(source)
 650:.\Generated_Source\PSoC5/CyLib.c ****     {
 651:.\Generated_Source\PSoC5/CyLib.c ****     case CY_IMO_SOURCE_DSI:
 652:.\Generated_Source\PSoC5/CyLib.c ****         CY_LIB_CLKDIST_CR_REG     &= ((uint8)(~CY_LIB_CLKDIST_CR_IMO2X));
 653:.\Generated_Source\PSoC5/CyLib.c ****         CY_LIB_FASTCLK_IMO_CR_REG |= CY_LIB_FASTCLK_IMO_IMO;
 654:.\Generated_Source\PSoC5/CyLib.c ****         break;
 655:.\Generated_Source\PSoC5/CyLib.c **** 
 656:.\Generated_Source\PSoC5/CyLib.c ****     case CY_IMO_SOURCE_XTAL:
 657:.\Generated_Source\PSoC5/CyLib.c ****         CY_LIB_CLKDIST_CR_REG     |= CY_LIB_CLKDIST_CR_IMO2X;
 658:.\Generated_Source\PSoC5/CyLib.c ****         CY_LIB_FASTCLK_IMO_CR_REG |= CY_LIB_FASTCLK_IMO_IMO;
 659:.\Generated_Source\PSoC5/CyLib.c ****         break;
 660:.\Generated_Source\PSoC5/CyLib.c **** 
 661:.\Generated_Source\PSoC5/CyLib.c ****     case CY_IMO_SOURCE_IMO:
 662:.\Generated_Source\PSoC5/CyLib.c ****         CY_LIB_FASTCLK_IMO_CR_REG &= ((uint8)(~CY_LIB_FASTCLK_IMO_IMO));
 663:.\Generated_Source\PSoC5/CyLib.c ****         break;
 664:.\Generated_Source\PSoC5/CyLib.c **** 
 665:.\Generated_Source\PSoC5/CyLib.c ****     default:
 666:.\Generated_Source\PSoC5/CyLib.c ****         /* Incorrect source value */
 667:.\Generated_Source\PSoC5/CyLib.c ****         CYASSERT(0u != 0u);
 668:.\Generated_Source\PSoC5/CyLib.c ****         break;
 669:.\Generated_Source\PSoC5/CyLib.c ****     }
 670:.\Generated_Source\PSoC5/CyLib.c **** }
 671:.\Generated_Source\PSoC5/CyLib.c **** 
 672:.\Generated_Source\PSoC5/CyLib.c **** 
 673:.\Generated_Source\PSoC5/CyLib.c **** /*******************************************************************************
 674:.\Generated_Source\PSoC5/CyLib.c **** * Function Name: CyIMO_EnableDoubler
 675:.\Generated_Source\PSoC5/CyLib.c **** ********************************************************************************
 676:.\Generated_Source\PSoC5/CyLib.c **** *
 677:.\Generated_Source\PSoC5/CyLib.c **** * Summary:
 678:.\Generated_Source\PSoC5/CyLib.c **** *  Enables the IMO doubler.  The 2x frequency clock is used to convert a 24 MHz
 679:.\Generated_Source\PSoC5/CyLib.c **** *  input to a 48 MHz output for use by the USB block.
 680:.\Generated_Source\PSoC5/CyLib.c **** *
ARM GAS  C:\Users\MICHA_~1\AppData\Local\Temp\ccAOLfnb.s 			page 16


 681:.\Generated_Source\PSoC5/CyLib.c **** * Parameters:
 682:.\Generated_Source\PSoC5/CyLib.c **** *  None
 683:.\Generated_Source\PSoC5/CyLib.c **** *
 684:.\Generated_Source\PSoC5/CyLib.c **** * Return:
 685:.\Generated_Source\PSoC5/CyLib.c **** *  None
 686:.\Generated_Source\PSoC5/CyLib.c **** *
 687:.\Generated_Source\PSoC5/CyLib.c **** *******************************************************************************/
 688:.\Generated_Source\PSoC5/CyLib.c **** void CyIMO_EnableDoubler(void) 
 689:.\Generated_Source\PSoC5/CyLib.c **** {
 690:.\Generated_Source\PSoC5/CyLib.c ****     /* Set the FASTCLK_IMO_CR_PTR regigster's 4th bit */
 691:.\Generated_Source\PSoC5/CyLib.c ****     CY_LIB_FASTCLK_IMO_CR_REG |= CY_LIB_FASTCLK_IMO_DOUBLER;
 692:.\Generated_Source\PSoC5/CyLib.c **** }
 693:.\Generated_Source\PSoC5/CyLib.c **** 
 694:.\Generated_Source\PSoC5/CyLib.c **** 
 695:.\Generated_Source\PSoC5/CyLib.c **** /*******************************************************************************
 696:.\Generated_Source\PSoC5/CyLib.c **** * Function Name: CyIMO_DisableDoubler
 697:.\Generated_Source\PSoC5/CyLib.c **** ********************************************************************************
 698:.\Generated_Source\PSoC5/CyLib.c **** *
 699:.\Generated_Source\PSoC5/CyLib.c **** * Summary:
 700:.\Generated_Source\PSoC5/CyLib.c **** *   Disables the IMO doubler.
 701:.\Generated_Source\PSoC5/CyLib.c **** *
 702:.\Generated_Source\PSoC5/CyLib.c **** * Parameters:
 703:.\Generated_Source\PSoC5/CyLib.c **** *  None
 704:.\Generated_Source\PSoC5/CyLib.c **** *
 705:.\Generated_Source\PSoC5/CyLib.c **** * Return:
 706:.\Generated_Source\PSoC5/CyLib.c **** *  None
 707:.\Generated_Source\PSoC5/CyLib.c **** *
 708:.\Generated_Source\PSoC5/CyLib.c **** *******************************************************************************/
 709:.\Generated_Source\PSoC5/CyLib.c **** void CyIMO_DisableDoubler(void) 
 710:.\Generated_Source\PSoC5/CyLib.c **** {
 711:.\Generated_Source\PSoC5/CyLib.c ****     CY_LIB_FASTCLK_IMO_CR_REG &= ((uint8)(~CY_LIB_FASTCLK_IMO_DOUBLER));
 712:.\Generated_Source\PSoC5/CyLib.c **** }
 713:.\Generated_Source\PSoC5/CyLib.c **** 
 714:.\Generated_Source\PSoC5/CyLib.c **** 
 715:.\Generated_Source\PSoC5/CyLib.c **** /*******************************************************************************
 716:.\Generated_Source\PSoC5/CyLib.c **** * Function Name: CyMasterClk_SetSource
 717:.\Generated_Source\PSoC5/CyLib.c **** ********************************************************************************
 718:.\Generated_Source\PSoC5/CyLib.c **** *
 719:.\Generated_Source\PSoC5/CyLib.c **** * Summary:
 720:.\Generated_Source\PSoC5/CyLib.c **** *  Sets the source of the master clock.
 721:.\Generated_Source\PSoC5/CyLib.c **** *
 722:.\Generated_Source\PSoC5/CyLib.c **** * Parameters:
 723:.\Generated_Source\PSoC5/CyLib.c **** *   source: One of the four available Master clock sources.
 724:.\Generated_Source\PSoC5/CyLib.c **** *     CY_MASTER_SOURCE_IMO
 725:.\Generated_Source\PSoC5/CyLib.c **** *     CY_MASTER_SOURCE_PLL
 726:.\Generated_Source\PSoC5/CyLib.c **** *     CY_MASTER_SOURCE_XTAL
 727:.\Generated_Source\PSoC5/CyLib.c **** *     CY_MASTER_SOURCE_DSI
 728:.\Generated_Source\PSoC5/CyLib.c **** *
 729:.\Generated_Source\PSoC5/CyLib.c **** * Return:
 730:.\Generated_Source\PSoC5/CyLib.c **** *  None
 731:.\Generated_Source\PSoC5/CyLib.c **** *
 732:.\Generated_Source\PSoC5/CyLib.c **** * Side Effects:
 733:.\Generated_Source\PSoC5/CyLib.c **** *  The current source and the new source must both be running and stable before
 734:.\Generated_Source\PSoC5/CyLib.c **** *  calling this function.
 735:.\Generated_Source\PSoC5/CyLib.c **** *
 736:.\Generated_Source\PSoC5/CyLib.c **** *  If as result of this function execution the CPU clock frequency is increased
 737:.\Generated_Source\PSoC5/CyLib.c **** *  then the number of clock cycles the cache will wait before it samples data
ARM GAS  C:\Users\MICHA_~1\AppData\Local\Temp\ccAOLfnb.s 			page 17


 738:.\Generated_Source\PSoC5/CyLib.c **** *  coming back from Flash must be adjusted by calling CyFlash_SetWaitCycles()
 739:.\Generated_Source\PSoC5/CyLib.c **** *  with appropriate parameter. It can be optionally called if CPU clock
 740:.\Generated_Source\PSoC5/CyLib.c **** *  frequency is lowered in order to improve CPU performance.
 741:.\Generated_Source\PSoC5/CyLib.c **** *  See CyFlash_SetWaitCycles() description for more information.
 742:.\Generated_Source\PSoC5/CyLib.c **** *
 743:.\Generated_Source\PSoC5/CyLib.c **** *******************************************************************************/
 744:.\Generated_Source\PSoC5/CyLib.c **** void CyMasterClk_SetSource(uint8 source) 
 745:.\Generated_Source\PSoC5/CyLib.c **** {
 746:.\Generated_Source\PSoC5/CyLib.c ****     CY_LIB_CLKDIST_MSTR1_REG = (CY_LIB_CLKDIST_MSTR1_REG & MASTER_CLK_SRC_CLEAR) |
 747:.\Generated_Source\PSoC5/CyLib.c ****                                 (source & ((uint8)(~MASTER_CLK_SRC_CLEAR)));
 748:.\Generated_Source\PSoC5/CyLib.c **** }
 749:.\Generated_Source\PSoC5/CyLib.c **** 
 750:.\Generated_Source\PSoC5/CyLib.c **** 
 751:.\Generated_Source\PSoC5/CyLib.c **** /*******************************************************************************
 752:.\Generated_Source\PSoC5/CyLib.c **** * Function Name: CyMasterClk_SetDivider
 753:.\Generated_Source\PSoC5/CyLib.c **** ********************************************************************************
 754:.\Generated_Source\PSoC5/CyLib.c **** *
 755:.\Generated_Source\PSoC5/CyLib.c **** * Summary:
 756:.\Generated_Source\PSoC5/CyLib.c **** *  Sets the divider value used to generate Master Clock.
 757:.\Generated_Source\PSoC5/CyLib.c **** *
 758:.\Generated_Source\PSoC5/CyLib.c **** * Parameters:
 759:.\Generated_Source\PSoC5/CyLib.c **** *  uint8 divider:
 760:.\Generated_Source\PSoC5/CyLib.c **** *   Valid range [0-255]. The clock will be divided by this value + 1.
 761:.\Generated_Source\PSoC5/CyLib.c **** *   For example to divide by 2 this parameter should be set to 1.
 762:.\Generated_Source\PSoC5/CyLib.c **** *
 763:.\Generated_Source\PSoC5/CyLib.c **** * Return:
 764:.\Generated_Source\PSoC5/CyLib.c **** *  None
 765:.\Generated_Source\PSoC5/CyLib.c **** *
 766:.\Generated_Source\PSoC5/CyLib.c **** * Side Effects:
 767:.\Generated_Source\PSoC5/CyLib.c **** *  If as result of this function execution the CPU clock frequency is increased
 768:.\Generated_Source\PSoC5/CyLib.c **** *  then the number of clock cycles the cache will wait before it samples data
 769:.\Generated_Source\PSoC5/CyLib.c **** *  coming back from Flash must be adjusted by calling CyFlash_SetWaitCycles()
 770:.\Generated_Source\PSoC5/CyLib.c **** *  with appropriate parameter. It can be optionally called if CPU clock
 771:.\Generated_Source\PSoC5/CyLib.c **** *  frequency is lowered in order to improve CPU performance.
 772:.\Generated_Source\PSoC5/CyLib.c **** *  See CyFlash_SetWaitCycles() description for more information.
 773:.\Generated_Source\PSoC5/CyLib.c **** *
 774:.\Generated_Source\PSoC5/CyLib.c **** *  When changing the Master or Bus clock divider value from div-by-n to div-by-1
 775:.\Generated_Source\PSoC5/CyLib.c **** *  the first clock cycle output after the div-by-1 can be up to 4 ns shorter
 776:.\Generated_Source\PSoC5/CyLib.c **** *  than the final/expected div-by-1 period.
 777:.\Generated_Source\PSoC5/CyLib.c **** *
 778:.\Generated_Source\PSoC5/CyLib.c **** *******************************************************************************/
 779:.\Generated_Source\PSoC5/CyLib.c **** void CyMasterClk_SetDivider(uint8 divider) 
 780:.\Generated_Source\PSoC5/CyLib.c **** {
 781:.\Generated_Source\PSoC5/CyLib.c ****     CY_LIB_CLKDIST_MSTR0_REG = divider;
 782:.\Generated_Source\PSoC5/CyLib.c **** }
 783:.\Generated_Source\PSoC5/CyLib.c **** 
 784:.\Generated_Source\PSoC5/CyLib.c **** 
 785:.\Generated_Source\PSoC5/CyLib.c **** /*******************************************************************************
 786:.\Generated_Source\PSoC5/CyLib.c **** * Function Name: CyBusClk_Internal_SetDivider
 787:.\Generated_Source\PSoC5/CyLib.c **** ********************************************************************************
 788:.\Generated_Source\PSoC5/CyLib.c **** *
 789:.\Generated_Source\PSoC5/CyLib.c **** * Summary:
 790:.\Generated_Source\PSoC5/CyLib.c **** *  Function used by CyBusClk_SetDivider(). For internal use only.
 791:.\Generated_Source\PSoC5/CyLib.c **** *
 792:.\Generated_Source\PSoC5/CyLib.c **** * Parameters:
 793:.\Generated_Source\PSoC5/CyLib.c **** *   divider: Valid range [0-65535].
 794:.\Generated_Source\PSoC5/CyLib.c **** *   The clock will be divided by this value + 1.
ARM GAS  C:\Users\MICHA_~1\AppData\Local\Temp\ccAOLfnb.s 			page 18


 795:.\Generated_Source\PSoC5/CyLib.c **** *   For example to divide by 2 this parameter should be set to 1.
 796:.\Generated_Source\PSoC5/CyLib.c **** *
 797:.\Generated_Source\PSoC5/CyLib.c **** * Return:
 798:.\Generated_Source\PSoC5/CyLib.c **** *  None
 799:.\Generated_Source\PSoC5/CyLib.c **** *
 800:.\Generated_Source\PSoC5/CyLib.c **** *******************************************************************************/
 801:.\Generated_Source\PSoC5/CyLib.c **** static void CyBusClk_Internal_SetDivider(uint16 divider)
 802:.\Generated_Source\PSoC5/CyLib.c **** {
 167              		.loc 1 802 0
 168              		.cfi_startproc
 169              		@ args = 0, pretend = 0, frame = 0
 170              		@ frame_needed = 0, uses_anonymous_args = 0
 171              		@ link register save eliminated.
 172              	.LVL5:
 803:.\Generated_Source\PSoC5/CyLib.c ****     /* Mask bits to enable shadow loads  */
 804:.\Generated_Source\PSoC5/CyLib.c ****     CY_LIB_CLKDIST_AMASK_REG &= CY_LIB_CLKDIST_AMASK_MASK;
 173              		.loc 1 804 0
 174 0000 0D4B     		ldr	r3, .L22
 175 0002 1A78     		ldrb	r2, [r3, #0]	@ zero_extendqisi2
 176 0004 02F0F001 		and	r1, r2, #240
 805:.\Generated_Source\PSoC5/CyLib.c ****     CY_LIB_CLKDIST_DMASK_REG  = CY_LIB_CLKDIST_DMASK_MASK;
 177              		.loc 1 805 0
 178 0008 0022     		movs	r2, #0
 804:.\Generated_Source\PSoC5/CyLib.c ****     CY_LIB_CLKDIST_AMASK_REG &= CY_LIB_CLKDIST_AMASK_MASK;
 179              		.loc 1 804 0
 180 000a 1970     		strb	r1, [r3, #0]
 181              		.loc 1 805 0
 182 000c 03F8042C 		strb	r2, [r3, #-4]
 806:.\Generated_Source\PSoC5/CyLib.c **** 
 807:.\Generated_Source\PSoC5/CyLib.c ****     /* Enable mask bits to enable shadow loads */
 808:.\Generated_Source\PSoC5/CyLib.c ****     CY_LIB_CLKDIST_BCFG2_REG |= CY_LIB_CLKDIST_BCFG2_MASK;
 183              		.loc 1 808 0
 184 0010 13F80C1C 		ldrb	r1, [r3, #-12]	@ zero_extendqisi2
 185 0014 41F08002 		orr	r2, r1, #128
 809:.\Generated_Source\PSoC5/CyLib.c **** 
 810:.\Generated_Source\PSoC5/CyLib.c ****     /* Update Shadow Divider Value Register with the new divider */
 811:.\Generated_Source\PSoC5/CyLib.c ****     CY_LIB_CLKDIST_WRK_LSB_REG = LO8(divider);
 186              		.loc 1 811 0
 187 0018 C1B2     		uxtb	r1, r0
 812:.\Generated_Source\PSoC5/CyLib.c ****     CY_LIB_CLKDIST_WRK_MSB_REG = HI8(divider);
 188              		.loc 1 812 0
 189 001a 000A     		lsrs	r0, r0, #8
 190              	.LVL6:
 808:.\Generated_Source\PSoC5/CyLib.c ****     CY_LIB_CLKDIST_BCFG2_REG |= CY_LIB_CLKDIST_BCFG2_MASK;
 191              		.loc 1 808 0
 192 001c 03F80C2C 		strb	r2, [r3, #-12]
 811:.\Generated_Source\PSoC5/CyLib.c ****     CY_LIB_CLKDIST_WRK_LSB_REG = LO8(divider);
 193              		.loc 1 811 0
 194 0020 03F8121C 		strb	r1, [r3, #-18]
 195              		.loc 1 812 0
 196 0024 03F8110C 		strb	r0, [r3, #-17]
 813:.\Generated_Source\PSoC5/CyLib.c **** 
 814:.\Generated_Source\PSoC5/CyLib.c **** 
 815:.\Generated_Source\PSoC5/CyLib.c ****     /***************************************************************************
 816:.\Generated_Source\PSoC5/CyLib.c ****     * Copy shadow value defined in Shadow Divider Value Register
 817:.\Generated_Source\PSoC5/CyLib.c ****     * (CY_LIB_CLKDIST_WRK_LSB_REG and CY_LIB_CLKDIST_WRK_MSB_REG) to all
 818:.\Generated_Source\PSoC5/CyLib.c ****     * dividers selected in Analog and Digital Clock Mask Registers
ARM GAS  C:\Users\MICHA_~1\AppData\Local\Temp\ccAOLfnb.s 			page 19


 819:.\Generated_Source\PSoC5/CyLib.c ****     * (CY_LIB_CLKDIST_AMASK_REG and CY_LIB_CLKDIST_DMASK_REG).
 820:.\Generated_Source\PSoC5/CyLib.c ****     ***************************************************************************/
 821:.\Generated_Source\PSoC5/CyLib.c ****     CY_LIB_CLKDIST_LD_REG |= CY_LIB_CLKDIST_LD_LOAD;
 197              		.loc 1 821 0
 198 0028 13F8132C 		ldrb	r2, [r3, #-19]	@ zero_extendqisi2
 199 002c 42F00101 		orr	r1, r2, #1
 200 0030 03F8131C 		strb	r1, [r3, #-19]
 201 0034 7047     		bx	lr
 202              	.L23:
 203 0036 00BF     		.align	2
 204              	.L22:
 205 0038 14400040 		.word	1073758228
 206              		.cfi_endproc
 207              	.LFE14:
 208              		.size	CyBusClk_Internal_SetDivider, .-CyBusClk_Internal_SetDivider
 209              		.section	.text.CyPLL_OUT_Stop,"ax",%progbits
 210              		.align	1
 211              		.global	CyPLL_OUT_Stop
 212              		.thumb
 213              		.thumb_func
 214              		.type	CyPLL_OUT_Stop, %function
 215              	CyPLL_OUT_Stop:
 216              	.LFB1:
 154:.\Generated_Source\PSoC5/CyLib.c **** {
 217              		.loc 1 154 0
 218              		.cfi_startproc
 219              		@ args = 0, pretend = 0, frame = 0
 220              		@ frame_needed = 0, uses_anonymous_args = 0
 221              		@ link register save eliminated.
 155:.\Generated_Source\PSoC5/CyLib.c ****     CY_CLK_PLL_CFG0_REG &= ((uint8)(~CY_CLK_PLL_ENABLE));
 222              		.loc 1 155 0
 223 0000 024B     		ldr	r3, .L25
 224 0002 1A78     		ldrb	r2, [r3, #0]	@ zero_extendqisi2
 225 0004 02F0FE00 		and	r0, r2, #254
 226 0008 1870     		strb	r0, [r3, #0]
 227 000a 7047     		bx	lr
 228              	.L26:
 229              		.align	2
 230              	.L25:
 231 000c 20420040 		.word	1073758752
 232              		.cfi_endproc
 233              	.LFE1:
 234              		.size	CyPLL_OUT_Stop, .-CyPLL_OUT_Stop
 235              		.section	.text.CyPLL_OUT_SetPQ,"ax",%progbits
 236              		.align	1
 237              		.global	CyPLL_OUT_SetPQ
 238              		.thumb
 239              		.thumb_func
 240              		.type	CyPLL_OUT_SetPQ, %function
 241              	CyPLL_OUT_SetPQ:
 242              	.LFB2:
 192:.\Generated_Source\PSoC5/CyLib.c **** {
 243              		.loc 1 192 0
 244              		.cfi_startproc
 245              		@ args = 0, pretend = 0, frame = 0
 246              		@ frame_needed = 0, uses_anonymous_args = 0
 247              		@ link register save eliminated.
ARM GAS  C:\Users\MICHA_~1\AppData\Local\Temp\ccAOLfnb.s 			page 20


 248              	.LVL7:
 196:.\Generated_Source\PSoC5/CyLib.c ****     if((pDiv    >= CY_CLK_PLL_MIN_P_VALUE  ) &&
 249              		.loc 1 196 0
 250 0000 0728     		cmp	r0, #7
 251 0002 14D9     		bls	.L27
 196:.\Generated_Source\PSoC5/CyLib.c ****     if((pDiv    >= CY_CLK_PLL_MIN_P_VALUE  ) &&
 252              		.loc 1 196 0 is_stmt 0 discriminator 1
 253 0004 1029     		cmp	r1, #16
 254 0006 12D8     		bhi	.L27
 197:.\Generated_Source\PSoC5/CyLib.c ****        (qDiv    <= CY_CLK_PLL_MAX_Q_VALUE  ) && (qDiv    >= CY_CLK_PLL_MIN_Q_VALUE  ) &&
 255              		.loc 1 197 0 is_stmt 1
 256 0008 89B1     		cbz	r1, .L27
 197:.\Generated_Source\PSoC5/CyLib.c ****        (qDiv    <= CY_CLK_PLL_MAX_Q_VALUE  ) && (qDiv    >= CY_CLK_PLL_MIN_Q_VALUE  ) &&
 257              		.loc 1 197 0 is_stmt 0 discriminator 1
 258 000a 82B1     		cbz	r2, .L27
 198:.\Generated_Source\PSoC5/CyLib.c ****        (current >= CY_CLK_PLL_MIN_CUR_VALUE) && (current <= CY_CLK_PLL_MAX_CUR_VALUE))
 259              		.loc 1 198 0 is_stmt 1
 260 000c 072A     		cmp	r2, #7
 261 000e 0ED8     		bhi	.L27
 201:.\Generated_Source\PSoC5/CyLib.c ****         CY_CLK_PLL_P_REG = pDiv;
 262              		.loc 1 201 0
 263 0010 074B     		ldr	r3, .L35
 202:.\Generated_Source\PSoC5/CyLib.c ****         CY_CLK_PLL_Q_REG = ((uint8)(qDiv - 1u));
 264              		.loc 1 202 0
 265 0012 0139     		subs	r1, r1, #1
 266              	.LVL8:
 201:.\Generated_Source\PSoC5/CyLib.c ****         CY_CLK_PLL_P_REG = pDiv;
 267              		.loc 1 201 0
 268 0014 1870     		strb	r0, [r3, #0]
 202:.\Generated_Source\PSoC5/CyLib.c ****         CY_CLK_PLL_Q_REG = ((uint8)(qDiv - 1u));
 269              		.loc 1 202 0
 270 0016 C8B2     		uxtb	r0, r1
 271              	.LVL9:
 272 0018 5870     		strb	r0, [r3, #1]
 203:.\Generated_Source\PSoC5/CyLib.c ****         CY_CLK_PLL_CFG1_REG = (CY_CLK_PLL_CFG1_REG & CY_CLK_PLL_CURRENT_MASK) |
 273              		.loc 1 203 0
 274 001a 13F8011C 		ldrb	r1, [r3, #-1]	@ zero_extendqisi2
 204:.\Generated_Source\PSoC5/CyLib.c ****                                 ((uint8)(((uint8)(current - 1u)) << CY_CLK_PLL_CURRENT_POSITION));
 275              		.loc 1 204 0
 276 001e 013A     		subs	r2, r2, #1
 277              	.LVL10:
 203:.\Generated_Source\PSoC5/CyLib.c ****         CY_CLK_PLL_CFG1_REG = (CY_CLK_PLL_CFG1_REG & CY_CLK_PLL_CURRENT_MASK) |
 278              		.loc 1 203 0
 279 0020 01F08F00 		and	r0, r1, #143
 280 0024 40EA0211 		orr	r1, r0, r2, lsl #4
 281 0028 CAB2     		uxtb	r2, r1
 282 002a 03F8012C 		strb	r2, [r3, #-1]
 283              	.LVL11:
 284              	.L27:
 285 002e 7047     		bx	lr
 286              	.L36:
 287              		.align	2
 288              	.L35:
 289 0030 22420040 		.word	1073758754
 290              		.cfi_endproc
 291              	.LFE2:
 292              		.size	CyPLL_OUT_SetPQ, .-CyPLL_OUT_SetPQ
ARM GAS  C:\Users\MICHA_~1\AppData\Local\Temp\ccAOLfnb.s 			page 21


 293              		.section	.text.CyPLL_OUT_SetSource,"ax",%progbits
 294              		.align	1
 295              		.global	CyPLL_OUT_SetSource
 296              		.thumb
 297              		.thumb_func
 298              		.type	CyPLL_OUT_SetSource, %function
 299              	CyPLL_OUT_SetSource:
 300              	.LFB3:
 247:.\Generated_Source\PSoC5/CyLib.c **** {
 301              		.loc 1 247 0
 302              		.cfi_startproc
 303              		@ args = 0, pretend = 0, frame = 0
 304              		@ frame_needed = 0, uses_anonymous_args = 0
 305              		@ link register save eliminated.
 306              	.LVL12:
 251:.\Generated_Source\PSoC5/CyLib.c ****     switch(source)
 307              		.loc 1 251 0
 308 0000 0228     		cmp	r0, #2
 309 0002 06D8     		bhi	.L37
 256:.\Generated_Source\PSoC5/CyLib.c ****             CY_LIB_CLKDIST_CR_REG = ((CY_LIB_CLKDIST_CR_REG & CY_LIB_CLKDIST_CR_PLL_SCR_MASK) | sou
 310              		.loc 1 256 0
 311 0004 4FF04023 		mov	r3, #1073758208
 312 0008 1A78     		ldrb	r2, [r3, #0]	@ zero_extendqisi2
 313 000a 02F0FC01 		and	r1, r2, #252
 314 000e 0843     		orrs	r0, r0, r1
 315              	.LVL13:
 316 0010 1870     		strb	r0, [r3, #0]
 317              	.L37:
 318 0012 7047     		bx	lr
 319              		.cfi_endproc
 320              	.LFE3:
 321              		.size	CyPLL_OUT_SetSource, .-CyPLL_OUT_SetSource
 322              		.section	.text.CyIMO_Stop,"ax",%progbits
 323              		.align	1
 324              		.global	CyIMO_Stop
 325              		.thumb
 326              		.thumb_func
 327              		.type	CyIMO_Stop, %function
 328              	CyIMO_Stop:
 329              	.LFB5:
 346:.\Generated_Source\PSoC5/CyLib.c **** {
 330              		.loc 1 346 0
 331              		.cfi_startproc
 332              		@ args = 0, pretend = 0, frame = 0
 333              		@ frame_needed = 0, uses_anonymous_args = 0
 334              		@ link register save eliminated.
 347:.\Generated_Source\PSoC5/CyLib.c ****     CY_LIB_PM_ACT_CFG0_REG  &= ((uint8) (~CY_LIB_PM_ACT_CFG0_IMO_EN));
 335              		.loc 1 347 0
 336 0000 044B     		ldr	r3, .L41
 337 0002 1A78     		ldrb	r2, [r3, #0]	@ zero_extendqisi2
 338 0004 02F0EF00 		and	r0, r2, #239
 339 0008 1870     		strb	r0, [r3, #0]
 348:.\Generated_Source\PSoC5/CyLib.c ****     CY_LIB_PM_STBY_CFG0_REG &= ((uint8) (~CY_LIB_PM_STBY_CFG0_IMO_EN));
 340              		.loc 1 348 0
 341 000a 197C     		ldrb	r1, [r3, #16]	@ zero_extendqisi2
 342 000c 01F0EF02 		and	r2, r1, #239
 343 0010 1A74     		strb	r2, [r3, #16]
ARM GAS  C:\Users\MICHA_~1\AppData\Local\Temp\ccAOLfnb.s 			page 22


 344 0012 7047     		bx	lr
 345              	.L42:
 346              		.align	2
 347              	.L41:
 348 0014 A0430040 		.word	1073759136
 349              		.cfi_endproc
 350              	.LFE5:
 351              		.size	CyIMO_Stop, .-CyIMO_Stop
 352              		.section	.text.CyIMO_SetSource,"ax",%progbits
 353              		.align	1
 354              		.global	CyIMO_SetSource
 355              		.thumb
 356              		.thumb_func
 357              		.type	CyIMO_SetSource, %function
 358              	CyIMO_SetSource:
 359              	.LFB9:
 648:.\Generated_Source\PSoC5/CyLib.c **** {
 360              		.loc 1 648 0
 361              		.cfi_startproc
 362              		@ args = 0, pretend = 0, frame = 0
 363              		@ frame_needed = 0, uses_anonymous_args = 0
 364              		@ link register save eliminated.
 365              	.LVL14:
 649:.\Generated_Source\PSoC5/CyLib.c ****     switch(source)
 366              		.loc 1 649 0
 367 0000 0128     		cmp	r0, #1
 368 0002 08D0     		beq	.L46
 369 0004 14D3     		bcc	.L45
 370 0006 0228     		cmp	r0, #2
 371 0008 17D1     		bne	.L43
 652:.\Generated_Source\PSoC5/CyLib.c ****         CY_LIB_CLKDIST_CR_REG     &= ((uint8)(~CY_LIB_CLKDIST_CR_IMO2X));
 372              		.loc 1 652 0
 373 000a 4FF04023 		mov	r3, #1073758208
 374 000e 1A78     		ldrb	r2, [r3, #0]	@ zero_extendqisi2
 375 0010 02F0BF00 		and	r0, r2, #191
 376              	.LVL15:
 377 0014 04E0     		b	.L48
 378              	.LVL16:
 379              	.L46:
 657:.\Generated_Source\PSoC5/CyLib.c ****         CY_LIB_CLKDIST_CR_REG     |= CY_LIB_CLKDIST_CR_IMO2X;
 380              		.loc 1 657 0
 381 0016 4FF04023 		mov	r3, #1073758208
 382 001a 1A78     		ldrb	r2, [r3, #0]	@ zero_extendqisi2
 383 001c 42F04000 		orr	r0, r2, #64
 384              	.LVL17:
 385              	.L48:
 386 0020 1870     		strb	r0, [r3, #0]
 658:.\Generated_Source\PSoC5/CyLib.c ****         CY_LIB_FASTCLK_IMO_CR_REG |= CY_LIB_FASTCLK_IMO_IMO;
 387              		.loc 1 658 0
 388 0022 93F80012 		ldrb	r1, [r3, #512]	@ zero_extendqisi2
 389 0026 41F02002 		orr	r2, r1, #32
 390 002a 83F80022 		strb	r2, [r3, #512]
 659:.\Generated_Source\PSoC5/CyLib.c ****         break;
 391              		.loc 1 659 0
 392 002e 7047     		bx	lr
 393              	.LVL18:
 394              	.L45:
ARM GAS  C:\Users\MICHA_~1\AppData\Local\Temp\ccAOLfnb.s 			page 23


 662:.\Generated_Source\PSoC5/CyLib.c ****         CY_LIB_FASTCLK_IMO_CR_REG &= ((uint8)(~CY_LIB_FASTCLK_IMO_IMO));
 395              		.loc 1 662 0
 396 0030 024B     		ldr	r3, .L49
 397 0032 1878     		ldrb	r0, [r3, #0]	@ zero_extendqisi2
 398              	.LVL19:
 399 0034 00F0DF01 		and	r1, r0, #223
 400 0038 1970     		strb	r1, [r3, #0]
 401              	.L43:
 402 003a 7047     		bx	lr
 403              	.L50:
 404              		.align	2
 405              	.L49:
 406 003c 00420040 		.word	1073758720
 407              		.cfi_endproc
 408              	.LFE9:
 409              		.size	CyIMO_SetSource, .-CyIMO_SetSource
 410              		.section	.text.CyIMO_EnableDoubler,"ax",%progbits
 411              		.align	1
 412              		.global	CyIMO_EnableDoubler
 413              		.thumb
 414              		.thumb_func
 415              		.type	CyIMO_EnableDoubler, %function
 416              	CyIMO_EnableDoubler:
 417              	.LFB10:
 689:.\Generated_Source\PSoC5/CyLib.c **** {
 418              		.loc 1 689 0
 419              		.cfi_startproc
 420              		@ args = 0, pretend = 0, frame = 0
 421              		@ frame_needed = 0, uses_anonymous_args = 0
 422              		@ link register save eliminated.
 691:.\Generated_Source\PSoC5/CyLib.c ****     CY_LIB_FASTCLK_IMO_CR_REG |= CY_LIB_FASTCLK_IMO_DOUBLER;
 423              		.loc 1 691 0
 424 0000 024B     		ldr	r3, .L52
 425 0002 1A78     		ldrb	r2, [r3, #0]	@ zero_extendqisi2
 426 0004 42F01000 		orr	r0, r2, #16
 427 0008 1870     		strb	r0, [r3, #0]
 428 000a 7047     		bx	lr
 429              	.L53:
 430              		.align	2
 431              	.L52:
 432 000c 00420040 		.word	1073758720
 433              		.cfi_endproc
 434              	.LFE10:
 435              		.size	CyIMO_EnableDoubler, .-CyIMO_EnableDoubler
 436              		.section	.text.CyIMO_DisableDoubler,"ax",%progbits
 437              		.align	1
 438              		.global	CyIMO_DisableDoubler
 439              		.thumb
 440              		.thumb_func
 441              		.type	CyIMO_DisableDoubler, %function
 442              	CyIMO_DisableDoubler:
 443              	.LFB11:
 710:.\Generated_Source\PSoC5/CyLib.c **** {
 444              		.loc 1 710 0
 445              		.cfi_startproc
 446              		@ args = 0, pretend = 0, frame = 0
 447              		@ frame_needed = 0, uses_anonymous_args = 0
ARM GAS  C:\Users\MICHA_~1\AppData\Local\Temp\ccAOLfnb.s 			page 24


 448              		@ link register save eliminated.
 711:.\Generated_Source\PSoC5/CyLib.c ****     CY_LIB_FASTCLK_IMO_CR_REG &= ((uint8)(~CY_LIB_FASTCLK_IMO_DOUBLER));
 449              		.loc 1 711 0
 450 0000 024B     		ldr	r3, .L55
 451 0002 1A78     		ldrb	r2, [r3, #0]	@ zero_extendqisi2
 452 0004 02F0EF00 		and	r0, r2, #239
 453 0008 1870     		strb	r0, [r3, #0]
 454 000a 7047     		bx	lr
 455              	.L56:
 456              		.align	2
 457              	.L55:
 458 000c 00420040 		.word	1073758720
 459              		.cfi_endproc
 460              	.LFE11:
 461              		.size	CyIMO_DisableDoubler, .-CyIMO_DisableDoubler
 462              		.section	.text.CyIMO_SetFreq,"ax",%progbits
 463              		.align	1
 464              		.global	CyIMO_SetFreq
 465              		.thumb
 466              		.thumb_func
 467              		.type	CyIMO_SetFreq, %function
 468              	CyIMO_SetFreq:
 469              	.LFB8:
 493:.\Generated_Source\PSoC5/CyLib.c **** {
 470              		.loc 1 493 0
 471              		.cfi_startproc
 472              		@ args = 0, pretend = 0, frame = 0
 473              		@ frame_needed = 0, uses_anonymous_args = 0
 474              	.LVL20:
 475 0000 70B5     		push	{r4, r5, r6, lr}
 476              	.LCFI0:
 477              		.cfi_def_cfa_offset 16
 478              		.cfi_offset 4, -16
 479              		.cfi_offset 5, -12
 480              		.cfi_offset 6, -8
 481              		.cfi_offset 14, -4
 504:.\Generated_Source\PSoC5/CyLib.c ****     currentFreq = CY_LIB_FASTCLK_IMO_CR_REG & ((uint8)(~CY_LIB_FASTCLK_IMO_CR_RANGE_MASK));
 482              		.loc 1 504 0
 483 0002 344B     		ldr	r3, .L82
 507:.\Generated_Source\PSoC5/CyLib.c ****     nextFreq = (freq == CY_IMO_FREQ_USB) ? CY_IMO_FREQ_24MHZ : freq;
 484              		.loc 1 507 0
 485 0004 0828     		cmp	r0, #8
 486 0006 14BF     		ite	ne
 487 0008 0646     		movne	r6, r0
 488 000a 0326     		moveq	r6, #3
 504:.\Generated_Source\PSoC5/CyLib.c ****     currentFreq = CY_LIB_FASTCLK_IMO_CR_REG & ((uint8)(~CY_LIB_FASTCLK_IMO_CR_RANGE_MASK));
 489              		.loc 1 504 0
 490 000c 1D78     		ldrb	r5, [r3, #0]	@ zero_extendqisi2
 493:.\Generated_Source\PSoC5/CyLib.c **** {
 491              		.loc 1 493 0
 492 000e 0446     		mov	r4, r0
 504:.\Generated_Source\PSoC5/CyLib.c ****     currentFreq = CY_LIB_FASTCLK_IMO_CR_REG & ((uint8)(~CY_LIB_FASTCLK_IMO_CR_RANGE_MASK));
 493              		.loc 1 504 0
 494 0010 05F00705 		and	r5, r5, #7
 495              	.LVL21:
 509:.\Generated_Source\PSoC5/CyLib.c ****     switch (currentFreq)
 496              		.loc 1 509 0
ARM GAS  C:\Users\MICHA_~1\AppData\Local\Temp\ccAOLfnb.s 			page 25


 497 0014 022D     		cmp	r5, #2
 498 0016 05D0     		beq	.L61
 509:.\Generated_Source\PSoC5/CyLib.c ****     switch (currentFreq)
 499              		.loc 1 509 0 is_stmt 0 discriminator 3
 500 0018 032D     		cmp	r5, #3
 501 001a 07D0     		beq	.L80
 512:.\Generated_Source\PSoC5/CyLib.c ****         currentFreq = CY_IMO_FREQ_12MHZ;
 502              		.loc 1 512 0 is_stmt 1 discriminator 3
 503 001c 002D     		cmp	r5, #0
 504 001e 08BF     		it	eq
 505 0020 0225     		moveq	r5, #2
 506              	.LVL22:
 507 0022 00E0     		b	.L59
 508              	.LVL23:
 509              	.L61:
 520:.\Generated_Source\PSoC5/CyLib.c ****         currentFreq = CY_IMO_FREQ_24MHZ;
 510              		.loc 1 520 0
 511 0024 0325     		movs	r5, #3
 512              	.LVL24:
 513              	.L59:
 546:.\Generated_Source\PSoC5/CyLib.c ****     if (nextFreq >= currentFreq)
 514              		.loc 1 546 0
 515 0026 AE42     		cmp	r6, r5
 516 0028 04D3     		bcc	.L63
 517 002a 00E0     		b	.L62
 518              	.LVL25:
 519              	.L80:
 524:.\Generated_Source\PSoC5/CyLib.c ****         currentFreq = CY_IMO_FREQ_3MHZ;
 520              		.loc 1 524 0
 521 002c 0025     		movs	r5, #0
 522              	.LVL26:
 523              	.L62:
 549:.\Generated_Source\PSoC5/CyLib.c ****         CyIMO_SetTrimValue(freq);
 524              		.loc 1 549 0
 525 002e 2046     		mov	r0, r4
 526              	.LVL27:
 527 0030 FFF7FEFF 		bl	CyIMO_SetTrimValue
 528              	.LVL28:
 529              	.L63:
 553:.\Generated_Source\PSoC5/CyLib.c ****     switch(freq)
 530              		.loc 1 553 0
 531 0034 082C     		cmp	r4, #8
 532 0036 3ED8     		bhi	.L64
 533 0038 DFE804F0 		tbb	[pc, r4]
 534              	.L73:
 535 003c 05       		.byte	(.L65-.L73)/2
 536 003d 0C       		.byte	(.L66-.L73)/2
 537 003e 13       		.byte	(.L67-.L73)/2
 538 003f 18       		.byte	(.L68-.L73)/2
 539 0040 1F       		.byte	(.L69-.L73)/2
 540 0041 26       		.byte	(.L70-.L73)/2
 541 0042 2D       		.byte	(.L71-.L73)/2
 542 0043 3D       		.byte	(.L64-.L73)/2
 543 0044 35       		.byte	(.L72-.L73)/2
 544 0045 00       		.align	1
 545              	.L65:
 556:.\Generated_Source\PSoC5/CyLib.c ****         CY_LIB_FASTCLK_IMO_CR_REG = ((CY_LIB_FASTCLK_IMO_CR_REG & CY_LIB_FASTCLK_IMO_CR_RANGE_MASK)
ARM GAS  C:\Users\MICHA_~1\AppData\Local\Temp\ccAOLfnb.s 			page 26


 546              		.loc 1 556 0
 547 0046 2348     		ldr	r0, .L82
 548 0048 0278     		ldrb	r2, [r0, #0]	@ zero_extendqisi2
 549 004a 02F0B801 		and	r1, r2, #184
 550 004e 41F00303 		orr	r3, r1, #3
 551 0052 26E0     		b	.L81
 552              	.L66:
 561:.\Generated_Source\PSoC5/CyLib.c ****         CY_LIB_FASTCLK_IMO_CR_REG = ((CY_LIB_FASTCLK_IMO_CR_REG & CY_LIB_FASTCLK_IMO_CR_RANGE_MASK)
 553              		.loc 1 561 0
 554 0054 1F48     		ldr	r0, .L82
 555 0056 0178     		ldrb	r1, [r0, #0]	@ zero_extendqisi2
 556 0058 01F0B803 		and	r3, r1, #184
 557 005c 43F00103 		orr	r3, r3, #1
 558 0060 1FE0     		b	.L81
 559              	.L67:
 566:.\Generated_Source\PSoC5/CyLib.c ****         CY_LIB_FASTCLK_IMO_CR_REG = ((CY_LIB_FASTCLK_IMO_CR_REG & CY_LIB_FASTCLK_IMO_CR_RANGE_MASK)
 560              		.loc 1 566 0
 561 0062 1C48     		ldr	r0, .L82
 562 0064 0278     		ldrb	r2, [r0, #0]	@ zero_extendqisi2
 563 0066 02F0B803 		and	r3, r2, #184
 564 006a 1AE0     		b	.L81
 565              	.L68:
 571:.\Generated_Source\PSoC5/CyLib.c ****         CY_LIB_FASTCLK_IMO_CR_REG = ((CY_LIB_FASTCLK_IMO_CR_REG & CY_LIB_FASTCLK_IMO_CR_RANGE_MASK)
 566              		.loc 1 571 0
 567 006c 1948     		ldr	r0, .L82
 568 006e 0178     		ldrb	r1, [r0, #0]	@ zero_extendqisi2
 569 0070 01F0B803 		and	r3, r1, #184
 570 0074 43F00203 		orr	r3, r3, #2
 571 0078 13E0     		b	.L81
 572              	.L69:
 576:.\Generated_Source\PSoC5/CyLib.c ****         CY_LIB_FASTCLK_IMO_CR_REG = ((CY_LIB_FASTCLK_IMO_CR_REG & CY_LIB_FASTCLK_IMO_CR_RANGE_MASK)
 573              		.loc 1 576 0
 574 007a 1648     		ldr	r0, .L82
 575 007c 0378     		ldrb	r3, [r0, #0]	@ zero_extendqisi2
 576 007e 03F0B802 		and	r2, r3, #184
 577 0082 42F00403 		orr	r3, r2, #4
 578 0086 0CE0     		b	.L81
 579              	.L70:
 581:.\Generated_Source\PSoC5/CyLib.c ****         CY_LIB_FASTCLK_IMO_CR_REG = ((CY_LIB_FASTCLK_IMO_CR_REG & CY_LIB_FASTCLK_IMO_CR_RANGE_MASK)
 580              		.loc 1 581 0
 581 0088 1248     		ldr	r0, .L82
 582 008a 0278     		ldrb	r2, [r0, #0]	@ zero_extendqisi2
 583 008c 02F0B801 		and	r1, r2, #184
 584 0090 41F00503 		orr	r3, r1, #5
 585 0094 05E0     		b	.L81
 586              	.L71:
 587:.\Generated_Source\PSoC5/CyLib.c ****         CY_LIB_FASTCLK_IMO_CR_REG = ((CY_LIB_FASTCLK_IMO_CR_REG & CY_LIB_FASTCLK_IMO_CR_RANGE_MASK)
 587              		.loc 1 587 0
 588 0096 0F48     		ldr	r0, .L82
 589 0098 0278     		ldrb	r2, [r0, #0]	@ zero_extendqisi2
 590 009a 02F0B801 		and	r1, r2, #184
 591 009e 41F00603 		orr	r3, r1, #6
 592              	.L81:
 593 00a2 0370     		strb	r3, [r0, #0]
 589:.\Generated_Source\PSoC5/CyLib.c ****         break;
 594              		.loc 1 589 0
 595 00a4 0CE0     		b	.L76
ARM GAS  C:\Users\MICHA_~1\AppData\Local\Temp\ccAOLfnb.s 			page 27


 596              	.L72:
 593:.\Generated_Source\PSoC5/CyLib.c ****         CY_LIB_FASTCLK_IMO_CR_REG = ((CY_LIB_FASTCLK_IMO_CR_REG & CY_LIB_FASTCLK_IMO_CR_RANGE_MASK)
 597              		.loc 1 593 0
 598 00a6 0B48     		ldr	r0, .L82
 599 00a8 0278     		ldrb	r2, [r0, #0]	@ zero_extendqisi2
 600 00aa 02F0B801 		and	r1, r2, #184
 601 00ae 41F04203 		orr	r3, r1, #66
 602 00b2 0370     		strb	r3, [r0, #0]
 603 00b4 01E0     		b	.L75
 604              	.L64:
 603:.\Generated_Source\PSoC5/CyLib.c ****     if (freq == CY_IMO_FREQ_USB)
 605              		.loc 1 603 0
 606 00b6 082C     		cmp	r4, #8
 607 00b8 02D1     		bne	.L76
 608              	.L75:
 605:.\Generated_Source\PSoC5/CyLib.c ****         CyIMO_EnableDoubler();
 609              		.loc 1 605 0
 610 00ba FFF7FEFF 		bl	CyIMO_EnableDoubler
 611              	.LVL29:
 612 00be 01E0     		b	.L77
 613              	.L76:
 609:.\Generated_Source\PSoC5/CyLib.c ****         CyIMO_DisableDoubler();
 614              		.loc 1 609 0
 615 00c0 FFF7FEFF 		bl	CyIMO_DisableDoubler
 616              	.LVL30:
 617              	.L77:
 612:.\Generated_Source\PSoC5/CyLib.c ****     if (nextFreq < currentFreq)
 618              		.loc 1 612 0
 619 00c4 AE42     		cmp	r6, r5
 620 00c6 04D2     		bcs	.L57
 615:.\Generated_Source\PSoC5/CyLib.c ****         CyIMO_SetTrimValue(freq);
 621              		.loc 1 615 0
 622 00c8 2046     		mov	r0, r4
 617:.\Generated_Source\PSoC5/CyLib.c **** }
 623              		.loc 1 617 0
 624 00ca BDE87040 		pop	{r4, r5, r6, lr}
 615:.\Generated_Source\PSoC5/CyLib.c ****         CyIMO_SetTrimValue(freq);
 625              		.loc 1 615 0
 626 00ce FFF7FEBF 		b	CyIMO_SetTrimValue
 627              	.LVL31:
 628              	.L57:
 629 00d2 70BD     		pop	{r4, r5, r6, pc}
 630              	.L83:
 631              		.align	2
 632              	.L82:
 633 00d4 00420040 		.word	1073758720
 634              		.cfi_endproc
 635              	.LFE8:
 636              		.size	CyIMO_SetFreq, .-CyIMO_SetFreq
 637              		.section	.text.CyMasterClk_SetSource,"ax",%progbits
 638              		.align	1
 639              		.global	CyMasterClk_SetSource
 640              		.thumb
 641              		.thumb_func
 642              		.type	CyMasterClk_SetSource, %function
 643              	CyMasterClk_SetSource:
 644              	.LFB12:
ARM GAS  C:\Users\MICHA_~1\AppData\Local\Temp\ccAOLfnb.s 			page 28


 745:.\Generated_Source\PSoC5/CyLib.c **** {
 645              		.loc 1 745 0
 646              		.cfi_startproc
 647              		@ args = 0, pretend = 0, frame = 0
 648              		@ frame_needed = 0, uses_anonymous_args = 0
 649              		@ link register save eliminated.
 650              	.LVL32:
 746:.\Generated_Source\PSoC5/CyLib.c ****     CY_LIB_CLKDIST_MSTR1_REG = (CY_LIB_CLKDIST_MSTR1_REG & MASTER_CLK_SRC_CLEAR) |
 651              		.loc 1 746 0
 652 0000 044B     		ldr	r3, .L85
 653 0002 00F00300 		and	r0, r0, #3
 654              	.LVL33:
 655 0006 1A78     		ldrb	r2, [r3, #0]	@ zero_extendqisi2
 656 0008 02F0FC01 		and	r1, r2, #252
 657 000c 40EA0102 		orr	r2, r0, r1
 658 0010 1A70     		strb	r2, [r3, #0]
 659 0012 7047     		bx	lr
 660              	.L86:
 661              		.align	2
 662              	.L85:
 663 0014 05400040 		.word	1073758213
 664              		.cfi_endproc
 665              	.LFE12:
 666              		.size	CyMasterClk_SetSource, .-CyMasterClk_SetSource
 667              		.section	.text.CyMasterClk_SetDivider,"ax",%progbits
 668              		.align	1
 669              		.global	CyMasterClk_SetDivider
 670              		.thumb
 671              		.thumb_func
 672              		.type	CyMasterClk_SetDivider, %function
 673              	CyMasterClk_SetDivider:
 674              	.LFB13:
 780:.\Generated_Source\PSoC5/CyLib.c **** {
 675              		.loc 1 780 0
 676              		.cfi_startproc
 677              		@ args = 0, pretend = 0, frame = 0
 678              		@ frame_needed = 0, uses_anonymous_args = 0
 679              		@ link register save eliminated.
 680              	.LVL34:
 781:.\Generated_Source\PSoC5/CyLib.c ****     CY_LIB_CLKDIST_MSTR0_REG = divider;
 681              		.loc 1 781 0
 682 0000 014B     		ldr	r3, .L88
 683 0002 1870     		strb	r0, [r3, #0]
 684 0004 7047     		bx	lr
 685              	.L89:
 686 0006 00BF     		.align	2
 687              	.L88:
 688 0008 04400040 		.word	1073758212
 689              		.cfi_endproc
 690              	.LFE13:
 691              		.size	CyMasterClk_SetDivider, .-CyMasterClk_SetDivider
 692              		.section	.text.CyBusClk_SetDivider,"ax",%progbits
 693              		.align	1
 694              		.global	CyBusClk_SetDivider
 695              		.thumb
 696              		.thumb_func
 697              		.type	CyBusClk_SetDivider, %function
ARM GAS  C:\Users\MICHA_~1\AppData\Local\Temp\ccAOLfnb.s 			page 29


 698              	CyBusClk_SetDivider:
 699              	.LFB15:
 822:.\Generated_Source\PSoC5/CyLib.c **** }
 823:.\Generated_Source\PSoC5/CyLib.c **** 
 824:.\Generated_Source\PSoC5/CyLib.c **** 
 825:.\Generated_Source\PSoC5/CyLib.c **** /*******************************************************************************
 826:.\Generated_Source\PSoC5/CyLib.c **** * Function Name: CyBusClk_SetDivider
 827:.\Generated_Source\PSoC5/CyLib.c **** ********************************************************************************
 828:.\Generated_Source\PSoC5/CyLib.c **** *
 829:.\Generated_Source\PSoC5/CyLib.c **** * Summary:
 830:.\Generated_Source\PSoC5/CyLib.c **** *  Sets the divider value used to generate Bus Clock.
 831:.\Generated_Source\PSoC5/CyLib.c **** *
 832:.\Generated_Source\PSoC5/CyLib.c **** * Parameters:
 833:.\Generated_Source\PSoC5/CyLib.c **** *  divider: Valid range [0-65535]. The clock will be divided by this value + 1.
 834:.\Generated_Source\PSoC5/CyLib.c **** *  For example to divide by 2 this parameter should be set to 1.
 835:.\Generated_Source\PSoC5/CyLib.c **** *
 836:.\Generated_Source\PSoC5/CyLib.c **** * Return:
 837:.\Generated_Source\PSoC5/CyLib.c **** *  None
 838:.\Generated_Source\PSoC5/CyLib.c **** *
 839:.\Generated_Source\PSoC5/CyLib.c **** * Side Effects:
 840:.\Generated_Source\PSoC5/CyLib.c **** *  If as result of this function execution the CPU clock frequency is increased
 841:.\Generated_Source\PSoC5/CyLib.c **** *  then the number of clock cycles the cache will wait before it samples data
 842:.\Generated_Source\PSoC5/CyLib.c **** *  coming back from Flash must be adjusted by calling CyFlash_SetWaitCycles()
 843:.\Generated_Source\PSoC5/CyLib.c **** *  with appropriate parameter. It can be optionally called if CPU clock
 844:.\Generated_Source\PSoC5/CyLib.c **** *  frequency is lowered in order to improve CPU performance.
 845:.\Generated_Source\PSoC5/CyLib.c **** *  See CyFlash_SetWaitCycles() description for more information.
 846:.\Generated_Source\PSoC5/CyLib.c **** *
 847:.\Generated_Source\PSoC5/CyLib.c **** *******************************************************************************/
 848:.\Generated_Source\PSoC5/CyLib.c **** void CyBusClk_SetDivider(uint16 divider) 
 849:.\Generated_Source\PSoC5/CyLib.c **** {
 700              		.loc 1 849 0
 701              		.cfi_startproc
 702              		@ args = 0, pretend = 0, frame = 0
 703              		@ frame_needed = 0, uses_anonymous_args = 0
 704              	.LVL35:
 705 0000 F8B5     		push	{r3, r4, r5, r6, r7, lr}
 706              	.LCFI1:
 707              		.cfi_def_cfa_offset 24
 708              		.cfi_offset 3, -24
 709              		.cfi_offset 4, -20
 710              		.cfi_offset 5, -16
 711              		.cfi_offset 6, -12
 712              		.cfi_offset 7, -8
 713              		.cfi_offset 14, -4
 714              		.loc 1 849 0
 715 0002 0446     		mov	r4, r0
 850:.\Generated_Source\PSoC5/CyLib.c ****     uint8  masterClkDiv;
 851:.\Generated_Source\PSoC5/CyLib.c ****     uint16 busClkDiv;
 852:.\Generated_Source\PSoC5/CyLib.c ****     uint8 interruptState;
 853:.\Generated_Source\PSoC5/CyLib.c **** 
 854:.\Generated_Source\PSoC5/CyLib.c ****     interruptState = CyEnterCriticalSection();
 716              		.loc 1 854 0
 717 0004 FFF7FEFF 		bl	CyEnterCriticalSection
 718              	.LVL36:
 855:.\Generated_Source\PSoC5/CyLib.c **** 
 856:.\Generated_Source\PSoC5/CyLib.c ****     /* Work around to set the bus clock divider value */
 857:.\Generated_Source\PSoC5/CyLib.c ****     busClkDiv = (uint16)((uint16)CY_LIB_CLKDIST_BCFG_MSB_REG << 8u);
ARM GAS  C:\Users\MICHA_~1\AppData\Local\Temp\ccAOLfnb.s 			page 30


 719              		.loc 1 857 0
 720 0008 154B     		ldr	r3, .L100
 854:.\Generated_Source\PSoC5/CyLib.c ****     interruptState = CyEnterCriticalSection();
 721              		.loc 1 854 0
 722 000a 0646     		mov	r6, r0
 723              	.LVL37:
 858:.\Generated_Source\PSoC5/CyLib.c ****     busClkDiv |= CY_LIB_CLKDIST_BCFG_LSB_REG;
 724              		.loc 1 858 0
 725 000c 581E     		subs	r0, r3, #1
 726              	.LVL38:
 857:.\Generated_Source\PSoC5/CyLib.c ****     busClkDiv = (uint16)((uint16)CY_LIB_CLKDIST_BCFG_MSB_REG << 8u);
 727              		.loc 1 857 0
 728 000e 1A78     		ldrb	r2, [r3, #0]	@ zero_extendqisi2
 729              	.LVL39:
 730              		.loc 1 858 0
 731 0010 0178     		ldrb	r1, [r0, #0]	@ zero_extendqisi2
 732              	.LVL40:
 859:.\Generated_Source\PSoC5/CyLib.c **** 
 860:.\Generated_Source\PSoC5/CyLib.c ****     if ((divider == 0u) || (busClkDiv == 0u))
 733              		.loc 1 860 0
 734 0012 14B1     		cbz	r4, .L91
 735              		.loc 1 860 0 is_stmt 0 discriminator 1
 736 0014 51EA0223 		orrs	r3, r1, r2, lsl #8
 737 0018 1AD1     		bne	.L92
 738              	.L91:
 861:.\Generated_Source\PSoC5/CyLib.c ****     {
 862:.\Generated_Source\PSoC5/CyLib.c ****         /* Save away the master clock divider value */
 863:.\Generated_Source\PSoC5/CyLib.c ****         masterClkDiv = CY_LIB_CLKDIST_MSTR0_REG;
 739              		.loc 1 863 0 is_stmt 1
 740 001a 124D     		ldr	r5, .L100+4
 741 001c 2B78     		ldrb	r3, [r5, #0]	@ zero_extendqisi2
 864:.\Generated_Source\PSoC5/CyLib.c **** 
 865:.\Generated_Source\PSoC5/CyLib.c ****         if (masterClkDiv < CY_LIB_CLKDIST_MASTERCLK_DIV)
 742              		.loc 1 865 0
 743 001e 062B     		cmp	r3, #6
 863:.\Generated_Source\PSoC5/CyLib.c ****         masterClkDiv = CY_LIB_CLKDIST_MSTR0_REG;
 744              		.loc 1 863 0
 745 0020 1F46     		mov	r7, r3
 746              	.LVL41:
 747              		.loc 1 865 0
 748 0022 01D8     		bhi	.L93
 749              	.LVL42:
 750              	.LBB12:
 751              	.LBB13:
 781:.\Generated_Source\PSoC5/CyLib.c ****     CY_LIB_CLKDIST_MSTR0_REG = divider;
 752              		.loc 1 781 0
 753 0024 0722     		movs	r2, #7
 754              	.LVL43:
 755 0026 2A70     		strb	r2, [r5, #0]
 756              	.LVL44:
 757              	.L93:
 758 0028 0F4D     		ldr	r5, .L100+8
 759              	.LBE13:
 760              	.LBE12:
 866:.\Generated_Source\PSoC5/CyLib.c ****         {
 867:.\Generated_Source\PSoC5/CyLib.c ****             /* Set master clock divider to 7 */
 868:.\Generated_Source\PSoC5/CyLib.c ****             CyMasterClk_SetDivider(CY_LIB_CLKDIST_MASTERCLK_DIV);
ARM GAS  C:\Users\MICHA_~1\AppData\Local\Temp\ccAOLfnb.s 			page 31


 869:.\Generated_Source\PSoC5/CyLib.c ****         }
 870:.\Generated_Source\PSoC5/CyLib.c **** 
 871:.\Generated_Source\PSoC5/CyLib.c ****         if (divider == 0u)
 761              		.loc 1 871 0
 762 002a 3CB9     		cbnz	r4, .L94
 872:.\Generated_Source\PSoC5/CyLib.c ****         {
 873:.\Generated_Source\PSoC5/CyLib.c ****             /* Set the SSS bit and the divider register desired value */
 874:.\Generated_Source\PSoC5/CyLib.c ****             CY_LIB_CLKDIST_BCFG2_REG |= CY_LIB_CLKDIST_BCFG2_SSS;
 763              		.loc 1 874 0
 764 002c 2B78     		ldrb	r3, [r5, #0]	@ zero_extendqisi2
 765              	.LVL45:
 875:.\Generated_Source\PSoC5/CyLib.c ****             CyBusClk_Internal_SetDivider(divider);
 766              		.loc 1 875 0
 767 002e 2046     		mov	r0, r4
 874:.\Generated_Source\PSoC5/CyLib.c ****             CY_LIB_CLKDIST_BCFG2_REG |= CY_LIB_CLKDIST_BCFG2_SSS;
 768              		.loc 1 874 0
 769 0030 43F04002 		orr	r2, r3, #64
 770 0034 2A70     		strb	r2, [r5, #0]
 771              		.loc 1 875 0
 772 0036 FFF7FEFF 		bl	CyBusClk_Internal_SetDivider
 773              	.LVL46:
 774 003a 06E0     		b	.L95
 775              	.LVL47:
 776              	.L94:
 876:.\Generated_Source\PSoC5/CyLib.c ****         }
 877:.\Generated_Source\PSoC5/CyLib.c ****         else
 878:.\Generated_Source\PSoC5/CyLib.c ****         {
 879:.\Generated_Source\PSoC5/CyLib.c ****             CyBusClk_Internal_SetDivider(divider);
 777              		.loc 1 879 0
 778 003c 2046     		mov	r0, r4
 779 003e FFF7FEFF 		bl	CyBusClk_Internal_SetDivider
 780              	.LVL48:
 880:.\Generated_Source\PSoC5/CyLib.c ****             CY_LIB_CLKDIST_BCFG2_REG &= ((uint8)(~CY_LIB_CLKDIST_BCFG2_SSS));
 781              		.loc 1 880 0
 782 0042 2878     		ldrb	r0, [r5, #0]	@ zero_extendqisi2
 783 0044 00F0BF01 		and	r1, r0, #191
 784 0048 2970     		strb	r1, [r5, #0]
 785              	.L95:
 786              	.LVL49:
 787              	.LBB14:
 788              	.LBB15:
 781:.\Generated_Source\PSoC5/CyLib.c ****     CY_LIB_CLKDIST_MSTR0_REG = divider;
 789              		.loc 1 781 0
 790 004a 0648     		ldr	r0, .L100+4
 791 004c 0770     		strb	r7, [r0, #0]
 792 004e 02E0     		b	.L96
 793              	.LVL50:
 794              	.L92:
 795              	.LBE15:
 796              	.LBE14:
 881:.\Generated_Source\PSoC5/CyLib.c ****         }
 882:.\Generated_Source\PSoC5/CyLib.c **** 
 883:.\Generated_Source\PSoC5/CyLib.c ****         /* Restore the master clock */
 884:.\Generated_Source\PSoC5/CyLib.c ****         CyMasterClk_SetDivider(masterClkDiv);
 885:.\Generated_Source\PSoC5/CyLib.c ****     }
 886:.\Generated_Source\PSoC5/CyLib.c ****     else
 887:.\Generated_Source\PSoC5/CyLib.c ****     {
ARM GAS  C:\Users\MICHA_~1\AppData\Local\Temp\ccAOLfnb.s 			page 32


 888:.\Generated_Source\PSoC5/CyLib.c ****         CyBusClk_Internal_SetDivider(divider);
 797              		.loc 1 888 0
 798 0050 2046     		mov	r0, r4
 799 0052 FFF7FEFF 		bl	CyBusClk_Internal_SetDivider
 800              	.LVL51:
 801              	.L96:
 889:.\Generated_Source\PSoC5/CyLib.c ****     }
 890:.\Generated_Source\PSoC5/CyLib.c **** 
 891:.\Generated_Source\PSoC5/CyLib.c ****     CyExitCriticalSection(interruptState);
 802              		.loc 1 891 0
 803 0056 3046     		mov	r0, r6
 892:.\Generated_Source\PSoC5/CyLib.c **** }
 804              		.loc 1 892 0
 805 0058 BDE8F840 		pop	{r3, r4, r5, r6, r7, lr}
 891:.\Generated_Source\PSoC5/CyLib.c ****     CyExitCriticalSection(interruptState);
 806              		.loc 1 891 0
 807 005c FFF7FEBF 		b	CyExitCriticalSection
 808              	.LVL52:
 809              	.L101:
 810              		.align	2
 811              	.L100:
 812 0060 07400040 		.word	1073758215
 813 0064 04400040 		.word	1073758212
 814 0068 08400040 		.word	1073758216
 815              		.cfi_endproc
 816              	.LFE15:
 817              		.size	CyBusClk_SetDivider, .-CyBusClk_SetDivider
 818              		.section	.text.CyUsbClk_SetSource,"ax",%progbits
 819              		.align	1
 820              		.global	CyUsbClk_SetSource
 821              		.thumb
 822              		.thumb_func
 823              		.type	CyUsbClk_SetSource, %function
 824              	CyUsbClk_SetSource:
 825              	.LFB16:
 893:.\Generated_Source\PSoC5/CyLib.c **** 
 894:.\Generated_Source\PSoC5/CyLib.c **** 
 895:.\Generated_Source\PSoC5/CyLib.c **** #if(CY_PSOC3)
 896:.\Generated_Source\PSoC5/CyLib.c **** 
 897:.\Generated_Source\PSoC5/CyLib.c ****     /*******************************************************************************
 898:.\Generated_Source\PSoC5/CyLib.c ****     * Function Name: CyCpuClk_SetDivider
 899:.\Generated_Source\PSoC5/CyLib.c ****     ********************************************************************************
 900:.\Generated_Source\PSoC5/CyLib.c ****     *
 901:.\Generated_Source\PSoC5/CyLib.c ****     * Summary:
 902:.\Generated_Source\PSoC5/CyLib.c ****     *  Sets the divider value used to generate the CPU Clock. Only applicable for
 903:.\Generated_Source\PSoC5/CyLib.c ****     *  PSoC 3 parts.
 904:.\Generated_Source\PSoC5/CyLib.c ****     *
 905:.\Generated_Source\PSoC5/CyLib.c ****     * Parameters:
 906:.\Generated_Source\PSoC5/CyLib.c ****     *  divider: Valid range [0-15]. The clock will be divided by this value + 1.
 907:.\Generated_Source\PSoC5/CyLib.c ****     *  For example to divide by 2 this parameter should be set to 1.
 908:.\Generated_Source\PSoC5/CyLib.c ****     *
 909:.\Generated_Source\PSoC5/CyLib.c ****     * Return:
 910:.\Generated_Source\PSoC5/CyLib.c ****     *  None
 911:.\Generated_Source\PSoC5/CyLib.c ****     *
 912:.\Generated_Source\PSoC5/CyLib.c ****     * Side Effects:
 913:.\Generated_Source\PSoC5/CyLib.c ****     *  If as result of this function execution the CPU clock frequency is increased
 914:.\Generated_Source\PSoC5/CyLib.c ****     *  then the number of clock cycles the cache will wait before it samples data
ARM GAS  C:\Users\MICHA_~1\AppData\Local\Temp\ccAOLfnb.s 			page 33


 915:.\Generated_Source\PSoC5/CyLib.c ****     *  coming back from Flash must be adjusted by calling CyFlash_SetWaitCycles()
 916:.\Generated_Source\PSoC5/CyLib.c ****     *  with appropriate parameter. It can be optionally called if CPU clock
 917:.\Generated_Source\PSoC5/CyLib.c ****     *  frequency is lowered in order to improve CPU performance.
 918:.\Generated_Source\PSoC5/CyLib.c ****     *  See CyFlash_SetWaitCycles() description for more information.
 919:.\Generated_Source\PSoC5/CyLib.c ****     *
 920:.\Generated_Source\PSoC5/CyLib.c ****     *******************************************************************************/
 921:.\Generated_Source\PSoC5/CyLib.c ****     void CyCpuClk_SetDivider(uint8 divider) 
 922:.\Generated_Source\PSoC5/CyLib.c ****     {
 923:.\Generated_Source\PSoC5/CyLib.c ****             CY_LIB_CLKDIST_MSTR1_REG = (CY_LIB_CLKDIST_MSTR1_REG & CY_LIB_CLKDIST_MSTR1_DIV_MASK) |
 924:.\Generated_Source\PSoC5/CyLib.c ****                                 ((uint8)(divider << CY_LIB_CLKDIST_DIV_POSITION));
 925:.\Generated_Source\PSoC5/CyLib.c ****     }
 926:.\Generated_Source\PSoC5/CyLib.c **** 
 927:.\Generated_Source\PSoC5/CyLib.c **** #endif /* (CY_PSOC3) */
 928:.\Generated_Source\PSoC5/CyLib.c **** 
 929:.\Generated_Source\PSoC5/CyLib.c **** 
 930:.\Generated_Source\PSoC5/CyLib.c **** /*******************************************************************************
 931:.\Generated_Source\PSoC5/CyLib.c **** * Function Name: CyUsbClk_SetSource
 932:.\Generated_Source\PSoC5/CyLib.c **** ********************************************************************************
 933:.\Generated_Source\PSoC5/CyLib.c **** *
 934:.\Generated_Source\PSoC5/CyLib.c **** * Summary:
 935:.\Generated_Source\PSoC5/CyLib.c **** *  Sets the source of the USB clock.
 936:.\Generated_Source\PSoC5/CyLib.c **** *
 937:.\Generated_Source\PSoC5/CyLib.c **** * Parameters:
 938:.\Generated_Source\PSoC5/CyLib.c **** *  source: One of the four available USB clock sources
 939:.\Generated_Source\PSoC5/CyLib.c **** *    CY_LIB_USB_CLK_IMO2X     - IMO 2x
 940:.\Generated_Source\PSoC5/CyLib.c **** *    CY_LIB_USB_CLK_IMO       - IMO
 941:.\Generated_Source\PSoC5/CyLib.c **** *    CY_LIB_USB_CLK_PLL       - PLL
 942:.\Generated_Source\PSoC5/CyLib.c **** *    CY_LIB_USB_CLK_DSI       - DSI
 943:.\Generated_Source\PSoC5/CyLib.c **** *
 944:.\Generated_Source\PSoC5/CyLib.c **** * Return:
 945:.\Generated_Source\PSoC5/CyLib.c **** *  None
 946:.\Generated_Source\PSoC5/CyLib.c **** *
 947:.\Generated_Source\PSoC5/CyLib.c **** *******************************************************************************/
 948:.\Generated_Source\PSoC5/CyLib.c **** void CyUsbClk_SetSource(uint8 source) 
 949:.\Generated_Source\PSoC5/CyLib.c **** {
 826              		.loc 1 949 0
 827              		.cfi_startproc
 828              		@ args = 0, pretend = 0, frame = 0
 829              		@ frame_needed = 0, uses_anonymous_args = 0
 830              		@ link register save eliminated.
 831              	.LVL53:
 950:.\Generated_Source\PSoC5/CyLib.c ****     CY_LIB_CLKDIST_UCFG_REG = (CY_LIB_CLKDIST_UCFG_REG & ((uint8)(~CY_LIB_CLKDIST_UCFG_SRC_SEL_MASK
 832              		.loc 1 950 0
 833 0000 044B     		ldr	r3, .L103
 834 0002 00F00300 		and	r0, r0, #3
 835              	.LVL54:
 836 0006 1A78     		ldrb	r2, [r3, #0]	@ zero_extendqisi2
 837 0008 02F0FC01 		and	r1, r2, #252
 838 000c 40EA0102 		orr	r2, r0, r1
 839 0010 1A70     		strb	r2, [r3, #0]
 840 0012 7047     		bx	lr
 841              	.L104:
 842              		.align	2
 843              	.L103:
 844 0014 09400040 		.word	1073758217
 845              		.cfi_endproc
 846              	.LFE16:
ARM GAS  C:\Users\MICHA_~1\AppData\Local\Temp\ccAOLfnb.s 			page 34


 847              		.size	CyUsbClk_SetSource, .-CyUsbClk_SetSource
 848              		.section	.text.CyILO_Start1K,"ax",%progbits
 849              		.align	1
 850              		.global	CyILO_Start1K
 851              		.thumb
 852              		.thumb_func
 853              		.type	CyILO_Start1K, %function
 854              	CyILO_Start1K:
 855              	.LFB17:
 951:.\Generated_Source\PSoC5/CyLib.c ****                         (CY_LIB_CLKDIST_UCFG_SRC_SEL_MASK & source);
 952:.\Generated_Source\PSoC5/CyLib.c **** }
 953:.\Generated_Source\PSoC5/CyLib.c **** 
 954:.\Generated_Source\PSoC5/CyLib.c **** 
 955:.\Generated_Source\PSoC5/CyLib.c **** /*******************************************************************************
 956:.\Generated_Source\PSoC5/CyLib.c **** * Function Name: CyILO_Start1K
 957:.\Generated_Source\PSoC5/CyLib.c **** ********************************************************************************
 958:.\Generated_Source\PSoC5/CyLib.c **** *
 959:.\Generated_Source\PSoC5/CyLib.c **** * Summary:
 960:.\Generated_Source\PSoC5/CyLib.c **** *  Enables the ILO 1 KHz oscillator.
 961:.\Generated_Source\PSoC5/CyLib.c **** *
 962:.\Generated_Source\PSoC5/CyLib.c **** *  Note The ILO 1 KHz oscillator is always enabled by default, regardless of the
 963:.\Generated_Source\PSoC5/CyLib.c **** *  selection in the Clock Editor. Therefore, this API is only needed if the
 964:.\Generated_Source\PSoC5/CyLib.c **** *  oscillator was turned off manually.
 965:.\Generated_Source\PSoC5/CyLib.c **** *
 966:.\Generated_Source\PSoC5/CyLib.c **** * Parameters:
 967:.\Generated_Source\PSoC5/CyLib.c **** *  None
 968:.\Generated_Source\PSoC5/CyLib.c **** *
 969:.\Generated_Source\PSoC5/CyLib.c **** * Return:
 970:.\Generated_Source\PSoC5/CyLib.c **** *  None
 971:.\Generated_Source\PSoC5/CyLib.c **** *
 972:.\Generated_Source\PSoC5/CyLib.c **** *******************************************************************************/
 973:.\Generated_Source\PSoC5/CyLib.c **** void CyILO_Start1K(void) 
 974:.\Generated_Source\PSoC5/CyLib.c **** {
 856              		.loc 1 974 0
 857              		.cfi_startproc
 858              		@ args = 0, pretend = 0, frame = 0
 859              		@ frame_needed = 0, uses_anonymous_args = 0
 860              		@ link register save eliminated.
 975:.\Generated_Source\PSoC5/CyLib.c ****     /* Set the bit 1 of ILO RS */
 976:.\Generated_Source\PSoC5/CyLib.c ****     CY_LIB_SLOWCLK_ILO_CR0_REG |= CY_LIB_SLOWCLK_ILO_CR0_EN_1KHZ;
 861              		.loc 1 976 0
 862 0000 024B     		ldr	r3, .L106
 863 0002 1A78     		ldrb	r2, [r3, #0]	@ zero_extendqisi2
 864 0004 42F00200 		orr	r0, r2, #2
 865 0008 1870     		strb	r0, [r3, #0]
 866 000a 7047     		bx	lr
 867              	.L107:
 868              		.align	2
 869              	.L106:
 870 000c 00430040 		.word	1073758976
 871              		.cfi_endproc
 872              	.LFE17:
 873              		.size	CyILO_Start1K, .-CyILO_Start1K
 874              		.section	.text.CyILO_Stop1K,"ax",%progbits
 875              		.align	1
 876              		.global	CyILO_Stop1K
 877              		.thumb
ARM GAS  C:\Users\MICHA_~1\AppData\Local\Temp\ccAOLfnb.s 			page 35


 878              		.thumb_func
 879              		.type	CyILO_Stop1K, %function
 880              	CyILO_Stop1K:
 881              	.LFB18:
 977:.\Generated_Source\PSoC5/CyLib.c **** }
 978:.\Generated_Source\PSoC5/CyLib.c **** 
 979:.\Generated_Source\PSoC5/CyLib.c **** 
 980:.\Generated_Source\PSoC5/CyLib.c **** /*******************************************************************************
 981:.\Generated_Source\PSoC5/CyLib.c **** * Function Name: CyILO_Stop1K
 982:.\Generated_Source\PSoC5/CyLib.c **** ********************************************************************************
 983:.\Generated_Source\PSoC5/CyLib.c **** *
 984:.\Generated_Source\PSoC5/CyLib.c **** * Summary:
 985:.\Generated_Source\PSoC5/CyLib.c **** *  Disables the ILO 1 KHz oscillator.
 986:.\Generated_Source\PSoC5/CyLib.c **** *
 987:.\Generated_Source\PSoC5/CyLib.c **** *  Note The ILO 1 KHz oscillator must be enabled if Sleep or Hibernate low power
 988:.\Generated_Source\PSoC5/CyLib.c **** *  mode APIs are expected to be used. For more information, refer to the Power
 989:.\Generated_Source\PSoC5/CyLib.c **** *  Management section of this document.
 990:.\Generated_Source\PSoC5/CyLib.c **** *
 991:.\Generated_Source\PSoC5/CyLib.c **** * Parameters:
 992:.\Generated_Source\PSoC5/CyLib.c **** *  None
 993:.\Generated_Source\PSoC5/CyLib.c **** *
 994:.\Generated_Source\PSoC5/CyLib.c **** * Return:
 995:.\Generated_Source\PSoC5/CyLib.c **** *  None
 996:.\Generated_Source\PSoC5/CyLib.c **** *
 997:.\Generated_Source\PSoC5/CyLib.c **** * Side Effects:
 998:.\Generated_Source\PSoC5/CyLib.c **** *  PSoC5: Stopping the ILO 1 kHz could break the active WDT functionality.
 999:.\Generated_Source\PSoC5/CyLib.c **** *
1000:.\Generated_Source\PSoC5/CyLib.c **** *******************************************************************************/
1001:.\Generated_Source\PSoC5/CyLib.c **** void CyILO_Stop1K(void) 
1002:.\Generated_Source\PSoC5/CyLib.c **** {
 882              		.loc 1 1002 0
 883              		.cfi_startproc
 884              		@ args = 0, pretend = 0, frame = 0
 885              		@ frame_needed = 0, uses_anonymous_args = 0
 886              		@ link register save eliminated.
1003:.\Generated_Source\PSoC5/CyLib.c ****     /* Clear the bit 1 of ILO RS */
1004:.\Generated_Source\PSoC5/CyLib.c ****     CY_LIB_SLOWCLK_ILO_CR0_REG &= ((uint8)(~CY_LIB_SLOWCLK_ILO_CR0_EN_1KHZ));
 887              		.loc 1 1004 0
 888 0000 024B     		ldr	r3, .L109
 889 0002 1A78     		ldrb	r2, [r3, #0]	@ zero_extendqisi2
 890 0004 02F0FD00 		and	r0, r2, #253
 891 0008 1870     		strb	r0, [r3, #0]
 892 000a 7047     		bx	lr
 893              	.L110:
 894              		.align	2
 895              	.L109:
 896 000c 00430040 		.word	1073758976
 897              		.cfi_endproc
 898              	.LFE18:
 899              		.size	CyILO_Stop1K, .-CyILO_Stop1K
 900              		.section	.text.CyILO_Start100K,"ax",%progbits
 901              		.align	1
 902              		.global	CyILO_Start100K
 903              		.thumb
 904              		.thumb_func
 905              		.type	CyILO_Start100K, %function
 906              	CyILO_Start100K:
ARM GAS  C:\Users\MICHA_~1\AppData\Local\Temp\ccAOLfnb.s 			page 36


 907              	.LFB19:
1005:.\Generated_Source\PSoC5/CyLib.c **** }
1006:.\Generated_Source\PSoC5/CyLib.c **** 
1007:.\Generated_Source\PSoC5/CyLib.c **** 
1008:.\Generated_Source\PSoC5/CyLib.c **** /*******************************************************************************
1009:.\Generated_Source\PSoC5/CyLib.c **** * Function Name: CyILO_Start100K
1010:.\Generated_Source\PSoC5/CyLib.c **** ********************************************************************************
1011:.\Generated_Source\PSoC5/CyLib.c **** *
1012:.\Generated_Source\PSoC5/CyLib.c **** * Summary:
1013:.\Generated_Source\PSoC5/CyLib.c **** *  Enables the ILO 100 KHz oscillator.
1014:.\Generated_Source\PSoC5/CyLib.c **** *
1015:.\Generated_Source\PSoC5/CyLib.c **** * Parameters:
1016:.\Generated_Source\PSoC5/CyLib.c **** *  None
1017:.\Generated_Source\PSoC5/CyLib.c **** *
1018:.\Generated_Source\PSoC5/CyLib.c **** * Return:
1019:.\Generated_Source\PSoC5/CyLib.c **** *  None
1020:.\Generated_Source\PSoC5/CyLib.c **** *
1021:.\Generated_Source\PSoC5/CyLib.c **** *******************************************************************************/
1022:.\Generated_Source\PSoC5/CyLib.c **** void CyILO_Start100K(void) 
1023:.\Generated_Source\PSoC5/CyLib.c **** {
 908              		.loc 1 1023 0
 909              		.cfi_startproc
 910              		@ args = 0, pretend = 0, frame = 0
 911              		@ frame_needed = 0, uses_anonymous_args = 0
 912              		@ link register save eliminated.
1024:.\Generated_Source\PSoC5/CyLib.c ****     CY_LIB_SLOWCLK_ILO_CR0_REG |= CY_LIB_SLOWCLK_ILO_CR0_EN_100KHZ;
 913              		.loc 1 1024 0
 914 0000 024B     		ldr	r3, .L112
 915 0002 1A78     		ldrb	r2, [r3, #0]	@ zero_extendqisi2
 916 0004 42F00400 		orr	r0, r2, #4
 917 0008 1870     		strb	r0, [r3, #0]
 918 000a 7047     		bx	lr
 919              	.L113:
 920              		.align	2
 921              	.L112:
 922 000c 00430040 		.word	1073758976
 923              		.cfi_endproc
 924              	.LFE19:
 925              		.size	CyILO_Start100K, .-CyILO_Start100K
 926              		.section	.text.CyILO_Stop100K,"ax",%progbits
 927              		.align	1
 928              		.global	CyILO_Stop100K
 929              		.thumb
 930              		.thumb_func
 931              		.type	CyILO_Stop100K, %function
 932              	CyILO_Stop100K:
 933              	.LFB20:
1025:.\Generated_Source\PSoC5/CyLib.c **** }
1026:.\Generated_Source\PSoC5/CyLib.c **** 
1027:.\Generated_Source\PSoC5/CyLib.c **** 
1028:.\Generated_Source\PSoC5/CyLib.c **** /*******************************************************************************
1029:.\Generated_Source\PSoC5/CyLib.c **** * Function Name: CyILO_Stop100K
1030:.\Generated_Source\PSoC5/CyLib.c **** ********************************************************************************
1031:.\Generated_Source\PSoC5/CyLib.c **** *
1032:.\Generated_Source\PSoC5/CyLib.c **** * Summary:
1033:.\Generated_Source\PSoC5/CyLib.c **** *  Disables the ILO 100 KHz oscillator.
1034:.\Generated_Source\PSoC5/CyLib.c **** *
ARM GAS  C:\Users\MICHA_~1\AppData\Local\Temp\ccAOLfnb.s 			page 37


1035:.\Generated_Source\PSoC5/CyLib.c **** * Parameters:
1036:.\Generated_Source\PSoC5/CyLib.c **** *  None
1037:.\Generated_Source\PSoC5/CyLib.c **** *
1038:.\Generated_Source\PSoC5/CyLib.c **** * Return:
1039:.\Generated_Source\PSoC5/CyLib.c **** *  None
1040:.\Generated_Source\PSoC5/CyLib.c **** *
1041:.\Generated_Source\PSoC5/CyLib.c **** *******************************************************************************/
1042:.\Generated_Source\PSoC5/CyLib.c **** void CyILO_Stop100K(void) 
1043:.\Generated_Source\PSoC5/CyLib.c **** {
 934              		.loc 1 1043 0
 935              		.cfi_startproc
 936              		@ args = 0, pretend = 0, frame = 0
 937              		@ frame_needed = 0, uses_anonymous_args = 0
 938              		@ link register save eliminated.
1044:.\Generated_Source\PSoC5/CyLib.c ****     CY_LIB_SLOWCLK_ILO_CR0_REG &= ((uint8)(~CY_LIB_SLOWCLK_ILO_CR0_EN_100KHZ));
 939              		.loc 1 1044 0
 940 0000 024B     		ldr	r3, .L115
 941 0002 1A78     		ldrb	r2, [r3, #0]	@ zero_extendqisi2
 942 0004 02F0FB00 		and	r0, r2, #251
 943 0008 1870     		strb	r0, [r3, #0]
 944 000a 7047     		bx	lr
 945              	.L116:
 946              		.align	2
 947              	.L115:
 948 000c 00430040 		.word	1073758976
 949              		.cfi_endproc
 950              	.LFE20:
 951              		.size	CyILO_Stop100K, .-CyILO_Stop100K
 952              		.section	.text.CyIMO_Start,"ax",%progbits
 953              		.align	1
 954              		.global	CyIMO_Start
 955              		.thumb
 956              		.thumb_func
 957              		.type	CyIMO_Start, %function
 958              	CyIMO_Start:
 959              	.LFB4:
 297:.\Generated_Source\PSoC5/CyLib.c **** {
 960              		.loc 1 297 0
 961              		.cfi_startproc
 962              		@ args = 0, pretend = 0, frame = 0
 963              		@ frame_needed = 0, uses_anonymous_args = 0
 964              	.LVL55:
 965 0000 70B5     		push	{r4, r5, r6, lr}
 966              	.LCFI2:
 967              		.cfi_def_cfa_offset 16
 968              		.cfi_offset 4, -16
 969              		.cfi_offset 5, -12
 970              		.cfi_offset 6, -8
 971              		.cfi_offset 14, -4
 303:.\Generated_Source\PSoC5/CyLib.c ****     CY_LIB_PM_ACT_CFG0_REG  |= CY_LIB_PM_ACT_CFG0_IMO_EN;
 972              		.loc 1 303 0
 973 0002 114B     		ldr	r3, .L128
 974 0004 1A78     		ldrb	r2, [r3, #0]	@ zero_extendqisi2
 975 0006 42F01001 		orr	r1, r2, #16
 976 000a 1970     		strb	r1, [r3, #0]
 304:.\Generated_Source\PSoC5/CyLib.c ****     CY_LIB_PM_STBY_CFG0_REG |= CY_LIB_PM_STBY_CFG0_IMO_EN;
 977              		.loc 1 304 0
ARM GAS  C:\Users\MICHA_~1\AppData\Local\Temp\ccAOLfnb.s 			page 38


 978 000c 1A7C     		ldrb	r2, [r3, #16]	@ zero_extendqisi2
 979 000e 42F01001 		orr	r1, r2, #16
 980 0012 1974     		strb	r1, [r3, #16]
 981 0014 1033     		adds	r3, r3, #16
 306:.\Generated_Source\PSoC5/CyLib.c ****     if(0u != wait)
 982              		.loc 1 306 0
 983 0016 B0B1     		cbz	r0, .L117
 309:.\Generated_Source\PSoC5/CyLib.c ****         ilo100KhzEnable = CY_LIB_SLOWCLK_ILO_CR0_REG & CY_LIB_SLOWCLK_ILO_CR0_EN_100KHZ;
 984              		.loc 1 309 0
 985 0018 13F8B06C 		ldrb	r6, [r3, #-176]	@ zero_extendqisi2
 310:.\Generated_Source\PSoC5/CyLib.c ****         pmFtwCfg0Reg = CY_LIB_PM_TW_CFG0_REG;
 986              		.loc 1 310 0
 987 001c 13F8305C 		ldrb	r5, [r3, #-48]	@ zero_extendqisi2
 309:.\Generated_Source\PSoC5/CyLib.c ****         ilo100KhzEnable = CY_LIB_SLOWCLK_ILO_CR0_REG & CY_LIB_SLOWCLK_ILO_CR0_EN_100KHZ;
 988              		.loc 1 309 0
 989 0020 06F00400 		and	r0, r6, #4
 990              	.LVL56:
 991 0024 C6B2     		uxtb	r6, r0
 992              	.LVL57:
 313:.\Generated_Source\PSoC5/CyLib.c ****         CyPmFtwSetInterval(CY_LIB_CLK_IMO_FTW_TIMEOUT);
 993              		.loc 1 313 0
 994 0026 0020     		movs	r0, #0
 995              	.LVL58:
 311:.\Generated_Source\PSoC5/CyLib.c ****         pmFtwCfg2Reg = CY_LIB_PM_TW_CFG2_REG;
 996              		.loc 1 311 0
 997 0028 13F82E4C 		ldrb	r4, [r3, #-46]	@ zero_extendqisi2
 998              	.LVL59:
 313:.\Generated_Source\PSoC5/CyLib.c ****         CyPmFtwSetInterval(CY_LIB_CLK_IMO_FTW_TIMEOUT);
 999              		.loc 1 313 0
 1000 002c FFF7FEFF 		bl	CyPmFtwSetInterval
 1001              	.LVL60:
 1002              	.L119:
 315:.\Generated_Source\PSoC5/CyLib.c ****         while (0u == (CY_PM_FTW_INT & CyPmReadStatus(CY_PM_FTW_INT)))
 1003              		.loc 1 315 0 discriminator 1
 1004 0030 0120     		movs	r0, #1
 1005 0032 FFF7FEFF 		bl	CyPmReadStatus
 1006              	.LVL61:
 1007 0036 C107     		lsls	r1, r0, #31
 1008 0038 FAD5     		bpl	.L119
 320:.\Generated_Source\PSoC5/CyLib.c ****         if(0u == ilo100KhzEnable)
 1009              		.loc 1 320 0
 1010 003a 0EB9     		cbnz	r6, .L120
 322:.\Generated_Source\PSoC5/CyLib.c ****             CyILO_Stop100K();
 1011              		.loc 1 322 0
 1012 003c FFF7FEFF 		bl	CyILO_Stop100K
 1013              	.LVL62:
 1014              	.L120:
 325:.\Generated_Source\PSoC5/CyLib.c ****         CY_LIB_PM_TW_CFG0_REG = pmFtwCfg0Reg;
 1015              		.loc 1 325 0
 1016 0040 024B     		ldr	r3, .L128+4
 1017 0042 1D70     		strb	r5, [r3, #0]
 326:.\Generated_Source\PSoC5/CyLib.c ****         CY_LIB_PM_TW_CFG2_REG = pmFtwCfg2Reg;
 1018              		.loc 1 326 0
 1019 0044 9C70     		strb	r4, [r3, #2]
 1020              	.LVL63:
 1021              	.L117:
 1022 0046 70BD     		pop	{r4, r5, r6, pc}
ARM GAS  C:\Users\MICHA_~1\AppData\Local\Temp\ccAOLfnb.s 			page 39


 1023              	.L129:
 1024              		.align	2
 1025              	.L128:
 1026 0048 A0430040 		.word	1073759136
 1027 004c 80430040 		.word	1073759104
 1028              		.cfi_endproc
 1029              	.LFE4:
 1030              		.size	CyIMO_Start, .-CyIMO_Start
 1031              		.section	.text.CyPLL_OUT_Start,"ax",%progbits
 1032              		.align	1
 1033              		.global	CyPLL_OUT_Start
 1034              		.thumb
 1035              		.thumb_func
 1036              		.type	CyPLL_OUT_Start, %function
 1037              	CyPLL_OUT_Start:
 1038              	.LFB0:
  90:.\Generated_Source\PSoC5/CyLib.c **** {
 1039              		.loc 1 90 0
 1040              		.cfi_startproc
 1041              		@ args = 0, pretend = 0, frame = 0
 1042              		@ frame_needed = 0, uses_anonymous_args = 0
 1043              	.LVL64:
 1044 0000 F8B5     		push	{r3, r4, r5, r6, r7, lr}
 1045              	.LCFI3:
 1046              		.cfi_def_cfa_offset 24
 1047              		.cfi_offset 3, -24
 1048              		.cfi_offset 4, -20
 1049              		.cfi_offset 5, -16
 1050              		.cfi_offset 6, -12
 1051              		.cfi_offset 7, -8
 1052              		.cfi_offset 14, -4
  99:.\Generated_Source\PSoC5/CyLib.c ****     CY_CLK_PLL_CFG0_REG |= CY_CLK_PLL_ENABLE;
 1053              		.loc 1 99 0
 1054 0002 164B     		ldr	r3, .L145
 1055 0004 1A78     		ldrb	r2, [r3, #0]	@ zero_extendqisi2
 1056 0006 42F00101 		orr	r1, r2, #1
 1057 000a 1970     		strb	r1, [r3, #0]
 101:.\Generated_Source\PSoC5/CyLib.c ****     if(wait != 0u)
 1058              		.loc 1 101 0
 1059 000c 10B3     		cbz	r0, .L136
 104:.\Generated_Source\PSoC5/CyLib.c ****         iloEnableState = CY_LIB_SLOWCLK_ILO_CR0_REG & CY_LIB_SLOWCLK_ILO_CR0_EN_100KHZ;
 1060              		.loc 1 104 0
 1061 000e 93F8E070 		ldrb	r7, [r3, #224]	@ zero_extendqisi2
 105:.\Generated_Source\PSoC5/CyLib.c ****         pmTwCfg0State = CY_LIB_PM_TW_CFG0_REG;
 1062              		.loc 1 105 0
 1063 0012 93F86061 		ldrb	r6, [r3, #352]	@ zero_extendqisi2
 104:.\Generated_Source\PSoC5/CyLib.c ****         iloEnableState = CY_LIB_SLOWCLK_ILO_CR0_REG & CY_LIB_SLOWCLK_ILO_CR0_EN_100KHZ;
 1064              		.loc 1 104 0
 1065 0016 07F00400 		and	r0, r7, #4
 1066              	.LVL65:
 1067 001a C7B2     		uxtb	r7, r0
 1068              	.LVL66:
 108:.\Generated_Source\PSoC5/CyLib.c ****         CyPmFtwSetInterval(CY_CLK_PLL_FTW_INTERVAL);
 1069              		.loc 1 108 0
 1070 001c 1820     		movs	r0, #24
 1071              	.LVL67:
 106:.\Generated_Source\PSoC5/CyLib.c ****         pmTwCfg2State = CY_LIB_PM_TW_CFG2_REG;
ARM GAS  C:\Users\MICHA_~1\AppData\Local\Temp\ccAOLfnb.s 			page 40


 1072              		.loc 1 106 0
 1073 001e 93F86251 		ldrb	r5, [r3, #354]	@ zero_extendqisi2
 1074              	.LVL68:
 108:.\Generated_Source\PSoC5/CyLib.c ****         CyPmFtwSetInterval(CY_CLK_PLL_FTW_INTERVAL);
 1075              		.loc 1 108 0
 1076 0022 FFF7FEFF 		bl	CyPmFtwSetInterval
 1077              	.LVL69:
 1078              	.L143:
 112:.\Generated_Source\PSoC5/CyLib.c ****         while(0u == (CY_PM_FTW_INT & CyPmReadStatus(CY_PM_FTW_INT)))
 1079              		.loc 1 112 0 discriminator 1
 1080 0026 0120     		movs	r0, #1
 1081 0028 FFF7FEFF 		bl	CyPmReadStatus
 1082              	.LVL70:
 1083 002c 10F00101 		ands	r1, r0, #1
 1084 0030 08D1     		bne	.L144
 1085              	.L134:
 115:.\Generated_Source\PSoC5/CyLib.c ****             if(0u != (CY_CLK_PLL_SR_REG & CY_CLK_PLL_LOCK_STATUS))
 1086              		.loc 1 115 0
 1087 0032 0B4C     		ldr	r4, .L145+4
 1088 0034 2378     		ldrb	r3, [r4, #0]	@ zero_extendqisi2
 1089 0036 DA07     		lsls	r2, r3, #31
 1090 0038 F5D5     		bpl	.L143
 117:.\Generated_Source\PSoC5/CyLib.c ****                 if(0u != (CY_CLK_PLL_SR_REG & CY_CLK_PLL_LOCK_STATUS))
 1091              		.loc 1 117 0
 1092 003a 2278     		ldrb	r2, [r4, #0]	@ zero_extendqisi2
 1093 003c D407     		lsls	r4, r2, #31
 1094 003e F2D5     		bpl	.L143
 1095              	.L137:
 119:.\Generated_Source\PSoC5/CyLib.c ****                     status = CYRET_SUCCESS;
 1096              		.loc 1 119 0
 1097 0040 0C46     		mov	r4, r1
 1098 0042 00E0     		b	.L133
 1099              	.L144:
 110:.\Generated_Source\PSoC5/CyLib.c ****         status = CYRET_TIMEOUT;
 1100              		.loc 1 110 0
 1101 0044 1024     		movs	r4, #16
 1102              	.L133:
 1103              	.LVL71:
 126:.\Generated_Source\PSoC5/CyLib.c ****         if(0u == iloEnableState)
 1104              		.loc 1 126 0
 1105 0046 0FB9     		cbnz	r7, .L135
 128:.\Generated_Source\PSoC5/CyLib.c ****             CyILO_Stop100K();
 1106              		.loc 1 128 0
 1107 0048 FFF7FEFF 		bl	CyILO_Stop100K
 1108              	.LVL72:
 1109              	.L135:
 131:.\Generated_Source\PSoC5/CyLib.c ****         CY_LIB_PM_TW_CFG0_REG = pmTwCfg0State;
 1110              		.loc 1 131 0
 1111 004c 0548     		ldr	r0, .L145+8
 1112 004e 0670     		strb	r6, [r0, #0]
 132:.\Generated_Source\PSoC5/CyLib.c ****         CY_LIB_PM_TW_CFG2_REG = pmTwCfg2State;
 1113              		.loc 1 132 0
 1114 0050 8570     		strb	r5, [r0, #2]
 1115 0052 00E0     		b	.L131
 1116              	.LVL73:
 1117              	.L136:
  91:.\Generated_Source\PSoC5/CyLib.c ****     cystatus status = CYRET_SUCCESS;
ARM GAS  C:\Users\MICHA_~1\AppData\Local\Temp\ccAOLfnb.s 			page 41


 1118              		.loc 1 91 0
 1119 0054 0446     		mov	r4, r0
 1120              	.LVL74:
 1121              	.L131:
 136:.\Generated_Source\PSoC5/CyLib.c **** }
 1122              		.loc 1 136 0
 1123 0056 2046     		mov	r0, r4
 1124 0058 F8BD     		pop	{r3, r4, r5, r6, r7, pc}
 1125              	.L146:
 1126 005a 00BF     		.align	2
 1127              	.L145:
 1128 005c 20420040 		.word	1073758752
 1129 0060 25420040 		.word	1073758757
 1130 0064 80430040 		.word	1073759104
 1131              		.cfi_endproc
 1132              	.LFE0:
 1133              		.size	CyPLL_OUT_Start, .-CyPLL_OUT_Start
 1134              		.section	.text.CyILO_Enable33K,"ax",%progbits
 1135              		.align	1
 1136              		.global	CyILO_Enable33K
 1137              		.thumb
 1138              		.thumb_func
 1139              		.type	CyILO_Enable33K, %function
 1140              	CyILO_Enable33K:
 1141              	.LFB21:
1045:.\Generated_Source\PSoC5/CyLib.c **** }
1046:.\Generated_Source\PSoC5/CyLib.c **** 
1047:.\Generated_Source\PSoC5/CyLib.c **** 
1048:.\Generated_Source\PSoC5/CyLib.c **** /*******************************************************************************
1049:.\Generated_Source\PSoC5/CyLib.c **** * Function Name: CyILO_Enable33K
1050:.\Generated_Source\PSoC5/CyLib.c **** ********************************************************************************
1051:.\Generated_Source\PSoC5/CyLib.c **** *
1052:.\Generated_Source\PSoC5/CyLib.c **** * Summary:
1053:.\Generated_Source\PSoC5/CyLib.c **** *  Enables the ILO 33 KHz divider.
1054:.\Generated_Source\PSoC5/CyLib.c **** *
1055:.\Generated_Source\PSoC5/CyLib.c **** *  Note that the 33 KHz clock is generated from the 100 KHz oscillator,
1056:.\Generated_Source\PSoC5/CyLib.c **** *  so it must also be running in order to generate the 33 KHz output.
1057:.\Generated_Source\PSoC5/CyLib.c **** *
1058:.\Generated_Source\PSoC5/CyLib.c **** * Parameters:
1059:.\Generated_Source\PSoC5/CyLib.c **** *  None
1060:.\Generated_Source\PSoC5/CyLib.c **** *
1061:.\Generated_Source\PSoC5/CyLib.c **** * Return:
1062:.\Generated_Source\PSoC5/CyLib.c **** *  None
1063:.\Generated_Source\PSoC5/CyLib.c **** *
1064:.\Generated_Source\PSoC5/CyLib.c **** *******************************************************************************/
1065:.\Generated_Source\PSoC5/CyLib.c **** void CyILO_Enable33K(void) 
1066:.\Generated_Source\PSoC5/CyLib.c **** {
 1142              		.loc 1 1066 0
 1143              		.cfi_startproc
 1144              		@ args = 0, pretend = 0, frame = 0
 1145              		@ frame_needed = 0, uses_anonymous_args = 0
 1146              		@ link register save eliminated.
1067:.\Generated_Source\PSoC5/CyLib.c ****     /* Set the bit 5 of ILO RS */
1068:.\Generated_Source\PSoC5/CyLib.c ****     CY_LIB_SLOWCLK_ILO_CR0_REG |= CY_LIB_SLOWCLK_ILO_CR0_EN_33KHZ;
 1147              		.loc 1 1068 0
 1148 0000 024B     		ldr	r3, .L148
 1149 0002 1A78     		ldrb	r2, [r3, #0]	@ zero_extendqisi2
ARM GAS  C:\Users\MICHA_~1\AppData\Local\Temp\ccAOLfnb.s 			page 42


 1150 0004 42F02000 		orr	r0, r2, #32
 1151 0008 1870     		strb	r0, [r3, #0]
 1152 000a 7047     		bx	lr
 1153              	.L149:
 1154              		.align	2
 1155              	.L148:
 1156 000c 00430040 		.word	1073758976
 1157              		.cfi_endproc
 1158              	.LFE21:
 1159              		.size	CyILO_Enable33K, .-CyILO_Enable33K
 1160              		.section	.text.CyILO_Disable33K,"ax",%progbits
 1161              		.align	1
 1162              		.global	CyILO_Disable33K
 1163              		.thumb
 1164              		.thumb_func
 1165              		.type	CyILO_Disable33K, %function
 1166              	CyILO_Disable33K:
 1167              	.LFB22:
1069:.\Generated_Source\PSoC5/CyLib.c **** }
1070:.\Generated_Source\PSoC5/CyLib.c **** 
1071:.\Generated_Source\PSoC5/CyLib.c **** 
1072:.\Generated_Source\PSoC5/CyLib.c **** /*******************************************************************************
1073:.\Generated_Source\PSoC5/CyLib.c **** * Function Name: CyILO_Disable33K
1074:.\Generated_Source\PSoC5/CyLib.c **** ********************************************************************************
1075:.\Generated_Source\PSoC5/CyLib.c **** *
1076:.\Generated_Source\PSoC5/CyLib.c **** * Summary:
1077:.\Generated_Source\PSoC5/CyLib.c **** *  Disables the ILO 33 KHz divider.
1078:.\Generated_Source\PSoC5/CyLib.c **** *
1079:.\Generated_Source\PSoC5/CyLib.c **** *  Note that the 33 KHz clock is generated from the 100 KHz oscillator, but this
1080:.\Generated_Source\PSoC5/CyLib.c **** *  API does not disable the 100 KHz clock.
1081:.\Generated_Source\PSoC5/CyLib.c **** *
1082:.\Generated_Source\PSoC5/CyLib.c **** * Parameters:
1083:.\Generated_Source\PSoC5/CyLib.c **** *  None
1084:.\Generated_Source\PSoC5/CyLib.c **** *
1085:.\Generated_Source\PSoC5/CyLib.c **** * Return:
1086:.\Generated_Source\PSoC5/CyLib.c **** *  None
1087:.\Generated_Source\PSoC5/CyLib.c **** *
1088:.\Generated_Source\PSoC5/CyLib.c **** *******************************************************************************/
1089:.\Generated_Source\PSoC5/CyLib.c **** void CyILO_Disable33K(void) 
1090:.\Generated_Source\PSoC5/CyLib.c **** {
 1168              		.loc 1 1090 0
 1169              		.cfi_startproc
 1170              		@ args = 0, pretend = 0, frame = 0
 1171              		@ frame_needed = 0, uses_anonymous_args = 0
 1172              		@ link register save eliminated.
1091:.\Generated_Source\PSoC5/CyLib.c ****     CY_LIB_SLOWCLK_ILO_CR0_REG &= ((uint8)(~CY_LIB_SLOWCLK_ILO_CR0_EN_33KHZ));
 1173              		.loc 1 1091 0
 1174 0000 024B     		ldr	r3, .L151
 1175 0002 1A78     		ldrb	r2, [r3, #0]	@ zero_extendqisi2
 1176 0004 02F0DF00 		and	r0, r2, #223
 1177 0008 1870     		strb	r0, [r3, #0]
 1178 000a 7047     		bx	lr
 1179              	.L152:
 1180              		.align	2
 1181              	.L151:
 1182 000c 00430040 		.word	1073758976
 1183              		.cfi_endproc
ARM GAS  C:\Users\MICHA_~1\AppData\Local\Temp\ccAOLfnb.s 			page 43


 1184              	.LFE22:
 1185              		.size	CyILO_Disable33K, .-CyILO_Disable33K
 1186              		.section	.text.CyILO_SetSource,"ax",%progbits
 1187              		.align	1
 1188              		.global	CyILO_SetSource
 1189              		.thumb
 1190              		.thumb_func
 1191              		.type	CyILO_SetSource, %function
 1192              	CyILO_SetSource:
 1193              	.LFB23:
1092:.\Generated_Source\PSoC5/CyLib.c **** }
1093:.\Generated_Source\PSoC5/CyLib.c **** 
1094:.\Generated_Source\PSoC5/CyLib.c **** 
1095:.\Generated_Source\PSoC5/CyLib.c **** /*******************************************************************************
1096:.\Generated_Source\PSoC5/CyLib.c **** * Function Name: CyILO_SetSource
1097:.\Generated_Source\PSoC5/CyLib.c **** ********************************************************************************
1098:.\Generated_Source\PSoC5/CyLib.c **** *
1099:.\Generated_Source\PSoC5/CyLib.c **** * Summary:
1100:.\Generated_Source\PSoC5/CyLib.c **** *  Sets the source of the clock output from the ILO block.
1101:.\Generated_Source\PSoC5/CyLib.c **** *
1102:.\Generated_Source\PSoC5/CyLib.c **** * Parameters:
1103:.\Generated_Source\PSoC5/CyLib.c **** *  source: One of the three available ILO output sources
1104:.\Generated_Source\PSoC5/CyLib.c **** *       Value        Define                Source
1105:.\Generated_Source\PSoC5/CyLib.c **** *       0            CY_ILO_SOURCE_100K    ILO 100 KHz
1106:.\Generated_Source\PSoC5/CyLib.c **** *       1            CY_ILO_SOURCE_33K     ILO 33 KHz
1107:.\Generated_Source\PSoC5/CyLib.c **** *       2            CY_ILO_SOURCE_1K      ILO 1 KHz
1108:.\Generated_Source\PSoC5/CyLib.c **** *
1109:.\Generated_Source\PSoC5/CyLib.c **** * Return:
1110:.\Generated_Source\PSoC5/CyLib.c **** *  None
1111:.\Generated_Source\PSoC5/CyLib.c **** *
1112:.\Generated_Source\PSoC5/CyLib.c **** *******************************************************************************/
1113:.\Generated_Source\PSoC5/CyLib.c **** void CyILO_SetSource(uint8 source) 
1114:.\Generated_Source\PSoC5/CyLib.c **** {
 1194              		.loc 1 1114 0
 1195              		.cfi_startproc
 1196              		@ args = 0, pretend = 0, frame = 0
 1197              		@ frame_needed = 0, uses_anonymous_args = 0
 1198              		@ link register save eliminated.
 1199              	.LVL75:
1115:.\Generated_Source\PSoC5/CyLib.c ****     CY_LIB_CLKDIST_CR_REG = (CY_LIB_CLKDIST_CR_REG & CY_ILO_SOURCE_BITS_CLEAR) |
 1200              		.loc 1 1115 0
 1201 0000 4FF04023 		mov	r3, #1073758208
 1202 0004 1A78     		ldrb	r2, [r3, #0]	@ zero_extendqisi2
1116:.\Generated_Source\PSoC5/CyLib.c ****                     (((uint8) (source << 2u)) & ((uint8)(~CY_ILO_SOURCE_BITS_CLEAR)));
 1203              		.loc 1 1116 0
 1204 0006 8000     		lsls	r0, r0, #2
 1205              	.LVL76:
1115:.\Generated_Source\PSoC5/CyLib.c ****     CY_LIB_CLKDIST_CR_REG = (CY_LIB_CLKDIST_CR_REG & CY_ILO_SOURCE_BITS_CLEAR) |
 1206              		.loc 1 1115 0
 1207 0008 00F00C01 		and	r1, r0, #12
 1208 000c 02F0F302 		and	r2, r2, #243
 1209 0010 41EA0200 		orr	r0, r1, r2
 1210 0014 1870     		strb	r0, [r3, #0]
 1211 0016 7047     		bx	lr
 1212              		.cfi_endproc
 1213              	.LFE23:
 1214              		.size	CyILO_SetSource, .-CyILO_SetSource
ARM GAS  C:\Users\MICHA_~1\AppData\Local\Temp\ccAOLfnb.s 			page 44


 1215              		.section	.text.CyILO_SetPowerMode,"ax",%progbits
 1216              		.align	1
 1217              		.global	CyILO_SetPowerMode
 1218              		.thumb
 1219              		.thumb_func
 1220              		.type	CyILO_SetPowerMode, %function
 1221              	CyILO_SetPowerMode:
 1222              	.LFB24:
1117:.\Generated_Source\PSoC5/CyLib.c **** }
1118:.\Generated_Source\PSoC5/CyLib.c **** 
1119:.\Generated_Source\PSoC5/CyLib.c **** 
1120:.\Generated_Source\PSoC5/CyLib.c **** /*******************************************************************************
1121:.\Generated_Source\PSoC5/CyLib.c **** * Function Name: CyILO_SetPowerMode
1122:.\Generated_Source\PSoC5/CyLib.c **** ********************************************************************************
1123:.\Generated_Source\PSoC5/CyLib.c **** *
1124:.\Generated_Source\PSoC5/CyLib.c **** * Summary:
1125:.\Generated_Source\PSoC5/CyLib.c **** *  Sets the power mode used by the ILO during power down. Allows for lower power
1126:.\Generated_Source\PSoC5/CyLib.c **** *  down power usage resulting in a slower startup time.
1127:.\Generated_Source\PSoC5/CyLib.c **** *
1128:.\Generated_Source\PSoC5/CyLib.c **** * Parameters:
1129:.\Generated_Source\PSoC5/CyLib.c **** *  uint8 mode
1130:.\Generated_Source\PSoC5/CyLib.c **** *   CY_ILO_FAST_START - Faster start-up, internal bias left on when powered down
1131:.\Generated_Source\PSoC5/CyLib.c **** *   CY_ILO_SLOW_START - Slower start-up, internal bias off when powered down
1132:.\Generated_Source\PSoC5/CyLib.c **** *
1133:.\Generated_Source\PSoC5/CyLib.c **** * Return:
1134:.\Generated_Source\PSoC5/CyLib.c **** *   Prevous power mode state.
1135:.\Generated_Source\PSoC5/CyLib.c **** *
1136:.\Generated_Source\PSoC5/CyLib.c **** *******************************************************************************/
1137:.\Generated_Source\PSoC5/CyLib.c **** uint8 CyILO_SetPowerMode(uint8 mode) 
1138:.\Generated_Source\PSoC5/CyLib.c **** {
 1223              		.loc 1 1138 0
 1224              		.cfi_startproc
 1225              		@ args = 0, pretend = 0, frame = 0
 1226              		@ frame_needed = 0, uses_anonymous_args = 0
 1227              		@ link register save eliminated.
 1228              	.LVL77:
1139:.\Generated_Source\PSoC5/CyLib.c ****     uint8 state;
1140:.\Generated_Source\PSoC5/CyLib.c **** 
1141:.\Generated_Source\PSoC5/CyLib.c ****     /* Get current state. */
1142:.\Generated_Source\PSoC5/CyLib.c ****     state = CY_LIB_SLOWCLK_ILO_CR0_REG;
 1229              		.loc 1 1142 0
 1230 0000 054A     		ldr	r2, .L158
 1231 0002 1378     		ldrb	r3, [r2, #0]	@ zero_extendqisi2
 1232              	.LVL78:
1143:.\Generated_Source\PSoC5/CyLib.c **** 
1144:.\Generated_Source\PSoC5/CyLib.c ****     /* Set the the oscillator power mode. */
1145:.\Generated_Source\PSoC5/CyLib.c ****     if(mode != CY_ILO_FAST_START)
 1233              		.loc 1 1145 0
 1234 0004 10B1     		cbz	r0, .L155
1146:.\Generated_Source\PSoC5/CyLib.c ****     {
1147:.\Generated_Source\PSoC5/CyLib.c ****         CY_LIB_SLOWCLK_ILO_CR0_REG = (state | CY_ILO_CONTROL_PD_MODE);
 1235              		.loc 1 1147 0
 1236 0006 43F01001 		orr	r1, r3, #16
 1237 000a 01E0     		b	.L157
 1238              	.L155:
1148:.\Generated_Source\PSoC5/CyLib.c ****     }
1149:.\Generated_Source\PSoC5/CyLib.c ****     else
ARM GAS  C:\Users\MICHA_~1\AppData\Local\Temp\ccAOLfnb.s 			page 45


1150:.\Generated_Source\PSoC5/CyLib.c ****     {
1151:.\Generated_Source\PSoC5/CyLib.c ****         CY_LIB_SLOWCLK_ILO_CR0_REG = (state & ((uint8)(~CY_ILO_CONTROL_PD_MODE)));
 1239              		.loc 1 1151 0
 1240 000c 03F0EF01 		and	r1, r3, #239
 1241              	.L157:
 1242 0010 1170     		strb	r1, [r2, #0]
1152:.\Generated_Source\PSoC5/CyLib.c ****     }
1153:.\Generated_Source\PSoC5/CyLib.c **** 
1154:.\Generated_Source\PSoC5/CyLib.c ****     /* Return the old mode. */
1155:.\Generated_Source\PSoC5/CyLib.c ****     return ((state & CY_ILO_CONTROL_PD_MODE) >> CY_ILO_CONTROL_PD_POSITION);
1156:.\Generated_Source\PSoC5/CyLib.c **** }
 1243              		.loc 1 1156 0
 1244 0012 C3F30010 		ubfx	r0, r3, #4, #1
 1245              	.LVL79:
 1246 0016 7047     		bx	lr
 1247              	.L159:
 1248              		.align	2
 1249              	.L158:
 1250 0018 00430040 		.word	1073758976
 1251              		.cfi_endproc
 1252              	.LFE24:
 1253              		.size	CyILO_SetPowerMode, .-CyILO_SetPowerMode
 1254              		.section	.text.CyXTAL_32KHZ_Stop,"ax",%progbits
 1255              		.align	1
 1256              		.global	CyXTAL_32KHZ_Stop
 1257              		.thumb
 1258              		.thumb_func
 1259              		.type	CyXTAL_32KHZ_Stop, %function
 1260              	CyXTAL_32KHZ_Stop:
 1261              	.LFB26:
1157:.\Generated_Source\PSoC5/CyLib.c **** 
1158:.\Generated_Source\PSoC5/CyLib.c **** 
1159:.\Generated_Source\PSoC5/CyLib.c **** /*******************************************************************************
1160:.\Generated_Source\PSoC5/CyLib.c **** * Function Name: CyXTAL_32KHZ_Start
1161:.\Generated_Source\PSoC5/CyLib.c **** ********************************************************************************
1162:.\Generated_Source\PSoC5/CyLib.c **** *
1163:.\Generated_Source\PSoC5/CyLib.c **** * Summary:
1164:.\Generated_Source\PSoC5/CyLib.c **** *  Enables the 32 KHz Crystal Oscillator.
1165:.\Generated_Source\PSoC5/CyLib.c **** *
1166:.\Generated_Source\PSoC5/CyLib.c **** * Parameters:
1167:.\Generated_Source\PSoC5/CyLib.c **** *  None
1168:.\Generated_Source\PSoC5/CyLib.c **** *
1169:.\Generated_Source\PSoC5/CyLib.c **** * Return:
1170:.\Generated_Source\PSoC5/CyLib.c **** *  None
1171:.\Generated_Source\PSoC5/CyLib.c **** *
1172:.\Generated_Source\PSoC5/CyLib.c **** *******************************************************************************/
1173:.\Generated_Source\PSoC5/CyLib.c **** void CyXTAL_32KHZ_Start(void) 
1174:.\Generated_Source\PSoC5/CyLib.c **** {
1175:.\Generated_Source\PSoC5/CyLib.c ****     volatile uint16 i;
1176:.\Generated_Source\PSoC5/CyLib.c **** 
1177:.\Generated_Source\PSoC5/CyLib.c ****     CY_CLK_XTAL32_TST_REG = CY_CLK_XTAL32_TST_DEFAULT;
1178:.\Generated_Source\PSoC5/CyLib.c ****     CY_CLK_XTAL32_TR_REG  = CY_CLK_XTAL32_TR_STARTUP;
1179:.\Generated_Source\PSoC5/CyLib.c ****     CY_CLK_XTAL32_CFG_REG = (CY_CLK_XTAL32_CFG_REG & ((uint8)(~CY_CLK_XTAL32_CFG_LP_MASK))) |
1180:.\Generated_Source\PSoC5/CyLib.c ****                                 CY_CLK_XTAL32_CFG_LP_DEFAULT;
1181:.\Generated_Source\PSoC5/CyLib.c **** 
1182:.\Generated_Source\PSoC5/CyLib.c ****     #if(CY_PSOC3)
1183:.\Generated_Source\PSoC5/CyLib.c ****         CY_CLK_XTAL32_CR_REG |= CY_CLK_XTAL32_CR_PDBEN;
ARM GAS  C:\Users\MICHA_~1\AppData\Local\Temp\ccAOLfnb.s 			page 46


1184:.\Generated_Source\PSoC5/CyLib.c ****     #endif  /* (CY_PSOC3) */
1185:.\Generated_Source\PSoC5/CyLib.c **** 
1186:.\Generated_Source\PSoC5/CyLib.c ****     /* Enable operation of the 32K Crystal Oscillator */
1187:.\Generated_Source\PSoC5/CyLib.c ****     CY_CLK_XTAL32_CR_REG |= CY_CLK_XTAL32_CR_EN;
1188:.\Generated_Source\PSoC5/CyLib.c **** 
1189:.\Generated_Source\PSoC5/CyLib.c ****     for (i = 1000u; i > 0u; i--)
1190:.\Generated_Source\PSoC5/CyLib.c ****     {
1191:.\Generated_Source\PSoC5/CyLib.c ****         if(0u != (CyXTAL_32KHZ_ReadStatus() & CY_XTAL32K_ANA_STAT))
1192:.\Generated_Source\PSoC5/CyLib.c ****         {
1193:.\Generated_Source\PSoC5/CyLib.c ****             /* Ready - switch to the hign power mode */
1194:.\Generated_Source\PSoC5/CyLib.c ****             (void) CyXTAL_32KHZ_SetPowerMode(0u);
1195:.\Generated_Source\PSoC5/CyLib.c **** 
1196:.\Generated_Source\PSoC5/CyLib.c ****             break;
1197:.\Generated_Source\PSoC5/CyLib.c ****         }
1198:.\Generated_Source\PSoC5/CyLib.c ****         CyDelayUs(1u);
1199:.\Generated_Source\PSoC5/CyLib.c ****     }
1200:.\Generated_Source\PSoC5/CyLib.c **** }
1201:.\Generated_Source\PSoC5/CyLib.c **** 
1202:.\Generated_Source\PSoC5/CyLib.c **** 
1203:.\Generated_Source\PSoC5/CyLib.c **** /*******************************************************************************
1204:.\Generated_Source\PSoC5/CyLib.c **** * Function Name: CyXTAL_32KHZ_Stop
1205:.\Generated_Source\PSoC5/CyLib.c **** ********************************************************************************
1206:.\Generated_Source\PSoC5/CyLib.c **** *
1207:.\Generated_Source\PSoC5/CyLib.c **** * Summary:
1208:.\Generated_Source\PSoC5/CyLib.c **** *  Disables the 32KHz Crystal Oscillator.
1209:.\Generated_Source\PSoC5/CyLib.c **** *
1210:.\Generated_Source\PSoC5/CyLib.c **** * Parameters:
1211:.\Generated_Source\PSoC5/CyLib.c **** *  None
1212:.\Generated_Source\PSoC5/CyLib.c **** *
1213:.\Generated_Source\PSoC5/CyLib.c **** * Return:
1214:.\Generated_Source\PSoC5/CyLib.c **** *  None
1215:.\Generated_Source\PSoC5/CyLib.c **** *
1216:.\Generated_Source\PSoC5/CyLib.c **** *******************************************************************************/
1217:.\Generated_Source\PSoC5/CyLib.c **** void CyXTAL_32KHZ_Stop(void) 
1218:.\Generated_Source\PSoC5/CyLib.c **** {
 1262              		.loc 1 1218 0
 1263              		.cfi_startproc
 1264              		@ args = 0, pretend = 0, frame = 0
 1265              		@ frame_needed = 0, uses_anonymous_args = 0
 1266              		@ link register save eliminated.
1219:.\Generated_Source\PSoC5/CyLib.c ****     CY_CLK_XTAL32_TST_REG  = CY_CLK_XTAL32_TST_DEFAULT;
 1267              		.loc 1 1219 0
 1268 0000 094B     		ldr	r3, .L161
 1269 0002 F322     		movs	r2, #243
1220:.\Generated_Source\PSoC5/CyLib.c ****     CY_CLK_XTAL32_TR_REG   = CY_CLK_XTAL32_TR_POWERDOWN;
 1270              		.loc 1 1220 0
 1271 0004 0949     		ldr	r1, .L161+4
1219:.\Generated_Source\PSoC5/CyLib.c ****     CY_CLK_XTAL32_TST_REG  = CY_CLK_XTAL32_TST_DEFAULT;
 1272              		.loc 1 1219 0
 1273 0006 1A70     		strb	r2, [r3, #0]
 1274              		.loc 1 1220 0
 1275 0008 0020     		movs	r0, #0
1221:.\Generated_Source\PSoC5/CyLib.c ****     CY_CLK_XTAL32_CFG_REG = (CY_CLK_XTAL32_CFG_REG & ((uint8)(~CY_CLK_XTAL32_CFG_LP_MASK))) |
 1276              		.loc 1 1221 0
 1277 000a 094B     		ldr	r3, .L161+8
1220:.\Generated_Source\PSoC5/CyLib.c ****     CY_CLK_XTAL32_TR_REG   = CY_CLK_XTAL32_TR_POWERDOWN;
 1278              		.loc 1 1220 0
ARM GAS  C:\Users\MICHA_~1\AppData\Local\Temp\ccAOLfnb.s 			page 47


 1279 000c 0870     		strb	r0, [r1, #0]
 1280              		.loc 1 1221 0
 1281 000e 1A78     		ldrb	r2, [r3, #0]	@ zero_extendqisi2
 1282 0010 02F0F300 		and	r0, r2, #243
 1283 0014 40F00401 		orr	r1, r0, #4
 1284 0018 1970     		strb	r1, [r3, #0]
1222:.\Generated_Source\PSoC5/CyLib.c ****                              CY_CLK_XTAL32_CFG_LP_DEFAULT;
1223:.\Generated_Source\PSoC5/CyLib.c ****     CY_CLK_XTAL32_CR_REG &= ((uint8)(~(CY_CLK_XTAL32_CR_EN | CY_CLK_XTAL32_CR_LPM)));
 1285              		.loc 1 1223 0
 1286 001a 13F8012C 		ldrb	r2, [r3, #-1]	@ zero_extendqisi2
 1287 001e 02F0FC00 		and	r0, r2, #252
 1288 0022 03F8010C 		strb	r0, [r3, #-1]
 1289 0026 7047     		bx	lr
 1290              	.L162:
 1291              		.align	2
 1292              	.L161:
 1293 0028 0A430040 		.word	1073758986
 1294 002c 98460040 		.word	1073759896
 1295 0030 09430040 		.word	1073758985
 1296              		.cfi_endproc
 1297              	.LFE26:
 1298              		.size	CyXTAL_32KHZ_Stop, .-CyXTAL_32KHZ_Stop
 1299              		.section	.text.CyXTAL_32KHZ_ReadStatus,"ax",%progbits
 1300              		.align	1
 1301              		.global	CyXTAL_32KHZ_ReadStatus
 1302              		.thumb
 1303              		.thumb_func
 1304              		.type	CyXTAL_32KHZ_ReadStatus, %function
 1305              	CyXTAL_32KHZ_ReadStatus:
 1306              	.LFB27:
1224:.\Generated_Source\PSoC5/CyLib.c **** 
1225:.\Generated_Source\PSoC5/CyLib.c ****     #if(CY_PSOC3)
1226:.\Generated_Source\PSoC5/CyLib.c ****         CY_CLK_XTAL32_CR_REG &= ((uint8)(~CY_CLK_XTAL32_CR_PDBEN));
1227:.\Generated_Source\PSoC5/CyLib.c ****     #endif  /* (CY_PSOC3) */
1228:.\Generated_Source\PSoC5/CyLib.c **** }
1229:.\Generated_Source\PSoC5/CyLib.c **** 
1230:.\Generated_Source\PSoC5/CyLib.c **** 
1231:.\Generated_Source\PSoC5/CyLib.c **** /*******************************************************************************
1232:.\Generated_Source\PSoC5/CyLib.c **** * Function Name: CyXTAL_32KHZ_ReadStatus
1233:.\Generated_Source\PSoC5/CyLib.c **** ********************************************************************************
1234:.\Generated_Source\PSoC5/CyLib.c **** *
1235:.\Generated_Source\PSoC5/CyLib.c **** * Summary:
1236:.\Generated_Source\PSoC5/CyLib.c **** *  Returns status of the 32 KHz oscillator.
1237:.\Generated_Source\PSoC5/CyLib.c **** *
1238:.\Generated_Source\PSoC5/CyLib.c **** * Parameters:
1239:.\Generated_Source\PSoC5/CyLib.c **** *  None
1240:.\Generated_Source\PSoC5/CyLib.c **** *
1241:.\Generated_Source\PSoC5/CyLib.c **** * Return:
1242:.\Generated_Source\PSoC5/CyLib.c **** *  Value     Define                    Source
1243:.\Generated_Source\PSoC5/CyLib.c **** *  20        CY_XTAL32K_ANA_STAT       Analog measurement
1244:.\Generated_Source\PSoC5/CyLib.c **** *                                       1: Stable
1245:.\Generated_Source\PSoC5/CyLib.c **** *                                       0: Not stable
1246:.\Generated_Source\PSoC5/CyLib.c **** *
1247:.\Generated_Source\PSoC5/CyLib.c **** *******************************************************************************/
1248:.\Generated_Source\PSoC5/CyLib.c **** uint8 CyXTAL_32KHZ_ReadStatus(void) 
1249:.\Generated_Source\PSoC5/CyLib.c **** {
 1307              		.loc 1 1249 0
ARM GAS  C:\Users\MICHA_~1\AppData\Local\Temp\ccAOLfnb.s 			page 48


 1308              		.cfi_startproc
 1309              		@ args = 0, pretend = 0, frame = 0
 1310              		@ frame_needed = 0, uses_anonymous_args = 0
 1311              		@ link register save eliminated.
1250:.\Generated_Source\PSoC5/CyLib.c ****     return(CY_CLK_XTAL32_CR_REG & CY_XTAL32K_ANA_STAT);
 1312              		.loc 1 1250 0
 1313 0000 024B     		ldr	r3, .L164
 1314 0002 1878     		ldrb	r0, [r3, #0]	@ zero_extendqisi2
1251:.\Generated_Source\PSoC5/CyLib.c **** }
 1315              		.loc 1 1251 0
 1316 0004 00F02000 		and	r0, r0, #32
 1317 0008 7047     		bx	lr
 1318              	.L165:
 1319 000a 00BF     		.align	2
 1320              	.L164:
 1321 000c 08430040 		.word	1073758984
 1322              		.cfi_endproc
 1323              	.LFE27:
 1324              		.size	CyXTAL_32KHZ_ReadStatus, .-CyXTAL_32KHZ_ReadStatus
 1325              		.section	.text.CyXTAL_Start,"ax",%progbits
 1326              		.align	1
 1327              		.global	CyXTAL_Start
 1328              		.thumb
 1329              		.thumb_func
 1330              		.type	CyXTAL_Start, %function
 1331              	CyXTAL_Start:
 1332              	.LFB29:
1252:.\Generated_Source\PSoC5/CyLib.c **** 
1253:.\Generated_Source\PSoC5/CyLib.c **** 
1254:.\Generated_Source\PSoC5/CyLib.c **** /*******************************************************************************
1255:.\Generated_Source\PSoC5/CyLib.c **** * Function Name: CyXTAL_32KHZ_SetPowerMode
1256:.\Generated_Source\PSoC5/CyLib.c **** ********************************************************************************
1257:.\Generated_Source\PSoC5/CyLib.c **** *
1258:.\Generated_Source\PSoC5/CyLib.c **** * Summary:
1259:.\Generated_Source\PSoC5/CyLib.c **** *  Sets the power mode for the 32 KHz oscillator used during sleep mode.
1260:.\Generated_Source\PSoC5/CyLib.c **** *  Allows for lower power during sleep when there are fewer sources of noise.
1261:.\Generated_Source\PSoC5/CyLib.c **** *  During active mode the oscillator is always run in high power mode.
1262:.\Generated_Source\PSoC5/CyLib.c **** *
1263:.\Generated_Source\PSoC5/CyLib.c **** * Parameters:
1264:.\Generated_Source\PSoC5/CyLib.c **** *  uint8 mode
1265:.\Generated_Source\PSoC5/CyLib.c **** *       0: High power mode
1266:.\Generated_Source\PSoC5/CyLib.c **** *       1: Low power mode during sleep
1267:.\Generated_Source\PSoC5/CyLib.c **** *
1268:.\Generated_Source\PSoC5/CyLib.c **** * Return:
1269:.\Generated_Source\PSoC5/CyLib.c **** *  Previous power mode.
1270:.\Generated_Source\PSoC5/CyLib.c **** *
1271:.\Generated_Source\PSoC5/CyLib.c **** *******************************************************************************/
1272:.\Generated_Source\PSoC5/CyLib.c **** uint8 CyXTAL_32KHZ_SetPowerMode(uint8 mode) 
1273:.\Generated_Source\PSoC5/CyLib.c **** {
1274:.\Generated_Source\PSoC5/CyLib.c ****     uint8 state = (0u != (CY_CLK_XTAL32_CR_REG & CY_CLK_XTAL32_CR_LPM)) ? 1u : 0u;
1275:.\Generated_Source\PSoC5/CyLib.c **** 
1276:.\Generated_Source\PSoC5/CyLib.c ****     CY_CLK_XTAL32_TST_REG = CY_CLK_XTAL32_TST_DEFAULT;
1277:.\Generated_Source\PSoC5/CyLib.c **** 
1278:.\Generated_Source\PSoC5/CyLib.c ****     if(1u == mode)
1279:.\Generated_Source\PSoC5/CyLib.c ****     {
1280:.\Generated_Source\PSoC5/CyLib.c ****         /* Low power mode during Sleep */
1281:.\Generated_Source\PSoC5/CyLib.c ****         CY_CLK_XTAL32_TR_REG  = CY_CLK_XTAL32_TR_LOW_POWER;
ARM GAS  C:\Users\MICHA_~1\AppData\Local\Temp\ccAOLfnb.s 			page 49


1282:.\Generated_Source\PSoC5/CyLib.c ****         CyDelayUs(10u);
1283:.\Generated_Source\PSoC5/CyLib.c ****         CY_CLK_XTAL32_CFG_REG = (CY_CLK_XTAL32_CFG_REG & ((uint8)(~CY_CLK_XTAL32_CFG_LP_MASK))) |
1284:.\Generated_Source\PSoC5/CyLib.c ****                                 CY_CLK_XTAL32_CFG_LP_LOWPOWER;
1285:.\Generated_Source\PSoC5/CyLib.c ****         CyDelayUs(20u);
1286:.\Generated_Source\PSoC5/CyLib.c ****         CY_CLK_XTAL32_CR_REG |= CY_CLK_XTAL32_CR_LPM;
1287:.\Generated_Source\PSoC5/CyLib.c ****     }
1288:.\Generated_Source\PSoC5/CyLib.c ****     else
1289:.\Generated_Source\PSoC5/CyLib.c ****     {
1290:.\Generated_Source\PSoC5/CyLib.c ****         /* High power mode */
1291:.\Generated_Source\PSoC5/CyLib.c ****         CY_CLK_XTAL32_TR_REG  = CY_CLK_XTAL32_TR_HIGH_POWER;
1292:.\Generated_Source\PSoC5/CyLib.c ****         CyDelayUs(10u);
1293:.\Generated_Source\PSoC5/CyLib.c ****         CY_CLK_XTAL32_CFG_REG = (CY_CLK_XTAL32_CFG_REG & ((uint8)(~CY_CLK_XTAL32_CFG_LP_MASK))) |
1294:.\Generated_Source\PSoC5/CyLib.c ****                                 CY_CLK_XTAL32_CFG_LP_DEFAULT;
1295:.\Generated_Source\PSoC5/CyLib.c ****         CY_CLK_XTAL32_CR_REG &= ((uint8)(~CY_CLK_XTAL32_CR_LPM));
1296:.\Generated_Source\PSoC5/CyLib.c ****     }
1297:.\Generated_Source\PSoC5/CyLib.c **** 
1298:.\Generated_Source\PSoC5/CyLib.c ****     return(state);
1299:.\Generated_Source\PSoC5/CyLib.c **** }
1300:.\Generated_Source\PSoC5/CyLib.c **** 
1301:.\Generated_Source\PSoC5/CyLib.c **** 
1302:.\Generated_Source\PSoC5/CyLib.c **** /*******************************************************************************
1303:.\Generated_Source\PSoC5/CyLib.c **** * Function Name: CyXTAL_Start
1304:.\Generated_Source\PSoC5/CyLib.c **** ********************************************************************************
1305:.\Generated_Source\PSoC5/CyLib.c **** *
1306:.\Generated_Source\PSoC5/CyLib.c **** * Summary:
1307:.\Generated_Source\PSoC5/CyLib.c **** *  Enables the megahertz crystal.
1308:.\Generated_Source\PSoC5/CyLib.c **** *
1309:.\Generated_Source\PSoC5/CyLib.c **** *  PSoC 3:
1310:.\Generated_Source\PSoC5/CyLib.c **** *  Waits until the XERR bit is low (no error) for a millisecond or until the
1311:.\Generated_Source\PSoC5/CyLib.c **** *  number of milliseconds specified by the wait parameter has expired.
1312:.\Generated_Source\PSoC5/CyLib.c **** *
1313:.\Generated_Source\PSoC5/CyLib.c **** * Parameters:
1314:.\Generated_Source\PSoC5/CyLib.c **** *   wait: Valid range [0-255].
1315:.\Generated_Source\PSoC5/CyLib.c **** *   This is the timeout value in milliseconds.
1316:.\Generated_Source\PSoC5/CyLib.c **** *   The appropriate value is crystal specific.
1317:.\Generated_Source\PSoC5/CyLib.c **** *
1318:.\Generated_Source\PSoC5/CyLib.c **** * Return:
1319:.\Generated_Source\PSoC5/CyLib.c **** *   CYRET_SUCCESS - Completed successfully
1320:.\Generated_Source\PSoC5/CyLib.c **** *   CYRET_TIMEOUT - Timeout occurred without detecting a low value on XERR.
1321:.\Generated_Source\PSoC5/CyLib.c **** *
1322:.\Generated_Source\PSoC5/CyLib.c **** * Side Effects and Restrictions:
1323:.\Generated_Source\PSoC5/CyLib.c **** *  If wait is enabled (non-zero wait). Uses the Fast Timewheel to time the wait.
1324:.\Generated_Source\PSoC5/CyLib.c **** *  Any other use of the Fast Timewheel (FTW) will be stopped during the period
1325:.\Generated_Source\PSoC5/CyLib.c **** *  of this function and then restored.
1326:.\Generated_Source\PSoC5/CyLib.c **** *
1327:.\Generated_Source\PSoC5/CyLib.c **** *  Uses the 100KHz ILO.  If not enabled, this function will enable the 100KHz
1328:.\Generated_Source\PSoC5/CyLib.c **** *  ILO for the period of this function. No changes to the setup of the ILO,
1329:.\Generated_Source\PSoC5/CyLib.c **** *  Fast Timewheel, Central Timewheel or Once Per Second interrupt may be made
1330:.\Generated_Source\PSoC5/CyLib.c **** *  by interrupt routines during the period of this function.
1331:.\Generated_Source\PSoC5/CyLib.c **** *
1332:.\Generated_Source\PSoC5/CyLib.c **** *  The current operation of the ILO, Central Timewheel and Once Per Second
1333:.\Generated_Source\PSoC5/CyLib.c **** *  interrupt are maintained during the operation of this function provided the
1334:.\Generated_Source\PSoC5/CyLib.c **** *  reading of the Power Manager Interrupt Status Register is only done using the
1335:.\Generated_Source\PSoC5/CyLib.c **** *  CyPmReadStatus() function.
1336:.\Generated_Source\PSoC5/CyLib.c **** *
1337:.\Generated_Source\PSoC5/CyLib.c **** *******************************************************************************/
1338:.\Generated_Source\PSoC5/CyLib.c **** cystatus CyXTAL_Start(uint8 wait) 
ARM GAS  C:\Users\MICHA_~1\AppData\Local\Temp\ccAOLfnb.s 			page 50


1339:.\Generated_Source\PSoC5/CyLib.c **** {
 1333              		.loc 1 1339 0
 1334              		.cfi_startproc
 1335              		@ args = 0, pretend = 0, frame = 8
 1336              		@ frame_needed = 0, uses_anonymous_args = 0
 1337              	.LVL80:
 1338 0000 F7B5     		push	{r0, r1, r2, r4, r5, r6, r7, lr}
 1339              	.LCFI4:
 1340              		.cfi_def_cfa_offset 32
 1341              		.cfi_offset 0, -32
 1342              		.cfi_offset 1, -28
 1343              		.cfi_offset 2, -24
 1344              		.cfi_offset 4, -20
 1345              		.cfi_offset 5, -16
 1346              		.cfi_offset 6, -12
 1347              		.cfi_offset 7, -8
 1348              		.cfi_offset 14, -4
1340:.\Generated_Source\PSoC5/CyLib.c ****     cystatus status = CYRET_SUCCESS;
1341:.\Generated_Source\PSoC5/CyLib.c ****     volatile uint8  timeout = wait;
1342:.\Generated_Source\PSoC5/CyLib.c ****     volatile uint8 count;
1343:.\Generated_Source\PSoC5/CyLib.c ****     uint8 iloEnableState;
1344:.\Generated_Source\PSoC5/CyLib.c ****     uint8 pmTwCfg0Tmp;
1345:.\Generated_Source\PSoC5/CyLib.c ****     uint8 pmTwCfg2Tmp;
1346:.\Generated_Source\PSoC5/CyLib.c **** 
1347:.\Generated_Source\PSoC5/CyLib.c **** 
1348:.\Generated_Source\PSoC5/CyLib.c ****     /* Enables the MHz crystal oscillator circuit  */
1349:.\Generated_Source\PSoC5/CyLib.c ****     CY_CLK_XMHZ_CSR_REG |= CY_CLK_XMHZ_CSR_ENABLE;
 1349              		.loc 1 1349 0
 1350 0002 1F4B     		ldr	r3, .L184
1341:.\Generated_Source\PSoC5/CyLib.c ****     volatile uint8  timeout = wait;
 1351              		.loc 1 1341 0
 1352 0004 8DF80600 		strb	r0, [sp, #6]
 1353              	.LVL81:
 1354              		.loc 1 1349 0
 1355 0008 1A78     		ldrb	r2, [r3, #0]	@ zero_extendqisi2
 1356 000a 42F00101 		orr	r1, r2, #1
 1357 000e 1970     		strb	r1, [r3, #0]
1350:.\Generated_Source\PSoC5/CyLib.c **** 
1351:.\Generated_Source\PSoC5/CyLib.c **** 
1352:.\Generated_Source\PSoC5/CyLib.c ****     if(wait > 0u)
 1358              		.loc 1 1352 0
 1359 0010 98B3     		cbz	r0, .L174
1353:.\Generated_Source\PSoC5/CyLib.c ****     {
1354:.\Generated_Source\PSoC5/CyLib.c ****         /* Save 100 KHz ILO, FTW interval, enable and interrupt enable */
1355:.\Generated_Source\PSoC5/CyLib.c ****         iloEnableState = CY_LIB_SLOWCLK_ILO_CR0_REG;
1356:.\Generated_Source\PSoC5/CyLib.c ****         pmTwCfg0Tmp = CY_LIB_PM_TW_CFG0_REG;
1357:.\Generated_Source\PSoC5/CyLib.c ****         pmTwCfg2Tmp = CY_LIB_PM_TW_CFG2_REG;
1358:.\Generated_Source\PSoC5/CyLib.c **** 
1359:.\Generated_Source\PSoC5/CyLib.c ****         /* Set 250 us interval */
1360:.\Generated_Source\PSoC5/CyLib.c ****         CyPmFtwSetInterval(CY_CLK_XMHZ_FTW_INTERVAL);
 1360              		.loc 1 1360 0
 1361 0012 1820     		movs	r0, #24
 1362              	.LVL82:
1355:.\Generated_Source\PSoC5/CyLib.c ****         iloEnableState = CY_LIB_SLOWCLK_ILO_CR0_REG;
 1363              		.loc 1 1355 0
 1364 0014 93F8F070 		ldrb	r7, [r3, #240]	@ zero_extendqisi2
 1365              	.LVL83:
ARM GAS  C:\Users\MICHA_~1\AppData\Local\Temp\ccAOLfnb.s 			page 51


1356:.\Generated_Source\PSoC5/CyLib.c ****         pmTwCfg0Tmp = CY_LIB_PM_TW_CFG0_REG;
 1366              		.loc 1 1356 0
 1367 0018 93F87061 		ldrb	r6, [r3, #368]	@ zero_extendqisi2
 1368              	.LVL84:
1357:.\Generated_Source\PSoC5/CyLib.c ****         pmTwCfg2Tmp = CY_LIB_PM_TW_CFG2_REG;
 1369              		.loc 1 1357 0
 1370 001c 93F87251 		ldrb	r5, [r3, #370]	@ zero_extendqisi2
 1371              	.LVL85:
 1372              		.loc 1 1360 0
 1373 0020 FFF7FEFF 		bl	CyPmFtwSetInterval
 1374              	.LVL86:
 1375              	.L168:
1361:.\Generated_Source\PSoC5/CyLib.c ****         status = CYRET_TIMEOUT;
1362:.\Generated_Source\PSoC5/CyLib.c **** 
1363:.\Generated_Source\PSoC5/CyLib.c **** 
1364:.\Generated_Source\PSoC5/CyLib.c ****         for( ; timeout > 0u; timeout--)
 1376              		.loc 1 1364 0 discriminator 1
 1377 0024 9DF80600 		ldrb	r0, [sp, #6]	@ zero_extendqisi2
 1378              	.LVL87:
 1379 0028 E0B1     		cbz	r0, .L182
 1380              	.L172:
1365:.\Generated_Source\PSoC5/CyLib.c ****         {
1366:.\Generated_Source\PSoC5/CyLib.c ****             /* Read XERR bit to clear it */
1367:.\Generated_Source\PSoC5/CyLib.c ****             (void) CY_CLK_XMHZ_CSR_REG;
 1381              		.loc 1 1367 0
 1382 002a 154C     		ldr	r4, .L184
1368:.\Generated_Source\PSoC5/CyLib.c **** 
1369:.\Generated_Source\PSoC5/CyLib.c ****             /* Wait for a millisecond - 4 x 250 us */
1370:.\Generated_Source\PSoC5/CyLib.c ****             for(count = 4u; count > 0u; count--)
 1383              		.loc 1 1370 0
 1384 002c 0420     		movs	r0, #4
 1385              	.LVL88:
1367:.\Generated_Source\PSoC5/CyLib.c ****             (void) CY_CLK_XMHZ_CSR_REG;
 1386              		.loc 1 1367 0
 1387 002e 2378     		ldrb	r3, [r4, #0]	@ zero_extendqisi2
 1388              	.L181:
 1389              	.LVL89:
 1390              		.loc 1 1370 0
 1391 0030 8DF80700 		strb	r0, [sp, #7]
 1392 0034 9DF80740 		ldrb	r4, [sp, #7]	@ zero_extendqisi2
 1393              	.LVL90:
 1394 0038 4CB1     		cbz	r4, .L183
 1395              	.LVL91:
 1396              	.L178:
1371:.\Generated_Source\PSoC5/CyLib.c ****             {
1372:.\Generated_Source\PSoC5/CyLib.c ****                 while(0u == (CY_PM_FTW_INT & CyPmReadStatus(CY_PM_FTW_INT)))
 1397              		.loc 1 1372 0
 1398 003a 0120     		movs	r0, #1
 1399 003c FFF7FEFF 		bl	CyPmReadStatus
 1400              	.LVL92:
 1401 0040 C007     		lsls	r0, r0, #31
 1402 0042 FAD5     		bpl	.L178
1370:.\Generated_Source\PSoC5/CyLib.c ****             for(count = 4u; count > 0u; count--)
 1403              		.loc 1 1370 0
 1404 0044 9DF80720 		ldrb	r2, [sp, #7]	@ zero_extendqisi2
 1405              	.LVL93:
 1406 0048 511E     		subs	r1, r2, #1
ARM GAS  C:\Users\MICHA_~1\AppData\Local\Temp\ccAOLfnb.s 			page 52


 1407 004a C8B2     		uxtb	r0, r1
 1408              	.LVL94:
 1409 004c F0E7     		b	.L181
 1410              	.L183:
1373:.\Generated_Source\PSoC5/CyLib.c ****                 {
1374:.\Generated_Source\PSoC5/CyLib.c ****                     /* Wait for the FTW interrupt event */
1375:.\Generated_Source\PSoC5/CyLib.c ****                 }
1376:.\Generated_Source\PSoC5/CyLib.c ****             }
1377:.\Generated_Source\PSoC5/CyLib.c **** 
1378:.\Generated_Source\PSoC5/CyLib.c **** 
1379:.\Generated_Source\PSoC5/CyLib.c ****             /*******************************************************************
1380:.\Generated_Source\PSoC5/CyLib.c ****             * High output indicates oscillator failure.
1381:.\Generated_Source\PSoC5/CyLib.c ****             * Only can be used after start-up interval (1 ms) is completed.
1382:.\Generated_Source\PSoC5/CyLib.c ****             *******************************************************************/
1383:.\Generated_Source\PSoC5/CyLib.c ****             if(0u == (CY_CLK_XMHZ_CSR_REG & CY_CLK_XMHZ_CSR_XERR))
 1411              		.loc 1 1383 0
 1412 004e 0C4B     		ldr	r3, .L184
 1413 0050 1A78     		ldrb	r2, [r3, #0]	@ zero_extendqisi2
 1414 0052 1106     		lsls	r1, r2, #24
 1415 0054 07D5     		bpl	.L171
1364:.\Generated_Source\PSoC5/CyLib.c ****         for( ; timeout > 0u; timeout--)
 1416              		.loc 1 1364 0
 1417 0056 9DF80610 		ldrb	r1, [sp, #6]	@ zero_extendqisi2
 1418              	.LVL95:
 1419 005a 481E     		subs	r0, r1, #1
 1420 005c C4B2     		uxtb	r4, r0
 1421              	.LVL96:
 1422 005e 8DF80640 		strb	r4, [sp, #6]
 1423 0062 DFE7     		b	.L168
 1424              	.LVL97:
 1425              	.L182:
1361:.\Generated_Source\PSoC5/CyLib.c ****         status = CYRET_TIMEOUT;
 1426              		.loc 1 1361 0
 1427 0064 1024     		movs	r4, #16
 1428              	.L171:
 1429              	.LVL98:
1384:.\Generated_Source\PSoC5/CyLib.c ****             {
1385:.\Generated_Source\PSoC5/CyLib.c ****                 status = CYRET_SUCCESS;
1386:.\Generated_Source\PSoC5/CyLib.c ****                 break;
1387:.\Generated_Source\PSoC5/CyLib.c ****             }
1388:.\Generated_Source\PSoC5/CyLib.c ****         }
1389:.\Generated_Source\PSoC5/CyLib.c **** 
1390:.\Generated_Source\PSoC5/CyLib.c **** 
1391:.\Generated_Source\PSoC5/CyLib.c ****         /* Restore 100 KHz ILO, FTW interval, enable and interrupt enable */
1392:.\Generated_Source\PSoC5/CyLib.c ****         if(0u == (iloEnableState & CY_LIB_SLOWCLK_ILO_CR0_EN_100KHZ))
 1430              		.loc 1 1392 0
 1431 0066 07F00407 		and	r7, r7, #4
 1432              	.LVL99:
 1433 006a FFB2     		uxtb	r7, r7
 1434 006c 0FB9     		cbnz	r7, .L173
1393:.\Generated_Source\PSoC5/CyLib.c ****         {
1394:.\Generated_Source\PSoC5/CyLib.c ****             CyILO_Stop100K();
 1435              		.loc 1 1394 0
 1436 006e FFF7FEFF 		bl	CyILO_Stop100K
 1437              	.LVL100:
 1438              	.L173:
1395:.\Generated_Source\PSoC5/CyLib.c ****         }
ARM GAS  C:\Users\MICHA_~1\AppData\Local\Temp\ccAOLfnb.s 			page 53


1396:.\Generated_Source\PSoC5/CyLib.c ****         CY_LIB_PM_TW_CFG0_REG = pmTwCfg0Tmp;
 1439              		.loc 1 1396 0
 1440 0072 044B     		ldr	r3, .L184+4
 1441 0074 1E70     		strb	r6, [r3, #0]
1397:.\Generated_Source\PSoC5/CyLib.c ****         CY_LIB_PM_TW_CFG2_REG = pmTwCfg2Tmp;
 1442              		.loc 1 1397 0
 1443 0076 9D70     		strb	r5, [r3, #2]
 1444 0078 00E0     		b	.L167
 1445              	.LVL101:
 1446              	.L174:
1340:.\Generated_Source\PSoC5/CyLib.c ****     cystatus status = CYRET_SUCCESS;
 1447              		.loc 1 1340 0
 1448 007a 0446     		mov	r4, r0
 1449              	.LVL102:
 1450              	.L167:
1398:.\Generated_Source\PSoC5/CyLib.c ****     }
1399:.\Generated_Source\PSoC5/CyLib.c **** 
1400:.\Generated_Source\PSoC5/CyLib.c ****     return(status);
1401:.\Generated_Source\PSoC5/CyLib.c **** }
 1451              		.loc 1 1401 0
 1452 007c 2046     		mov	r0, r4
 1453              	.LVL103:
 1454 007e FEBD     		pop	{r1, r2, r3, r4, r5, r6, r7, pc}
 1455              	.L185:
 1456              		.align	2
 1457              	.L184:
 1458 0080 10420040 		.word	1073758736
 1459 0084 80430040 		.word	1073759104
 1460              		.cfi_endproc
 1461              	.LFE29:
 1462              		.size	CyXTAL_Start, .-CyXTAL_Start
 1463              		.section	.text.CyXTAL_Stop,"ax",%progbits
 1464              		.align	1
 1465              		.global	CyXTAL_Stop
 1466              		.thumb
 1467              		.thumb_func
 1468              		.type	CyXTAL_Stop, %function
 1469              	CyXTAL_Stop:
 1470              	.LFB30:
1402:.\Generated_Source\PSoC5/CyLib.c **** 
1403:.\Generated_Source\PSoC5/CyLib.c **** 
1404:.\Generated_Source\PSoC5/CyLib.c **** /*******************************************************************************
1405:.\Generated_Source\PSoC5/CyLib.c **** * Function Name: CyXTAL_Stop
1406:.\Generated_Source\PSoC5/CyLib.c **** ********************************************************************************
1407:.\Generated_Source\PSoC5/CyLib.c **** *
1408:.\Generated_Source\PSoC5/CyLib.c **** * Summary:
1409:.\Generated_Source\PSoC5/CyLib.c **** *  Disables the megahertz crystal oscillator.
1410:.\Generated_Source\PSoC5/CyLib.c **** *
1411:.\Generated_Source\PSoC5/CyLib.c **** * Parameters:
1412:.\Generated_Source\PSoC5/CyLib.c **** *  None
1413:.\Generated_Source\PSoC5/CyLib.c **** *
1414:.\Generated_Source\PSoC5/CyLib.c **** * Return:
1415:.\Generated_Source\PSoC5/CyLib.c **** *  None
1416:.\Generated_Source\PSoC5/CyLib.c **** *
1417:.\Generated_Source\PSoC5/CyLib.c **** *******************************************************************************/
1418:.\Generated_Source\PSoC5/CyLib.c **** void CyXTAL_Stop(void) 
1419:.\Generated_Source\PSoC5/CyLib.c **** {
ARM GAS  C:\Users\MICHA_~1\AppData\Local\Temp\ccAOLfnb.s 			page 54


 1471              		.loc 1 1419 0
 1472              		.cfi_startproc
 1473              		@ args = 0, pretend = 0, frame = 0
 1474              		@ frame_needed = 0, uses_anonymous_args = 0
 1475              		@ link register save eliminated.
1420:.\Generated_Source\PSoC5/CyLib.c ****     /* Disable the the oscillator. */
1421:.\Generated_Source\PSoC5/CyLib.c ****     FASTCLK_XMHZ_CSR &= ((uint8)(~XMHZ_CONTROL_ENABLE));
 1476              		.loc 1 1421 0
 1477 0000 024B     		ldr	r3, .L187
 1478 0002 1A78     		ldrb	r2, [r3, #0]	@ zero_extendqisi2
 1479 0004 02F0FE00 		and	r0, r2, #254
 1480 0008 1870     		strb	r0, [r3, #0]
 1481 000a 7047     		bx	lr
 1482              	.L188:
 1483              		.align	2
 1484              	.L187:
 1485 000c 10420040 		.word	1073758736
 1486              		.cfi_endproc
 1487              	.LFE30:
 1488              		.size	CyXTAL_Stop, .-CyXTAL_Stop
 1489              		.section	.text.CyXTAL_EnableErrStatus,"ax",%progbits
 1490              		.align	1
 1491              		.global	CyXTAL_EnableErrStatus
 1492              		.thumb
 1493              		.thumb_func
 1494              		.type	CyXTAL_EnableErrStatus, %function
 1495              	CyXTAL_EnableErrStatus:
 1496              	.LFB31:
1422:.\Generated_Source\PSoC5/CyLib.c **** }
1423:.\Generated_Source\PSoC5/CyLib.c **** 
1424:.\Generated_Source\PSoC5/CyLib.c **** 
1425:.\Generated_Source\PSoC5/CyLib.c **** /*******************************************************************************
1426:.\Generated_Source\PSoC5/CyLib.c **** * Function Name: CyXTAL_EnableErrStatus
1427:.\Generated_Source\PSoC5/CyLib.c **** ********************************************************************************
1428:.\Generated_Source\PSoC5/CyLib.c **** *
1429:.\Generated_Source\PSoC5/CyLib.c **** * Summary:
1430:.\Generated_Source\PSoC5/CyLib.c **** *  Enables the generation of the XERR status bit for the megahertz crystal.
1431:.\Generated_Source\PSoC5/CyLib.c **** *  This function is not available for PSoC5.
1432:.\Generated_Source\PSoC5/CyLib.c **** *
1433:.\Generated_Source\PSoC5/CyLib.c **** * Parameters:
1434:.\Generated_Source\PSoC5/CyLib.c **** *  None
1435:.\Generated_Source\PSoC5/CyLib.c **** *
1436:.\Generated_Source\PSoC5/CyLib.c **** * Return:
1437:.\Generated_Source\PSoC5/CyLib.c **** *  None
1438:.\Generated_Source\PSoC5/CyLib.c **** *
1439:.\Generated_Source\PSoC5/CyLib.c **** *******************************************************************************/
1440:.\Generated_Source\PSoC5/CyLib.c **** void CyXTAL_EnableErrStatus(void) 
1441:.\Generated_Source\PSoC5/CyLib.c **** {
 1497              		.loc 1 1441 0
 1498              		.cfi_startproc
 1499              		@ args = 0, pretend = 0, frame = 0
 1500              		@ frame_needed = 0, uses_anonymous_args = 0
 1501              		@ link register save eliminated.
1442:.\Generated_Source\PSoC5/CyLib.c ****     /* If oscillator has insufficient amplitude, XERR bit will be high. */
1443:.\Generated_Source\PSoC5/CyLib.c ****     CY_CLK_XMHZ_CSR_REG &= ((uint8)(~CY_CLK_XMHZ_CSR_XFB));
 1502              		.loc 1 1443 0
 1503 0000 024B     		ldr	r3, .L190
ARM GAS  C:\Users\MICHA_~1\AppData\Local\Temp\ccAOLfnb.s 			page 55


 1504 0002 1A78     		ldrb	r2, [r3, #0]	@ zero_extendqisi2
 1505 0004 02F0FB00 		and	r0, r2, #251
 1506 0008 1870     		strb	r0, [r3, #0]
 1507 000a 7047     		bx	lr
 1508              	.L191:
 1509              		.align	2
 1510              	.L190:
 1511 000c 10420040 		.word	1073758736
 1512              		.cfi_endproc
 1513              	.LFE31:
 1514              		.size	CyXTAL_EnableErrStatus, .-CyXTAL_EnableErrStatus
 1515              		.section	.text.CyXTAL_DisableErrStatus,"ax",%progbits
 1516              		.align	1
 1517              		.global	CyXTAL_DisableErrStatus
 1518              		.thumb
 1519              		.thumb_func
 1520              		.type	CyXTAL_DisableErrStatus, %function
 1521              	CyXTAL_DisableErrStatus:
 1522              	.LFB32:
1444:.\Generated_Source\PSoC5/CyLib.c **** }
1445:.\Generated_Source\PSoC5/CyLib.c **** 
1446:.\Generated_Source\PSoC5/CyLib.c **** 
1447:.\Generated_Source\PSoC5/CyLib.c **** /*******************************************************************************
1448:.\Generated_Source\PSoC5/CyLib.c **** * Function Name: CyXTAL_DisableErrStatus
1449:.\Generated_Source\PSoC5/CyLib.c **** ********************************************************************************
1450:.\Generated_Source\PSoC5/CyLib.c **** *
1451:.\Generated_Source\PSoC5/CyLib.c **** * Summary:
1452:.\Generated_Source\PSoC5/CyLib.c **** *  Disables the generation of the XERR status bit for the megahertz crystal.
1453:.\Generated_Source\PSoC5/CyLib.c **** *  This function is not available for PSoC5.
1454:.\Generated_Source\PSoC5/CyLib.c **** *
1455:.\Generated_Source\PSoC5/CyLib.c **** * Parameters:
1456:.\Generated_Source\PSoC5/CyLib.c **** *  None
1457:.\Generated_Source\PSoC5/CyLib.c **** *
1458:.\Generated_Source\PSoC5/CyLib.c **** * Return:
1459:.\Generated_Source\PSoC5/CyLib.c **** *  None
1460:.\Generated_Source\PSoC5/CyLib.c **** *
1461:.\Generated_Source\PSoC5/CyLib.c **** *******************************************************************************/
1462:.\Generated_Source\PSoC5/CyLib.c **** void CyXTAL_DisableErrStatus(void) 
1463:.\Generated_Source\PSoC5/CyLib.c **** {
 1523              		.loc 1 1463 0
 1524              		.cfi_startproc
 1525              		@ args = 0, pretend = 0, frame = 0
 1526              		@ frame_needed = 0, uses_anonymous_args = 0
 1527              		@ link register save eliminated.
1464:.\Generated_Source\PSoC5/CyLib.c ****     /* If oscillator has insufficient amplitude, XERR bit will be high. */
1465:.\Generated_Source\PSoC5/CyLib.c ****     CY_CLK_XMHZ_CSR_REG |= CY_CLK_XMHZ_CSR_XFB;
 1528              		.loc 1 1465 0
 1529 0000 024B     		ldr	r3, .L193
 1530 0002 1A78     		ldrb	r2, [r3, #0]	@ zero_extendqisi2
 1531 0004 42F00400 		orr	r0, r2, #4
 1532 0008 1870     		strb	r0, [r3, #0]
 1533 000a 7047     		bx	lr
 1534              	.L194:
 1535              		.align	2
 1536              	.L193:
 1537 000c 10420040 		.word	1073758736
 1538              		.cfi_endproc
ARM GAS  C:\Users\MICHA_~1\AppData\Local\Temp\ccAOLfnb.s 			page 56


 1539              	.LFE32:
 1540              		.size	CyXTAL_DisableErrStatus, .-CyXTAL_DisableErrStatus
 1541              		.section	.text.CyXTAL_ReadStatus,"ax",%progbits
 1542              		.align	1
 1543              		.global	CyXTAL_ReadStatus
 1544              		.thumb
 1545              		.thumb_func
 1546              		.type	CyXTAL_ReadStatus, %function
 1547              	CyXTAL_ReadStatus:
 1548              	.LFB33:
1466:.\Generated_Source\PSoC5/CyLib.c **** }
1467:.\Generated_Source\PSoC5/CyLib.c **** 
1468:.\Generated_Source\PSoC5/CyLib.c **** 
1469:.\Generated_Source\PSoC5/CyLib.c **** /*******************************************************************************
1470:.\Generated_Source\PSoC5/CyLib.c **** * Function Name: CyXTAL_ReadStatus
1471:.\Generated_Source\PSoC5/CyLib.c **** ********************************************************************************
1472:.\Generated_Source\PSoC5/CyLib.c **** *
1473:.\Generated_Source\PSoC5/CyLib.c **** * Summary:
1474:.\Generated_Source\PSoC5/CyLib.c **** *  Reads the XERR status bit for the megahertz crystal. This status bit is a
1475:.\Generated_Source\PSoC5/CyLib.c **** *  sticky clear on read value. This function is not available for PSoC5.
1476:.\Generated_Source\PSoC5/CyLib.c **** *
1477:.\Generated_Source\PSoC5/CyLib.c **** * Parameters:
1478:.\Generated_Source\PSoC5/CyLib.c **** *  None
1479:.\Generated_Source\PSoC5/CyLib.c **** *
1480:.\Generated_Source\PSoC5/CyLib.c **** * Return:
1481:.\Generated_Source\PSoC5/CyLib.c **** *   Status
1482:.\Generated_Source\PSoC5/CyLib.c **** *    0: No error
1483:.\Generated_Source\PSoC5/CyLib.c **** *    1: Error
1484:.\Generated_Source\PSoC5/CyLib.c **** *
1485:.\Generated_Source\PSoC5/CyLib.c **** *******************************************************************************/
1486:.\Generated_Source\PSoC5/CyLib.c **** uint8 CyXTAL_ReadStatus(void) 
1487:.\Generated_Source\PSoC5/CyLib.c **** {
 1549              		.loc 1 1487 0
 1550              		.cfi_startproc
 1551              		@ args = 0, pretend = 0, frame = 0
 1552              		@ frame_needed = 0, uses_anonymous_args = 0
 1553              		@ link register save eliminated.
1488:.\Generated_Source\PSoC5/CyLib.c ****     /***************************************************************************
1489:.\Generated_Source\PSoC5/CyLib.c ****     * High output indicates oscillator failure. Only use this after start-up
1490:.\Generated_Source\PSoC5/CyLib.c ****     * interval is completed. This can be used for status and failure recovery.
1491:.\Generated_Source\PSoC5/CyLib.c ****     ***************************************************************************/
1492:.\Generated_Source\PSoC5/CyLib.c ****     return((0u != (CY_CLK_XMHZ_CSR_REG & CY_CLK_XMHZ_CSR_XERR)) ? 1u : 0u);
 1554              		.loc 1 1492 0
 1555 0000 014B     		ldr	r3, .L196
 1556 0002 1878     		ldrb	r0, [r3, #0]	@ zero_extendqisi2
1493:.\Generated_Source\PSoC5/CyLib.c **** }
 1557              		.loc 1 1493 0
 1558 0004 C009     		lsrs	r0, r0, #7
 1559 0006 7047     		bx	lr
 1560              	.L197:
 1561              		.align	2
 1562              	.L196:
 1563 0008 10420040 		.word	1073758736
 1564              		.cfi_endproc
 1565              	.LFE33:
 1566              		.size	CyXTAL_ReadStatus, .-CyXTAL_ReadStatus
 1567              		.section	.text.CyXTAL_EnableFaultRecovery,"ax",%progbits
ARM GAS  C:\Users\MICHA_~1\AppData\Local\Temp\ccAOLfnb.s 			page 57


 1568              		.align	1
 1569              		.global	CyXTAL_EnableFaultRecovery
 1570              		.thumb
 1571              		.thumb_func
 1572              		.type	CyXTAL_EnableFaultRecovery, %function
 1573              	CyXTAL_EnableFaultRecovery:
 1574              	.LFB34:
1494:.\Generated_Source\PSoC5/CyLib.c **** 
1495:.\Generated_Source\PSoC5/CyLib.c **** 
1496:.\Generated_Source\PSoC5/CyLib.c **** /*******************************************************************************
1497:.\Generated_Source\PSoC5/CyLib.c **** * Function Name: CyXTAL_EnableFaultRecovery
1498:.\Generated_Source\PSoC5/CyLib.c **** ********************************************************************************
1499:.\Generated_Source\PSoC5/CyLib.c **** *
1500:.\Generated_Source\PSoC5/CyLib.c **** * Summary:
1501:.\Generated_Source\PSoC5/CyLib.c **** *  Enables the fault recovery circuit which will switch to the IMO in the case
1502:.\Generated_Source\PSoC5/CyLib.c **** *  of a fault in the megahertz crystal circuit. The crystal must be up and
1503:.\Generated_Source\PSoC5/CyLib.c **** *  running with the XERR bit at 0, before calling this function to prevent
1504:.\Generated_Source\PSoC5/CyLib.c **** *  immediate fault switchover. This function is not available for PSoC5.
1505:.\Generated_Source\PSoC5/CyLib.c **** *
1506:.\Generated_Source\PSoC5/CyLib.c **** * Parameters:
1507:.\Generated_Source\PSoC5/CyLib.c **** *  None
1508:.\Generated_Source\PSoC5/CyLib.c **** *
1509:.\Generated_Source\PSoC5/CyLib.c **** * Return:
1510:.\Generated_Source\PSoC5/CyLib.c **** *  None
1511:.\Generated_Source\PSoC5/CyLib.c **** *
1512:.\Generated_Source\PSoC5/CyLib.c **** *******************************************************************************/
1513:.\Generated_Source\PSoC5/CyLib.c **** void CyXTAL_EnableFaultRecovery(void) 
1514:.\Generated_Source\PSoC5/CyLib.c **** {
 1575              		.loc 1 1514 0
 1576              		.cfi_startproc
 1577              		@ args = 0, pretend = 0, frame = 0
 1578              		@ frame_needed = 0, uses_anonymous_args = 0
 1579              		@ link register save eliminated.
1515:.\Generated_Source\PSoC5/CyLib.c ****     CY_CLK_XMHZ_CSR_REG |= CY_CLK_XMHZ_CSR_XPROT;
 1580              		.loc 1 1515 0
 1581 0000 024B     		ldr	r3, .L199
 1582 0002 1A78     		ldrb	r2, [r3, #0]	@ zero_extendqisi2
 1583 0004 42F04000 		orr	r0, r2, #64
 1584 0008 1870     		strb	r0, [r3, #0]
 1585 000a 7047     		bx	lr
 1586              	.L200:
 1587              		.align	2
 1588              	.L199:
 1589 000c 10420040 		.word	1073758736
 1590              		.cfi_endproc
 1591              	.LFE34:
 1592              		.size	CyXTAL_EnableFaultRecovery, .-CyXTAL_EnableFaultRecovery
 1593              		.section	.text.CyXTAL_DisableFaultRecovery,"ax",%progbits
 1594              		.align	1
 1595              		.global	CyXTAL_DisableFaultRecovery
 1596              		.thumb
 1597              		.thumb_func
 1598              		.type	CyXTAL_DisableFaultRecovery, %function
 1599              	CyXTAL_DisableFaultRecovery:
 1600              	.LFB35:
1516:.\Generated_Source\PSoC5/CyLib.c **** }
1517:.\Generated_Source\PSoC5/CyLib.c **** 
ARM GAS  C:\Users\MICHA_~1\AppData\Local\Temp\ccAOLfnb.s 			page 58


1518:.\Generated_Source\PSoC5/CyLib.c **** 
1519:.\Generated_Source\PSoC5/CyLib.c **** /*******************************************************************************
1520:.\Generated_Source\PSoC5/CyLib.c **** * Function Name: CyXTAL_DisableFaultRecovery
1521:.\Generated_Source\PSoC5/CyLib.c **** ********************************************************************************
1522:.\Generated_Source\PSoC5/CyLib.c **** *
1523:.\Generated_Source\PSoC5/CyLib.c **** * Summary:
1524:.\Generated_Source\PSoC5/CyLib.c **** *  Disables the fault recovery circuit which will switch to the IMO in the case
1525:.\Generated_Source\PSoC5/CyLib.c **** *  of a fault in the megahertz crystal circuit. This function is not available
1526:.\Generated_Source\PSoC5/CyLib.c **** *  for PSoC5.
1527:.\Generated_Source\PSoC5/CyLib.c **** *
1528:.\Generated_Source\PSoC5/CyLib.c **** * Parameters:
1529:.\Generated_Source\PSoC5/CyLib.c **** *  None
1530:.\Generated_Source\PSoC5/CyLib.c **** *
1531:.\Generated_Source\PSoC5/CyLib.c **** * Return:
1532:.\Generated_Source\PSoC5/CyLib.c **** *  None
1533:.\Generated_Source\PSoC5/CyLib.c **** *
1534:.\Generated_Source\PSoC5/CyLib.c **** *******************************************************************************/
1535:.\Generated_Source\PSoC5/CyLib.c **** void CyXTAL_DisableFaultRecovery(void) 
1536:.\Generated_Source\PSoC5/CyLib.c **** {
 1601              		.loc 1 1536 0
 1602              		.cfi_startproc
 1603              		@ args = 0, pretend = 0, frame = 0
 1604              		@ frame_needed = 0, uses_anonymous_args = 0
 1605              		@ link register save eliminated.
1537:.\Generated_Source\PSoC5/CyLib.c ****     CY_CLK_XMHZ_CSR_REG &= ((uint8)(~CY_CLK_XMHZ_CSR_XPROT));
 1606              		.loc 1 1537 0
 1607 0000 024B     		ldr	r3, .L202
 1608 0002 1A78     		ldrb	r2, [r3, #0]	@ zero_extendqisi2
 1609 0004 02F0BF00 		and	r0, r2, #191
 1610 0008 1870     		strb	r0, [r3, #0]
 1611 000a 7047     		bx	lr
 1612              	.L203:
 1613              		.align	2
 1614              	.L202:
 1615 000c 10420040 		.word	1073758736
 1616              		.cfi_endproc
 1617              	.LFE35:
 1618              		.size	CyXTAL_DisableFaultRecovery, .-CyXTAL_DisableFaultRecovery
 1619              		.section	.text.CyXTAL_SetStartup,"ax",%progbits
 1620              		.align	1
 1621              		.global	CyXTAL_SetStartup
 1622              		.thumb
 1623              		.thumb_func
 1624              		.type	CyXTAL_SetStartup, %function
 1625              	CyXTAL_SetStartup:
 1626              	.LFB36:
1538:.\Generated_Source\PSoC5/CyLib.c **** }
1539:.\Generated_Source\PSoC5/CyLib.c **** 
1540:.\Generated_Source\PSoC5/CyLib.c **** 
1541:.\Generated_Source\PSoC5/CyLib.c **** /*******************************************************************************
1542:.\Generated_Source\PSoC5/CyLib.c **** * Function Name: CyXTAL_SetStartup
1543:.\Generated_Source\PSoC5/CyLib.c **** ********************************************************************************
1544:.\Generated_Source\PSoC5/CyLib.c **** *
1545:.\Generated_Source\PSoC5/CyLib.c **** * Summary:
1546:.\Generated_Source\PSoC5/CyLib.c **** *  Sets the startup settings for the crystal. Logic model outputs a frequency
1547:.\Generated_Source\PSoC5/CyLib.c **** *  (setting + 4) MHz when enabled.
1548:.\Generated_Source\PSoC5/CyLib.c **** *
ARM GAS  C:\Users\MICHA_~1\AppData\Local\Temp\ccAOLfnb.s 			page 59


1549:.\Generated_Source\PSoC5/CyLib.c **** *  This is artificial as the actual frequency is determined by an attached
1550:.\Generated_Source\PSoC5/CyLib.c **** *  external crystal.
1551:.\Generated_Source\PSoC5/CyLib.c **** *
1552:.\Generated_Source\PSoC5/CyLib.c **** * Parameters:
1553:.\Generated_Source\PSoC5/CyLib.c **** *  setting: Valid range [0-31].
1554:.\Generated_Source\PSoC5/CyLib.c **** *   Value is dependent on the frequency and quality of the crystal being used.
1555:.\Generated_Source\PSoC5/CyLib.c **** *   Refer to the device TRM and datasheet for more information.
1556:.\Generated_Source\PSoC5/CyLib.c **** *
1557:.\Generated_Source\PSoC5/CyLib.c **** * Return:
1558:.\Generated_Source\PSoC5/CyLib.c **** *  None
1559:.\Generated_Source\PSoC5/CyLib.c **** *
1560:.\Generated_Source\PSoC5/CyLib.c **** *******************************************************************************/
1561:.\Generated_Source\PSoC5/CyLib.c **** void CyXTAL_SetStartup(uint8 setting) 
1562:.\Generated_Source\PSoC5/CyLib.c **** {
 1627              		.loc 1 1562 0
 1628              		.cfi_startproc
 1629              		@ args = 0, pretend = 0, frame = 0
 1630              		@ frame_needed = 0, uses_anonymous_args = 0
 1631              		@ link register save eliminated.
 1632              	.LVL104:
1563:.\Generated_Source\PSoC5/CyLib.c ****     CY_CLK_XMHZ_CFG0_REG = (CY_CLK_XMHZ_CFG0_REG & ((uint8)(~CY_CLK_XMHZ_CFG0_XCFG_MASK))) |
 1633              		.loc 1 1563 0
 1634 0000 044B     		ldr	r3, .L205
 1635 0002 00F01F00 		and	r0, r0, #31
 1636              	.LVL105:
 1637 0006 1A78     		ldrb	r2, [r3, #0]	@ zero_extendqisi2
 1638 0008 02F0E001 		and	r1, r2, #224
 1639 000c 40EA0102 		orr	r2, r0, r1
 1640 0010 1A70     		strb	r2, [r3, #0]
 1641 0012 7047     		bx	lr
 1642              	.L206:
 1643              		.align	2
 1644              	.L205:
 1645 0014 12420040 		.word	1073758738
 1646              		.cfi_endproc
 1647              	.LFE36:
 1648              		.size	CyXTAL_SetStartup, .-CyXTAL_SetStartup
 1649              		.section	.text.CyXTAL_SetFbVoltage,"ax",%progbits
 1650              		.align	1
 1651              		.global	CyXTAL_SetFbVoltage
 1652              		.thumb
 1653              		.thumb_func
 1654              		.type	CyXTAL_SetFbVoltage, %function
 1655              	CyXTAL_SetFbVoltage:
 1656              	.LFB37:
1564:.\Generated_Source\PSoC5/CyLib.c ****                            (setting & CY_CLK_XMHZ_CFG0_XCFG_MASK);
1565:.\Generated_Source\PSoC5/CyLib.c **** }
1566:.\Generated_Source\PSoC5/CyLib.c **** 
1567:.\Generated_Source\PSoC5/CyLib.c **** 
1568:.\Generated_Source\PSoC5/CyLib.c **** 
1569:.\Generated_Source\PSoC5/CyLib.c **** /*******************************************************************************
1570:.\Generated_Source\PSoC5/CyLib.c **** * Function Name: CyXTAL_SetFbVoltage
1571:.\Generated_Source\PSoC5/CyLib.c **** ********************************************************************************
1572:.\Generated_Source\PSoC5/CyLib.c **** *
1573:.\Generated_Source\PSoC5/CyLib.c **** * Summary:
1574:.\Generated_Source\PSoC5/CyLib.c **** *  Sets the feedback reference voltage to use for the crystal circuit.
1575:.\Generated_Source\PSoC5/CyLib.c **** *  This function is only available for PSoC3 and PSoC 5LP.
ARM GAS  C:\Users\MICHA_~1\AppData\Local\Temp\ccAOLfnb.s 			page 60


1576:.\Generated_Source\PSoC5/CyLib.c **** *
1577:.\Generated_Source\PSoC5/CyLib.c **** * Parameters:
1578:.\Generated_Source\PSoC5/CyLib.c **** *  setting: Valid range [0-15].
1579:.\Generated_Source\PSoC5/CyLib.c **** *  Refer to the device TRM and datasheet for more information.
1580:.\Generated_Source\PSoC5/CyLib.c **** *
1581:.\Generated_Source\PSoC5/CyLib.c **** * Return:
1582:.\Generated_Source\PSoC5/CyLib.c **** *  None
1583:.\Generated_Source\PSoC5/CyLib.c **** *
1584:.\Generated_Source\PSoC5/CyLib.c **** *******************************************************************************/
1585:.\Generated_Source\PSoC5/CyLib.c **** void CyXTAL_SetFbVoltage(uint8 setting) 
1586:.\Generated_Source\PSoC5/CyLib.c **** {
 1657              		.loc 1 1586 0
 1658              		.cfi_startproc
 1659              		@ args = 0, pretend = 0, frame = 0
 1660              		@ frame_needed = 0, uses_anonymous_args = 0
 1661              		@ link register save eliminated.
 1662              	.LVL106:
1587:.\Generated_Source\PSoC5/CyLib.c ****     CY_CLK_XMHZ_CFG1_REG = ((CY_CLK_XMHZ_CFG1_REG & ((uint8)(~CY_CLK_XMHZ_CFG1_VREF_FB_MASK))) |
 1663              		.loc 1 1587 0
 1664 0000 044B     		ldr	r3, .L208
 1665 0002 00F00F00 		and	r0, r0, #15
 1666              	.LVL107:
 1667 0006 1A78     		ldrb	r2, [r3, #0]	@ zero_extendqisi2
 1668 0008 02F0F001 		and	r1, r2, #240
 1669 000c 40EA0102 		orr	r2, r0, r1
 1670 0010 1A70     		strb	r2, [r3, #0]
 1671 0012 7047     		bx	lr
 1672              	.L209:
 1673              		.align	2
 1674              	.L208:
 1675 0014 13420040 		.word	1073758739
 1676              		.cfi_endproc
 1677              	.LFE37:
 1678              		.size	CyXTAL_SetFbVoltage, .-CyXTAL_SetFbVoltage
 1679              		.section	.text.CyXTAL_SetWdVoltage,"ax",%progbits
 1680              		.align	1
 1681              		.global	CyXTAL_SetWdVoltage
 1682              		.thumb
 1683              		.thumb_func
 1684              		.type	CyXTAL_SetWdVoltage, %function
 1685              	CyXTAL_SetWdVoltage:
 1686              	.LFB38:
1588:.\Generated_Source\PSoC5/CyLib.c ****                             (setting & CY_CLK_XMHZ_CFG1_VREF_FB_MASK));
1589:.\Generated_Source\PSoC5/CyLib.c **** }
1590:.\Generated_Source\PSoC5/CyLib.c **** 
1591:.\Generated_Source\PSoC5/CyLib.c **** 
1592:.\Generated_Source\PSoC5/CyLib.c **** /*******************************************************************************
1593:.\Generated_Source\PSoC5/CyLib.c **** * Function Name: CyXTAL_SetWdVoltage
1594:.\Generated_Source\PSoC5/CyLib.c **** ********************************************************************************
1595:.\Generated_Source\PSoC5/CyLib.c **** *
1596:.\Generated_Source\PSoC5/CyLib.c **** * Summary:
1597:.\Generated_Source\PSoC5/CyLib.c **** *  Sets the reference voltage used by the watchdog to detect a failure in the
1598:.\Generated_Source\PSoC5/CyLib.c **** *  crystal circuit. This function is only available for PSoC3 and PSoC 5LP.
1599:.\Generated_Source\PSoC5/CyLib.c **** *
1600:.\Generated_Source\PSoC5/CyLib.c **** * Parameters:
1601:.\Generated_Source\PSoC5/CyLib.c **** *  setting: Valid range [0-7].
1602:.\Generated_Source\PSoC5/CyLib.c **** *  Refer to the device TRM and datasheet for more information.
ARM GAS  C:\Users\MICHA_~1\AppData\Local\Temp\ccAOLfnb.s 			page 61


1603:.\Generated_Source\PSoC5/CyLib.c **** *
1604:.\Generated_Source\PSoC5/CyLib.c **** * Return:
1605:.\Generated_Source\PSoC5/CyLib.c **** *  None
1606:.\Generated_Source\PSoC5/CyLib.c **** *
1607:.\Generated_Source\PSoC5/CyLib.c **** *******************************************************************************/
1608:.\Generated_Source\PSoC5/CyLib.c **** void CyXTAL_SetWdVoltage(uint8 setting) 
1609:.\Generated_Source\PSoC5/CyLib.c **** {
 1687              		.loc 1 1609 0
 1688              		.cfi_startproc
 1689              		@ args = 0, pretend = 0, frame = 0
 1690              		@ frame_needed = 0, uses_anonymous_args = 0
 1691              		@ link register save eliminated.
 1692              	.LVL108:
1610:.\Generated_Source\PSoC5/CyLib.c ****     CY_CLK_XMHZ_CFG1_REG = ((CY_CLK_XMHZ_CFG1_REG & ((uint8)(~CY_CLK_XMHZ_CFG1_VREF_WD_MASK))) |
 1693              		.loc 1 1610 0
 1694 0000 054B     		ldr	r3, .L211
1611:.\Generated_Source\PSoC5/CyLib.c ****                             (((uint8)(setting << 4u)) & CY_CLK_XMHZ_CFG1_VREF_WD_MASK));
 1695              		.loc 1 1611 0
 1696 0002 0001     		lsls	r0, r0, #4
 1697              	.LVL109:
1610:.\Generated_Source\PSoC5/CyLib.c ****     CY_CLK_XMHZ_CFG1_REG = ((CY_CLK_XMHZ_CFG1_REG & ((uint8)(~CY_CLK_XMHZ_CFG1_VREF_WD_MASK))) |
 1698              		.loc 1 1610 0
 1699 0004 1A78     		ldrb	r2, [r3, #0]	@ zero_extendqisi2
 1700 0006 00F07001 		and	r1, r0, #112
 1701 000a 02F08F02 		and	r2, r2, #143
 1702 000e 41EA0200 		orr	r0, r1, r2
 1703 0012 1870     		strb	r0, [r3, #0]
 1704 0014 7047     		bx	lr
 1705              	.L212:
 1706 0016 00BF     		.align	2
 1707              	.L211:
 1708 0018 13420040 		.word	1073758739
 1709              		.cfi_endproc
 1710              	.LFE38:
 1711              		.size	CyXTAL_SetWdVoltage, .-CyXTAL_SetWdVoltage
 1712              		.section	.text.CyHalt,"ax",%progbits
 1713              		.align	1
 1714              		.global	CyHalt
 1715              		.thumb
 1716              		.thumb_func
 1717              		.type	CyHalt, %function
 1718              	CyHalt:
 1719              	.LFB39:
1612:.\Generated_Source\PSoC5/CyLib.c **** }
1613:.\Generated_Source\PSoC5/CyLib.c **** 
1614:.\Generated_Source\PSoC5/CyLib.c **** 
1615:.\Generated_Source\PSoC5/CyLib.c **** /*******************************************************************************
1616:.\Generated_Source\PSoC5/CyLib.c **** * Function Name: CyHalt
1617:.\Generated_Source\PSoC5/CyLib.c **** ********************************************************************************
1618:.\Generated_Source\PSoC5/CyLib.c **** *
1619:.\Generated_Source\PSoC5/CyLib.c **** * Summary:
1620:.\Generated_Source\PSoC5/CyLib.c **** *  Halts the CPU.
1621:.\Generated_Source\PSoC5/CyLib.c **** *
1622:.\Generated_Source\PSoC5/CyLib.c **** * Parameters:
1623:.\Generated_Source\PSoC5/CyLib.c **** *  uint8 reason: Value to be used during debugging.
1624:.\Generated_Source\PSoC5/CyLib.c **** *
1625:.\Generated_Source\PSoC5/CyLib.c **** * Return:
ARM GAS  C:\Users\MICHA_~1\AppData\Local\Temp\ccAOLfnb.s 			page 62


1626:.\Generated_Source\PSoC5/CyLib.c **** *  None
1627:.\Generated_Source\PSoC5/CyLib.c **** *
1628:.\Generated_Source\PSoC5/CyLib.c **** *******************************************************************************/
1629:.\Generated_Source\PSoC5/CyLib.c **** void CyHalt(uint8 reason) CYREENTRANT
1630:.\Generated_Source\PSoC5/CyLib.c **** {
 1720              		.loc 1 1630 0
 1721              		.cfi_startproc
 1722              		@ args = 0, pretend = 0, frame = 0
 1723              		@ frame_needed = 0, uses_anonymous_args = 0
 1724              		@ link register save eliminated.
 1725              	.LVL110:
1631:.\Generated_Source\PSoC5/CyLib.c ****     if(0u != reason)
1632:.\Generated_Source\PSoC5/CyLib.c ****     {
1633:.\Generated_Source\PSoC5/CyLib.c ****         /* To remove unreferenced local variable warning */
1634:.\Generated_Source\PSoC5/CyLib.c ****     }
1635:.\Generated_Source\PSoC5/CyLib.c **** 
1636:.\Generated_Source\PSoC5/CyLib.c ****     #if defined (__ARMCC_VERSION)
1637:.\Generated_Source\PSoC5/CyLib.c ****         __breakpoint(0x0);
1638:.\Generated_Source\PSoC5/CyLib.c ****     #elif defined(__GNUC__) || defined (__ICCARM__)
1639:.\Generated_Source\PSoC5/CyLib.c ****         __asm("    bkpt    1");
 1726              		.loc 1 1639 0
 1727              	@ 1639 ".\Generated_Source\PSoC5\CyLib.c" 1
 1728 0000 01BE     		    bkpt    1
 1729              	@ 0 "" 2
 1730              		.thumb
 1731 0002 7047     		bx	lr
 1732              		.cfi_endproc
 1733              	.LFE39:
 1734              		.size	CyHalt, .-CyHalt
 1735              		.section	.text.CySoftwareReset,"ax",%progbits
 1736              		.align	1
 1737              		.global	CySoftwareReset
 1738              		.thumb
 1739              		.thumb_func
 1740              		.type	CySoftwareReset, %function
 1741              	CySoftwareReset:
 1742              	.LFB40:
1640:.\Generated_Source\PSoC5/CyLib.c ****     #elif defined(__C51__)
1641:.\Generated_Source\PSoC5/CyLib.c ****         CYDEV_HALT_CPU;
1642:.\Generated_Source\PSoC5/CyLib.c ****     #endif  /* (__ARMCC_VERSION) */
1643:.\Generated_Source\PSoC5/CyLib.c **** }
1644:.\Generated_Source\PSoC5/CyLib.c **** 
1645:.\Generated_Source\PSoC5/CyLib.c **** 
1646:.\Generated_Source\PSoC5/CyLib.c **** /*******************************************************************************
1647:.\Generated_Source\PSoC5/CyLib.c **** * Function Name: CySoftwareReset
1648:.\Generated_Source\PSoC5/CyLib.c **** ********************************************************************************
1649:.\Generated_Source\PSoC5/CyLib.c **** *
1650:.\Generated_Source\PSoC5/CyLib.c **** * Summary:
1651:.\Generated_Source\PSoC5/CyLib.c **** *  Forces a software reset of the device.
1652:.\Generated_Source\PSoC5/CyLib.c **** *
1653:.\Generated_Source\PSoC5/CyLib.c **** * Parameters:
1654:.\Generated_Source\PSoC5/CyLib.c **** *  None
1655:.\Generated_Source\PSoC5/CyLib.c **** *
1656:.\Generated_Source\PSoC5/CyLib.c **** * Return:
1657:.\Generated_Source\PSoC5/CyLib.c **** *  None
1658:.\Generated_Source\PSoC5/CyLib.c **** *
1659:.\Generated_Source\PSoC5/CyLib.c **** *******************************************************************************/
ARM GAS  C:\Users\MICHA_~1\AppData\Local\Temp\ccAOLfnb.s 			page 63


1660:.\Generated_Source\PSoC5/CyLib.c **** void CySoftwareReset(void) 
1661:.\Generated_Source\PSoC5/CyLib.c **** {
 1743              		.loc 1 1661 0
 1744              		.cfi_startproc
 1745              		@ args = 0, pretend = 0, frame = 0
 1746              		@ frame_needed = 0, uses_anonymous_args = 0
 1747              		@ link register save eliminated.
1662:.\Generated_Source\PSoC5/CyLib.c ****     CY_LIB_RESET_CR2_REG |= CY_LIB_RESET_CR2_RESET;
 1748              		.loc 1 1662 0
 1749 0000 024B     		ldr	r3, .L215
 1750 0002 1A78     		ldrb	r2, [r3, #0]	@ zero_extendqisi2
 1751 0004 42F00100 		orr	r0, r2, #1
 1752 0008 1870     		strb	r0, [r3, #0]
 1753 000a 7047     		bx	lr
 1754              	.L216:
 1755              		.align	2
 1756              	.L215:
 1757 000c F6460040 		.word	1073759990
 1758              		.cfi_endproc
 1759              	.LFE40:
 1760              		.size	CySoftwareReset, .-CySoftwareReset
 1761              		.section	.text.CyDelay,"ax",%progbits
 1762              		.align	1
 1763              		.global	CyDelay
 1764              		.thumb
 1765              		.thumb_func
 1766              		.type	CyDelay, %function
 1767              	CyDelay:
 1768              	.LFB41:
1663:.\Generated_Source\PSoC5/CyLib.c **** }
1664:.\Generated_Source\PSoC5/CyLib.c **** 
1665:.\Generated_Source\PSoC5/CyLib.c **** 
1666:.\Generated_Source\PSoC5/CyLib.c **** /*******************************************************************************
1667:.\Generated_Source\PSoC5/CyLib.c **** * Function Name: CyDelay
1668:.\Generated_Source\PSoC5/CyLib.c **** ********************************************************************************
1669:.\Generated_Source\PSoC5/CyLib.c **** *
1670:.\Generated_Source\PSoC5/CyLib.c **** * Summary:
1671:.\Generated_Source\PSoC5/CyLib.c **** *  Blocks for milliseconds.
1672:.\Generated_Source\PSoC5/CyLib.c **** *
1673:.\Generated_Source\PSoC5/CyLib.c **** *  Note:
1674:.\Generated_Source\PSoC5/CyLib.c **** *  CyDelay has been implemented with the instruction cache assumed enabled. When
1675:.\Generated_Source\PSoC5/CyLib.c **** *  instruction cache is disabled on PSoC5, CyDelay will be two times larger. For
1676:.\Generated_Source\PSoC5/CyLib.c **** *  example, with instruction cache disabled CyDelay(100) would result in about
1677:.\Generated_Source\PSoC5/CyLib.c **** *  200 ms delay instead of 100 ms.
1678:.\Generated_Source\PSoC5/CyLib.c **** *
1679:.\Generated_Source\PSoC5/CyLib.c **** * Parameters:
1680:.\Generated_Source\PSoC5/CyLib.c **** *  milliseconds: number of milliseconds to delay.
1681:.\Generated_Source\PSoC5/CyLib.c **** *
1682:.\Generated_Source\PSoC5/CyLib.c **** * Return:
1683:.\Generated_Source\PSoC5/CyLib.c **** *   None
1684:.\Generated_Source\PSoC5/CyLib.c **** *
1685:.\Generated_Source\PSoC5/CyLib.c **** *******************************************************************************/
1686:.\Generated_Source\PSoC5/CyLib.c **** void CyDelay(uint32 milliseconds) CYREENTRANT
1687:.\Generated_Source\PSoC5/CyLib.c **** {
 1769              		.loc 1 1687 0
 1770              		.cfi_startproc
 1771              		@ args = 0, pretend = 0, frame = 0
ARM GAS  C:\Users\MICHA_~1\AppData\Local\Temp\ccAOLfnb.s 			page 64


 1772              		@ frame_needed = 0, uses_anonymous_args = 0
 1773              	.LVL111:
 1774 0000 10B5     		push	{r4, lr}
 1775              	.LCFI5:
 1776              		.cfi_def_cfa_offset 8
 1777              		.cfi_offset 4, -8
 1778              		.cfi_offset 14, -4
 1779 0002 0446     		mov	r4, r0
 1780              	.LVL112:
 1781              	.L218:
1688:.\Generated_Source\PSoC5/CyLib.c ****     while (milliseconds > 32768u)
 1782              		.loc 1 1688 0 discriminator 1
 1783 0004 B4F5004F 		cmp	r4, #32768
 1784 0008 064B     		ldr	r3, .L221
 1785 000a 05D9     		bls	.L220
 1786              	.L219:
1689:.\Generated_Source\PSoC5/CyLib.c ****     {
1690:.\Generated_Source\PSoC5/CyLib.c ****         /***********************************************************************
1691:.\Generated_Source\PSoC5/CyLib.c ****         * This loop prevents overflow.At 100MHz, milliseconds * delay_freq_khz
1692:.\Generated_Source\PSoC5/CyLib.c ****         * overflows at about 42 seconds.
1693:.\Generated_Source\PSoC5/CyLib.c ****         ***********************************************************************/
1694:.\Generated_Source\PSoC5/CyLib.c ****         CyDelayCycles(cydelay_32k_ms);
 1787              		.loc 1 1694 0
 1788 000c 1868     		ldr	r0, [r3, #0]
 1789 000e FFF7FEFF 		bl	CyDelayCycles
 1790              	.LVL113:
1695:.\Generated_Source\PSoC5/CyLib.c ****         milliseconds = ((uint32)(milliseconds - 32768u));
 1791              		.loc 1 1695 0
 1792 0012 A4F50044 		sub	r4, r4, #32768
 1793              	.LVL114:
 1794 0016 F5E7     		b	.L218
 1795              	.L220:
1696:.\Generated_Source\PSoC5/CyLib.c ****     }
1697:.\Generated_Source\PSoC5/CyLib.c **** 
1698:.\Generated_Source\PSoC5/CyLib.c ****     CyDelayCycles(milliseconds * cydelay_freq_khz);
 1796              		.loc 1 1698 0
 1797 0018 5868     		ldr	r0, [r3, #4]
 1798 001a 6043     		muls	r0, r4, r0
1699:.\Generated_Source\PSoC5/CyLib.c **** }
 1799              		.loc 1 1699 0
 1800 001c BDE81040 		pop	{r4, lr}
1698:.\Generated_Source\PSoC5/CyLib.c ****     CyDelayCycles(milliseconds * cydelay_freq_khz);
 1801              		.loc 1 1698 0
 1802 0020 FFF7FEBF 		b	CyDelayCycles
 1803              	.LVL115:
 1804              	.L222:
 1805              		.align	2
 1806              	.L221:
 1807 0024 00000000 		.word	.LANCHOR0
 1808              		.cfi_endproc
 1809              	.LFE41:
 1810              		.size	CyDelay, .-CyDelay
 1811              		.section	.text.CyDelayUs,"ax",%progbits
 1812              		.align	1
 1813              		.global	CyDelayUs
 1814              		.thumb
 1815              		.thumb_func
ARM GAS  C:\Users\MICHA_~1\AppData\Local\Temp\ccAOLfnb.s 			page 65


 1816              		.type	CyDelayUs, %function
 1817              	CyDelayUs:
 1818              	.LFB42:
1700:.\Generated_Source\PSoC5/CyLib.c **** 
1701:.\Generated_Source\PSoC5/CyLib.c **** 
1702:.\Generated_Source\PSoC5/CyLib.c **** #if(!CY_PSOC3)
1703:.\Generated_Source\PSoC5/CyLib.c **** 
1704:.\Generated_Source\PSoC5/CyLib.c ****     /* For PSoC3 devices function is defined in CyBootAsmKeil.a51 file */
1705:.\Generated_Source\PSoC5/CyLib.c **** 
1706:.\Generated_Source\PSoC5/CyLib.c ****     /*******************************************************************************
1707:.\Generated_Source\PSoC5/CyLib.c ****     * Function Name: CyDelayUs
1708:.\Generated_Source\PSoC5/CyLib.c ****     ********************************************************************************
1709:.\Generated_Source\PSoC5/CyLib.c ****     *
1710:.\Generated_Source\PSoC5/CyLib.c ****     * Summary:
1711:.\Generated_Source\PSoC5/CyLib.c ****     *  Blocks for microseconds.
1712:.\Generated_Source\PSoC5/CyLib.c ****     *
1713:.\Generated_Source\PSoC5/CyLib.c ****     *  Note:
1714:.\Generated_Source\PSoC5/CyLib.c ****     *   CyDelay has been implemented with the instruction cache assumed enabled.
1715:.\Generated_Source\PSoC5/CyLib.c ****     *   When instruction cache is disabled on PSoC5, CyDelayUs will be two times
1716:.\Generated_Source\PSoC5/CyLib.c ****     *   larger. Ex: With instruction cache disabled CyDelayUs(100) would result
1717:.\Generated_Source\PSoC5/CyLib.c ****     *   in about 200us delay instead of 100us.
1718:.\Generated_Source\PSoC5/CyLib.c ****     *
1719:.\Generated_Source\PSoC5/CyLib.c ****     * Parameters:
1720:.\Generated_Source\PSoC5/CyLib.c ****     *  uint16 microseconds: number of microseconds to delay.
1721:.\Generated_Source\PSoC5/CyLib.c ****     *
1722:.\Generated_Source\PSoC5/CyLib.c ****     * Return:
1723:.\Generated_Source\PSoC5/CyLib.c ****     *  None
1724:.\Generated_Source\PSoC5/CyLib.c ****     *
1725:.\Generated_Source\PSoC5/CyLib.c ****     * Side Effects:
1726:.\Generated_Source\PSoC5/CyLib.c ****     *  CyDelayUS has been implemented with the instruction cache assumed enabled.
1727:.\Generated_Source\PSoC5/CyLib.c ****     *  When instruction cache is disabled on PSoC 5, CyDelayUs will be two times
1728:.\Generated_Source\PSoC5/CyLib.c ****     *  larger. For example, with instruction cache disabled CyDelayUs(100) would
1729:.\Generated_Source\PSoC5/CyLib.c ****     *  result in about 200 us delay instead of 100 us.
1730:.\Generated_Source\PSoC5/CyLib.c ****     *
1731:.\Generated_Source\PSoC5/CyLib.c ****     *  If the bus clock frequency is a small non-integer number, the actual delay
1732:.\Generated_Source\PSoC5/CyLib.c ****     *  can be up to twice as long as the nominal value. The actual delay cannot be
1733:.\Generated_Source\PSoC5/CyLib.c ****     *  shorter than the nominal one.
1734:.\Generated_Source\PSoC5/CyLib.c ****     *******************************************************************************/
1735:.\Generated_Source\PSoC5/CyLib.c ****     void CyDelayUs(uint16 microseconds) CYREENTRANT
1736:.\Generated_Source\PSoC5/CyLib.c ****     {
 1819              		.loc 1 1736 0
 1820              		.cfi_startproc
 1821              		@ args = 0, pretend = 0, frame = 0
 1822              		@ frame_needed = 0, uses_anonymous_args = 0
 1823              		@ link register save eliminated.
 1824              	.LVL116:
1737:.\Generated_Source\PSoC5/CyLib.c ****         CyDelayCycles((uint32)microseconds * cydelay_freq_mhz);
 1825              		.loc 1 1737 0
 1826 0000 024B     		ldr	r3, .L224
 1827 0002 197A     		ldrb	r1, [r3, #8]	@ zero_extendqisi2
 1828 0004 4843     		muls	r0, r1, r0
 1829              	.LVL117:
1738:.\Generated_Source\PSoC5/CyLib.c ****     }
 1830              		.loc 1 1738 0
1737:.\Generated_Source\PSoC5/CyLib.c ****         CyDelayCycles((uint32)microseconds * cydelay_freq_mhz);
 1831              		.loc 1 1737 0
 1832 0006 FFF7FEBF 		b	CyDelayCycles
ARM GAS  C:\Users\MICHA_~1\AppData\Local\Temp\ccAOLfnb.s 			page 66


 1833              	.LVL118:
 1834              	.L225:
 1835 000a 00BF     		.align	2
 1836              	.L224:
 1837 000c 00000000 		.word	.LANCHOR0
 1838              		.cfi_endproc
 1839              	.LFE42:
 1840              		.size	CyDelayUs, .-CyDelayUs
 1841              		.section	.text.CyXTAL_32KHZ_SetPowerMode,"ax",%progbits
 1842              		.align	1
 1843              		.global	CyXTAL_32KHZ_SetPowerMode
 1844              		.thumb
 1845              		.thumb_func
 1846              		.type	CyXTAL_32KHZ_SetPowerMode, %function
 1847              	CyXTAL_32KHZ_SetPowerMode:
 1848              	.LFB28:
1273:.\Generated_Source\PSoC5/CyLib.c **** {
 1849              		.loc 1 1273 0
 1850              		.cfi_startproc
 1851              		@ args = 0, pretend = 0, frame = 0
 1852              		@ frame_needed = 0, uses_anonymous_args = 0
 1853              	.LVL119:
 1854 0000 70B5     		push	{r4, r5, r6, lr}
 1855              	.LCFI6:
 1856              		.cfi_def_cfa_offset 16
 1857              		.cfi_offset 4, -16
 1858              		.cfi_offset 5, -12
 1859              		.cfi_offset 6, -8
 1860              		.cfi_offset 14, -4
1274:.\Generated_Source\PSoC5/CyLib.c ****     uint8 state = (0u != (CY_CLK_XTAL32_CR_REG & CY_CLK_XTAL32_CR_LPM)) ? 1u : 0u;
 1861              		.loc 1 1274 0
 1862 0002 164C     		ldr	r4, .L230
1276:.\Generated_Source\PSoC5/CyLib.c ****     CY_CLK_XTAL32_TST_REG = CY_CLK_XTAL32_TST_DEFAULT;
 1863              		.loc 1 1276 0
 1864 0004 164B     		ldr	r3, .L230+4
1274:.\Generated_Source\PSoC5/CyLib.c ****     uint8 state = (0u != (CY_CLK_XTAL32_CR_REG & CY_CLK_XTAL32_CR_LPM)) ? 1u : 0u;
 1865              		.loc 1 1274 0
 1866 0006 2678     		ldrb	r6, [r4, #0]	@ zero_extendqisi2
1276:.\Generated_Source\PSoC5/CyLib.c ****     CY_CLK_XTAL32_TST_REG = CY_CLK_XTAL32_TST_DEFAULT;
 1867              		.loc 1 1276 0
 1868 0008 F321     		movs	r1, #243
1278:.\Generated_Source\PSoC5/CyLib.c ****     if(1u == mode)
 1869              		.loc 1 1278 0
 1870 000a 0128     		cmp	r0, #1
1276:.\Generated_Source\PSoC5/CyLib.c ****     CY_CLK_XTAL32_TST_REG = CY_CLK_XTAL32_TST_DEFAULT;
 1871              		.loc 1 1276 0
 1872 000c 1970     		strb	r1, [r3, #0]
1274:.\Generated_Source\PSoC5/CyLib.c ****     uint8 state = (0u != (CY_CLK_XTAL32_CR_REG & CY_CLK_XTAL32_CR_LPM)) ? 1u : 0u;
 1873              		.loc 1 1274 0
 1874 000e C6F34006 		ubfx	r6, r6, #1, #1
 1875              	.LVL120:
 1876 0012 1449     		ldr	r1, .L230+8
 1877 0014 144D     		ldr	r5, .L230+12
1278:.\Generated_Source\PSoC5/CyLib.c ****     if(1u == mode)
 1878              		.loc 1 1278 0
 1879 0016 10D1     		bne	.L227
1281:.\Generated_Source\PSoC5/CyLib.c ****         CY_CLK_XTAL32_TR_REG  = CY_CLK_XTAL32_TR_LOW_POWER;
ARM GAS  C:\Users\MICHA_~1\AppData\Local\Temp\ccAOLfnb.s 			page 67


 1880              		.loc 1 1281 0
 1881 0018 0870     		strb	r0, [r1, #0]
1282:.\Generated_Source\PSoC5/CyLib.c ****         CyDelayUs(10u);
 1882              		.loc 1 1282 0
 1883 001a 0A20     		movs	r0, #10
 1884              	.LVL121:
 1885 001c FFF7FEFF 		bl	CyDelayUs
 1886              	.LVL122:
1283:.\Generated_Source\PSoC5/CyLib.c ****         CY_CLK_XTAL32_CFG_REG = (CY_CLK_XTAL32_CFG_REG & ((uint8)(~CY_CLK_XTAL32_CFG_LP_MASK))) |
 1887              		.loc 1 1283 0
 1888 0020 2B78     		ldrb	r3, [r5, #0]	@ zero_extendqisi2
1285:.\Generated_Source\PSoC5/CyLib.c ****         CyDelayUs(20u);
 1889              		.loc 1 1285 0
 1890 0022 1420     		movs	r0, #20
1283:.\Generated_Source\PSoC5/CyLib.c ****         CY_CLK_XTAL32_CFG_REG = (CY_CLK_XTAL32_CFG_REG & ((uint8)(~CY_CLK_XTAL32_CFG_LP_MASK))) |
 1891              		.loc 1 1283 0
 1892 0024 03F0F301 		and	r1, r3, #243
 1893 0028 41F00802 		orr	r2, r1, #8
 1894 002c 2A70     		strb	r2, [r5, #0]
1285:.\Generated_Source\PSoC5/CyLib.c ****         CyDelayUs(20u);
 1895              		.loc 1 1285 0
 1896 002e FFF7FEFF 		bl	CyDelayUs
 1897              	.LVL123:
1286:.\Generated_Source\PSoC5/CyLib.c ****         CY_CLK_XTAL32_CR_REG |= CY_CLK_XTAL32_CR_LPM;
 1898              		.loc 1 1286 0
 1899 0032 2078     		ldrb	r0, [r4, #0]	@ zero_extendqisi2
 1900 0034 40F00200 		orr	r0, r0, #2
 1901 0038 0DE0     		b	.L229
 1902              	.LVL124:
 1903              	.L227:
1291:.\Generated_Source\PSoC5/CyLib.c ****         CY_CLK_XTAL32_TR_REG  = CY_CLK_XTAL32_TR_HIGH_POWER;
 1904              		.loc 1 1291 0
 1905 003a 0622     		movs	r2, #6
 1906 003c 0A70     		strb	r2, [r1, #0]
1292:.\Generated_Source\PSoC5/CyLib.c ****         CyDelayUs(10u);
 1907              		.loc 1 1292 0
 1908 003e 0A20     		movs	r0, #10
 1909              	.LVL125:
 1910 0040 FFF7FEFF 		bl	CyDelayUs
 1911              	.LVL126:
1293:.\Generated_Source\PSoC5/CyLib.c ****         CY_CLK_XTAL32_CFG_REG = (CY_CLK_XTAL32_CFG_REG & ((uint8)(~CY_CLK_XTAL32_CFG_LP_MASK))) |
 1912              		.loc 1 1293 0
 1913 0044 2878     		ldrb	r0, [r5, #0]	@ zero_extendqisi2
 1914 0046 00F0F303 		and	r3, r0, #243
 1915 004a 43F00401 		orr	r1, r3, #4
 1916 004e 2970     		strb	r1, [r5, #0]
1295:.\Generated_Source\PSoC5/CyLib.c ****         CY_CLK_XTAL32_CR_REG &= ((uint8)(~CY_CLK_XTAL32_CR_LPM));
 1917              		.loc 1 1295 0
 1918 0050 2278     		ldrb	r2, [r4, #0]	@ zero_extendqisi2
 1919 0052 02F0FD00 		and	r0, r2, #253
 1920              	.L229:
 1921 0056 2070     		strb	r0, [r4, #0]
1299:.\Generated_Source\PSoC5/CyLib.c **** }
 1922              		.loc 1 1299 0
 1923 0058 3046     		mov	r0, r6
 1924 005a 70BD     		pop	{r4, r5, r6, pc}
 1925              	.L231:
ARM GAS  C:\Users\MICHA_~1\AppData\Local\Temp\ccAOLfnb.s 			page 68


 1926              		.align	2
 1927              	.L230:
 1928 005c 08430040 		.word	1073758984
 1929 0060 0A430040 		.word	1073758986
 1930 0064 98460040 		.word	1073759896
 1931 0068 09430040 		.word	1073758985
 1932              		.cfi_endproc
 1933              	.LFE28:
 1934              		.size	CyXTAL_32KHZ_SetPowerMode, .-CyXTAL_32KHZ_SetPowerMode
 1935              		.section	.text.CyXTAL_32KHZ_Start,"ax",%progbits
 1936              		.align	1
 1937              		.global	CyXTAL_32KHZ_Start
 1938              		.thumb
 1939              		.thumb_func
 1940              		.type	CyXTAL_32KHZ_Start, %function
 1941              	CyXTAL_32KHZ_Start:
 1942              	.LFB25:
1174:.\Generated_Source\PSoC5/CyLib.c **** {
 1943              		.loc 1 1174 0
 1944              		.cfi_startproc
 1945              		@ args = 0, pretend = 0, frame = 8
 1946              		@ frame_needed = 0, uses_anonymous_args = 0
 1947 0000 07B5     		push	{r0, r1, r2, lr}
 1948              	.LCFI7:
 1949              		.cfi_def_cfa_offset 16
 1950              		.cfi_offset 0, -16
 1951              		.cfi_offset 1, -12
 1952              		.cfi_offset 2, -8
 1953              		.cfi_offset 14, -4
1177:.\Generated_Source\PSoC5/CyLib.c ****     CY_CLK_XTAL32_TST_REG = CY_CLK_XTAL32_TST_DEFAULT;
 1954              		.loc 1 1177 0
 1955 0002 174B     		ldr	r3, .L238
 1956 0004 F322     		movs	r2, #243
1178:.\Generated_Source\PSoC5/CyLib.c ****     CY_CLK_XTAL32_TR_REG  = CY_CLK_XTAL32_TR_STARTUP;
 1957              		.loc 1 1178 0
 1958 0006 1749     		ldr	r1, .L238+4
1177:.\Generated_Source\PSoC5/CyLib.c ****     CY_CLK_XTAL32_TST_REG = CY_CLK_XTAL32_TST_DEFAULT;
 1959              		.loc 1 1177 0
 1960 0008 1A70     		strb	r2, [r3, #0]
1178:.\Generated_Source\PSoC5/CyLib.c ****     CY_CLK_XTAL32_TR_REG  = CY_CLK_XTAL32_TR_STARTUP;
 1961              		.loc 1 1178 0
 1962 000a 0320     		movs	r0, #3
1179:.\Generated_Source\PSoC5/CyLib.c ****     CY_CLK_XTAL32_CFG_REG = (CY_CLK_XTAL32_CFG_REG & ((uint8)(~CY_CLK_XTAL32_CFG_LP_MASK))) |
 1963              		.loc 1 1179 0
 1964 000c 164B     		ldr	r3, .L238+8
1178:.\Generated_Source\PSoC5/CyLib.c ****     CY_CLK_XTAL32_TR_REG  = CY_CLK_XTAL32_TR_STARTUP;
 1965              		.loc 1 1178 0
 1966 000e 0870     		strb	r0, [r1, #0]
1179:.\Generated_Source\PSoC5/CyLib.c ****     CY_CLK_XTAL32_CFG_REG = (CY_CLK_XTAL32_CFG_REG & ((uint8)(~CY_CLK_XTAL32_CFG_LP_MASK))) |
 1967              		.loc 1 1179 0
 1968 0010 1A78     		ldrb	r2, [r3, #0]	@ zero_extendqisi2
 1969 0012 02F0F300 		and	r0, r2, #243
 1970 0016 40F00401 		orr	r1, r0, #4
 1971 001a 1970     		strb	r1, [r3, #0]
1187:.\Generated_Source\PSoC5/CyLib.c ****     CY_CLK_XTAL32_CR_REG |= CY_CLK_XTAL32_CR_EN;
 1972              		.loc 1 1187 0
 1973 001c 13F8012C 		ldrb	r2, [r3, #-1]	@ zero_extendqisi2
ARM GAS  C:\Users\MICHA_~1\AppData\Local\Temp\ccAOLfnb.s 			page 69


 1974 0020 42F00100 		orr	r0, r2, #1
 1975 0024 03F8010C 		strb	r0, [r3, #-1]
1189:.\Generated_Source\PSoC5/CyLib.c ****     for (i = 1000u; i > 0u; i--)
 1976              		.loc 1 1189 0
 1977 0028 4FF47A73 		mov	r3, #1000
 1978              	.L237:
 1979              	.LVL127:
 1980 002c ADF80630 		strh	r3, [sp, #6]	@ movhi
 1981 0030 BDF80630 		ldrh	r3, [sp, #6]
 1982              	.LVL128:
 1983 0034 99B2     		uxth	r1, r3
 1984 0036 89B1     		cbz	r1, .L232
 1985              	.L236:
 1986              	.LBB16:
 1987              	.LBB17:
1250:.\Generated_Source\PSoC5/CyLib.c ****     return(CY_CLK_XTAL32_CR_REG & CY_XTAL32K_ANA_STAT);
 1988              		.loc 1 1250 0
 1989 0038 0C4A     		ldr	r2, .L238+12
 1990 003a 1078     		ldrb	r0, [r2, #0]	@ zero_extendqisi2
 1991              	.LBE17:
 1992              	.LBE16:
1191:.\Generated_Source\PSoC5/CyLib.c ****         if(0u != (CyXTAL_32KHZ_ReadStatus() & CY_XTAL32K_ANA_STAT))
 1993              		.loc 1 1191 0
 1994 003c 00F02003 		and	r3, r0, #32
 1995 0040 D9B2     		uxtb	r1, r3
 1996 0042 19B1     		cbz	r1, .L234
1194:.\Generated_Source\PSoC5/CyLib.c ****             (void) CyXTAL_32KHZ_SetPowerMode(0u);
 1997              		.loc 1 1194 0
 1998 0044 0020     		movs	r0, #0
 1999 0046 FFF7FEFF 		bl	CyXTAL_32KHZ_SetPowerMode
 2000              	.LVL129:
1196:.\Generated_Source\PSoC5/CyLib.c ****             break;
 2001              		.loc 1 1196 0
 2002 004a 07E0     		b	.L232
 2003              	.L234:
1198:.\Generated_Source\PSoC5/CyLib.c ****         CyDelayUs(1u);
 2004              		.loc 1 1198 0
 2005 004c 0120     		movs	r0, #1
 2006 004e FFF7FEFF 		bl	CyDelayUs
 2007              	.LVL130:
1189:.\Generated_Source\PSoC5/CyLib.c ****     for (i = 1000u; i > 0u; i--)
 2008              		.loc 1 1189 0
 2009 0052 BDF80620 		ldrh	r2, [sp, #6]
 2010              	.LVL131:
 2011 0056 501E     		subs	r0, r2, #1
 2012 0058 83B2     		uxth	r3, r0
 2013              	.LVL132:
 2014 005a E7E7     		b	.L237
 2015              	.LVL133:
 2016              	.L232:
1200:.\Generated_Source\PSoC5/CyLib.c **** }
 2017              		.loc 1 1200 0
 2018 005c 0EBD     		pop	{r1, r2, r3, pc}
 2019              	.L239:
 2020 005e 00BF     		.align	2
 2021              	.L238:
 2022 0060 0A430040 		.word	1073758986
ARM GAS  C:\Users\MICHA_~1\AppData\Local\Temp\ccAOLfnb.s 			page 70


 2023 0064 98460040 		.word	1073759896
 2024 0068 09430040 		.word	1073758985
 2025 006c 08430040 		.word	1073758984
 2026              		.cfi_endproc
 2027              	.LFE25:
 2028              		.size	CyXTAL_32KHZ_Start, .-CyXTAL_32KHZ_Start
 2029              		.section	.text.CyDelayFreq,"ax",%progbits
 2030              		.align	1
 2031              		.global	CyDelayFreq
 2032              		.thumb
 2033              		.thumb_func
 2034              		.type	CyDelayFreq, %function
 2035              	CyDelayFreq:
 2036              	.LFB43:
1739:.\Generated_Source\PSoC5/CyLib.c **** 
1740:.\Generated_Source\PSoC5/CyLib.c **** #endif  /* (!CY_PSOC3) */
1741:.\Generated_Source\PSoC5/CyLib.c **** 
1742:.\Generated_Source\PSoC5/CyLib.c **** 
1743:.\Generated_Source\PSoC5/CyLib.c **** /*******************************************************************************
1744:.\Generated_Source\PSoC5/CyLib.c **** * Function Name: CyDelayFreq
1745:.\Generated_Source\PSoC5/CyLib.c **** ********************************************************************************
1746:.\Generated_Source\PSoC5/CyLib.c **** *
1747:.\Generated_Source\PSoC5/CyLib.c **** * Summary:
1748:.\Generated_Source\PSoC5/CyLib.c **** *  Sets clock frequency for CyDelay.
1749:.\Generated_Source\PSoC5/CyLib.c **** *
1750:.\Generated_Source\PSoC5/CyLib.c **** * Parameters:
1751:.\Generated_Source\PSoC5/CyLib.c **** *  freq: Frequency of bus clock in Hertz.
1752:.\Generated_Source\PSoC5/CyLib.c **** *
1753:.\Generated_Source\PSoC5/CyLib.c **** * Return:
1754:.\Generated_Source\PSoC5/CyLib.c **** *  None
1755:.\Generated_Source\PSoC5/CyLib.c **** *
1756:.\Generated_Source\PSoC5/CyLib.c **** *******************************************************************************/
1757:.\Generated_Source\PSoC5/CyLib.c **** void CyDelayFreq(uint32 freq) CYREENTRANT
1758:.\Generated_Source\PSoC5/CyLib.c **** {
 2037              		.loc 1 1758 0
 2038              		.cfi_startproc
 2039              		@ args = 0, pretend = 0, frame = 0
 2040              		@ frame_needed = 0, uses_anonymous_args = 0
 2041              		@ link register save eliminated.
 2042              	.LVL134:
 2043 0000 0C4B     		ldr	r3, .L243
1759:.\Generated_Source\PSoC5/CyLib.c ****     if (freq != 0u)
 2044              		.loc 1 1759 0
 2045 0002 08B1     		cbz	r0, .L241
1760:.\Generated_Source\PSoC5/CyLib.c ****     {
1761:.\Generated_Source\PSoC5/CyLib.c ****         cydelay_freq_hz = freq;
 2046              		.loc 1 1761 0
 2047 0004 D860     		str	r0, [r3, #12]
 2048 0006 01E0     		b	.L242
 2049              	.L241:
1762:.\Generated_Source\PSoC5/CyLib.c ****     }
1763:.\Generated_Source\PSoC5/CyLib.c ****     else
1764:.\Generated_Source\PSoC5/CyLib.c ****     {
1765:.\Generated_Source\PSoC5/CyLib.c ****         cydelay_freq_hz = BCLK__BUS_CLK__HZ;
 2050              		.loc 1 1765 0
 2051 0008 0B4A     		ldr	r2, .L243+4
 2052 000a DA60     		str	r2, [r3, #12]
ARM GAS  C:\Users\MICHA_~1\AppData\Local\Temp\ccAOLfnb.s 			page 71


 2053              	.L242:
1766:.\Generated_Source\PSoC5/CyLib.c ****     }
1767:.\Generated_Source\PSoC5/CyLib.c **** 
1768:.\Generated_Source\PSoC5/CyLib.c ****     cydelay_freq_mhz = (uint8)((cydelay_freq_hz + 999999u) / 1000000u);
 2054              		.loc 1 1768 0
 2055 000c D968     		ldr	r1, [r3, #12]
 2056 000e 01F57420 		add	r0, r1, #999424
 2057              	.LVL135:
 2058 0012 00F23F22 		addw	r2, r0, #575
 2059 0016 0948     		ldr	r0, .L243+8
1769:.\Generated_Source\PSoC5/CyLib.c ****     cydelay_freq_khz = (cydelay_freq_hz + 999u) / 1000u;
 2060              		.loc 1 1769 0
 2061 0018 01F2E731 		addw	r1, r1, #999
1768:.\Generated_Source\PSoC5/CyLib.c ****     cydelay_freq_mhz = (uint8)((cydelay_freq_hz + 999999u) / 1000000u);
 2062              		.loc 1 1768 0
 2063 001c B2FBF0F2 		udiv	r2, r2, r0
 2064              		.loc 1 1769 0
 2065 0020 4FF47A70 		mov	r0, #1000
1768:.\Generated_Source\PSoC5/CyLib.c ****     cydelay_freq_mhz = (uint8)((cydelay_freq_hz + 999999u) / 1000000u);
 2066              		.loc 1 1768 0
 2067 0024 1A72     		strb	r2, [r3, #8]
 2068              		.loc 1 1769 0
 2069 0026 B1FBF0F2 		udiv	r2, r1, r0
1770:.\Generated_Source\PSoC5/CyLib.c ****     cydelay_32k_ms   = 32768u * cydelay_freq_khz;
 2070              		.loc 1 1770 0
 2071 002a D103     		lsls	r1, r2, #15
1769:.\Generated_Source\PSoC5/CyLib.c ****     cydelay_freq_khz = (cydelay_freq_hz + 999u) / 1000u;
 2072              		.loc 1 1769 0
 2073 002c 5A60     		str	r2, [r3, #4]
 2074              		.loc 1 1770 0
 2075 002e 1960     		str	r1, [r3, #0]
 2076 0030 7047     		bx	lr
 2077              	.L244:
 2078 0032 00BF     		.align	2
 2079              	.L243:
 2080 0034 00000000 		.word	.LANCHOR0
 2081 0038 0090D003 		.word	64000000
 2082 003c 40420F00 		.word	1000000
 2083              		.cfi_endproc
 2084              	.LFE43:
 2085              		.size	CyDelayFreq, .-CyDelayFreq
 2086              		.section	.text.CyWdtStart,"ax",%progbits
 2087              		.align	1
 2088              		.global	CyWdtStart
 2089              		.thumb
 2090              		.thumb_func
 2091              		.type	CyWdtStart, %function
 2092              	CyWdtStart:
 2093              	.LFB44:
1771:.\Generated_Source\PSoC5/CyLib.c **** }
1772:.\Generated_Source\PSoC5/CyLib.c **** 
1773:.\Generated_Source\PSoC5/CyLib.c **** 
1774:.\Generated_Source\PSoC5/CyLib.c **** /*******************************************************************************
1775:.\Generated_Source\PSoC5/CyLib.c **** * Function Name: CyWdtStart
1776:.\Generated_Source\PSoC5/CyLib.c **** ********************************************************************************
1777:.\Generated_Source\PSoC5/CyLib.c **** *
1778:.\Generated_Source\PSoC5/CyLib.c **** * Summary:
ARM GAS  C:\Users\MICHA_~1\AppData\Local\Temp\ccAOLfnb.s 			page 72


1779:.\Generated_Source\PSoC5/CyLib.c **** *  Enables the watchdog timer.
1780:.\Generated_Source\PSoC5/CyLib.c **** *
1781:.\Generated_Source\PSoC5/CyLib.c **** *  The timer is configured for the specified count interval, the central
1782:.\Generated_Source\PSoC5/CyLib.c **** *  timewheel is cleared, the setting for low power mode is configured and the
1783:.\Generated_Source\PSoC5/CyLib.c **** *  watchdog timer is enabled.
1784:.\Generated_Source\PSoC5/CyLib.c **** *
1785:.\Generated_Source\PSoC5/CyLib.c **** *  Once enabled the watchdog cannot be disabled. The watchdog counts each time
1786:.\Generated_Source\PSoC5/CyLib.c **** *  the Central Time Wheel (CTW) reaches the period specified. The watchdog must
1787:.\Generated_Source\PSoC5/CyLib.c **** *  be cleared using the CyWdtClear() function before three ticks of the watchdog
1788:.\Generated_Source\PSoC5/CyLib.c **** *  timer occur. The CTW is free running, so this will occur after between 2 and
1789:.\Generated_Source\PSoC5/CyLib.c **** *  3 timer periods elapse.
1790:.\Generated_Source\PSoC5/CyLib.c **** *
1791:.\Generated_Source\PSoC5/CyLib.c **** *  PSoC5: The watchdog timer should not be used during sleep modes. Since the
1792:.\Generated_Source\PSoC5/CyLib.c **** *  WDT cannot be disabled after it is enabled, the WDT timeout period can be
1793:.\Generated_Source\PSoC5/CyLib.c **** *  set to be greater than the sleep wakeup period, then feed the dog on each
1794:.\Generated_Source\PSoC5/CyLib.c **** *  wakeup from Sleep.
1795:.\Generated_Source\PSoC5/CyLib.c **** *
1796:.\Generated_Source\PSoC5/CyLib.c **** * Parameters:
1797:.\Generated_Source\PSoC5/CyLib.c **** *  ticks: One of the four available timer periods. Once WDT enabled, the
1798:.\Generated_Source\PSoC5/CyLib.c ****    interval cannot be changed.
1799:.\Generated_Source\PSoC5/CyLib.c **** *         CYWDT_2_TICKS     -     4 - 6     ms
1800:.\Generated_Source\PSoC5/CyLib.c **** *         CYWDT_16_TICKS    -    32 - 48    ms
1801:.\Generated_Source\PSoC5/CyLib.c **** *         CYWDT_128_TICKS   -   256 - 384   ms
1802:.\Generated_Source\PSoC5/CyLib.c **** *         CYWDT_1024_TICKS  - 2.048 - 3.072 s
1803:.\Generated_Source\PSoC5/CyLib.c **** *
1804:.\Generated_Source\PSoC5/CyLib.c **** *  lpMode: Low power mode configuration. This parameter is ignored for PSoC 5.
1805:.\Generated_Source\PSoC5/CyLib.c **** *          The WDT always acts as if CYWDT_LPMODE_NOCHANGE is passed.
1806:.\Generated_Source\PSoC5/CyLib.c **** *
1807:.\Generated_Source\PSoC5/CyLib.c **** *          CYWDT_LPMODE_NOCHANGE - No Change
1808:.\Generated_Source\PSoC5/CyLib.c **** *          CYWDT_LPMODE_MAXINTER - Switch to longest timer mode during low power
1809:.\Generated_Source\PSoC5/CyLib.c **** *                                 mode
1810:.\Generated_Source\PSoC5/CyLib.c **** *          CYWDT_LPMODE_DISABLED - Disable WDT during low power mode
1811:.\Generated_Source\PSoC5/CyLib.c **** *
1812:.\Generated_Source\PSoC5/CyLib.c **** * Return:
1813:.\Generated_Source\PSoC5/CyLib.c **** *  None
1814:.\Generated_Source\PSoC5/CyLib.c **** *
1815:.\Generated_Source\PSoC5/CyLib.c **** * Side Effects:
1816:.\Generated_Source\PSoC5/CyLib.c **** *  PSoC5: The ILO 1 KHz must be enabled for proper WDT operation. Stopping the
1817:.\Generated_Source\PSoC5/CyLib.c **** *  ILO 1 kHz could break the active WDT functionality.
1818:.\Generated_Source\PSoC5/CyLib.c **** *
1819:.\Generated_Source\PSoC5/CyLib.c **** *******************************************************************************/
1820:.\Generated_Source\PSoC5/CyLib.c **** void CyWdtStart(uint8 ticks, uint8 lpMode) 
1821:.\Generated_Source\PSoC5/CyLib.c **** {
 2094              		.loc 1 1821 0
 2095              		.cfi_startproc
 2096              		@ args = 0, pretend = 0, frame = 0
 2097              		@ frame_needed = 0, uses_anonymous_args = 0
 2098              		@ link register save eliminated.
 2099              	.LVL136:
1822:.\Generated_Source\PSoC5/CyLib.c ****     /* Set WDT interval */
1823:.\Generated_Source\PSoC5/CyLib.c ****     CY_WDT_CFG_REG = (CY_WDT_CFG_REG & ((uint8)(~CY_WDT_CFG_INTERVAL_MASK))) | (ticks & CY_WDT_CFG_
 2100              		.loc 1 1823 0
 2101 0000 0E4B     		ldr	r3, .L246
 2102 0002 00F00300 		and	r0, r0, #3
 2103              	.LVL137:
 2104 0006 1A78     		ldrb	r2, [r3, #0]	@ zero_extendqisi2
1824:.\Generated_Source\PSoC5/CyLib.c **** 
ARM GAS  C:\Users\MICHA_~1\AppData\Local\Temp\ccAOLfnb.s 			page 73


1825:.\Generated_Source\PSoC5/CyLib.c ****     /* Reset CTW to ensure that first watchdog period is full */
1826:.\Generated_Source\PSoC5/CyLib.c ****     CY_WDT_CFG_REG |= CY_WDT_CFG_CTW_RESET;
1827:.\Generated_Source\PSoC5/CyLib.c ****     CY_WDT_CFG_REG &= ((uint8)(~CY_WDT_CFG_CTW_RESET));
1828:.\Generated_Source\PSoC5/CyLib.c **** 
1829:.\Generated_Source\PSoC5/CyLib.c ****     /* Setting the low power mode */
1830:.\Generated_Source\PSoC5/CyLib.c ****     CY_WDT_CFG_REG = (((uint8)(lpMode << CY_WDT_CFG_LPMODE_SHIFT)) & CY_WDT_CFG_LPMODE_MASK) |
 2105              		.loc 1 1830 0
 2106 0008 4901     		lsls	r1, r1, #5
 2107              	.LVL138:
1823:.\Generated_Source\PSoC5/CyLib.c ****     CY_WDT_CFG_REG = (CY_WDT_CFG_REG & ((uint8)(~CY_WDT_CFG_INTERVAL_MASK))) | (ticks & CY_WDT_CFG_
 2108              		.loc 1 1823 0
 2109 000a 02F0FC02 		and	r2, r2, #252
 2110 000e 1043     		orrs	r0, r0, r2
 2111 0010 1870     		strb	r0, [r3, #0]
1826:.\Generated_Source\PSoC5/CyLib.c ****     CY_WDT_CFG_REG |= CY_WDT_CFG_CTW_RESET;
 2112              		.loc 1 1826 0
 2113 0012 1A78     		ldrb	r2, [r3, #0]	@ zero_extendqisi2
 2114 0014 42F08000 		orr	r0, r2, #128
 2115 0018 1870     		strb	r0, [r3, #0]
1827:.\Generated_Source\PSoC5/CyLib.c ****     CY_WDT_CFG_REG &= ((uint8)(~CY_WDT_CFG_CTW_RESET));
 2116              		.loc 1 1827 0
 2117 001a 1A78     		ldrb	r2, [r3, #0]	@ zero_extendqisi2
 2118 001c 02F07F00 		and	r0, r2, #127
 2119 0020 1870     		strb	r0, [r3, #0]
1831:.\Generated_Source\PSoC5/CyLib.c ****                        (CY_WDT_CFG_REG & ((uint8)(~CY_WDT_CFG_LPMODE_MASK)));
 2120              		.loc 1 1831 0
 2121 0022 1A78     		ldrb	r2, [r3, #0]	@ zero_extendqisi2
1830:.\Generated_Source\PSoC5/CyLib.c ****     CY_WDT_CFG_REG = (((uint8)(lpMode << CY_WDT_CFG_LPMODE_SHIFT)) & CY_WDT_CFG_LPMODE_MASK) |
 2122              		.loc 1 1830 0
 2123 0024 01F06000 		and	r0, r1, #96
 2124 0028 02F09F02 		and	r2, r2, #159
 2125 002c 40EA0201 		orr	r1, r0, r2
 2126 0030 1970     		strb	r1, [r3, #0]
1832:.\Generated_Source\PSoC5/CyLib.c **** 
1833:.\Generated_Source\PSoC5/CyLib.c ****     /* Enables the watchdog reset */
1834:.\Generated_Source\PSoC5/CyLib.c ****     CY_WDT_CFG_REG |= CY_WDT_CFG_WDR_EN;
 2127              		.loc 1 1834 0
 2128 0032 1878     		ldrb	r0, [r3, #0]	@ zero_extendqisi2
 2129 0034 40F01002 		orr	r2, r0, #16
 2130 0038 1A70     		strb	r2, [r3, #0]
 2131 003a 7047     		bx	lr
 2132              	.L247:
 2133              		.align	2
 2134              	.L246:
 2135 003c 83430040 		.word	1073759107
 2136              		.cfi_endproc
 2137              	.LFE44:
 2138              		.size	CyWdtStart, .-CyWdtStart
 2139              		.section	.text.CyWdtClear,"ax",%progbits
 2140              		.align	1
 2141              		.global	CyWdtClear
 2142              		.thumb
 2143              		.thumb_func
 2144              		.type	CyWdtClear, %function
 2145              	CyWdtClear:
 2146              	.LFB45:
1835:.\Generated_Source\PSoC5/CyLib.c **** }
ARM GAS  C:\Users\MICHA_~1\AppData\Local\Temp\ccAOLfnb.s 			page 74


1836:.\Generated_Source\PSoC5/CyLib.c **** 
1837:.\Generated_Source\PSoC5/CyLib.c **** 
1838:.\Generated_Source\PSoC5/CyLib.c **** /*******************************************************************************
1839:.\Generated_Source\PSoC5/CyLib.c **** * Function Name: CyWdtClear
1840:.\Generated_Source\PSoC5/CyLib.c **** ********************************************************************************
1841:.\Generated_Source\PSoC5/CyLib.c **** *
1842:.\Generated_Source\PSoC5/CyLib.c **** * Summary:
1843:.\Generated_Source\PSoC5/CyLib.c **** *  Clears (feeds) the watchdog timer.
1844:.\Generated_Source\PSoC5/CyLib.c **** *
1845:.\Generated_Source\PSoC5/CyLib.c **** * Parameters:
1846:.\Generated_Source\PSoC5/CyLib.c **** *  None
1847:.\Generated_Source\PSoC5/CyLib.c **** *
1848:.\Generated_Source\PSoC5/CyLib.c **** * Return:
1849:.\Generated_Source\PSoC5/CyLib.c **** *  None
1850:.\Generated_Source\PSoC5/CyLib.c **** *
1851:.\Generated_Source\PSoC5/CyLib.c **** *******************************************************************************/
1852:.\Generated_Source\PSoC5/CyLib.c **** void CyWdtClear(void) 
1853:.\Generated_Source\PSoC5/CyLib.c **** {
 2147              		.loc 1 1853 0
 2148              		.cfi_startproc
 2149              		@ args = 0, pretend = 0, frame = 0
 2150              		@ frame_needed = 0, uses_anonymous_args = 0
 2151              		@ link register save eliminated.
1854:.\Generated_Source\PSoC5/CyLib.c ****     CY_WDT_CR_REG = CY_WDT_CR_FEED;
 2152              		.loc 1 1854 0
 2153 0000 014B     		ldr	r3, .L249
 2154 0002 0122     		movs	r2, #1
 2155 0004 1A70     		strb	r2, [r3, #0]
 2156 0006 7047     		bx	lr
 2157              	.L250:
 2158              		.align	2
 2159              	.L249:
 2160 0008 84430040 		.word	1073759108
 2161              		.cfi_endproc
 2162              	.LFE45:
 2163              		.size	CyWdtClear, .-CyWdtClear
 2164              		.section	.text.CyVdLvDigitEnable,"ax",%progbits
 2165              		.align	1
 2166              		.global	CyVdLvDigitEnable
 2167              		.thumb
 2168              		.thumb_func
 2169              		.type	CyVdLvDigitEnable, %function
 2170              	CyVdLvDigitEnable:
 2171              	.LFB46:
1855:.\Generated_Source\PSoC5/CyLib.c **** }
1856:.\Generated_Source\PSoC5/CyLib.c **** 
1857:.\Generated_Source\PSoC5/CyLib.c **** 
1858:.\Generated_Source\PSoC5/CyLib.c **** 
1859:.\Generated_Source\PSoC5/CyLib.c **** /*******************************************************************************
1860:.\Generated_Source\PSoC5/CyLib.c **** * Function Name: CyVdLvDigitEnable
1861:.\Generated_Source\PSoC5/CyLib.c **** ********************************************************************************
1862:.\Generated_Source\PSoC5/CyLib.c **** *
1863:.\Generated_Source\PSoC5/CyLib.c **** * Summary:
1864:.\Generated_Source\PSoC5/CyLib.c **** *  Enables the digital low voltage monitors to generate interrupt on Vddd
1865:.\Generated_Source\PSoC5/CyLib.c **** *   archives specified threshold and optionally resets device.
1866:.\Generated_Source\PSoC5/CyLib.c **** *
1867:.\Generated_Source\PSoC5/CyLib.c **** * Parameters:
ARM GAS  C:\Users\MICHA_~1\AppData\Local\Temp\ccAOLfnb.s 			page 75


1868:.\Generated_Source\PSoC5/CyLib.c **** *  reset: Option to reset device at a specified Vddd threshold:
1869:.\Generated_Source\PSoC5/CyLib.c **** *           0 - Device is not reset.
1870:.\Generated_Source\PSoC5/CyLib.c **** *           1 - Device is reset.
1871:.\Generated_Source\PSoC5/CyLib.c **** *
1872:.\Generated_Source\PSoC5/CyLib.c **** *  threshold: Sets the trip level for the voltage monitor.
1873:.\Generated_Source\PSoC5/CyLib.c **** *  Values from 1.70 V to 5.45 V are accepted with the approximately 250 mV
1874:.\Generated_Source\PSoC5/CyLib.c **** *  interval.
