ARM GAS  C:\Users\MICHA_~1\AppData\Local\Temp\ccXJOjZh.s 			page 1


   1              		.syntax unified
   2              		.cpu cortex-m3
   3              		.fpu softvfp
   4              		.eabi_attribute 20, 1
   5              		.eabi_attribute 21, 1
   6              		.eabi_attribute 23, 3
   7              		.eabi_attribute 24, 1
   8              		.eabi_attribute 25, 1
   9              		.eabi_attribute 26, 1
  10              		.eabi_attribute 30, 4
  11              		.eabi_attribute 34, 1
  12              		.eabi_attribute 18, 4
  13              		.thumb
  14              		.file	"CySpc.c"
  15              		.text
  16              	.Ltext0:
  17              		.cfi_sections	.debug_frame
  18              		.section	.text.CySpcStart,"ax",%progbits
  19              		.align	1
  20              		.global	CySpcStart
  21              		.thumb
  22              		.thumb_func
  23              		.type	CySpcStart, %function
  24              	CySpcStart:
  25              	.LFB0:
  26              		.file 1 ".\\Generated_Source\\PSoC5\\CySpc.c"
   1:.\Generated_Source\PSoC5/CySpc.c **** /*******************************************************************************
   2:.\Generated_Source\PSoC5/CySpc.c **** * File Name: CySpc.c
   3:.\Generated_Source\PSoC5/CySpc.c **** * Version 4.0
   4:.\Generated_Source\PSoC5/CySpc.c **** *
   5:.\Generated_Source\PSoC5/CySpc.c **** *  Description:
   6:.\Generated_Source\PSoC5/CySpc.c **** *   Provides an API for the System Performance Component.
   7:.\Generated_Source\PSoC5/CySpc.c **** *   The SPC functions are not meant to be called directly by the user
   8:.\Generated_Source\PSoC5/CySpc.c **** *   application.
   9:.\Generated_Source\PSoC5/CySpc.c **** *
  10:.\Generated_Source\PSoC5/CySpc.c **** ********************************************************************************
  11:.\Generated_Source\PSoC5/CySpc.c **** * Copyright 2008-2013, Cypress Semiconductor Corporation.  All rights reserved.
  12:.\Generated_Source\PSoC5/CySpc.c **** * You may use this file only in accordance with the license, terms, conditions,
  13:.\Generated_Source\PSoC5/CySpc.c **** * disclaimers, and limitations in the end user license agreement accompanying
  14:.\Generated_Source\PSoC5/CySpc.c **** * the software package with which this file was provided.
  15:.\Generated_Source\PSoC5/CySpc.c **** *******************************************************************************/
  16:.\Generated_Source\PSoC5/CySpc.c **** 
  17:.\Generated_Source\PSoC5/CySpc.c **** #include "CySpc.h"
  18:.\Generated_Source\PSoC5/CySpc.c **** 
  19:.\Generated_Source\PSoC5/CySpc.c **** #define CY_SPC_KEY_ONE                      (0xB6u)
  20:.\Generated_Source\PSoC5/CySpc.c **** #define CY_SPC_KEY_TWO(x)                   ((uint8) (((uint16) 0xD3u) + ((uint16) (x))))
  21:.\Generated_Source\PSoC5/CySpc.c **** 
  22:.\Generated_Source\PSoC5/CySpc.c **** /* Command Codes */
  23:.\Generated_Source\PSoC5/CySpc.c **** #define CY_SPC_CMD_LD_BYTE                  (0x00u)
  24:.\Generated_Source\PSoC5/CySpc.c **** #define CY_SPC_CMD_LD_MULTI_BYTE            (0x01u)
  25:.\Generated_Source\PSoC5/CySpc.c **** #define CY_SPC_CMD_LD_ROW                   (0x02u)
  26:.\Generated_Source\PSoC5/CySpc.c **** #define CY_SPC_CMD_RD_BYTE                  (0x03u)
  27:.\Generated_Source\PSoC5/CySpc.c **** #define CY_SPC_CMD_RD_MULTI_BYTE            (0x04u)
  28:.\Generated_Source\PSoC5/CySpc.c **** #define CY_SPC_CMD_WR_ROW                   (0x05u)
  29:.\Generated_Source\PSoC5/CySpc.c **** #define CY_SPC_CMD_WR_USER_NVL              (0x06u)
  30:.\Generated_Source\PSoC5/CySpc.c **** #define CY_SPC_CMD_PRG_ROW                  (0x07u)
  31:.\Generated_Source\PSoC5/CySpc.c **** #define CY_SPC_CMD_ER_SECTOR                (0x08u)
ARM GAS  C:\Users\MICHA_~1\AppData\Local\Temp\ccXJOjZh.s 			page 2


  32:.\Generated_Source\PSoC5/CySpc.c **** #define CY_SPC_CMD_ER_ALL                   (0x09u)
  33:.\Generated_Source\PSoC5/CySpc.c **** #define CY_SPC_CMD_RD_HIDDEN                (0x0Au)
  34:.\Generated_Source\PSoC5/CySpc.c **** #define CY_SPC_CMD_PRG_PROTECT              (0x0Bu)
  35:.\Generated_Source\PSoC5/CySpc.c **** #define CY_SPC_CMD_CHECKSUM                 (0x0Cu)
  36:.\Generated_Source\PSoC5/CySpc.c **** #define CY_SPC_CMD_DWNLD_ALGORITHM          (0x0Du)
  37:.\Generated_Source\PSoC5/CySpc.c **** #define CY_SPC_CMD_GET_TEMP                 (0x0Eu)
  38:.\Generated_Source\PSoC5/CySpc.c **** #define CY_SPC_CMD_GET_ADC                  (0x0Fu)
  39:.\Generated_Source\PSoC5/CySpc.c **** #define CY_SPC_CMD_RD_NVL_VOLATILE          (0x10u)
  40:.\Generated_Source\PSoC5/CySpc.c **** #define CY_SPC_CMD_SETUP_TS                 (0x11u)
  41:.\Generated_Source\PSoC5/CySpc.c **** #define CY_SPC_CMD_DISABLE_TS               (0x12u)
  42:.\Generated_Source\PSoC5/CySpc.c **** #define CY_SPC_CMD_ER_ROW                   (0x13u)
  43:.\Generated_Source\PSoC5/CySpc.c **** 
  44:.\Generated_Source\PSoC5/CySpc.c **** /* Enable bit in Active and Alternate Active mode templates */
  45:.\Generated_Source\PSoC5/CySpc.c **** #define PM_SPC_PM_EN                        (0x08u)
  46:.\Generated_Source\PSoC5/CySpc.c **** 
  47:.\Generated_Source\PSoC5/CySpc.c **** /* Gate calls to the SPC. */
  48:.\Generated_Source\PSoC5/CySpc.c **** uint8 SpcLockState = CY_SPC_UNLOCKED;
  49:.\Generated_Source\PSoC5/CySpc.c **** 
  50:.\Generated_Source\PSoC5/CySpc.c **** 
  51:.\Generated_Source\PSoC5/CySpc.c **** #if(CY_PSOC5)
  52:.\Generated_Source\PSoC5/CySpc.c **** 
  53:.\Generated_Source\PSoC5/CySpc.c ****     /***************************************************************************
  54:.\Generated_Source\PSoC5/CySpc.c ****     * The wait-state pipeline must be enabled prior to accessing the SPC
  55:.\Generated_Source\PSoC5/CySpc.c ****     * register interface regardless of CPU frequency. The CySpcLock() saves
  56:.\Generated_Source\PSoC5/CySpc.c ****     * current wait-state pipeline state and enables it. The CySpcUnlock()
  57:.\Generated_Source\PSoC5/CySpc.c ****     * function, which must be called after SPC transaction, restores original
  58:.\Generated_Source\PSoC5/CySpc.c ****     * state.
  59:.\Generated_Source\PSoC5/CySpc.c ****     ***************************************************************************/
  60:.\Generated_Source\PSoC5/CySpc.c ****     static uint32 spcWaitPipeBypass = 0u;
  61:.\Generated_Source\PSoC5/CySpc.c **** 
  62:.\Generated_Source\PSoC5/CySpc.c **** #endif  /* (CY_PSOC5) */
  63:.\Generated_Source\PSoC5/CySpc.c **** 
  64:.\Generated_Source\PSoC5/CySpc.c **** 
  65:.\Generated_Source\PSoC5/CySpc.c **** /*******************************************************************************
  66:.\Generated_Source\PSoC5/CySpc.c **** * Function Name: CySpcStart
  67:.\Generated_Source\PSoC5/CySpc.c **** ********************************************************************************
  68:.\Generated_Source\PSoC5/CySpc.c **** * Summary:
  69:.\Generated_Source\PSoC5/CySpc.c **** *  Starts the SPC.
  70:.\Generated_Source\PSoC5/CySpc.c **** *
  71:.\Generated_Source\PSoC5/CySpc.c **** * Parameters:
  72:.\Generated_Source\PSoC5/CySpc.c **** *  None
  73:.\Generated_Source\PSoC5/CySpc.c **** *
  74:.\Generated_Source\PSoC5/CySpc.c **** * Return:
  75:.\Generated_Source\PSoC5/CySpc.c **** *  None
  76:.\Generated_Source\PSoC5/CySpc.c **** *
  77:.\Generated_Source\PSoC5/CySpc.c **** *******************************************************************************/
  78:.\Generated_Source\PSoC5/CySpc.c **** void CySpcStart(void) 
  79:.\Generated_Source\PSoC5/CySpc.c **** {
  27              		.loc 1 79 0
  28              		.cfi_startproc
  29              		@ args = 0, pretend = 0, frame = 0
  30              		@ frame_needed = 0, uses_anonymous_args = 0
  31 0000 08B5     		push	{r3, lr}
  32              	.LCFI0:
  33              		.cfi_def_cfa_offset 8
  34              		.cfi_offset 3, -8
  35              		.cfi_offset 14, -4
ARM GAS  C:\Users\MICHA_~1\AppData\Local\Temp\ccXJOjZh.s 			page 3


  80:.\Generated_Source\PSoC5/CySpc.c ****     /* Save current global interrupt enable and disable it */
  81:.\Generated_Source\PSoC5/CySpc.c ****     uint8 interruptState = CyEnterCriticalSection();
  36              		.loc 1 81 0
  37 0002 FFF7FEFF 		bl	CyEnterCriticalSection
  38              	.LVL0:
  82:.\Generated_Source\PSoC5/CySpc.c **** 
  83:.\Generated_Source\PSoC5/CySpc.c ****     CY_SPC_PM_ACT_REG  |= PM_SPC_PM_EN;
  39              		.loc 1 83 0
  40 0006 064B     		ldr	r3, .L2
  41 0008 1A78     		ldrb	r2, [r3, #0]	@ zero_extendqisi2
  42 000a 42F00801 		orr	r1, r2, #8
  43 000e 1970     		strb	r1, [r3, #0]
  84:.\Generated_Source\PSoC5/CySpc.c ****     CY_SPC_PM_STBY_REG |= PM_SPC_PM_EN;
  44              		.loc 1 84 0
  45 0010 1A7C     		ldrb	r2, [r3, #16]	@ zero_extendqisi2
  46 0012 42F00801 		orr	r1, r2, #8
  47 0016 1974     		strb	r1, [r3, #16]
  85:.\Generated_Source\PSoC5/CySpc.c **** 
  86:.\Generated_Source\PSoC5/CySpc.c ****     /* Restore global interrupt enable state */
  87:.\Generated_Source\PSoC5/CySpc.c ****     CyExitCriticalSection(interruptState);
  88:.\Generated_Source\PSoC5/CySpc.c **** }
  48              		.loc 1 88 0
  49 0018 BDE80840 		pop	{r3, lr}
  87:.\Generated_Source\PSoC5/CySpc.c ****     CyExitCriticalSection(interruptState);
  50              		.loc 1 87 0
  51 001c FFF7FEBF 		b	CyExitCriticalSection
  52              	.LVL1:
  53              	.L3:
  54              		.align	2
  55              	.L2:
  56 0020 A0430040 		.word	1073759136
  57              		.cfi_endproc
  58              	.LFE0:
  59              		.size	CySpcStart, .-CySpcStart
  60              		.section	.text.CySpcStop,"ax",%progbits
  61              		.align	1
  62              		.global	CySpcStop
  63              		.thumb
  64              		.thumb_func
  65              		.type	CySpcStop, %function
  66              	CySpcStop:
  67              	.LFB1:
  89:.\Generated_Source\PSoC5/CySpc.c **** 
  90:.\Generated_Source\PSoC5/CySpc.c **** 
  91:.\Generated_Source\PSoC5/CySpc.c **** /*******************************************************************************
  92:.\Generated_Source\PSoC5/CySpc.c **** * Function Name: CySpcStop
  93:.\Generated_Source\PSoC5/CySpc.c **** ********************************************************************************
  94:.\Generated_Source\PSoC5/CySpc.c **** * Summary:
  95:.\Generated_Source\PSoC5/CySpc.c **** *  Stops the SPC.
  96:.\Generated_Source\PSoC5/CySpc.c **** *
  97:.\Generated_Source\PSoC5/CySpc.c **** * Parameters:
  98:.\Generated_Source\PSoC5/CySpc.c **** *  None
  99:.\Generated_Source\PSoC5/CySpc.c **** *
 100:.\Generated_Source\PSoC5/CySpc.c **** * Return:
 101:.\Generated_Source\PSoC5/CySpc.c **** *  None
 102:.\Generated_Source\PSoC5/CySpc.c **** *
 103:.\Generated_Source\PSoC5/CySpc.c **** *******************************************************************************/
ARM GAS  C:\Users\MICHA_~1\AppData\Local\Temp\ccXJOjZh.s 			page 4


 104:.\Generated_Source\PSoC5/CySpc.c **** void CySpcStop(void) 
 105:.\Generated_Source\PSoC5/CySpc.c **** {
  68              		.loc 1 105 0
  69              		.cfi_startproc
  70              		@ args = 0, pretend = 0, frame = 0
  71              		@ frame_needed = 0, uses_anonymous_args = 0
  72 0000 08B5     		push	{r3, lr}
  73              	.LCFI1:
  74              		.cfi_def_cfa_offset 8
  75              		.cfi_offset 3, -8
  76              		.cfi_offset 14, -4
 106:.\Generated_Source\PSoC5/CySpc.c ****     /* Save current global interrupt enable and disable it */
 107:.\Generated_Source\PSoC5/CySpc.c ****     uint8 interruptState = CyEnterCriticalSection();
  77              		.loc 1 107 0
  78 0002 FFF7FEFF 		bl	CyEnterCriticalSection
  79              	.LVL2:
 108:.\Generated_Source\PSoC5/CySpc.c **** 
 109:.\Generated_Source\PSoC5/CySpc.c ****     CY_SPC_PM_ACT_REG  &= ((uint8)(~PM_SPC_PM_EN));
  80              		.loc 1 109 0
  81 0006 064B     		ldr	r3, .L5
  82 0008 1A78     		ldrb	r2, [r3, #0]	@ zero_extendqisi2
  83 000a 02F0F701 		and	r1, r2, #247
  84 000e 1970     		strb	r1, [r3, #0]
 110:.\Generated_Source\PSoC5/CySpc.c ****     CY_SPC_PM_STBY_REG &= ((uint8)(~PM_SPC_PM_EN));
  85              		.loc 1 110 0
  86 0010 1A7C     		ldrb	r2, [r3, #16]	@ zero_extendqisi2
  87 0012 02F0F701 		and	r1, r2, #247
  88 0016 1974     		strb	r1, [r3, #16]
 111:.\Generated_Source\PSoC5/CySpc.c **** 
 112:.\Generated_Source\PSoC5/CySpc.c ****     /* Restore global interrupt enable state */
 113:.\Generated_Source\PSoC5/CySpc.c ****     CyExitCriticalSection(interruptState);
 114:.\Generated_Source\PSoC5/CySpc.c **** }
  89              		.loc 1 114 0
  90 0018 BDE80840 		pop	{r3, lr}
 113:.\Generated_Source\PSoC5/CySpc.c ****     CyExitCriticalSection(interruptState);
  91              		.loc 1 113 0
  92 001c FFF7FEBF 		b	CyExitCriticalSection
  93              	.LVL3:
  94              	.L6:
  95              		.align	2
  96              	.L5:
  97 0020 A0430040 		.word	1073759136
  98              		.cfi_endproc
  99              	.LFE1:
 100              		.size	CySpcStop, .-CySpcStop
 101              		.section	.text.CySpcReadData,"ax",%progbits
 102              		.align	1
 103              		.global	CySpcReadData
 104              		.thumb
 105              		.thumb_func
 106              		.type	CySpcReadData, %function
 107              	CySpcReadData:
 108              	.LFB2:
 115:.\Generated_Source\PSoC5/CySpc.c **** 
 116:.\Generated_Source\PSoC5/CySpc.c **** 
 117:.\Generated_Source\PSoC5/CySpc.c **** /*******************************************************************************
 118:.\Generated_Source\PSoC5/CySpc.c **** * Function Name: CySpcReadData
ARM GAS  C:\Users\MICHA_~1\AppData\Local\Temp\ccXJOjZh.s 			page 5


 119:.\Generated_Source\PSoC5/CySpc.c **** ********************************************************************************
 120:.\Generated_Source\PSoC5/CySpc.c **** * Summary:
 121:.\Generated_Source\PSoC5/CySpc.c **** *  Reads data from the SPC.
 122:.\Generated_Source\PSoC5/CySpc.c **** *
 123:.\Generated_Source\PSoC5/CySpc.c **** * Parameters:
 124:.\Generated_Source\PSoC5/CySpc.c **** *  uint8 buffer:
 125:.\Generated_Source\PSoC5/CySpc.c **** *   Address to store data read.
 126:.\Generated_Source\PSoC5/CySpc.c **** *
 127:.\Generated_Source\PSoC5/CySpc.c **** *  uint8 size:
 128:.\Generated_Source\PSoC5/CySpc.c **** *   Number of bytes to read from the SPC.
 129:.\Generated_Source\PSoC5/CySpc.c **** *
 130:.\Generated_Source\PSoC5/CySpc.c **** * Return:
 131:.\Generated_Source\PSoC5/CySpc.c **** *  uint8:
 132:.\Generated_Source\PSoC5/CySpc.c **** *   The number of bytes read from the SPC.
 133:.\Generated_Source\PSoC5/CySpc.c **** *
 134:.\Generated_Source\PSoC5/CySpc.c **** *******************************************************************************/
 135:.\Generated_Source\PSoC5/CySpc.c **** uint8 CySpcReadData(uint8 buffer[], uint8 size) 
 136:.\Generated_Source\PSoC5/CySpc.c **** {
 109              		.loc 1 136 0
 110              		.cfi_startproc
 111              		@ args = 0, pretend = 0, frame = 0
 112              		@ frame_needed = 0, uses_anonymous_args = 0
 113              	.LVL4:
 114 0000 70B5     		push	{r4, r5, r6, lr}
 115              	.LCFI2:
 116              		.cfi_def_cfa_offset 16
 117              		.cfi_offset 4, -16
 118              		.cfi_offset 5, -12
 119              		.cfi_offset 6, -8
 120              		.cfi_offset 14, -4
 121              		.loc 1 136 0
 122 0002 0646     		mov	r6, r0
 123 0004 0D46     		mov	r5, r1
 137:.\Generated_Source\PSoC5/CySpc.c ****     uint8 i;
 138:.\Generated_Source\PSoC5/CySpc.c **** 
 139:.\Generated_Source\PSoC5/CySpc.c ****     for(i = 0u; i < size; i++)
 124              		.loc 1 139 0
 125 0006 0024     		movs	r4, #0
 126              	.LVL5:
 127              	.L8:
 128              		.loc 1 139 0 is_stmt 0 discriminator 1
 129 0008 E3B2     		uxtb	r3, r4
 130 000a AB42     		cmp	r3, r5
 131 000c 0CD2     		bcs	.L13
 132              	.L11:
 140:.\Generated_Source\PSoC5/CySpc.c ****     {
 141:.\Generated_Source\PSoC5/CySpc.c ****         while(!CY_SPC_DATA_READY)
 133              		.loc 1 141 0 is_stmt 1 discriminator 1
 134 000e 0748     		ldr	r0, .L15
 135 0010 0178     		ldrb	r1, [r0, #0]	@ zero_extendqisi2
 136 0012 CB07     		lsls	r3, r1, #31
 137 0014 03D4     		bmi	.L14
 138              	.L9:
 142:.\Generated_Source\PSoC5/CySpc.c ****         {
 143:.\Generated_Source\PSoC5/CySpc.c ****             CyDelayUs(1u);
 139              		.loc 1 143 0
 140 0016 0120     		movs	r0, #1
ARM GAS  C:\Users\MICHA_~1\AppData\Local\Temp\ccXJOjZh.s 			page 6


 141 0018 FFF7FEFF 		bl	CyDelayUs
 142              	.LVL6:
 143 001c F7E7     		b	.L11
 144              	.L14:
 144:.\Generated_Source\PSoC5/CySpc.c ****         }
 145:.\Generated_Source\PSoC5/CySpc.c ****         buffer[i] = CY_SPC_CPU_DATA_REG;
 145              		.loc 1 145 0
 146 001e 044A     		ldr	r2, .L15+4
 147 0020 1378     		ldrb	r3, [r2, #0]	@ zero_extendqisi2
 148 0022 3355     		strb	r3, [r6, r4]
 149 0024 0134     		adds	r4, r4, #1
 150 0026 EFE7     		b	.L8
 151              	.L13:
 146:.\Generated_Source\PSoC5/CySpc.c ****     }
 147:.\Generated_Source\PSoC5/CySpc.c **** 
 148:.\Generated_Source\PSoC5/CySpc.c ****     return(i);
 149:.\Generated_Source\PSoC5/CySpc.c **** }
 152              		.loc 1 149 0
 153 0028 2846     		mov	r0, r5
 154 002a 70BD     		pop	{r4, r5, r6, pc}
 155              	.L16:
 156              		.align	2
 157              	.L15:
 158 002c 22470040 		.word	1073760034
 159 0030 20470040 		.word	1073760032
 160              		.cfi_endproc
 161              	.LFE2:
 162              		.size	CySpcReadData, .-CySpcReadData
 163              		.section	.text.CySpcLoadMultiByte,"ax",%progbits
 164              		.align	1
 165              		.global	CySpcLoadMultiByte
 166              		.thumb
 167              		.thumb_func
 168              		.type	CySpcLoadMultiByte, %function
 169              	CySpcLoadMultiByte:
 170              	.LFB3:
 150:.\Generated_Source\PSoC5/CySpc.c **** 
 151:.\Generated_Source\PSoC5/CySpc.c **** 
 152:.\Generated_Source\PSoC5/CySpc.c **** /*******************************************************************************
 153:.\Generated_Source\PSoC5/CySpc.c **** * Function Name: CySpcLoadMultiByte
 154:.\Generated_Source\PSoC5/CySpc.c **** ********************************************************************************
 155:.\Generated_Source\PSoC5/CySpc.c **** * Summary:
 156:.\Generated_Source\PSoC5/CySpc.c **** *  Loads 1 to 32 bytes of data into the row latch of a Flash/EEPROM array.
 157:.\Generated_Source\PSoC5/CySpc.c **** *
 158:.\Generated_Source\PSoC5/CySpc.c **** * Parameters:
 159:.\Generated_Source\PSoC5/CySpc.c **** *  uint8 array:
 160:.\Generated_Source\PSoC5/CySpc.c **** *   Id of the array.
 161:.\Generated_Source\PSoC5/CySpc.c **** *
 162:.\Generated_Source\PSoC5/CySpc.c **** *  uint16 address:
 163:.\Generated_Source\PSoC5/CySpc.c **** *   Flash/eeprom addrress
 164:.\Generated_Source\PSoC5/CySpc.c **** *
 165:.\Generated_Source\PSoC5/CySpc.c **** *  uint8* buffer:
 166:.\Generated_Source\PSoC5/CySpc.c **** *   Data to load to the row latch
 167:.\Generated_Source\PSoC5/CySpc.c **** *
 168:.\Generated_Source\PSoC5/CySpc.c **** *  uint16 number:
 169:.\Generated_Source\PSoC5/CySpc.c **** *   Number bytes to load.
 170:.\Generated_Source\PSoC5/CySpc.c **** *
ARM GAS  C:\Users\MICHA_~1\AppData\Local\Temp\ccXJOjZh.s 			page 7


 171:.\Generated_Source\PSoC5/CySpc.c **** * Return:
 172:.\Generated_Source\PSoC5/CySpc.c **** *  CYRET_STARTED
 173:.\Generated_Source\PSoC5/CySpc.c **** *  CYRET_CANCELED
 174:.\Generated_Source\PSoC5/CySpc.c **** *  CYRET_LOCKED
 175:.\Generated_Source\PSoC5/CySpc.c **** *  CYRET_BAD_PARAM
 176:.\Generated_Source\PSoC5/CySpc.c **** *
 177:.\Generated_Source\PSoC5/CySpc.c **** *******************************************************************************/
 178:.\Generated_Source\PSoC5/CySpc.c **** cystatus CySpcLoadMultiByte(uint8 array, uint16 address, const uint8 buffer[], uint8 size)\
 179:.\Generated_Source\PSoC5/CySpc.c **** 
 180:.\Generated_Source\PSoC5/CySpc.c **** {
 171              		.loc 1 180 0
 172              		.cfi_startproc
 173              		@ args = 0, pretend = 0, frame = 0
 174              		@ frame_needed = 0, uses_anonymous_args = 0
 175              	.LVL7:
 181:.\Generated_Source\PSoC5/CySpc.c ****     cystatus status = CYRET_STARTED;
 182:.\Generated_Source\PSoC5/CySpc.c ****     uint8 i;
 183:.\Generated_Source\PSoC5/CySpc.c **** 
 184:.\Generated_Source\PSoC5/CySpc.c ****     /***************************************************************************
 185:.\Generated_Source\PSoC5/CySpc.c ****     * Check if number is correct for array. Number must be less than
 186:.\Generated_Source\PSoC5/CySpc.c ****     * 32 for Flash or less than 16 for EEPROM.
 187:.\Generated_Source\PSoC5/CySpc.c ****     ***************************************************************************/
 188:.\Generated_Source\PSoC5/CySpc.c ****     if(((array < CY_SPC_LAST_FLASH_ARRAYID) && (size < 32u)) ||
 176              		.loc 1 188 0
 177 0000 3E28     		cmp	r0, #62
 180:.\Generated_Source\PSoC5/CySpc.c **** {
 178              		.loc 1 180 0
 179 0002 70B5     		push	{r4, r5, r6, lr}
 180              	.LCFI3:
 181              		.cfi_def_cfa_offset 16
 182              		.cfi_offset 4, -16
 183              		.cfi_offset 5, -12
 184              		.cfi_offset 6, -8
 185              		.cfi_offset 14, -4
 186              		.loc 1 188 0
 187 0004 01D8     		bhi	.L18
 188              		.loc 1 188 0 is_stmt 0 discriminator 1
 189 0006 1F2B     		cmp	r3, #31
 190 0008 02E0     		b	.L28
 191              	.L18:
 192              		.loc 1 188 0 discriminator 2
 193 000a 3F28     		cmp	r0, #63
 194 000c 27D0     		beq	.L24
 189:.\Generated_Source\PSoC5/CySpc.c ****        ((array > CY_SPC_LAST_FLASH_ARRAYID) && (size < 16u)))
 195              		.loc 1 189 0 is_stmt 1
 196 000e 0F2B     		cmp	r3, #15
 197              	.L28:
 198 0010 25D8     		bhi	.L24
 190:.\Generated_Source\PSoC5/CySpc.c ****     {
 191:.\Generated_Source\PSoC5/CySpc.c ****         if(CY_SPC_IDLE)
 199              		.loc 1 191 0
 200 0012 164D     		ldr	r5, .L30
 201 0014 2C78     		ldrb	r4, [r5, #0]	@ zero_extendqisi2
 202 0016 04F00204 		and	r4, r4, #2
 203 001a E4B2     		uxtb	r4, r4
 204 001c 0CB3     		cbz	r4, .L25
 192:.\Generated_Source\PSoC5/CySpc.c ****         {
ARM GAS  C:\Users\MICHA_~1\AppData\Local\Temp\ccXJOjZh.s 			page 8


 193:.\Generated_Source\PSoC5/CySpc.c ****             CY_SPC_CPU_DATA_REG = CY_SPC_KEY_ONE;
 205              		.loc 1 193 0
 206 001e 144C     		ldr	r4, .L30+4
 207 0020 B626     		movs	r6, #182
 208 0022 2670     		strb	r6, [r4, #0]
 194:.\Generated_Source\PSoC5/CySpc.c ****             CY_SPC_CPU_DATA_REG = CY_SPC_KEY_TWO(CY_SPC_CMD_LD_MULTI_BYTE);
 209              		.loc 1 194 0
 210 0024 D426     		movs	r6, #212
 211 0026 2670     		strb	r6, [r4, #0]
 195:.\Generated_Source\PSoC5/CySpc.c ****             CY_SPC_CPU_DATA_REG = CY_SPC_CMD_LD_MULTI_BYTE;
 212              		.loc 1 195 0
 213 0028 0126     		movs	r6, #1
 214 002a 2670     		strb	r6, [r4, #0]
 196:.\Generated_Source\PSoC5/CySpc.c **** 
 197:.\Generated_Source\PSoC5/CySpc.c ****             if(CY_SPC_BUSY)
 215              		.loc 1 197 0
 216 002c 2D78     		ldrb	r5, [r5, #0]	@ zero_extendqisi2
 217 002e 05F00205 		and	r5, r5, #2
 218 0032 EDB2     		uxtb	r5, r5
 219 0034 BDB9     		cbnz	r5, .L26
 198:.\Generated_Source\PSoC5/CySpc.c ****             {
 199:.\Generated_Source\PSoC5/CySpc.c ****                 CY_SPC_CPU_DATA_REG = array;
 220              		.loc 1 199 0
 221 0036 2070     		strb	r0, [r4, #0]
 200:.\Generated_Source\PSoC5/CySpc.c ****                 CY_SPC_CPU_DATA_REG = 1u & HI8(address);
 222              		.loc 1 200 0
 223 0038 C1F30020 		ubfx	r0, r1, #8, #1
 224              	.LVL8:
 225 003c 2070     		strb	r0, [r4, #0]
 201:.\Generated_Source\PSoC5/CySpc.c ****                 CY_SPC_CPU_DATA_REG = LO8(address);
 226              		.loc 1 201 0
 227 003e C9B2     		uxtb	r1, r1
 228              	.LVL9:
 202:.\Generated_Source\PSoC5/CySpc.c ****                 CY_SPC_CPU_DATA_REG = ((uint8)(size - 1u));
 229              		.loc 1 202 0
 230 0040 581E     		subs	r0, r3, #1
 201:.\Generated_Source\PSoC5/CySpc.c ****                 CY_SPC_CPU_DATA_REG = LO8(address);
 231              		.loc 1 201 0
 232 0042 2170     		strb	r1, [r4, #0]
 233              		.loc 1 202 0
 234 0044 C1B2     		uxtb	r1, r0
 235 0046 2170     		strb	r1, [r4, #0]
 236              	.LVL10:
 203:.\Generated_Source\PSoC5/CySpc.c **** 
 204:.\Generated_Source\PSoC5/CySpc.c ****                 for(i = 0u; i < size; i++)
 237              		.loc 1 204 0
 238 0048 2946     		mov	r1, r5
 239              	.LVL11:
 240              	.L21:
 241              		.loc 1 204 0 is_stmt 0 discriminator 1
 242 004a C8B2     		uxtb	r0, r1
 243 004c 9842     		cmp	r0, r3
 244 004e 04D2     		bcs	.L29
 245              	.L22:
 205:.\Generated_Source\PSoC5/CySpc.c ****                 {
 206:.\Generated_Source\PSoC5/CySpc.c ****                     CY_SPC_CPU_DATA_REG = buffer[i];
 246              		.loc 1 206 0 is_stmt 1 discriminator 2
ARM GAS  C:\Users\MICHA_~1\AppData\Local\Temp\ccXJOjZh.s 			page 9


 247 0050 545C     		ldrb	r4, [r2, r1]	@ zero_extendqisi2
 248 0052 0748     		ldr	r0, .L30+4
 249              	.LVL12:
 250 0054 0131     		adds	r1, r1, #1
 251 0056 0470     		strb	r4, [r0, #0]
 252 0058 F7E7     		b	.L21
 253              	.LVL13:
 254              	.L29:
 181:.\Generated_Source\PSoC5/CySpc.c ****     cystatus status = CYRET_STARTED;
 255              		.loc 1 181 0
 256 005a 0720     		movs	r0, #7
 257 005c 70BD     		pop	{r4, r5, r6, pc}
 258              	.LVL14:
 259              	.L24:
 207:.\Generated_Source\PSoC5/CySpc.c ****                 }
 208:.\Generated_Source\PSoC5/CySpc.c ****             }
 209:.\Generated_Source\PSoC5/CySpc.c ****             else
 210:.\Generated_Source\PSoC5/CySpc.c ****             {
 211:.\Generated_Source\PSoC5/CySpc.c ****                 status = CYRET_CANCELED;
 212:.\Generated_Source\PSoC5/CySpc.c ****             }
 213:.\Generated_Source\PSoC5/CySpc.c ****         }
 214:.\Generated_Source\PSoC5/CySpc.c ****         else
 215:.\Generated_Source\PSoC5/CySpc.c ****         {
 216:.\Generated_Source\PSoC5/CySpc.c ****             status = CYRET_LOCKED;
 217:.\Generated_Source\PSoC5/CySpc.c ****         }
 218:.\Generated_Source\PSoC5/CySpc.c ****     }
 219:.\Generated_Source\PSoC5/CySpc.c ****     else
 220:.\Generated_Source\PSoC5/CySpc.c ****     {
 221:.\Generated_Source\PSoC5/CySpc.c ****         status = CYRET_BAD_PARAM;
 260              		.loc 1 221 0
 261 005e 0120     		movs	r0, #1
 262              	.LVL15:
 263 0060 70BD     		pop	{r4, r5, r6, pc}
 264              	.LVL16:
 265              	.L25:
 216:.\Generated_Source\PSoC5/CySpc.c ****             status = CYRET_LOCKED;
 266              		.loc 1 216 0
 267 0062 0420     		movs	r0, #4
 268              	.LVL17:
 269 0064 70BD     		pop	{r4, r5, r6, pc}
 270              	.LVL18:
 271              	.L26:
 211:.\Generated_Source\PSoC5/CySpc.c ****                 status = CYRET_CANCELED;
 272              		.loc 1 211 0
 273 0066 0920     		movs	r0, #9
 274              	.LVL19:
 222:.\Generated_Source\PSoC5/CySpc.c ****     }
 223:.\Generated_Source\PSoC5/CySpc.c **** 
 224:.\Generated_Source\PSoC5/CySpc.c ****     return(status);
 225:.\Generated_Source\PSoC5/CySpc.c **** }
 275              		.loc 1 225 0
 276 0068 70BD     		pop	{r4, r5, r6, pc}
 277              	.L31:
 278 006a 00BF     		.align	2
 279              	.L30:
 280 006c 22470040 		.word	1073760034
 281 0070 20470040 		.word	1073760032
ARM GAS  C:\Users\MICHA_~1\AppData\Local\Temp\ccXJOjZh.s 			page 10


 282              		.cfi_endproc
 283              	.LFE3:
 284              		.size	CySpcLoadMultiByte, .-CySpcLoadMultiByte
 285              		.section	.text.CySpcLoadRow,"ax",%progbits
 286              		.align	1
 287              		.global	CySpcLoadRow
 288              		.thumb
 289              		.thumb_func
 290              		.type	CySpcLoadRow, %function
 291              	CySpcLoadRow:
 292              	.LFB4:
 226:.\Generated_Source\PSoC5/CySpc.c **** 
 227:.\Generated_Source\PSoC5/CySpc.c **** 
 228:.\Generated_Source\PSoC5/CySpc.c **** /*******************************************************************************
 229:.\Generated_Source\PSoC5/CySpc.c **** * Function Name: CySpcLoadRow
 230:.\Generated_Source\PSoC5/CySpc.c **** ********************************************************************************
 231:.\Generated_Source\PSoC5/CySpc.c **** * Summary:
 232:.\Generated_Source\PSoC5/CySpc.c **** *  Loads a row of data into the row latch of a Flash/EEPROM array.
 233:.\Generated_Source\PSoC5/CySpc.c **** *
 234:.\Generated_Source\PSoC5/CySpc.c **** * Parameters:
 235:.\Generated_Source\PSoC5/CySpc.c **** *  uint8 array:
 236:.\Generated_Source\PSoC5/CySpc.c **** *   Id of the array.
 237:.\Generated_Source\PSoC5/CySpc.c **** *
 238:.\Generated_Source\PSoC5/CySpc.c **** *  uint8* buffer:
 239:.\Generated_Source\PSoC5/CySpc.c **** *   Data to be loaded to the row latch
 240:.\Generated_Source\PSoC5/CySpc.c **** *
 241:.\Generated_Source\PSoC5/CySpc.c **** *  uint8 size:
 242:.\Generated_Source\PSoC5/CySpc.c **** *   The number of data bytes that the SPC expects to be written. Depends on the
 243:.\Generated_Source\PSoC5/CySpc.c **** *   type of the array and, if the array is Flash, whether ECC is being enabled
 244:.\Generated_Source\PSoC5/CySpc.c **** *   or not. There are following values: flash row latch size with ECC enabled,
 245:.\Generated_Source\PSoC5/CySpc.c **** *   flash row latch size with ECC disabled and EEPROM row latch size.
 246:.\Generated_Source\PSoC5/CySpc.c **** *
 247:.\Generated_Source\PSoC5/CySpc.c **** * Return:
 248:.\Generated_Source\PSoC5/CySpc.c **** *  CYRET_STARTED
 249:.\Generated_Source\PSoC5/CySpc.c **** *  CYRET_CANCELED
 250:.\Generated_Source\PSoC5/CySpc.c **** *  CYRET_LOCKED
 251:.\Generated_Source\PSoC5/CySpc.c **** *
 252:.\Generated_Source\PSoC5/CySpc.c **** *******************************************************************************/
 253:.\Generated_Source\PSoC5/CySpc.c **** cystatus CySpcLoadRow(uint8 array, const uint8 buffer[], uint16 size)
 254:.\Generated_Source\PSoC5/CySpc.c **** {
 293              		.loc 1 254 0
 294              		.cfi_startproc
 295              		@ args = 0, pretend = 0, frame = 0
 296              		@ frame_needed = 0, uses_anonymous_args = 0
 297              	.LVL20:
 298 0000 30B5     		push	{r4, r5, lr}
 299              	.LCFI4:
 300              		.cfi_def_cfa_offset 12
 301              		.cfi_offset 4, -12
 302              		.cfi_offset 5, -8
 303              		.cfi_offset 14, -4
 255:.\Generated_Source\PSoC5/CySpc.c ****     cystatus status = CYRET_STARTED;
 256:.\Generated_Source\PSoC5/CySpc.c ****     uint16 i;
 257:.\Generated_Source\PSoC5/CySpc.c **** 
 258:.\Generated_Source\PSoC5/CySpc.c ****     /* Make sure the SPC is ready to accept command */
 259:.\Generated_Source\PSoC5/CySpc.c ****     if(CY_SPC_IDLE)
 304              		.loc 1 259 0
ARM GAS  C:\Users\MICHA_~1\AppData\Local\Temp\ccXJOjZh.s 			page 11


 305 0002 104B     		ldr	r3, .L39
 306 0004 1C78     		ldrb	r4, [r3, #0]	@ zero_extendqisi2
 307 0006 04F00204 		and	r4, r4, #2
 308 000a E4B2     		uxtb	r4, r4
 309 000c ACB1     		cbz	r4, .L36
 260:.\Generated_Source\PSoC5/CySpc.c ****     {
 261:.\Generated_Source\PSoC5/CySpc.c ****         CY_SPC_CPU_DATA_REG = CY_SPC_KEY_ONE;
 310              		.loc 1 261 0
 311 000e 0E4C     		ldr	r4, .L39+4
 312 0010 B625     		movs	r5, #182
 313 0012 2570     		strb	r5, [r4, #0]
 262:.\Generated_Source\PSoC5/CySpc.c ****         CY_SPC_CPU_DATA_REG = CY_SPC_KEY_TWO(CY_SPC_CMD_LD_ROW);
 314              		.loc 1 262 0
 315 0014 D525     		movs	r5, #213
 316 0016 2570     		strb	r5, [r4, #0]
 263:.\Generated_Source\PSoC5/CySpc.c ****         CY_SPC_CPU_DATA_REG = CY_SPC_CMD_LD_ROW;
 317              		.loc 1 263 0
 318 0018 0225     		movs	r5, #2
 319 001a 2570     		strb	r5, [r4, #0]
 264:.\Generated_Source\PSoC5/CySpc.c **** 
 265:.\Generated_Source\PSoC5/CySpc.c ****         /* Make sure the command was accepted */
 266:.\Generated_Source\PSoC5/CySpc.c ****         if(CY_SPC_BUSY)
 320              		.loc 1 266 0
 321 001c 1B78     		ldrb	r3, [r3, #0]	@ zero_extendqisi2
 322 001e 2B40     		ands	r3, r3, r5
 323 0020 DBB2     		uxtb	r3, r3
 324 0022 63B9     		cbnz	r3, .L37
 267:.\Generated_Source\PSoC5/CySpc.c ****         {
 268:.\Generated_Source\PSoC5/CySpc.c ****             CY_SPC_CPU_DATA_REG = array;
 325              		.loc 1 268 0
 326 0024 2070     		strb	r0, [r4, #0]
 327              	.LVL21:
 328              	.L34:
 269:.\Generated_Source\PSoC5/CySpc.c **** 
 270:.\Generated_Source\PSoC5/CySpc.c ****             for(i = 0u; i < size; i++)
 329              		.loc 1 270 0 discriminator 1
 330 0026 98B2     		uxth	r0, r3
 331 0028 9042     		cmp	r0, r2
 332 002a 04D2     		bcs	.L38
 333              	.L35:
 271:.\Generated_Source\PSoC5/CySpc.c ****             {
 272:.\Generated_Source\PSoC5/CySpc.c ****                 CY_SPC_CPU_DATA_REG = buffer[i];
 334              		.loc 1 272 0 discriminator 2
 335 002c CC5C     		ldrb	r4, [r1, r3]	@ zero_extendqisi2
 336 002e 0648     		ldr	r0, .L39+4
 337              	.LVL22:
 338 0030 0133     		adds	r3, r3, #1
 339 0032 0470     		strb	r4, [r0, #0]
 340 0034 F7E7     		b	.L34
 341              	.LVL23:
 342              	.L38:
 255:.\Generated_Source\PSoC5/CySpc.c ****     cystatus status = CYRET_STARTED;
 343              		.loc 1 255 0
 344 0036 0720     		movs	r0, #7
 345 0038 30BD     		pop	{r4, r5, pc}
 346              	.LVL24:
 347              	.L36:
ARM GAS  C:\Users\MICHA_~1\AppData\Local\Temp\ccXJOjZh.s 			page 12


 273:.\Generated_Source\PSoC5/CySpc.c ****             }
 274:.\Generated_Source\PSoC5/CySpc.c ****         }
 275:.\Generated_Source\PSoC5/CySpc.c ****         else
 276:.\Generated_Source\PSoC5/CySpc.c ****         {
 277:.\Generated_Source\PSoC5/CySpc.c ****             status = CYRET_CANCELED;
 278:.\Generated_Source\PSoC5/CySpc.c ****         }
 279:.\Generated_Source\PSoC5/CySpc.c ****     }
 280:.\Generated_Source\PSoC5/CySpc.c ****     else
 281:.\Generated_Source\PSoC5/CySpc.c ****     {
 282:.\Generated_Source\PSoC5/CySpc.c ****         status = CYRET_LOCKED;
 348              		.loc 1 282 0
 349 003a 0420     		movs	r0, #4
 350              	.LVL25:
 351 003c 30BD     		pop	{r4, r5, pc}
 352              	.LVL26:
 353              	.L37:
 277:.\Generated_Source\PSoC5/CySpc.c ****             status = CYRET_CANCELED;
 354              		.loc 1 277 0
 355 003e 0920     		movs	r0, #9
 356              	.LVL27:
 283:.\Generated_Source\PSoC5/CySpc.c ****     }
 284:.\Generated_Source\PSoC5/CySpc.c **** 
 285:.\Generated_Source\PSoC5/CySpc.c ****     return(status);
 286:.\Generated_Source\PSoC5/CySpc.c **** }
 357              		.loc 1 286 0
 358 0040 30BD     		pop	{r4, r5, pc}
 359              	.L40:
 360 0042 00BF     		.align	2
 361              	.L39:
 362 0044 22470040 		.word	1073760034
 363 0048 20470040 		.word	1073760032
 364              		.cfi_endproc
 365              	.LFE4:
 366              		.size	CySpcLoadRow, .-CySpcLoadRow
 367              		.section	.text.CySpcWriteRow,"ax",%progbits
 368              		.align	1
 369              		.global	CySpcWriteRow
 370              		.thumb
 371              		.thumb_func
 372              		.type	CySpcWriteRow, %function
 373              	CySpcWriteRow:
 374              	.LFB5:
 287:.\Generated_Source\PSoC5/CySpc.c **** 
 288:.\Generated_Source\PSoC5/CySpc.c **** 
 289:.\Generated_Source\PSoC5/CySpc.c **** /*******************************************************************************
 290:.\Generated_Source\PSoC5/CySpc.c **** * Function Name: CySpcWriteRow
 291:.\Generated_Source\PSoC5/CySpc.c **** ********************************************************************************
 292:.\Generated_Source\PSoC5/CySpc.c **** * Summary:
 293:.\Generated_Source\PSoC5/CySpc.c **** *  Erases then programs a row in Flash/EEPROM with data in row latch.
 294:.\Generated_Source\PSoC5/CySpc.c **** *
 295:.\Generated_Source\PSoC5/CySpc.c **** * Parameters:
 296:.\Generated_Source\PSoC5/CySpc.c **** *  uint8 array:
 297:.\Generated_Source\PSoC5/CySpc.c **** *   Id of the array.
 298:.\Generated_Source\PSoC5/CySpc.c **** *
 299:.\Generated_Source\PSoC5/CySpc.c **** *  uint16 address:
 300:.\Generated_Source\PSoC5/CySpc.c **** *   flash/eeprom addrress
 301:.\Generated_Source\PSoC5/CySpc.c **** *
ARM GAS  C:\Users\MICHA_~1\AppData\Local\Temp\ccXJOjZh.s 			page 13


 302:.\Generated_Source\PSoC5/CySpc.c **** *  uint8 tempPolarity:
 303:.\Generated_Source\PSoC5/CySpc.c **** *   temperature polarity.
 304:.\Generated_Source\PSoC5/CySpc.c **** *   1: the Temp Magnitude is interpreted as a positive value
 305:.\Generated_Source\PSoC5/CySpc.c **** *   0: the Temp Magnitude is interpreted as a negative value
 306:.\Generated_Source\PSoC5/CySpc.c **** *
 307:.\Generated_Source\PSoC5/CySpc.c **** *  uint8 tempMagnitude:
 308:.\Generated_Source\PSoC5/CySpc.c **** *   temperature magnitude.
 309:.\Generated_Source\PSoC5/CySpc.c **** *
 310:.\Generated_Source\PSoC5/CySpc.c **** * Return:
 311:.\Generated_Source\PSoC5/CySpc.c **** *  CYRET_STARTED
 312:.\Generated_Source\PSoC5/CySpc.c **** *  CYRET_CANCELED
 313:.\Generated_Source\PSoC5/CySpc.c **** *  CYRET_LOCKED
 314:.\Generated_Source\PSoC5/CySpc.c **** *
 315:.\Generated_Source\PSoC5/CySpc.c **** *******************************************************************************/
 316:.\Generated_Source\PSoC5/CySpc.c **** cystatus CySpcWriteRow(uint8 array, uint16 address, uint8 tempPolarity, uint8 tempMagnitude)\
 317:.\Generated_Source\PSoC5/CySpc.c **** 
 318:.\Generated_Source\PSoC5/CySpc.c **** {
 375              		.loc 1 318 0
 376              		.cfi_startproc
 377              		@ args = 0, pretend = 0, frame = 0
 378              		@ frame_needed = 0, uses_anonymous_args = 0
 379              	.LVL28:
 380 0000 70B5     		push	{r4, r5, r6, lr}
 381              	.LCFI5:
 382              		.cfi_def_cfa_offset 16
 383              		.cfi_offset 4, -16
 384              		.cfi_offset 5, -12
 385              		.cfi_offset 6, -8
 386              		.cfi_offset 14, -4
 319:.\Generated_Source\PSoC5/CySpc.c ****     cystatus status = CYRET_STARTED;
 320:.\Generated_Source\PSoC5/CySpc.c **** 
 321:.\Generated_Source\PSoC5/CySpc.c ****     /* Make sure the SPC is ready to accept command */
 322:.\Generated_Source\PSoC5/CySpc.c ****     if(CY_SPC_IDLE)
 387              		.loc 1 322 0
 388 0002 0F4D     		ldr	r5, .L45
 389 0004 2C78     		ldrb	r4, [r5, #0]	@ zero_extendqisi2
 390 0006 04F00204 		and	r4, r4, #2
 391 000a E4B2     		uxtb	r4, r4
 392 000c A4B1     		cbz	r4, .L43
 323:.\Generated_Source\PSoC5/CySpc.c ****     {
 324:.\Generated_Source\PSoC5/CySpc.c ****         CY_SPC_CPU_DATA_REG = CY_SPC_KEY_ONE;
 393              		.loc 1 324 0
 394 000e 0D4C     		ldr	r4, .L45+4
 395 0010 B626     		movs	r6, #182
 396 0012 2670     		strb	r6, [r4, #0]
 325:.\Generated_Source\PSoC5/CySpc.c ****         CY_SPC_CPU_DATA_REG = CY_SPC_KEY_TWO(CY_SPC_CMD_WR_ROW);
 397              		.loc 1 325 0
 398 0014 D826     		movs	r6, #216
 399 0016 2670     		strb	r6, [r4, #0]
 326:.\Generated_Source\PSoC5/CySpc.c ****         CY_SPC_CPU_DATA_REG = CY_SPC_CMD_WR_ROW;
 400              		.loc 1 326 0
 401 0018 0526     		movs	r6, #5
 402 001a 2670     		strb	r6, [r4, #0]
 327:.\Generated_Source\PSoC5/CySpc.c **** 
 328:.\Generated_Source\PSoC5/CySpc.c ****         /* Make sure the command was accepted */
 329:.\Generated_Source\PSoC5/CySpc.c ****         if(CY_SPC_BUSY)
 403              		.loc 1 329 0
ARM GAS  C:\Users\MICHA_~1\AppData\Local\Temp\ccXJOjZh.s 			page 14


 404 001c 2D78     		ldrb	r5, [r5, #0]	@ zero_extendqisi2
 405 001e 05F00205 		and	r5, r5, #2
 406 0022 EDB2     		uxtb	r5, r5
 407 0024 55B9     		cbnz	r5, .L44
 330:.\Generated_Source\PSoC5/CySpc.c ****         {
 331:.\Generated_Source\PSoC5/CySpc.c ****             CY_SPC_CPU_DATA_REG = array;
 408              		.loc 1 331 0
 409 0026 2070     		strb	r0, [r4, #0]
 332:.\Generated_Source\PSoC5/CySpc.c ****             CY_SPC_CPU_DATA_REG = HI8(address);
 410              		.loc 1 332 0
 411 0028 080A     		lsrs	r0, r1, #8
 412              	.LVL29:
 333:.\Generated_Source\PSoC5/CySpc.c ****             CY_SPC_CPU_DATA_REG = LO8(address);
 413              		.loc 1 333 0
 414 002a C9B2     		uxtb	r1, r1
 415              	.LVL30:
 332:.\Generated_Source\PSoC5/CySpc.c ****             CY_SPC_CPU_DATA_REG = HI8(address);
 416              		.loc 1 332 0
 417 002c 2070     		strb	r0, [r4, #0]
 418              		.loc 1 333 0
 419 002e 2170     		strb	r1, [r4, #0]
 319:.\Generated_Source\PSoC5/CySpc.c ****     cystatus status = CYRET_STARTED;
 420              		.loc 1 319 0
 421 0030 0720     		movs	r0, #7
 334:.\Generated_Source\PSoC5/CySpc.c ****             CY_SPC_CPU_DATA_REG = tempPolarity;
 422              		.loc 1 334 0
 423 0032 2270     		strb	r2, [r4, #0]
 335:.\Generated_Source\PSoC5/CySpc.c ****             CY_SPC_CPU_DATA_REG = tempMagnitude;
 424              		.loc 1 335 0
 425 0034 2370     		strb	r3, [r4, #0]
 426 0036 70BD     		pop	{r4, r5, r6, pc}
 427              	.LVL31:
 428              	.L43:
 336:.\Generated_Source\PSoC5/CySpc.c ****         }
 337:.\Generated_Source\PSoC5/CySpc.c ****         else
 338:.\Generated_Source\PSoC5/CySpc.c ****         {
 339:.\Generated_Source\PSoC5/CySpc.c ****             status = CYRET_CANCELED;
 340:.\Generated_Source\PSoC5/CySpc.c ****         }
 341:.\Generated_Source\PSoC5/CySpc.c ****     }
 342:.\Generated_Source\PSoC5/CySpc.c ****     else
 343:.\Generated_Source\PSoC5/CySpc.c ****     {
 344:.\Generated_Source\PSoC5/CySpc.c ****         status = CYRET_LOCKED;
 429              		.loc 1 344 0
 430 0038 0420     		movs	r0, #4
 431              	.LVL32:
 432 003a 70BD     		pop	{r4, r5, r6, pc}
 433              	.LVL33:
 434              	.L44:
 339:.\Generated_Source\PSoC5/CySpc.c ****             status = CYRET_CANCELED;
 435              		.loc 1 339 0
 436 003c 0920     		movs	r0, #9
 437              	.LVL34:
 345:.\Generated_Source\PSoC5/CySpc.c ****     }
 346:.\Generated_Source\PSoC5/CySpc.c **** 
 347:.\Generated_Source\PSoC5/CySpc.c ****     return(status);
 348:.\Generated_Source\PSoC5/CySpc.c **** }
 438              		.loc 1 348 0
ARM GAS  C:\Users\MICHA_~1\AppData\Local\Temp\ccXJOjZh.s 			page 15


 439 003e 70BD     		pop	{r4, r5, r6, pc}
 440              	.L46:
 441              		.align	2
 442              	.L45:
 443 0040 22470040 		.word	1073760034
 444 0044 20470040 		.word	1073760032
 445              		.cfi_endproc
 446              	.LFE5:
 447              		.size	CySpcWriteRow, .-CySpcWriteRow
 448              		.section	.text.CySpcEraseSector,"ax",%progbits
 449              		.align	1
 450              		.global	CySpcEraseSector
 451              		.thumb
 452              		.thumb_func
 453              		.type	CySpcEraseSector, %function
 454              	CySpcEraseSector:
 455              	.LFB6:
 349:.\Generated_Source\PSoC5/CySpc.c **** 
 350:.\Generated_Source\PSoC5/CySpc.c **** 
 351:.\Generated_Source\PSoC5/CySpc.c **** /*******************************************************************************
 352:.\Generated_Source\PSoC5/CySpc.c **** * Function Name: CySpcEraseSector
 353:.\Generated_Source\PSoC5/CySpc.c **** ********************************************************************************
 354:.\Generated_Source\PSoC5/CySpc.c **** * Summary:
 355:.\Generated_Source\PSoC5/CySpc.c **** *  Erases all data in the addressed sector (block of 64 rows).
 356:.\Generated_Source\PSoC5/CySpc.c **** *
 357:.\Generated_Source\PSoC5/CySpc.c **** * Parameters:
 358:.\Generated_Source\PSoC5/CySpc.c **** *  uint8 array:
 359:.\Generated_Source\PSoC5/CySpc.c **** *   Id of the array.
 360:.\Generated_Source\PSoC5/CySpc.c **** *
 361:.\Generated_Source\PSoC5/CySpc.c **** *  uint8 sectorNumber:
 362:.\Generated_Source\PSoC5/CySpc.c **** *   Zero based sector number within Flash/EEPROM array
 363:.\Generated_Source\PSoC5/CySpc.c **** *
 364:.\Generated_Source\PSoC5/CySpc.c **** * Return:
 365:.\Generated_Source\PSoC5/CySpc.c **** *  CYRET_STARTED
 366:.\Generated_Source\PSoC5/CySpc.c **** *  CYRET_CANCELED
 367:.\Generated_Source\PSoC5/CySpc.c **** *  CYRET_LOCKED
 368:.\Generated_Source\PSoC5/CySpc.c **** *
 369:.\Generated_Source\PSoC5/CySpc.c **** *******************************************************************************/
 370:.\Generated_Source\PSoC5/CySpc.c **** cystatus CySpcEraseSector(uint8 array, uint8 sectorNumber)
 371:.\Generated_Source\PSoC5/CySpc.c **** {
 456              		.loc 1 371 0
 457              		.cfi_startproc
 458              		@ args = 0, pretend = 0, frame = 0
 459              		@ frame_needed = 0, uses_anonymous_args = 0
 460              	.LVL35:
 461 0000 10B5     		push	{r4, lr}
 462              	.LCFI6:
 463              		.cfi_def_cfa_offset 8
 464              		.cfi_offset 4, -8
 465              		.cfi_offset 14, -4
 372:.\Generated_Source\PSoC5/CySpc.c ****     cystatus status = CYRET_STARTED;
 373:.\Generated_Source\PSoC5/CySpc.c **** 
 374:.\Generated_Source\PSoC5/CySpc.c ****     /* Make sure the SPC is ready to accept command */
 375:.\Generated_Source\PSoC5/CySpc.c ****     if(CY_SPC_IDLE)
 466              		.loc 1 375 0
 467 0002 0D4A     		ldr	r2, .L51
 468 0004 1378     		ldrb	r3, [r2, #0]	@ zero_extendqisi2
ARM GAS  C:\Users\MICHA_~1\AppData\Local\Temp\ccXJOjZh.s 			page 16


 469 0006 03F00203 		and	r3, r3, #2
 470 000a DBB2     		uxtb	r3, r3
 471 000c 7BB1     		cbz	r3, .L49
 376:.\Generated_Source\PSoC5/CySpc.c ****     {
 377:.\Generated_Source\PSoC5/CySpc.c ****         CY_SPC_CPU_DATA_REG = CY_SPC_KEY_ONE;
 472              		.loc 1 377 0
 473 000e 0B4B     		ldr	r3, .L51+4
 474 0010 B624     		movs	r4, #182
 475 0012 1C70     		strb	r4, [r3, #0]
 378:.\Generated_Source\PSoC5/CySpc.c ****         CY_SPC_CPU_DATA_REG = CY_SPC_KEY_TWO(CY_SPC_CMD_ER_SECTOR);
 476              		.loc 1 378 0
 477 0014 DB24     		movs	r4, #219
 478 0016 1C70     		strb	r4, [r3, #0]
 379:.\Generated_Source\PSoC5/CySpc.c ****         CY_SPC_CPU_DATA_REG = CY_SPC_CMD_ER_SECTOR;
 479              		.loc 1 379 0
 480 0018 0824     		movs	r4, #8
 481 001a 1C70     		strb	r4, [r3, #0]
 380:.\Generated_Source\PSoC5/CySpc.c **** 
 381:.\Generated_Source\PSoC5/CySpc.c ****         /* Make sure the command was accepted */
 382:.\Generated_Source\PSoC5/CySpc.c ****         if(CY_SPC_BUSY)
 482              		.loc 1 382 0
 483 001c 1278     		ldrb	r2, [r2, #0]	@ zero_extendqisi2
 484 001e 02F00202 		and	r2, r2, #2
 485 0022 D2B2     		uxtb	r2, r2
 486 0024 2AB9     		cbnz	r2, .L50
 383:.\Generated_Source\PSoC5/CySpc.c ****         {
 384:.\Generated_Source\PSoC5/CySpc.c ****             CY_SPC_CPU_DATA_REG = array;
 487              		.loc 1 384 0
 488 0026 1870     		strb	r0, [r3, #0]
 385:.\Generated_Source\PSoC5/CySpc.c ****             CY_SPC_CPU_DATA_REG = sectorNumber;
 489              		.loc 1 385 0
 490 0028 1970     		strb	r1, [r3, #0]
 372:.\Generated_Source\PSoC5/CySpc.c ****     cystatus status = CYRET_STARTED;
 491              		.loc 1 372 0
 492 002a 0720     		movs	r0, #7
 493              	.LVL36:
 494 002c 10BD     		pop	{r4, pc}
 495              	.LVL37:
 496              	.L49:
 386:.\Generated_Source\PSoC5/CySpc.c ****         }
 387:.\Generated_Source\PSoC5/CySpc.c ****         else
 388:.\Generated_Source\PSoC5/CySpc.c ****         {
 389:.\Generated_Source\PSoC5/CySpc.c ****             status = CYRET_CANCELED;
 390:.\Generated_Source\PSoC5/CySpc.c ****         }
 391:.\Generated_Source\PSoC5/CySpc.c ****     }
 392:.\Generated_Source\PSoC5/CySpc.c ****     else
 393:.\Generated_Source\PSoC5/CySpc.c ****     {
 394:.\Generated_Source\PSoC5/CySpc.c ****         status = CYRET_LOCKED;
 497              		.loc 1 394 0
 498 002e 0420     		movs	r0, #4
 499              	.LVL38:
 500 0030 10BD     		pop	{r4, pc}
 501              	.LVL39:
 502              	.L50:
 389:.\Generated_Source\PSoC5/CySpc.c ****             status = CYRET_CANCELED;
 503              		.loc 1 389 0
 504 0032 0920     		movs	r0, #9
ARM GAS  C:\Users\MICHA_~1\AppData\Local\Temp\ccXJOjZh.s 			page 17


 505              	.LVL40:
 395:.\Generated_Source\PSoC5/CySpc.c ****     }
 396:.\Generated_Source\PSoC5/CySpc.c **** 
 397:.\Generated_Source\PSoC5/CySpc.c ****     return(status);
 398:.\Generated_Source\PSoC5/CySpc.c **** }
 506              		.loc 1 398 0
 507 0034 10BD     		pop	{r4, pc}
 508              	.L52:
 509 0036 00BF     		.align	2
 510              	.L51:
 511 0038 22470040 		.word	1073760034
 512 003c 20470040 		.word	1073760032
 513              		.cfi_endproc
 514              	.LFE6:
 515              		.size	CySpcEraseSector, .-CySpcEraseSector
 516              		.section	.text.CySpcGetTemp,"ax",%progbits
 517              		.align	1
 518              		.global	CySpcGetTemp
 519              		.thumb
 520              		.thumb_func
 521              		.type	CySpcGetTemp, %function
 522              	CySpcGetTemp:
 523              	.LFB7:
 399:.\Generated_Source\PSoC5/CySpc.c **** 
 400:.\Generated_Source\PSoC5/CySpc.c **** 
 401:.\Generated_Source\PSoC5/CySpc.c **** /*******************************************************************************
 402:.\Generated_Source\PSoC5/CySpc.c **** * Function Name: CySpcGetTemp
 403:.\Generated_Source\PSoC5/CySpc.c **** ********************************************************************************
 404:.\Generated_Source\PSoC5/CySpc.c **** * Summary:
 405:.\Generated_Source\PSoC5/CySpc.c **** *  Returns the internal die temperature
 406:.\Generated_Source\PSoC5/CySpc.c **** *
 407:.\Generated_Source\PSoC5/CySpc.c **** * Parameters:
 408:.\Generated_Source\PSoC5/CySpc.c **** *  uint8 numSamples:
 409:.\Generated_Source\PSoC5/CySpc.c **** *   Number of samples. Valid values are 1-5, resulting in 2 - 32 samples
 410:.\Generated_Source\PSoC5/CySpc.c **** *   respectively.
 411:.\Generated_Source\PSoC5/CySpc.c **** *
 412:.\Generated_Source\PSoC5/CySpc.c **** * uint16 timerPeriod:
 413:.\Generated_Source\PSoC5/CySpc.c **** *   Number of ADC ACLK cycles. A valid 14 bit value is accepted, higher 2 bits
 414:.\Generated_Source\PSoC5/CySpc.c **** *   of 16 bit values are ignored.
 415:.\Generated_Source\PSoC5/CySpc.c **** *
 416:.\Generated_Source\PSoC5/CySpc.c **** * uint8 clkDivSelect:
 417:.\Generated_Source\PSoC5/CySpc.c **** *   ADC ACLK clock divide value. Valid values are 2 - 225.
 418:.\Generated_Source\PSoC5/CySpc.c **** *
 419:.\Generated_Source\PSoC5/CySpc.c **** * Return:
 420:.\Generated_Source\PSoC5/CySpc.c **** *  CYRET_STARTED
 421:.\Generated_Source\PSoC5/CySpc.c **** *  CYRET_CANCELED
 422:.\Generated_Source\PSoC5/CySpc.c **** *  CYRET_LOCKED
 423:.\Generated_Source\PSoC5/CySpc.c **** *
 424:.\Generated_Source\PSoC5/CySpc.c **** *******************************************************************************/
 425:.\Generated_Source\PSoC5/CySpc.c **** cystatus CySpcGetTemp(uint8 numSamples)
 426:.\Generated_Source\PSoC5/CySpc.c **** {
 524              		.loc 1 426 0
 525              		.cfi_startproc
 526              		@ args = 0, pretend = 0, frame = 0
 527              		@ frame_needed = 0, uses_anonymous_args = 0
 528              		@ link register save eliminated.
 529              	.LVL41:
ARM GAS  C:\Users\MICHA_~1\AppData\Local\Temp\ccXJOjZh.s 			page 18


 427:.\Generated_Source\PSoC5/CySpc.c ****     cystatus status = CYRET_STARTED;
 428:.\Generated_Source\PSoC5/CySpc.c **** 
 429:.\Generated_Source\PSoC5/CySpc.c ****     /* Make sure the SPC is ready to accept command */
 430:.\Generated_Source\PSoC5/CySpc.c ****     if(CY_SPC_IDLE)
 530              		.loc 1 430 0
 531 0000 0C4A     		ldr	r2, .L57
 532 0002 1378     		ldrb	r3, [r2, #0]	@ zero_extendqisi2
 533 0004 03F00201 		and	r1, r3, #2
 534 0008 CBB2     		uxtb	r3, r1
 535 000a 73B1     		cbz	r3, .L55
 431:.\Generated_Source\PSoC5/CySpc.c ****     {
 432:.\Generated_Source\PSoC5/CySpc.c ****         CY_SPC_CPU_DATA_REG = CY_SPC_KEY_ONE;
 536              		.loc 1 432 0
 537 000c 0A4B     		ldr	r3, .L57+4
 538 000e B621     		movs	r1, #182
 539 0010 1970     		strb	r1, [r3, #0]
 433:.\Generated_Source\PSoC5/CySpc.c ****         CY_SPC_CPU_DATA_REG = CY_SPC_KEY_TWO(CY_SPC_CMD_GET_TEMP);
 540              		.loc 1 433 0
 541 0012 E121     		movs	r1, #225
 542 0014 1970     		strb	r1, [r3, #0]
 434:.\Generated_Source\PSoC5/CySpc.c ****         CY_SPC_CPU_DATA_REG = CY_SPC_CMD_GET_TEMP;
 543              		.loc 1 434 0
 544 0016 0E21     		movs	r1, #14
 545 0018 1970     		strb	r1, [r3, #0]
 435:.\Generated_Source\PSoC5/CySpc.c **** 
 436:.\Generated_Source\PSoC5/CySpc.c ****         /* Make sure the command was accepted */
 437:.\Generated_Source\PSoC5/CySpc.c ****         if(CY_SPC_BUSY)
 546              		.loc 1 437 0
 547 001a 1278     		ldrb	r2, [r2, #0]	@ zero_extendqisi2
 548 001c 02F00201 		and	r1, r2, #2
 549 0020 CAB2     		uxtb	r2, r1
 550 0022 22B9     		cbnz	r2, .L56
 438:.\Generated_Source\PSoC5/CySpc.c ****         {
 439:.\Generated_Source\PSoC5/CySpc.c ****             CY_SPC_CPU_DATA_REG = numSamples;
 551              		.loc 1 439 0
 552 0024 1870     		strb	r0, [r3, #0]
 427:.\Generated_Source\PSoC5/CySpc.c ****     cystatus status = CYRET_STARTED;
 553              		.loc 1 427 0
 554 0026 0720     		movs	r0, #7
 555              	.LVL42:
 556 0028 7047     		bx	lr
 557              	.LVL43:
 558              	.L55:
 440:.\Generated_Source\PSoC5/CySpc.c ****         }
 441:.\Generated_Source\PSoC5/CySpc.c ****         else
 442:.\Generated_Source\PSoC5/CySpc.c ****         {
 443:.\Generated_Source\PSoC5/CySpc.c ****             status = CYRET_CANCELED;
 444:.\Generated_Source\PSoC5/CySpc.c ****         }
 445:.\Generated_Source\PSoC5/CySpc.c ****     }
 446:.\Generated_Source\PSoC5/CySpc.c ****     else
 447:.\Generated_Source\PSoC5/CySpc.c ****     {
 448:.\Generated_Source\PSoC5/CySpc.c ****         status = CYRET_LOCKED;
 559              		.loc 1 448 0
 560 002a 0420     		movs	r0, #4
 561              	.LVL44:
 562 002c 7047     		bx	lr
 563              	.LVL45:
ARM GAS  C:\Users\MICHA_~1\AppData\Local\Temp\ccXJOjZh.s 			page 19


 564              	.L56:
 443:.\Generated_Source\PSoC5/CySpc.c ****             status = CYRET_CANCELED;
 565              		.loc 1 443 0
 566 002e 0920     		movs	r0, #9
 567              	.LVL46:
 449:.\Generated_Source\PSoC5/CySpc.c ****     }
 450:.\Generated_Source\PSoC5/CySpc.c **** 
 451:.\Generated_Source\PSoC5/CySpc.c ****     return(status);
 452:.\Generated_Source\PSoC5/CySpc.c **** }
 568              		.loc 1 452 0
 569 0030 7047     		bx	lr
 570              	.L58:
 571 0032 00BF     		.align	2
 572              	.L57:
 573 0034 22470040 		.word	1073760034
 574 0038 20470040 		.word	1073760032
 575              		.cfi_endproc
 576              	.LFE7:
 577              		.size	CySpcGetTemp, .-CySpcGetTemp
 578              		.section	.text.CySpcLock,"ax",%progbits
 579              		.align	1
 580              		.global	CySpcLock
 581              		.thumb
 582              		.thumb_func
 583              		.type	CySpcLock, %function
 584              	CySpcLock:
 585              	.LFB8:
 453:.\Generated_Source\PSoC5/CySpc.c **** 
 454:.\Generated_Source\PSoC5/CySpc.c **** 
 455:.\Generated_Source\PSoC5/CySpc.c **** /*******************************************************************************
 456:.\Generated_Source\PSoC5/CySpc.c **** * Function Name: CySpcLock
 457:.\Generated_Source\PSoC5/CySpc.c **** ********************************************************************************
 458:.\Generated_Source\PSoC5/CySpc.c **** * Summary:
 459:.\Generated_Source\PSoC5/CySpc.c **** *  Locks the SPC so it can not be used by someone else:
 460:.\Generated_Source\PSoC5/CySpc.c **** *   - Saves wait-pipeline enable state and enable pipeline (PSoC5)
 461:.\Generated_Source\PSoC5/CySpc.c **** *
 462:.\Generated_Source\PSoC5/CySpc.c **** * Parameters:
 463:.\Generated_Source\PSoC5/CySpc.c **** *  Note
 464:.\Generated_Source\PSoC5/CySpc.c **** *
 465:.\Generated_Source\PSoC5/CySpc.c **** * Return:
 466:.\Generated_Source\PSoC5/CySpc.c **** *  CYRET_SUCCESS - if the resource was free.
 467:.\Generated_Source\PSoC5/CySpc.c **** *  CYRET_LOCKED  - if the SPC is in use.
 468:.\Generated_Source\PSoC5/CySpc.c **** *
 469:.\Generated_Source\PSoC5/CySpc.c **** *******************************************************************************/
 470:.\Generated_Source\PSoC5/CySpc.c **** cystatus CySpcLock(void)
 471:.\Generated_Source\PSoC5/CySpc.c **** {
 586              		.loc 1 471 0
 587              		.cfi_startproc
 588              		@ args = 0, pretend = 0, frame = 0
 589              		@ frame_needed = 0, uses_anonymous_args = 0
 590              	.LVL47:
 591 0000 38B5     		push	{r3, r4, r5, lr}
 592              	.LCFI7:
 593              		.cfi_def_cfa_offset 16
 594              		.cfi_offset 3, -16
 595              		.cfi_offset 4, -12
 596              		.cfi_offset 5, -8
ARM GAS  C:\Users\MICHA_~1\AppData\Local\Temp\ccXJOjZh.s 			page 20


 597              		.cfi_offset 14, -4
 472:.\Generated_Source\PSoC5/CySpc.c ****     cystatus status = CYRET_LOCKED;
 473:.\Generated_Source\PSoC5/CySpc.c ****     uint8 interruptState;
 474:.\Generated_Source\PSoC5/CySpc.c **** 
 475:.\Generated_Source\PSoC5/CySpc.c ****     /* Enter critical section */
 476:.\Generated_Source\PSoC5/CySpc.c ****     interruptState = CyEnterCriticalSection();
 598              		.loc 1 476 0
 599 0002 FFF7FEFF 		bl	CyEnterCriticalSection
 600              	.LVL48:
 477:.\Generated_Source\PSoC5/CySpc.c **** 
 478:.\Generated_Source\PSoC5/CySpc.c ****     if(CY_SPC_UNLOCKED == SpcLockState)
 601              		.loc 1 478 0
 602 0006 0C4B     		ldr	r3, .L63
 603 0008 1978     		ldrb	r1, [r3, #0]	@ zero_extendqisi2
 604 000a 79B9     		cbnz	r1, .L61
 479:.\Generated_Source\PSoC5/CySpc.c ****     {
 480:.\Generated_Source\PSoC5/CySpc.c ****         SpcLockState = CY_SPC_LOCKED;
 605              		.loc 1 480 0
 606 000c 0125     		movs	r5, #1
 481:.\Generated_Source\PSoC5/CySpc.c ****         status = CYRET_SUCCESS;
 482:.\Generated_Source\PSoC5/CySpc.c **** 
 483:.\Generated_Source\PSoC5/CySpc.c ****         #if(CY_PSOC5)
 484:.\Generated_Source\PSoC5/CySpc.c **** 
 485:.\Generated_Source\PSoC5/CySpc.c ****             if(0u != (CY_SPC_CPU_WAITPIPE_REG & CY_SPC_CPU_WAITPIPE_BYPASS))
 607              		.loc 1 485 0
 608 000e 0B4A     		ldr	r2, .L63+4
 480:.\Generated_Source\PSoC5/CySpc.c ****         SpcLockState = CY_SPC_LOCKED;
 609              		.loc 1 480 0
 610 0010 1D70     		strb	r5, [r3, #0]
 611              	.LVL49:
 612              		.loc 1 485 0
 613 0012 1468     		ldr	r4, [r2, #0]
 614 0014 2C40     		ands	r4, r4, r5
 615 0016 0AD0     		beq	.L60
 486:.\Generated_Source\PSoC5/CySpc.c ****             {
 487:.\Generated_Source\PSoC5/CySpc.c ****                 /* Enable pipeline registers */
 488:.\Generated_Source\PSoC5/CySpc.c ****                 CY_SPC_CPU_WAITPIPE_REG &= ((uint32)(~CY_SPC_CPU_WAITPIPE_BYPASS));
 616              		.loc 1 488 0
 617 0018 1468     		ldr	r4, [r2, #0]
 618 001a 24F00104 		bic	r4, r4, #1
 619 001e 1460     		str	r4, [r2, #0]
 489:.\Generated_Source\PSoC5/CySpc.c **** 
 490:.\Generated_Source\PSoC5/CySpc.c ****                 /* At least 2 NOP instructions are recommended */
 491:.\Generated_Source\PSoC5/CySpc.c ****                 CY_NOP;
 620              		.loc 1 491 0
 621              	@ 491 ".\Generated_Source\PSoC5\CySpc.c" 1
 622 0020 00BF     		NOP
 623              	
 624              	@ 0 "" 2
 492:.\Generated_Source\PSoC5/CySpc.c ****                 CY_NOP;
 625              		.loc 1 492 0
 626              	@ 492 ".\Generated_Source\PSoC5\CySpc.c" 1
 627 0022 00BF     		NOP
 628              	
 629              	@ 0 "" 2
 493:.\Generated_Source\PSoC5/CySpc.c ****                 CY_NOP;
 630              		.loc 1 493 0
ARM GAS  C:\Users\MICHA_~1\AppData\Local\Temp\ccXJOjZh.s 			page 21


 631              	@ 493 ".\Generated_Source\PSoC5\CySpc.c" 1
 632 0024 00BF     		NOP
 633              	
 634              	@ 0 "" 2
 494:.\Generated_Source\PSoC5/CySpc.c **** 
 495:.\Generated_Source\PSoC5/CySpc.c ****                 spcWaitPipeBypass = CY_SPC_CPU_WAITPIPE_BYPASS;
 635              		.loc 1 495 0
 636              		.thumb
 637 0026 5D60     		str	r5, [r3, #4]
 481:.\Generated_Source\PSoC5/CySpc.c ****         status = CYRET_SUCCESS;
 638              		.loc 1 481 0
 639 0028 0C46     		mov	r4, r1
 640 002a 00E0     		b	.L60
 641              	.LVL50:
 642              	.L61:
 472:.\Generated_Source\PSoC5/CySpc.c ****     cystatus status = CYRET_LOCKED;
 643              		.loc 1 472 0
 644 002c 0424     		movs	r4, #4
 645              	.LVL51:
 646              	.L60:
 496:.\Generated_Source\PSoC5/CySpc.c ****             }
 497:.\Generated_Source\PSoC5/CySpc.c **** 
 498:.\Generated_Source\PSoC5/CySpc.c ****         #endif  /* (CY_PSOC5) */
 499:.\Generated_Source\PSoC5/CySpc.c ****     }
 500:.\Generated_Source\PSoC5/CySpc.c **** 
 501:.\Generated_Source\PSoC5/CySpc.c ****     /* Exit critical section */
 502:.\Generated_Source\PSoC5/CySpc.c ****     CyExitCriticalSection(interruptState);
 647              		.loc 1 502 0
 648 002e FFF7FEFF 		bl	CyExitCriticalSection
 649              	.LVL52:
 503:.\Generated_Source\PSoC5/CySpc.c **** 
 504:.\Generated_Source\PSoC5/CySpc.c ****     return(status);
 505:.\Generated_Source\PSoC5/CySpc.c **** }
 650              		.loc 1 505 0
 651 0032 2046     		mov	r0, r4
 652 0034 38BD     		pop	{r3, r4, r5, pc}
 653              	.L64:
 654 0036 00BF     		.align	2
 655              	.L63:
 656 0038 00000000 		.word	.LANCHOR0
 657 003c 04000840 		.word	1074266116
 658              		.cfi_endproc
 659              	.LFE8:
 660              		.size	CySpcLock, .-CySpcLock
 661              		.section	.text.CySpcUnlock,"ax",%progbits
 662              		.align	1
 663              		.global	CySpcUnlock
 664              		.thumb
 665              		.thumb_func
 666              		.type	CySpcUnlock, %function
 667              	CySpcUnlock:
 668              	.LFB9:
 506:.\Generated_Source\PSoC5/CySpc.c **** 
 507:.\Generated_Source\PSoC5/CySpc.c **** 
 508:.\Generated_Source\PSoC5/CySpc.c **** /*******************************************************************************
 509:.\Generated_Source\PSoC5/CySpc.c **** * Function Name: CySpcUnlock
 510:.\Generated_Source\PSoC5/CySpc.c **** ********************************************************************************
ARM GAS  C:\Users\MICHA_~1\AppData\Local\Temp\ccXJOjZh.s 			page 22


 511:.\Generated_Source\PSoC5/CySpc.c **** * Summary:
 512:.\Generated_Source\PSoC5/CySpc.c **** *  Unlocks the SPC so it can be used by someone else:
 513:.\Generated_Source\PSoC5/CySpc.c **** *   - Restores wait-pipeline enable state (PSoC5)
 514:.\Generated_Source\PSoC5/CySpc.c **** *
 515:.\Generated_Source\PSoC5/CySpc.c **** * Parameters:
 516:.\Generated_Source\PSoC5/CySpc.c **** *  None
 517:.\Generated_Source\PSoC5/CySpc.c **** *
 518:.\Generated_Source\PSoC5/CySpc.c **** * Return:
 519:.\Generated_Source\PSoC5/CySpc.c **** *  None
 520:.\Generated_Source\PSoC5/CySpc.c **** *
 521:.\Generated_Source\PSoC5/CySpc.c **** *******************************************************************************/
 522:.\Generated_Source\PSoC5/CySpc.c **** void CySpcUnlock(void)
 523:.\Generated_Source\PSoC5/CySpc.c **** {
 669              		.loc 1 523 0
 670              		.cfi_startproc
 671              		@ args = 0, pretend = 0, frame = 0
 672              		@ frame_needed = 0, uses_anonymous_args = 0
 673 0000 10B5     		push	{r4, lr}
 674              	.LCFI8:
 675              		.cfi_def_cfa_offset 8
 676              		.cfi_offset 4, -8
 677              		.cfi_offset 14, -4
 524:.\Generated_Source\PSoC5/CySpc.c ****     uint8 interruptState;
 525:.\Generated_Source\PSoC5/CySpc.c **** 
 526:.\Generated_Source\PSoC5/CySpc.c ****     /* Enter critical section */
 527:.\Generated_Source\PSoC5/CySpc.c ****     interruptState = CyEnterCriticalSection();
 678              		.loc 1 527 0
 679 0002 FFF7FEFF 		bl	CyEnterCriticalSection
 680              	.LVL53:
 528:.\Generated_Source\PSoC5/CySpc.c **** 
 529:.\Generated_Source\PSoC5/CySpc.c ****     /* Release the SPC object */
 530:.\Generated_Source\PSoC5/CySpc.c ****     SpcLockState = CY_SPC_UNLOCKED;
 681              		.loc 1 530 0
 682 0006 094B     		ldr	r3, .L67
 683 0008 0022     		movs	r2, #0
 531:.\Generated_Source\PSoC5/CySpc.c **** 
 532:.\Generated_Source\PSoC5/CySpc.c ****     #if(CY_PSOC5)
 533:.\Generated_Source\PSoC5/CySpc.c **** 
 534:.\Generated_Source\PSoC5/CySpc.c ****         if(CY_SPC_CPU_WAITPIPE_BYPASS == spcWaitPipeBypass)
 684              		.loc 1 534 0
 685 000a 5968     		ldr	r1, [r3, #4]
 530:.\Generated_Source\PSoC5/CySpc.c ****     SpcLockState = CY_SPC_UNLOCKED;
 686              		.loc 1 530 0
 687 000c 1A70     		strb	r2, [r3, #0]
 688              		.loc 1 534 0
 689 000e 0129     		cmp	r1, #1
 690 0010 08D1     		bne	.L66
 535:.\Generated_Source\PSoC5/CySpc.c ****         {
 536:.\Generated_Source\PSoC5/CySpc.c ****             /* Force to bypass pipeline registers */
 537:.\Generated_Source\PSoC5/CySpc.c ****             CY_SPC_CPU_WAITPIPE_REG |= CY_SPC_CPU_WAITPIPE_BYPASS;
 691              		.loc 1 537 0
 692 0012 0749     		ldr	r1, .L67+4
 693 0014 0C68     		ldr	r4, [r1, #0]
 694 0016 44F00104 		orr	r4, r4, #1
 695 001a 0C60     		str	r4, [r1, #0]
 538:.\Generated_Source\PSoC5/CySpc.c **** 
 539:.\Generated_Source\PSoC5/CySpc.c ****             /* At least 2 NOP instructions are recommended */
ARM GAS  C:\Users\MICHA_~1\AppData\Local\Temp\ccXJOjZh.s 			page 23


 540:.\Generated_Source\PSoC5/CySpc.c ****             CY_NOP;
 696              		.loc 1 540 0
 697              	@ 540 ".\Generated_Source\PSoC5\CySpc.c" 1
 698 001c 00BF     		NOP
 699              	
 700              	@ 0 "" 2
 541:.\Generated_Source\PSoC5/CySpc.c ****             CY_NOP;
 701              		.loc 1 541 0
 702              	@ 541 ".\Generated_Source\PSoC5\CySpc.c" 1
 703 001e 00BF     		NOP
 704              	
 705              	@ 0 "" 2
 542:.\Generated_Source\PSoC5/CySpc.c ****             CY_NOP;
 706              		.loc 1 542 0
 707              	@ 542 ".\Generated_Source\PSoC5\CySpc.c" 1
 708 0020 00BF     		NOP
 709              	
 710              	@ 0 "" 2
 543:.\Generated_Source\PSoC5/CySpc.c **** 
 544:.\Generated_Source\PSoC5/CySpc.c ****             spcWaitPipeBypass = 0u;
 711              		.loc 1 544 0
 712              		.thumb
 713 0022 5A60     		str	r2, [r3, #4]
 714              	.L66:
 545:.\Generated_Source\PSoC5/CySpc.c ****         }
 546:.\Generated_Source\PSoC5/CySpc.c **** 
 547:.\Generated_Source\PSoC5/CySpc.c ****     #endif  /* (CY_PSOC5) */
 548:.\Generated_Source\PSoC5/CySpc.c **** 
 549:.\Generated_Source\PSoC5/CySpc.c ****     /* Exit critical section */
 550:.\Generated_Source\PSoC5/CySpc.c ****     CyExitCriticalSection(interruptState);
 551:.\Generated_Source\PSoC5/CySpc.c **** }
 715              		.loc 1 551 0
 716 0024 BDE81040 		pop	{r4, lr}
 550:.\Generated_Source\PSoC5/CySpc.c ****     CyExitCriticalSection(interruptState);
 717              		.loc 1 550 0
 718 0028 FFF7FEBF 		b	CyExitCriticalSection
 719              	.LVL54:
 720              	.L68:
 721              		.align	2
 722              	.L67:
 723 002c 00000000 		.word	.LANCHOR0
 724 0030 04000840 		.word	1074266116
 725              		.cfi_endproc
 726              	.LFE9:
 727              		.size	CySpcUnlock, .-CySpcUnlock
 728              		.global	SpcLockState
 729              		.bss
 730              		.align	2
 731              		.set	.LANCHOR0,. + 0
 732              		.type	SpcLockState, %object
 733              		.size	SpcLockState, 1
 734              	SpcLockState:
 735 0000 00       		.space	1
 736 0001 000000   		.space	3
 737              		.type	spcWaitPipeBypass, %object
 738              		.size	spcWaitPipeBypass, 4
 739              	spcWaitPipeBypass:
ARM GAS  C:\Users\MICHA_~1\AppData\Local\Temp\ccXJOjZh.s 			page 24


 740 0004 00000000 		.space	4
 741              		.text
 742              	.Letext0:
 743              		.file 2 ".\\Generated_Source\\PSoC5\\cytypes.h"
 744              		.file 3 ".\\Generated_Source\\PSoC5\\CyLib.h"