ARM GAS  C:\Users\MICHA_~1\AppData\Local\Temp\ccAFwykg.s 			page 1


   1              		.syntax unified
   2              		.cpu cortex-m3
   3              		.fpu softvfp
   4              		.eabi_attribute 20, 1
   5              		.eabi_attribute 21, 1
   6              		.eabi_attribute 23, 3
   7              		.eabi_attribute 24, 1
   8              		.eabi_attribute 25, 1
   9              		.eabi_attribute 26, 1
  10              		.eabi_attribute 30, 4
  11              		.eabi_attribute 34, 1
  12              		.eabi_attribute 18, 4
  13              		.thumb
  14              		.file	"USBFS_Dp.c"
  15              		.text
  16              	.Ltext0:
  17              		.cfi_sections	.debug_frame
  18              		.section	.text.USBFS_Dp_Write,"ax",%progbits
  19              		.align	1
  20              		.global	USBFS_Dp_Write
  21              		.thumb
  22              		.thumb_func
  23              		.type	USBFS_Dp_Write, %function
  24              	USBFS_Dp_Write:
  25              	.LFB0:
  26              		.file 1 ".\\Generated_Source\\PSoC5\\USBFS_Dp.c"
   1:.\Generated_Source\PSoC5/USBFS_Dp.c **** /*******************************************************************************
   2:.\Generated_Source\PSoC5/USBFS_Dp.c **** * File Name: USBFS_Dp.c  
   3:.\Generated_Source\PSoC5/USBFS_Dp.c **** * Version 1.90
   4:.\Generated_Source\PSoC5/USBFS_Dp.c **** *
   5:.\Generated_Source\PSoC5/USBFS_Dp.c **** * Description:
   6:.\Generated_Source\PSoC5/USBFS_Dp.c **** *  This file contains API to enable firmware control of a Pins component.
   7:.\Generated_Source\PSoC5/USBFS_Dp.c **** *
   8:.\Generated_Source\PSoC5/USBFS_Dp.c **** * Note:
   9:.\Generated_Source\PSoC5/USBFS_Dp.c **** *
  10:.\Generated_Source\PSoC5/USBFS_Dp.c **** ********************************************************************************
  11:.\Generated_Source\PSoC5/USBFS_Dp.c **** * Copyright 2008-2012, Cypress Semiconductor Corporation.  All rights reserved.
  12:.\Generated_Source\PSoC5/USBFS_Dp.c **** * You may use this file only in accordance with the license, terms, conditions, 
  13:.\Generated_Source\PSoC5/USBFS_Dp.c **** * disclaimers, and limitations in the end user license agreement accompanying 
  14:.\Generated_Source\PSoC5/USBFS_Dp.c **** * the software package with which this file was provided.
  15:.\Generated_Source\PSoC5/USBFS_Dp.c **** *******************************************************************************/
  16:.\Generated_Source\PSoC5/USBFS_Dp.c **** 
  17:.\Generated_Source\PSoC5/USBFS_Dp.c **** #include "cytypes.h"
  18:.\Generated_Source\PSoC5/USBFS_Dp.c **** #include "USBFS_Dp.h"
  19:.\Generated_Source\PSoC5/USBFS_Dp.c **** 
  20:.\Generated_Source\PSoC5/USBFS_Dp.c **** /* APIs are not generated for P15[7:6] on PSoC 5 */
  21:.\Generated_Source\PSoC5/USBFS_Dp.c **** #if !(CY_PSOC5A &&\
  22:.\Generated_Source\PSoC5/USBFS_Dp.c **** 	 USBFS_Dp__PORT == 15 && ((USBFS_Dp__MASK & 0xC0) != 0))
  23:.\Generated_Source\PSoC5/USBFS_Dp.c **** 
  24:.\Generated_Source\PSoC5/USBFS_Dp.c **** 
  25:.\Generated_Source\PSoC5/USBFS_Dp.c **** /*******************************************************************************
  26:.\Generated_Source\PSoC5/USBFS_Dp.c **** * Function Name: USBFS_Dp_Write
  27:.\Generated_Source\PSoC5/USBFS_Dp.c **** ********************************************************************************
  28:.\Generated_Source\PSoC5/USBFS_Dp.c **** *
  29:.\Generated_Source\PSoC5/USBFS_Dp.c **** * Summary:
  30:.\Generated_Source\PSoC5/USBFS_Dp.c **** *  Assign a new value to the digital port's data output register.  
  31:.\Generated_Source\PSoC5/USBFS_Dp.c **** *
ARM GAS  C:\Users\MICHA_~1\AppData\Local\Temp\ccAFwykg.s 			page 2


  32:.\Generated_Source\PSoC5/USBFS_Dp.c **** * Parameters:  
  33:.\Generated_Source\PSoC5/USBFS_Dp.c **** *  prtValue:  The value to be assigned to the Digital Port. 
  34:.\Generated_Source\PSoC5/USBFS_Dp.c **** *
  35:.\Generated_Source\PSoC5/USBFS_Dp.c **** * Return: 
  36:.\Generated_Source\PSoC5/USBFS_Dp.c **** *  None
  37:.\Generated_Source\PSoC5/USBFS_Dp.c **** *  
  38:.\Generated_Source\PSoC5/USBFS_Dp.c **** *******************************************************************************/
  39:.\Generated_Source\PSoC5/USBFS_Dp.c **** void USBFS_Dp_Write(uint8 value) 
  40:.\Generated_Source\PSoC5/USBFS_Dp.c **** {
  27              		.loc 1 40 0
  28              		.cfi_startproc
  29              		@ args = 0, pretend = 0, frame = 0
  30              		@ frame_needed = 0, uses_anonymous_args = 0
  31              		@ link register save eliminated.
  32              	.LVL0:
  41:.\Generated_Source\PSoC5/USBFS_Dp.c ****     uint8 staticBits = (USBFS_Dp_DR & (uint8)(~USBFS_Dp_MASK));
  33              		.loc 1 41 0
  34 0000 054B     		ldr	r3, .L2
  42:.\Generated_Source\PSoC5/USBFS_Dp.c ****     USBFS_Dp_DR = staticBits | ((uint8)(value << USBFS_Dp_SHIFT) & USBFS_Dp_MASK);
  35              		.loc 1 42 0
  36 0002 8001     		lsls	r0, r0, #6
  37              	.LVL1:
  41:.\Generated_Source\PSoC5/USBFS_Dp.c ****     uint8 staticBits = (USBFS_Dp_DR & (uint8)(~USBFS_Dp_MASK));
  38              		.loc 1 41 0
  39 0004 1A78     		ldrb	r2, [r3, #0]	@ zero_extendqisi2
  40              	.LVL2:
  41              		.loc 1 42 0
  42 0006 00F04001 		and	r1, r0, #64
  41:.\Generated_Source\PSoC5/USBFS_Dp.c ****     uint8 staticBits = (USBFS_Dp_DR & (uint8)(~USBFS_Dp_MASK));
  43              		.loc 1 41 0
  44 000a 02F0BF02 		and	r2, r2, #191
  45              	.LVL3:
  46              		.loc 1 42 0
  47 000e 41EA0200 		orr	r0, r1, r2
  48 0012 1870     		strb	r0, [r3, #0]
  49 0014 7047     		bx	lr
  50              	.L3:
  51 0016 00BF     		.align	2
  52              	.L2:
  53 0018 F0510040 		.word	1073762800
  54              		.cfi_endproc
  55              	.LFE0:
  56              		.size	USBFS_Dp_Write, .-USBFS_Dp_Write
  57              		.section	.text.USBFS_Dp_SetDriveMode,"ax",%progbits
  58              		.align	1
  59              		.global	USBFS_Dp_SetDriveMode
  60              		.thumb
  61              		.thumb_func
  62              		.type	USBFS_Dp_SetDriveMode, %function
  63              	USBFS_Dp_SetDriveMode:
  64              	.LFB1:
  43:.\Generated_Source\PSoC5/USBFS_Dp.c **** }
  44:.\Generated_Source\PSoC5/USBFS_Dp.c **** 
  45:.\Generated_Source\PSoC5/USBFS_Dp.c **** 
  46:.\Generated_Source\PSoC5/USBFS_Dp.c **** /*******************************************************************************
  47:.\Generated_Source\PSoC5/USBFS_Dp.c **** * Function Name: USBFS_Dp_SetDriveMode
  48:.\Generated_Source\PSoC5/USBFS_Dp.c **** ********************************************************************************
ARM GAS  C:\Users\MICHA_~1\AppData\Local\Temp\ccAFwykg.s 			page 3


  49:.\Generated_Source\PSoC5/USBFS_Dp.c **** *
  50:.\Generated_Source\PSoC5/USBFS_Dp.c **** * Summary:
  51:.\Generated_Source\PSoC5/USBFS_Dp.c **** *  Change the drive mode on the pins of the port.
  52:.\Generated_Source\PSoC5/USBFS_Dp.c **** * 
  53:.\Generated_Source\PSoC5/USBFS_Dp.c **** * Parameters:  
  54:.\Generated_Source\PSoC5/USBFS_Dp.c **** *  mode:  Change the pins to this drive mode.
  55:.\Generated_Source\PSoC5/USBFS_Dp.c **** *
  56:.\Generated_Source\PSoC5/USBFS_Dp.c **** * Return: 
  57:.\Generated_Source\PSoC5/USBFS_Dp.c **** *  None
  58:.\Generated_Source\PSoC5/USBFS_Dp.c **** *
  59:.\Generated_Source\PSoC5/USBFS_Dp.c **** *******************************************************************************/
  60:.\Generated_Source\PSoC5/USBFS_Dp.c **** void USBFS_Dp_SetDriveMode(uint8 mode) 
  61:.\Generated_Source\PSoC5/USBFS_Dp.c **** {
  65              		.loc 1 61 0
  66              		.cfi_startproc
  67              		@ args = 0, pretend = 0, frame = 0
  68              		@ frame_needed = 0, uses_anonymous_args = 0
  69              		@ link register save eliminated.
  70              	.LVL4:
  62:.\Generated_Source\PSoC5/USBFS_Dp.c **** 	CyPins_SetPinDriveMode(USBFS_Dp_0, mode);
  71              		.loc 1 62 0
  72 0000 044B     		ldr	r3, .L5
  73 0002 00F00E00 		and	r0, r0, #14
  74              	.LVL5:
  75 0006 1A78     		ldrb	r2, [r3, #0]	@ zero_extendqisi2
  76 0008 22F00E01 		bic	r1, r2, #14
  77 000c 40EA0102 		orr	r2, r0, r1
  78 0010 1A70     		strb	r2, [r3, #0]
  79 0012 7047     		bx	lr
  80              	.L6:
  81              		.align	2
  82              	.L5:
  83 0014 7E500040 		.word	1073762430
  84              		.cfi_endproc
  85              	.LFE1:
  86              		.size	USBFS_Dp_SetDriveMode, .-USBFS_Dp_SetDriveMode
  87              		.section	.text.USBFS_Dp_Read,"ax",%progbits
  88              		.align	1
  89              		.global	USBFS_Dp_Read
  90              		.thumb
  91              		.thumb_func
  92              		.type	USBFS_Dp_Read, %function
  93              	USBFS_Dp_Read:
  94              	.LFB2:
  63:.\Generated_Source\PSoC5/USBFS_Dp.c **** }
  64:.\Generated_Source\PSoC5/USBFS_Dp.c **** 
  65:.\Generated_Source\PSoC5/USBFS_Dp.c **** 
  66:.\Generated_Source\PSoC5/USBFS_Dp.c **** /*******************************************************************************
  67:.\Generated_Source\PSoC5/USBFS_Dp.c **** * Function Name: USBFS_Dp_Read
  68:.\Generated_Source\PSoC5/USBFS_Dp.c **** ********************************************************************************
  69:.\Generated_Source\PSoC5/USBFS_Dp.c **** *
  70:.\Generated_Source\PSoC5/USBFS_Dp.c **** * Summary:
  71:.\Generated_Source\PSoC5/USBFS_Dp.c **** *  Read the current value on the pins of the Digital Port in right justified 
  72:.\Generated_Source\PSoC5/USBFS_Dp.c **** *  form.
  73:.\Generated_Source\PSoC5/USBFS_Dp.c **** *
  74:.\Generated_Source\PSoC5/USBFS_Dp.c **** * Parameters:  
  75:.\Generated_Source\PSoC5/USBFS_Dp.c **** *  None
ARM GAS  C:\Users\MICHA_~1\AppData\Local\Temp\ccAFwykg.s 			page 4


  76:.\Generated_Source\PSoC5/USBFS_Dp.c **** *
  77:.\Generated_Source\PSoC5/USBFS_Dp.c **** * Return: 
  78:.\Generated_Source\PSoC5/USBFS_Dp.c **** *  Returns the current value of the Digital Port as a right justified number
  79:.\Generated_Source\PSoC5/USBFS_Dp.c **** *  
  80:.\Generated_Source\PSoC5/USBFS_Dp.c **** * Note:
  81:.\Generated_Source\PSoC5/USBFS_Dp.c **** *  Macro USBFS_Dp_ReadPS calls this function. 
  82:.\Generated_Source\PSoC5/USBFS_Dp.c **** *  
  83:.\Generated_Source\PSoC5/USBFS_Dp.c **** *******************************************************************************/
  84:.\Generated_Source\PSoC5/USBFS_Dp.c **** uint8 USBFS_Dp_Read(void) 
  85:.\Generated_Source\PSoC5/USBFS_Dp.c **** {
  95              		.loc 1 85 0
  96              		.cfi_startproc
  97              		@ args = 0, pretend = 0, frame = 0
  98              		@ frame_needed = 0, uses_anonymous_args = 0
  99              		@ link register save eliminated.
  86:.\Generated_Source\PSoC5/USBFS_Dp.c ****     return (USBFS_Dp_PS & USBFS_Dp_MASK) >> USBFS_Dp_SHIFT;
 100              		.loc 1 86 0
 101 0000 024B     		ldr	r3, .L8
 102 0002 1878     		ldrb	r0, [r3, #0]	@ zero_extendqisi2
  87:.\Generated_Source\PSoC5/USBFS_Dp.c **** }
 103              		.loc 1 87 0
 104 0004 C0F38010 		ubfx	r0, r0, #6, #1
 105 0008 7047     		bx	lr
 106              	.L9:
 107 000a 00BF     		.align	2
 108              	.L8:
 109 000c F1510040 		.word	1073762801
 110              		.cfi_endproc
 111              	.LFE2:
 112              		.size	USBFS_Dp_Read, .-USBFS_Dp_Read
 113              		.section	.text.USBFS_Dp_ReadDataReg,"ax",%progbits
 114              		.align	1
 115              		.global	USBFS_Dp_ReadDataReg
 116              		.thumb
 117              		.thumb_func
 118              		.type	USBFS_Dp_ReadDataReg, %function
 119              	USBFS_Dp_ReadDataReg:
 120              	.LFB3:
  88:.\Generated_Source\PSoC5/USBFS_Dp.c **** 
  89:.\Generated_Source\PSoC5/USBFS_Dp.c **** 
  90:.\Generated_Source\PSoC5/USBFS_Dp.c **** /*******************************************************************************
  91:.\Generated_Source\PSoC5/USBFS_Dp.c **** * Function Name: USBFS_Dp_ReadDataReg
  92:.\Generated_Source\PSoC5/USBFS_Dp.c **** ********************************************************************************
  93:.\Generated_Source\PSoC5/USBFS_Dp.c **** *
  94:.\Generated_Source\PSoC5/USBFS_Dp.c **** * Summary:
  95:.\Generated_Source\PSoC5/USBFS_Dp.c **** *  Read the current value assigned to a Digital Port's data output register
  96:.\Generated_Source\PSoC5/USBFS_Dp.c **** *
  97:.\Generated_Source\PSoC5/USBFS_Dp.c **** * Parameters:  
  98:.\Generated_Source\PSoC5/USBFS_Dp.c **** *  None 
  99:.\Generated_Source\PSoC5/USBFS_Dp.c **** *
 100:.\Generated_Source\PSoC5/USBFS_Dp.c **** * Return: 
 101:.\Generated_Source\PSoC5/USBFS_Dp.c **** *  Returns the current value assigned to the Digital Port's data output register
 102:.\Generated_Source\PSoC5/USBFS_Dp.c **** *  
 103:.\Generated_Source\PSoC5/USBFS_Dp.c **** *******************************************************************************/
 104:.\Generated_Source\PSoC5/USBFS_Dp.c **** uint8 USBFS_Dp_ReadDataReg(void) 
 105:.\Generated_Source\PSoC5/USBFS_Dp.c **** {
 121              		.loc 1 105 0
ARM GAS  C:\Users\MICHA_~1\AppData\Local\Temp\ccAFwykg.s 			page 5


 122              		.cfi_startproc
 123              		@ args = 0, pretend = 0, frame = 0
 124              		@ frame_needed = 0, uses_anonymous_args = 0
 125              		@ link register save eliminated.
 106:.\Generated_Source\PSoC5/USBFS_Dp.c ****     return (USBFS_Dp_DR & USBFS_Dp_MASK) >> USBFS_Dp_SHIFT;
 126              		.loc 1 106 0
 127 0000 024B     		ldr	r3, .L11
 128 0002 1878     		ldrb	r0, [r3, #0]	@ zero_extendqisi2
 107:.\Generated_Source\PSoC5/USBFS_Dp.c **** }
 129              		.loc 1 107 0
 130 0004 C0F38010 		ubfx	r0, r0, #6, #1
 131 0008 7047     		bx	lr
 132              	.L12:
 133 000a 00BF     		.align	2
 134              	.L11:
 135 000c F0510040 		.word	1073762800
 136              		.cfi_endproc
 137              	.LFE3:
 138              		.size	USBFS_Dp_ReadDataReg, .-USBFS_Dp_ReadDataReg
 139              		.section	.text.USBFS_Dp_ClearInterrupt,"ax",%progbits
 140              		.align	1
 141              		.global	USBFS_Dp_ClearInterrupt
 142              		.thumb
 143              		.thumb_func
 144              		.type	USBFS_Dp_ClearInterrupt, %function
 145              	USBFS_Dp_ClearInterrupt:
 146              	.LFB4:
 108:.\Generated_Source\PSoC5/USBFS_Dp.c **** 
 109:.\Generated_Source\PSoC5/USBFS_Dp.c **** 
 110:.\Generated_Source\PSoC5/USBFS_Dp.c **** /* If Interrupts Are Enabled for this Pins component */ 
 111:.\Generated_Source\PSoC5/USBFS_Dp.c **** #if defined(USBFS_Dp_INTSTAT) 
 112:.\Generated_Source\PSoC5/USBFS_Dp.c **** 
 113:.\Generated_Source\PSoC5/USBFS_Dp.c ****     /*******************************************************************************
 114:.\Generated_Source\PSoC5/USBFS_Dp.c ****     * Function Name: USBFS_Dp_ClearInterrupt
 115:.\Generated_Source\PSoC5/USBFS_Dp.c ****     ********************************************************************************
 116:.\Generated_Source\PSoC5/USBFS_Dp.c ****     * Summary:
 117:.\Generated_Source\PSoC5/USBFS_Dp.c ****     *  Clears any active interrupts attached to port and returns the value of the 
 118:.\Generated_Source\PSoC5/USBFS_Dp.c ****     *  interrupt status register.
 119:.\Generated_Source\PSoC5/USBFS_Dp.c ****     *
 120:.\Generated_Source\PSoC5/USBFS_Dp.c ****     * Parameters:  
 121:.\Generated_Source\PSoC5/USBFS_Dp.c ****     *  None 
 122:.\Generated_Source\PSoC5/USBFS_Dp.c ****     *
 123:.\Generated_Source\PSoC5/USBFS_Dp.c ****     * Return: 
 124:.\Generated_Source\PSoC5/USBFS_Dp.c ****     *  Returns the value of the interrupt status register
 125:.\Generated_Source\PSoC5/USBFS_Dp.c ****     *  
 126:.\Generated_Source\PSoC5/USBFS_Dp.c ****     *******************************************************************************/
 127:.\Generated_Source\PSoC5/USBFS_Dp.c ****     uint8 USBFS_Dp_ClearInterrupt(void) 
 128:.\Generated_Source\PSoC5/USBFS_Dp.c ****     {
 147              		.loc 1 128 0
 148              		.cfi_startproc
 149              		@ args = 0, pretend = 0, frame = 0
 150              		@ frame_needed = 0, uses_anonymous_args = 0
 151              		@ link register save eliminated.
 129:.\Generated_Source\PSoC5/USBFS_Dp.c ****         return (USBFS_Dp_INTSTAT & USBFS_Dp_MASK) >> USBFS_Dp_SHIFT;
 152              		.loc 1 129 0
 153 0000 024B     		ldr	r3, .L14
 154 0002 1878     		ldrb	r0, [r3, #0]	@ zero_extendqisi2
ARM GAS  C:\Users\MICHA_~1\AppData\Local\Temp\ccAFwykg.s 			page 6


 130:.\Generated_Source\PSoC5/USBFS_Dp.c ****     }
 155              		.loc 1 130 0
 156 0004 C0F38010 		ubfx	r0, r0, #6, #1
 157 0008 7047     		bx	lr
 158              	.L15:
 159 000a 00BF     		.align	2
 160              	.L14:
 161 000c 8F450040 		.word	1073759631
 162              		.cfi_endproc
 163              	.LFE4:
 164              		.size	USBFS_Dp_ClearInterrupt, .-USBFS_Dp_ClearInterrupt
 165              		.text
 166              	.Letext0:
 167              		.file 2 ".\\Generated_Source\\PSoC5\\cytypes.h"