ARM GAS  C:\Users\MICHA_~1\AppData\Local\Temp\ccP1x52T.s 			page 1


   1              		.syntax unified
   2              		.cpu cortex-m3
   3              		.fpu softvfp
   4              		.eabi_attribute 20, 1
   5              		.eabi_attribute 21, 1
   6              		.eabi_attribute 23, 3
   7              		.eabi_attribute 24, 1
   8              		.eabi_attribute 25, 1
   9              		.eabi_attribute 26, 1
  10              		.eabi_attribute 30, 4
  11              		.eabi_attribute 34, 1
  12              		.eabi_attribute 18, 4
  13              		.thumb
  14              		.file	"USBFS_episr.c"
  15              		.text
  16              	.Ltext0:
  17              		.cfi_sections	.debug_frame
  18              		.section	.text.USBFS_EP_1_ISR,"ax",%progbits
  19              		.align	1
  20              		.global	USBFS_EP_1_ISR
  21              		.thumb
  22              		.thumb_func
  23              		.type	USBFS_EP_1_ISR, %function
  24              	USBFS_EP_1_ISR:
  25              	.LFB0:
  26              		.file 1 ".\\Generated_Source\\PSoC5\\USBFS_episr.c"
   1:.\Generated_Source\PSoC5/USBFS_episr.c **** /*******************************************************************************
   2:.\Generated_Source\PSoC5/USBFS_episr.c **** * File Name: USBFS_episr.c
   3:.\Generated_Source\PSoC5/USBFS_episr.c **** * Version 2.60
   4:.\Generated_Source\PSoC5/USBFS_episr.c **** *
   5:.\Generated_Source\PSoC5/USBFS_episr.c **** * Description:
   6:.\Generated_Source\PSoC5/USBFS_episr.c **** *  Data endpoint Interrupt Service Routines
   7:.\Generated_Source\PSoC5/USBFS_episr.c **** *
   8:.\Generated_Source\PSoC5/USBFS_episr.c **** * Note:
   9:.\Generated_Source\PSoC5/USBFS_episr.c **** *
  10:.\Generated_Source\PSoC5/USBFS_episr.c **** ********************************************************************************
  11:.\Generated_Source\PSoC5/USBFS_episr.c **** * Copyright 2008-2013, Cypress Semiconductor Corporation.  All rights reserved.
  12:.\Generated_Source\PSoC5/USBFS_episr.c **** * You may use this file only in accordance with the license, terms, conditions,
  13:.\Generated_Source\PSoC5/USBFS_episr.c **** * disclaimers, and limitations in the end user license agreement accompanying
  14:.\Generated_Source\PSoC5/USBFS_episr.c **** * the software package with which this file was provided.
  15:.\Generated_Source\PSoC5/USBFS_episr.c **** *******************************************************************************/
  16:.\Generated_Source\PSoC5/USBFS_episr.c **** 
  17:.\Generated_Source\PSoC5/USBFS_episr.c **** #include "USBFS.h"
  18:.\Generated_Source\PSoC5/USBFS_episr.c **** #include "USBFS_pvt.h"
  19:.\Generated_Source\PSoC5/USBFS_episr.c **** #if defined(USBFS_ENABLE_MIDI_STREAMING) && (USBFS_ENABLE_MIDI_API != 0u)
  20:.\Generated_Source\PSoC5/USBFS_episr.c ****     #include "USBFS_midi.h"
  21:.\Generated_Source\PSoC5/USBFS_episr.c **** #endif /* End USBFS_ENABLE_MIDI_STREAMING*/
  22:.\Generated_Source\PSoC5/USBFS_episr.c **** 
  23:.\Generated_Source\PSoC5/USBFS_episr.c **** 
  24:.\Generated_Source\PSoC5/USBFS_episr.c **** /***************************************
  25:.\Generated_Source\PSoC5/USBFS_episr.c **** * Custom Declarations
  26:.\Generated_Source\PSoC5/USBFS_episr.c **** ***************************************/
  27:.\Generated_Source\PSoC5/USBFS_episr.c **** /* `#START CUSTOM_DECLARATIONS` Place your declaration here */
  28:.\Generated_Source\PSoC5/USBFS_episr.c **** 
  29:.\Generated_Source\PSoC5/USBFS_episr.c **** /* `#END` */
  30:.\Generated_Source\PSoC5/USBFS_episr.c **** 
  31:.\Generated_Source\PSoC5/USBFS_episr.c **** 
ARM GAS  C:\Users\MICHA_~1\AppData\Local\Temp\ccP1x52T.s 			page 2


  32:.\Generated_Source\PSoC5/USBFS_episr.c **** #if(USBFS_EP1_ISR_REMOVE == 0u)
  33:.\Generated_Source\PSoC5/USBFS_episr.c **** 
  34:.\Generated_Source\PSoC5/USBFS_episr.c **** 
  35:.\Generated_Source\PSoC5/USBFS_episr.c ****     /******************************************************************************
  36:.\Generated_Source\PSoC5/USBFS_episr.c ****     * Function Name: USBFS_EP_1_ISR
  37:.\Generated_Source\PSoC5/USBFS_episr.c ****     *******************************************************************************
  38:.\Generated_Source\PSoC5/USBFS_episr.c ****     *
  39:.\Generated_Source\PSoC5/USBFS_episr.c ****     * Summary:
  40:.\Generated_Source\PSoC5/USBFS_episr.c ****     *  Endpoint 1 Interrupt Service Routine
  41:.\Generated_Source\PSoC5/USBFS_episr.c ****     *
  42:.\Generated_Source\PSoC5/USBFS_episr.c ****     * Parameters:
  43:.\Generated_Source\PSoC5/USBFS_episr.c ****     *  None.
  44:.\Generated_Source\PSoC5/USBFS_episr.c ****     *
  45:.\Generated_Source\PSoC5/USBFS_episr.c ****     * Return:
  46:.\Generated_Source\PSoC5/USBFS_episr.c ****     *  None.
  47:.\Generated_Source\PSoC5/USBFS_episr.c ****     *
  48:.\Generated_Source\PSoC5/USBFS_episr.c ****     ******************************************************************************/
  49:.\Generated_Source\PSoC5/USBFS_episr.c ****     CY_ISR(USBFS_EP_1_ISR)
  50:.\Generated_Source\PSoC5/USBFS_episr.c ****     {
  27              		.loc 1 50 0
  28              		.cfi_startproc
  29              		@ args = 0, pretend = 0, frame = 0
  30              		@ frame_needed = 0, uses_anonymous_args = 0
  31              		@ link register save eliminated.
  51:.\Generated_Source\PSoC5/USBFS_episr.c ****         #if (defined(USBFS_ENABLE_MIDI_STREAMING) && USBFS_ISR_SERVICE_MIDI_OUT && CY_PSOC3)
  52:.\Generated_Source\PSoC5/USBFS_episr.c ****             uint8 int_en;
  53:.\Generated_Source\PSoC5/USBFS_episr.c ****         #endif /* USBFS_ISR_SERVICE_MIDI_OUT && CY_PSOC3 */
  54:.\Generated_Source\PSoC5/USBFS_episr.c **** 
  55:.\Generated_Source\PSoC5/USBFS_episr.c ****         /* `#START EP1_USER_CODE` Place your code here */
  56:.\Generated_Source\PSoC5/USBFS_episr.c **** 
  57:.\Generated_Source\PSoC5/USBFS_episr.c ****         /* `#END` */
  58:.\Generated_Source\PSoC5/USBFS_episr.c **** 
  59:.\Generated_Source\PSoC5/USBFS_episr.c ****         #if (defined(USBFS_ENABLE_MIDI_STREAMING) && USBFS_ISR_SERVICE_MIDI_OUT && CY_PSOC3)
  60:.\Generated_Source\PSoC5/USBFS_episr.c ****             int_en = EA;
  61:.\Generated_Source\PSoC5/USBFS_episr.c ****             CyGlobalIntEnable;  /* Make sure nested interrupt is enabled */
  62:.\Generated_Source\PSoC5/USBFS_episr.c ****         #endif /* USBFS_ISR_SERVICE_MIDI_OUT && CY_PSOC3 */
  63:.\Generated_Source\PSoC5/USBFS_episr.c **** 
  64:.\Generated_Source\PSoC5/USBFS_episr.c ****         CY_GET_REG8(USBFS_SIE_EP1_CR0_PTR); /* Must read the mode reg */
  32              		.loc 1 64 0
  33 0000 094B     		ldr	r3, .L7
  65:.\Generated_Source\PSoC5/USBFS_episr.c ****         /* Do not toggle ISOC endpoint */
  66:.\Generated_Source\PSoC5/USBFS_episr.c ****         if((USBFS_EP[USBFS_EP1].attrib & USBFS_EP_TYPE_MASK) !=
  34              		.loc 1 66 0
  35 0002 0A48     		ldr	r0, .L7+4
  64:.\Generated_Source\PSoC5/USBFS_episr.c ****         CY_GET_REG8(USBFS_SIE_EP1_CR0_PTR); /* Must read the mode reg */
  36              		.loc 1 64 0
  37 0004 1B78     		ldrb	r3, [r3, #0]	@ zero_extendqisi2
  38              		.loc 1 66 0
  39 0006 027B     		ldrb	r2, [r0, #12]	@ zero_extendqisi2
  40 0008 02F00301 		and	r1, r2, #3
  41 000c 0129     		cmp	r1, #1
  42 000e 03D0     		beq	.L2
  67:.\Generated_Source\PSoC5/USBFS_episr.c ****                                                                                     USBFS_EP_TYPE_I
  68:.\Generated_Source\PSoC5/USBFS_episr.c ****         {
  69:.\Generated_Source\PSoC5/USBFS_episr.c ****             USBFS_EP[USBFS_EP1].epToggle ^= USBFS_EPX_CNT_DATA_TOGGLE;
  43              		.loc 1 69 0
  44 0010 C37B     		ldrb	r3, [r0, #15]	@ zero_extendqisi2
ARM GAS  C:\Users\MICHA_~1\AppData\Local\Temp\ccP1x52T.s 			page 3


  45 0012 83F08002 		eor	r2, r3, #128
  46 0016 C273     		strb	r2, [r0, #15]
  47              	.L2:
  70:.\Generated_Source\PSoC5/USBFS_episr.c ****         }
  71:.\Generated_Source\PSoC5/USBFS_episr.c ****         USBFS_EP[USBFS_EP1].apiEpState = USBFS_EVENT_PENDING;
  48              		.loc 1 71 0
  49 0018 0121     		movs	r1, #1
  50 001a 4173     		strb	r1, [r0, #13]
  72:.\Generated_Source\PSoC5/USBFS_episr.c ****         CY_SET_REG8(USBFS_SIE_EP_INT_SR_PTR, CY_GET_REG8(USBFS_SIE_EP_INT_SR_PTR) &
  51              		.loc 1 72 0
  52 001c 0448     		ldr	r0, .L7+8
  53 001e 0378     		ldrb	r3, [r0, #0]	@ zero_extendqisi2
  54 0020 03F0FE02 		and	r2, r3, #254
  55 0024 0270     		strb	r2, [r0, #0]
  56 0026 7047     		bx	lr
  57              	.L8:
  58              		.align	2
  59              	.L7:
  60 0028 0E600040 		.word	1073766414
  61 002c 00000000 		.word	USBFS_EP
  62 0030 0B600040 		.word	1073766411
  63              		.cfi_endproc
  64              	.LFE0:
  65              		.size	USBFS_EP_1_ISR, .-USBFS_EP_1_ISR
  66              		.section	.text.USBFS_EP_2_ISR,"ax",%progbits
  67              		.align	1
  68              		.global	USBFS_EP_2_ISR
  69              		.thumb
  70              		.thumb_func
  71              		.type	USBFS_EP_2_ISR, %function
  72              	USBFS_EP_2_ISR:
  73              	.LFB1:
  73:.\Generated_Source\PSoC5/USBFS_episr.c ****                                                                     (uint8)~USBFS_SIE_EP_INT_EP1_MA
  74:.\Generated_Source\PSoC5/USBFS_episr.c **** 
  75:.\Generated_Source\PSoC5/USBFS_episr.c ****         #if( defined(USBFS_ENABLE_MIDI_STREAMING) && USBFS_ISR_SERVICE_MIDI_OUT )
  76:.\Generated_Source\PSoC5/USBFS_episr.c ****             if(USBFS_midi_out_ep == USBFS_EP1)
  77:.\Generated_Source\PSoC5/USBFS_episr.c ****             {
  78:.\Generated_Source\PSoC5/USBFS_episr.c ****                 USBFS_MIDI_OUT_EP_Service();
  79:.\Generated_Source\PSoC5/USBFS_episr.c ****             }
  80:.\Generated_Source\PSoC5/USBFS_episr.c ****         #endif /* End USBFS_ISR_SERVICE_MIDI_OUT */
  81:.\Generated_Source\PSoC5/USBFS_episr.c **** 
  82:.\Generated_Source\PSoC5/USBFS_episr.c ****         /* `#START EP1_END_USER_CODE` Place your code here */
  83:.\Generated_Source\PSoC5/USBFS_episr.c **** 
  84:.\Generated_Source\PSoC5/USBFS_episr.c ****         /* `#END` */
  85:.\Generated_Source\PSoC5/USBFS_episr.c **** 
  86:.\Generated_Source\PSoC5/USBFS_episr.c ****         #if ( defined(USBFS_ENABLE_MIDI_STREAMING) && USBFS_ISR_SERVICE_MIDI_OUT && CY_PSOC3 )
  87:.\Generated_Source\PSoC5/USBFS_episr.c ****             EA = int_en;
  88:.\Generated_Source\PSoC5/USBFS_episr.c ****         #endif /* USBFS_ISR_SERVICE_MIDI_OUT && CY_PSOC3 */
  89:.\Generated_Source\PSoC5/USBFS_episr.c ****     }
  90:.\Generated_Source\PSoC5/USBFS_episr.c **** 
  91:.\Generated_Source\PSoC5/USBFS_episr.c **** #endif   /* End USBFS_EP1_ISR_REMOVE */
  92:.\Generated_Source\PSoC5/USBFS_episr.c **** 
  93:.\Generated_Source\PSoC5/USBFS_episr.c **** 
  94:.\Generated_Source\PSoC5/USBFS_episr.c **** #if(USBFS_EP2_ISR_REMOVE == 0u)
  95:.\Generated_Source\PSoC5/USBFS_episr.c **** 
  96:.\Generated_Source\PSoC5/USBFS_episr.c ****     /*******************************************************************************
  97:.\Generated_Source\PSoC5/USBFS_episr.c ****     * Function Name: USBFS_EP_2_ISR
ARM GAS  C:\Users\MICHA_~1\AppData\Local\Temp\ccP1x52T.s 			page 4


  98:.\Generated_Source\PSoC5/USBFS_episr.c ****     ********************************************************************************
  99:.\Generated_Source\PSoC5/USBFS_episr.c ****     *
 100:.\Generated_Source\PSoC5/USBFS_episr.c ****     * Summary:
 101:.\Generated_Source\PSoC5/USBFS_episr.c ****     *  Endpoint 2 Interrupt Service Routine
 102:.\Generated_Source\PSoC5/USBFS_episr.c ****     *
 103:.\Generated_Source\PSoC5/USBFS_episr.c ****     * Parameters:
 104:.\Generated_Source\PSoC5/USBFS_episr.c ****     *  None.
 105:.\Generated_Source\PSoC5/USBFS_episr.c ****     *
 106:.\Generated_Source\PSoC5/USBFS_episr.c ****     * Return:
 107:.\Generated_Source\PSoC5/USBFS_episr.c ****     *  None.
 108:.\Generated_Source\PSoC5/USBFS_episr.c ****     *
 109:.\Generated_Source\PSoC5/USBFS_episr.c ****     *******************************************************************************/
 110:.\Generated_Source\PSoC5/USBFS_episr.c ****     CY_ISR(USBFS_EP_2_ISR)
 111:.\Generated_Source\PSoC5/USBFS_episr.c ****     {
  74              		.loc 1 111 0
  75              		.cfi_startproc
  76              		@ args = 0, pretend = 0, frame = 0
  77              		@ frame_needed = 0, uses_anonymous_args = 0
  78              		@ link register save eliminated.
 112:.\Generated_Source\PSoC5/USBFS_episr.c ****         #if (defined(USBFS_ENABLE_MIDI_STREAMING) && USBFS_ISR_SERVICE_MIDI_OUT && CY_PSOC3)
 113:.\Generated_Source\PSoC5/USBFS_episr.c ****             uint8 int_en;
 114:.\Generated_Source\PSoC5/USBFS_episr.c ****         #endif /* USBFS_ISR_SERVICE_MIDI_OUT && CY_PSOC3 */
 115:.\Generated_Source\PSoC5/USBFS_episr.c **** 
 116:.\Generated_Source\PSoC5/USBFS_episr.c ****         /* `#START EP2_USER_CODE` Place your code here */
 117:.\Generated_Source\PSoC5/USBFS_episr.c **** 
 118:.\Generated_Source\PSoC5/USBFS_episr.c ****         /* `#END` */
 119:.\Generated_Source\PSoC5/USBFS_episr.c **** 
 120:.\Generated_Source\PSoC5/USBFS_episr.c ****         #if (defined(USBFS_ENABLE_MIDI_STREAMING) && USBFS_ISR_SERVICE_MIDI_OUT && CY_PSOC3 )
 121:.\Generated_Source\PSoC5/USBFS_episr.c ****             int_en = EA;
 122:.\Generated_Source\PSoC5/USBFS_episr.c ****             CyGlobalIntEnable;  /* Make sure nested interrupt is enabled */
 123:.\Generated_Source\PSoC5/USBFS_episr.c ****         #endif /* USBFS_ISR_SERVICE_MIDI_OUT && CY_PSOC3 */
 124:.\Generated_Source\PSoC5/USBFS_episr.c **** 
 125:.\Generated_Source\PSoC5/USBFS_episr.c ****         CY_GET_REG8(USBFS_SIE_EP2_CR0_PTR); /* Must read the mode reg */
  79              		.loc 1 125 0
  80 0000 094B     		ldr	r3, .L14
 126:.\Generated_Source\PSoC5/USBFS_episr.c ****         /* Do not toggle ISOC endpoint */
 127:.\Generated_Source\PSoC5/USBFS_episr.c ****         if((USBFS_EP[USBFS_EP2].attrib & USBFS_EP_TYPE_MASK) !=
  81              		.loc 1 127 0
  82 0002 0A48     		ldr	r0, .L14+4
 125:.\Generated_Source\PSoC5/USBFS_episr.c ****         CY_GET_REG8(USBFS_SIE_EP2_CR0_PTR); /* Must read the mode reg */
  83              		.loc 1 125 0
  84 0004 1B78     		ldrb	r3, [r3, #0]	@ zero_extendqisi2
  85              		.loc 1 127 0
  86 0006 027E     		ldrb	r2, [r0, #24]	@ zero_extendqisi2
  87 0008 02F00301 		and	r1, r2, #3
  88 000c 0129     		cmp	r1, #1
  89 000e 03D0     		beq	.L10
 128:.\Generated_Source\PSoC5/USBFS_episr.c ****                                                                                     USBFS_EP_TYPE_I
 129:.\Generated_Source\PSoC5/USBFS_episr.c ****         {
 130:.\Generated_Source\PSoC5/USBFS_episr.c ****             USBFS_EP[USBFS_EP2].epToggle ^= USBFS_EPX_CNT_DATA_TOGGLE;
  90              		.loc 1 130 0
  91 0010 C37E     		ldrb	r3, [r0, #27]	@ zero_extendqisi2
  92 0012 83F08002 		eor	r2, r3, #128
  93 0016 C276     		strb	r2, [r0, #27]
  94              	.L10:
 131:.\Generated_Source\PSoC5/USBFS_episr.c ****         }
 132:.\Generated_Source\PSoC5/USBFS_episr.c ****         USBFS_EP[USBFS_EP2].apiEpState = USBFS_EVENT_PENDING;
ARM GAS  C:\Users\MICHA_~1\AppData\Local\Temp\ccP1x52T.s 			page 5


  95              		.loc 1 132 0
  96 0018 0121     		movs	r1, #1
  97 001a 4176     		strb	r1, [r0, #25]
 133:.\Generated_Source\PSoC5/USBFS_episr.c ****         CY_SET_REG8(USBFS_SIE_EP_INT_SR_PTR, CY_GET_REG8(USBFS_SIE_EP_INT_SR_PTR)
  98              		.loc 1 133 0
  99 001c 0448     		ldr	r0, .L14+8
 100 001e 0378     		ldrb	r3, [r0, #0]	@ zero_extendqisi2
 101 0020 03F0FD02 		and	r2, r3, #253
 102 0024 0270     		strb	r2, [r0, #0]
 103 0026 7047     		bx	lr
 104              	.L15:
 105              		.align	2
 106              	.L14:
 107 0028 1E600040 		.word	1073766430
 108 002c 00000000 		.word	USBFS_EP
 109 0030 0B600040 		.word	1073766411
 110              		.cfi_endproc
 111              	.LFE1:
 112              		.size	USBFS_EP_2_ISR, .-USBFS_EP_2_ISR
 113              		.section	.text.USBFS_SOF_ISR,"ax",%progbits
 114              		.align	1
 115              		.global	USBFS_SOF_ISR
 116              		.thumb
 117              		.thumb_func
 118              		.type	USBFS_SOF_ISR, %function
 119              	USBFS_SOF_ISR:
 120              	.LFB2:
 134:.\Generated_Source\PSoC5/USBFS_episr.c ****                                                                         & (uint8)~USBFS_SIE_EP_INT_
 135:.\Generated_Source\PSoC5/USBFS_episr.c **** 
 136:.\Generated_Source\PSoC5/USBFS_episr.c ****         #if( defined(USBFS_ENABLE_MIDI_STREAMING) && USBFS_ISR_SERVICE_MIDI_OUT )
 137:.\Generated_Source\PSoC5/USBFS_episr.c ****             if(USBFS_midi_out_ep == USBFS_EP2)
 138:.\Generated_Source\PSoC5/USBFS_episr.c ****             {
 139:.\Generated_Source\PSoC5/USBFS_episr.c ****                 USBFS_MIDI_OUT_EP_Service();
 140:.\Generated_Source\PSoC5/USBFS_episr.c ****             }
 141:.\Generated_Source\PSoC5/USBFS_episr.c ****         #endif /* End USBFS_ISR_SERVICE_MIDI_OUT */
 142:.\Generated_Source\PSoC5/USBFS_episr.c **** 
 143:.\Generated_Source\PSoC5/USBFS_episr.c ****         /* `#START EP2_END_USER_CODE` Place your code here */
 144:.\Generated_Source\PSoC5/USBFS_episr.c **** 
 145:.\Generated_Source\PSoC5/USBFS_episr.c ****         /* `#END` */
 146:.\Generated_Source\PSoC5/USBFS_episr.c **** 
 147:.\Generated_Source\PSoC5/USBFS_episr.c ****         #if (defined(USBFS_ENABLE_MIDI_STREAMING) && USBFS_ISR_SERVICE_MIDI_OUT && CY_PSOC3)
 148:.\Generated_Source\PSoC5/USBFS_episr.c ****             EA = int_en;
 149:.\Generated_Source\PSoC5/USBFS_episr.c ****         #endif /* USBFS_ISR_SERVICE_MIDI_OUT && CY_PSOC3 */
 150:.\Generated_Source\PSoC5/USBFS_episr.c ****     }
 151:.\Generated_Source\PSoC5/USBFS_episr.c **** 
 152:.\Generated_Source\PSoC5/USBFS_episr.c **** #endif   /* End USBFS_EP2_ISR_REMOVE */
 153:.\Generated_Source\PSoC5/USBFS_episr.c **** 
 154:.\Generated_Source\PSoC5/USBFS_episr.c **** 
 155:.\Generated_Source\PSoC5/USBFS_episr.c **** #if(USBFS_EP3_ISR_REMOVE == 0u)
 156:.\Generated_Source\PSoC5/USBFS_episr.c **** 
 157:.\Generated_Source\PSoC5/USBFS_episr.c ****     /*******************************************************************************
 158:.\Generated_Source\PSoC5/USBFS_episr.c ****     * Function Name: USBFS_EP_3_ISR
 159:.\Generated_Source\PSoC5/USBFS_episr.c ****     ********************************************************************************
 160:.\Generated_Source\PSoC5/USBFS_episr.c ****     *
 161:.\Generated_Source\PSoC5/USBFS_episr.c ****     * Summary:
 162:.\Generated_Source\PSoC5/USBFS_episr.c ****     *  Endpoint 3 Interrupt Service Routine
 163:.\Generated_Source\PSoC5/USBFS_episr.c ****     *
ARM GAS  C:\Users\MICHA_~1\AppData\Local\Temp\ccP1x52T.s 			page 6


 164:.\Generated_Source\PSoC5/USBFS_episr.c ****     * Parameters:
 165:.\Generated_Source\PSoC5/USBFS_episr.c ****     *  None.
 166:.\Generated_Source\PSoC5/USBFS_episr.c ****     *
 167:.\Generated_Source\PSoC5/USBFS_episr.c ****     * Return:
 168:.\Generated_Source\PSoC5/USBFS_episr.c ****     *  None.
 169:.\Generated_Source\PSoC5/USBFS_episr.c ****     *
 170:.\Generated_Source\PSoC5/USBFS_episr.c ****     *******************************************************************************/
 171:.\Generated_Source\PSoC5/USBFS_episr.c ****     CY_ISR(USBFS_EP_3_ISR)
 172:.\Generated_Source\PSoC5/USBFS_episr.c ****     {
 173:.\Generated_Source\PSoC5/USBFS_episr.c ****         #if (defined(USBFS_ENABLE_MIDI_STREAMING) && USBFS_ISR_SERVICE_MIDI_OUT && CY_PSOC3)
 174:.\Generated_Source\PSoC5/USBFS_episr.c ****             uint8 int_en;
 175:.\Generated_Source\PSoC5/USBFS_episr.c ****         #endif /* USBFS_ISR_SERVICE_MIDI_OUT && CY_PSOC3 */
 176:.\Generated_Source\PSoC5/USBFS_episr.c **** 
 177:.\Generated_Source\PSoC5/USBFS_episr.c ****         /* `#START EP3_USER_CODE` Place your code here */
 178:.\Generated_Source\PSoC5/USBFS_episr.c **** 
 179:.\Generated_Source\PSoC5/USBFS_episr.c ****         /* `#END` */
 180:.\Generated_Source\PSoC5/USBFS_episr.c **** 
 181:.\Generated_Source\PSoC5/USBFS_episr.c ****         #if (defined(USBFS_ENABLE_MIDI_STREAMING) && USBFS_ISR_SERVICE_MIDI_OUT && CY_PSOC3)
 182:.\Generated_Source\PSoC5/USBFS_episr.c ****             int_en = EA;
 183:.\Generated_Source\PSoC5/USBFS_episr.c ****             CyGlobalIntEnable;  /* Make sure nested interrupt is enabled */
 184:.\Generated_Source\PSoC5/USBFS_episr.c ****         #endif /* CY_PSOC3 & USBFS_ISR_SERVICE_MIDI_OUT  */
 185:.\Generated_Source\PSoC5/USBFS_episr.c **** 
 186:.\Generated_Source\PSoC5/USBFS_episr.c ****         CY_GET_REG8(USBFS_SIE_EP3_CR0_PTR); /* Must read the mode reg */
 187:.\Generated_Source\PSoC5/USBFS_episr.c ****         /* Do not toggle ISOC endpoint */
 188:.\Generated_Source\PSoC5/USBFS_episr.c ****         if((USBFS_EP[USBFS_EP3].attrib & USBFS_EP_TYPE_MASK) !=
 189:.\Generated_Source\PSoC5/USBFS_episr.c ****                                                                                     USBFS_EP_TYPE_I
 190:.\Generated_Source\PSoC5/USBFS_episr.c ****         {
 191:.\Generated_Source\PSoC5/USBFS_episr.c ****             USBFS_EP[USBFS_EP3].epToggle ^= USBFS_EPX_CNT_DATA_TOGGLE;
 192:.\Generated_Source\PSoC5/USBFS_episr.c ****         }
 193:.\Generated_Source\PSoC5/USBFS_episr.c ****         USBFS_EP[USBFS_EP3].apiEpState = USBFS_EVENT_PENDING;
 194:.\Generated_Source\PSoC5/USBFS_episr.c ****         CY_SET_REG8(USBFS_SIE_EP_INT_SR_PTR, CY_GET_REG8(USBFS_SIE_EP_INT_SR_PTR)
 195:.\Generated_Source\PSoC5/USBFS_episr.c ****                                                                         & (uint8)~USBFS_SIE_EP_INT_
 196:.\Generated_Source\PSoC5/USBFS_episr.c **** 
 197:.\Generated_Source\PSoC5/USBFS_episr.c ****         #if (defined(USBFS_ENABLE_MIDI_STREAMING) && USBFS_ISR_SERVICE_MIDI_OUT)
 198:.\Generated_Source\PSoC5/USBFS_episr.c ****             if(USBFS_midi_out_ep == USBFS_EP3)
 199:.\Generated_Source\PSoC5/USBFS_episr.c ****             {
 200:.\Generated_Source\PSoC5/USBFS_episr.c ****                 USBFS_MIDI_OUT_EP_Service();
 201:.\Generated_Source\PSoC5/USBFS_episr.c ****             }
 202:.\Generated_Source\PSoC5/USBFS_episr.c ****         #endif /* End USBFS_ISR_SERVICE_MIDI_OUT */
 203:.\Generated_Source\PSoC5/USBFS_episr.c **** 
 204:.\Generated_Source\PSoC5/USBFS_episr.c ****         /* `#START EP3_END_USER_CODE` Place your code here */
 205:.\Generated_Source\PSoC5/USBFS_episr.c **** 
 206:.\Generated_Source\PSoC5/USBFS_episr.c ****         /* `#END` */
 207:.\Generated_Source\PSoC5/USBFS_episr.c **** 
 208:.\Generated_Source\PSoC5/USBFS_episr.c ****         #if (defined(USBFS_ENABLE_MIDI_STREAMING) && USBFS_ISR_SERVICE_MIDI_OUT && CY_PSOC3)
 209:.\Generated_Source\PSoC5/USBFS_episr.c ****             EA = int_en;
 210:.\Generated_Source\PSoC5/USBFS_episr.c ****         #endif /* CY_PSOC3 & USBFS_ISR_SERVICE_MIDI_OUT  */
 211:.\Generated_Source\PSoC5/USBFS_episr.c ****     }
 212:.\Generated_Source\PSoC5/USBFS_episr.c **** 
 213:.\Generated_Source\PSoC5/USBFS_episr.c **** #endif   /* End USBFS_EP3_ISR_REMOVE */
 214:.\Generated_Source\PSoC5/USBFS_episr.c **** 
 215:.\Generated_Source\PSoC5/USBFS_episr.c **** 
 216:.\Generated_Source\PSoC5/USBFS_episr.c **** #if(USBFS_EP4_ISR_REMOVE == 0u)
 217:.\Generated_Source\PSoC5/USBFS_episr.c **** 
 218:.\Generated_Source\PSoC5/USBFS_episr.c ****     /*******************************************************************************
 219:.\Generated_Source\PSoC5/USBFS_episr.c ****     * Function Name: USBFS_EP_4_ISR
 220:.\Generated_Source\PSoC5/USBFS_episr.c ****     ********************************************************************************
ARM GAS  C:\Users\MICHA_~1\AppData\Local\Temp\ccP1x52T.s 			page 7


 221:.\Generated_Source\PSoC5/USBFS_episr.c ****     *
 222:.\Generated_Source\PSoC5/USBFS_episr.c ****     * Summary:
 223:.\Generated_Source\PSoC5/USBFS_episr.c ****     *  Endpoint 4 Interrupt Service Routine
 224:.\Generated_Source\PSoC5/USBFS_episr.c ****     *
 225:.\Generated_Source\PSoC5/USBFS_episr.c ****     * Parameters:
 226:.\Generated_Source\PSoC5/USBFS_episr.c ****     *  None.
 227:.\Generated_Source\PSoC5/USBFS_episr.c ****     *
 228:.\Generated_Source\PSoC5/USBFS_episr.c ****     * Return:
 229:.\Generated_Source\PSoC5/USBFS_episr.c ****     *  None.
 230:.\Generated_Source\PSoC5/USBFS_episr.c ****     *
 231:.\Generated_Source\PSoC5/USBFS_episr.c ****     *******************************************************************************/
 232:.\Generated_Source\PSoC5/USBFS_episr.c ****     CY_ISR(USBFS_EP_4_ISR)
 233:.\Generated_Source\PSoC5/USBFS_episr.c ****     {
 234:.\Generated_Source\PSoC5/USBFS_episr.c ****         #if (defined(USBFS_ENABLE_MIDI_STREAMING) && USBFS_ISR_SERVICE_MIDI_OUT && CY_PSOC3)
 235:.\Generated_Source\PSoC5/USBFS_episr.c ****             uint8 int_en;
 236:.\Generated_Source\PSoC5/USBFS_episr.c ****         #endif /* CY_PSOC3 & USBFS_ISR_SERVICE_MIDI_OUT  */
 237:.\Generated_Source\PSoC5/USBFS_episr.c **** 
 238:.\Generated_Source\PSoC5/USBFS_episr.c ****         /* `#START EP4_USER_CODE` Place your code here */
 239:.\Generated_Source\PSoC5/USBFS_episr.c **** 
 240:.\Generated_Source\PSoC5/USBFS_episr.c ****         /* `#END` */
 241:.\Generated_Source\PSoC5/USBFS_episr.c **** 
 242:.\Generated_Source\PSoC5/USBFS_episr.c ****         #if (defined(USBFS_ENABLE_MIDI_STREAMING) && USBFS_ISR_SERVICE_MIDI_OUT && CY_PSOC3)
 243:.\Generated_Source\PSoC5/USBFS_episr.c ****             int_en = EA;
 244:.\Generated_Source\PSoC5/USBFS_episr.c ****             CyGlobalIntEnable;  /* Make sure nested interrupt is enabled */
 245:.\Generated_Source\PSoC5/USBFS_episr.c ****         #endif /* CY_PSOC3 & USBFS_ISR_SERVICE_MIDI_OUT  */
 246:.\Generated_Source\PSoC5/USBFS_episr.c **** 
 247:.\Generated_Source\PSoC5/USBFS_episr.c ****         CY_GET_REG8(USBFS_SIE_EP4_CR0_PTR); /* Must read the mode reg */
 248:.\Generated_Source\PSoC5/USBFS_episr.c ****         /* Do not toggle ISOC endpoint */
 249:.\Generated_Source\PSoC5/USBFS_episr.c ****         if((USBFS_EP[USBFS_EP4].attrib & USBFS_EP_TYPE_MASK) !=
 250:.\Generated_Source\PSoC5/USBFS_episr.c ****                                                                                     USBFS_EP_TYPE_I
 251:.\Generated_Source\PSoC5/USBFS_episr.c ****         {
 252:.\Generated_Source\PSoC5/USBFS_episr.c ****             USBFS_EP[USBFS_EP4].epToggle ^= USBFS_EPX_CNT_DATA_TOGGLE;
 253:.\Generated_Source\PSoC5/USBFS_episr.c ****         }
 254:.\Generated_Source\PSoC5/USBFS_episr.c ****         USBFS_EP[USBFS_EP4].apiEpState = USBFS_EVENT_PENDING;
 255:.\Generated_Source\PSoC5/USBFS_episr.c ****         CY_SET_REG8(USBFS_SIE_EP_INT_SR_PTR, CY_GET_REG8(USBFS_SIE_EP_INT_SR_PTR)
 256:.\Generated_Source\PSoC5/USBFS_episr.c ****                                                                         & (uint8)~USBFS_SIE_EP_INT_
 257:.\Generated_Source\PSoC5/USBFS_episr.c **** 
 258:.\Generated_Source\PSoC5/USBFS_episr.c ****         #if (defined(USBFS_ENABLE_MIDI_STREAMING) && USBFS_ISR_SERVICE_MIDI_OUT)
 259:.\Generated_Source\PSoC5/USBFS_episr.c ****             if(USBFS_midi_out_ep == USBFS_EP4)
 260:.\Generated_Source\PSoC5/USBFS_episr.c ****             {
 261:.\Generated_Source\PSoC5/USBFS_episr.c ****                 USBFS_MIDI_OUT_EP_Service();
 262:.\Generated_Source\PSoC5/USBFS_episr.c ****             }
 263:.\Generated_Source\PSoC5/USBFS_episr.c ****         #endif /* End USBFS_ISR_SERVICE_MIDI_OUT */
 264:.\Generated_Source\PSoC5/USBFS_episr.c **** 
 265:.\Generated_Source\PSoC5/USBFS_episr.c ****         /* `#START EP4_END_USER_CODE` Place your code here */
 266:.\Generated_Source\PSoC5/USBFS_episr.c **** 
 267:.\Generated_Source\PSoC5/USBFS_episr.c ****         /* `#END` */
 268:.\Generated_Source\PSoC5/USBFS_episr.c **** 
 269:.\Generated_Source\PSoC5/USBFS_episr.c ****         #if (defined(USBFS_ENABLE_MIDI_STREAMING) && USBFS_ISR_SERVICE_MIDI_OUT && CY_PSOC3)
 270:.\Generated_Source\PSoC5/USBFS_episr.c ****             EA = int_en;
 271:.\Generated_Source\PSoC5/USBFS_episr.c ****         #endif /* CY_PSOC3 & USBFS_ISR_SERVICE_MIDI_OUT  */
 272:.\Generated_Source\PSoC5/USBFS_episr.c ****     }
 273:.\Generated_Source\PSoC5/USBFS_episr.c **** 
 274:.\Generated_Source\PSoC5/USBFS_episr.c **** #endif   /* End USBFS_EP4_ISR_REMOVE */
 275:.\Generated_Source\PSoC5/USBFS_episr.c **** 
 276:.\Generated_Source\PSoC5/USBFS_episr.c **** 
 277:.\Generated_Source\PSoC5/USBFS_episr.c **** #if(USBFS_EP5_ISR_REMOVE == 0u)
ARM GAS  C:\Users\MICHA_~1\AppData\Local\Temp\ccP1x52T.s 			page 8


 278:.\Generated_Source\PSoC5/USBFS_episr.c **** 
 279:.\Generated_Source\PSoC5/USBFS_episr.c ****     /*******************************************************************************
 280:.\Generated_Source\PSoC5/USBFS_episr.c ****     * Function Name: USBFS_EP_5_ISR
 281:.\Generated_Source\PSoC5/USBFS_episr.c ****     ********************************************************************************
 282:.\Generated_Source\PSoC5/USBFS_episr.c ****     *
 283:.\Generated_Source\PSoC5/USBFS_episr.c ****     * Summary:
 284:.\Generated_Source\PSoC5/USBFS_episr.c ****     *  Endpoint 5 Interrupt Service Routine
 285:.\Generated_Source\PSoC5/USBFS_episr.c ****     *
 286:.\Generated_Source\PSoC5/USBFS_episr.c ****     * Parameters:
 287:.\Generated_Source\PSoC5/USBFS_episr.c ****     *  None.
 288:.\Generated_Source\PSoC5/USBFS_episr.c ****     *
 289:.\Generated_Source\PSoC5/USBFS_episr.c ****     * Return:
 290:.\Generated_Source\PSoC5/USBFS_episr.c ****     *  None.
 291:.\Generated_Source\PSoC5/USBFS_episr.c ****     *
 292:.\Generated_Source\PSoC5/USBFS_episr.c ****     *******************************************************************************/
 293:.\Generated_Source\PSoC5/USBFS_episr.c ****     CY_ISR(USBFS_EP_5_ISR)
 294:.\Generated_Source\PSoC5/USBFS_episr.c ****     {
 295:.\Generated_Source\PSoC5/USBFS_episr.c ****         #if (defined(USBFS_ENABLE_MIDI_STREAMING) && USBFS_ISR_SERVICE_MIDI_OUT && CY_PSOC3)
 296:.\Generated_Source\PSoC5/USBFS_episr.c ****             uint8 int_en;
 297:.\Generated_Source\PSoC5/USBFS_episr.c ****         #endif /* CY_PSOC3 & USBFS_ISR_SERVICE_MIDI_OUT  */
 298:.\Generated_Source\PSoC5/USBFS_episr.c **** 
 299:.\Generated_Source\PSoC5/USBFS_episr.c ****         /* `#START EP5_USER_CODE` Place your code here */
 300:.\Generated_Source\PSoC5/USBFS_episr.c **** 
 301:.\Generated_Source\PSoC5/USBFS_episr.c ****         /* `#END` */
 302:.\Generated_Source\PSoC5/USBFS_episr.c **** 
 303:.\Generated_Source\PSoC5/USBFS_episr.c ****         #if (defined(USBFS_ENABLE_MIDI_STREAMING) && USBFS_ISR_SERVICE_MIDI_OUT && CY_PSOC3)
 304:.\Generated_Source\PSoC5/USBFS_episr.c ****             int_en = EA;
 305:.\Generated_Source\PSoC5/USBFS_episr.c ****             CyGlobalIntEnable;  /* Make sure nested interrupt is enabled */
 306:.\Generated_Source\PSoC5/USBFS_episr.c ****         #endif /* CY_PSOC3 & USBFS_ISR_SERVICE_MIDI_OUT  */
 307:.\Generated_Source\PSoC5/USBFS_episr.c **** 
 308:.\Generated_Source\PSoC5/USBFS_episr.c ****         CY_GET_REG8(USBFS_SIE_EP5_CR0_PTR); /* Must read the mode reg */
 309:.\Generated_Source\PSoC5/USBFS_episr.c ****         /* Do not toggle ISOC endpoint */
 310:.\Generated_Source\PSoC5/USBFS_episr.c ****         if((USBFS_EP[USBFS_EP5].attrib & USBFS_EP_TYPE_MASK) !=
 311:.\Generated_Source\PSoC5/USBFS_episr.c ****                                                                                     USBFS_EP_TYPE_I
 312:.\Generated_Source\PSoC5/USBFS_episr.c ****         {
 313:.\Generated_Source\PSoC5/USBFS_episr.c ****             USBFS_EP[USBFS_EP5].epToggle ^= USBFS_EPX_CNT_DATA_TOGGLE;
 314:.\Generated_Source\PSoC5/USBFS_episr.c ****         }
 315:.\Generated_Source\PSoC5/USBFS_episr.c ****         USBFS_EP[USBFS_EP5].apiEpState = USBFS_EVENT_PENDING;
 316:.\Generated_Source\PSoC5/USBFS_episr.c ****         CY_SET_REG8(USBFS_SIE_EP_INT_SR_PTR, CY_GET_REG8(USBFS_SIE_EP_INT_SR_PTR)
 317:.\Generated_Source\PSoC5/USBFS_episr.c ****                                                                         & (uint8)~USBFS_SIE_EP_INT_
 318:.\Generated_Source\PSoC5/USBFS_episr.c **** 
 319:.\Generated_Source\PSoC5/USBFS_episr.c ****         #if (defined(USBFS_ENABLE_MIDI_STREAMING) && USBFS_ISR_SERVICE_MIDI_OUT)
 320:.\Generated_Source\PSoC5/USBFS_episr.c ****             if(USBFS_midi_out_ep == USBFS_EP5)
 321:.\Generated_Source\PSoC5/USBFS_episr.c ****             {
 322:.\Generated_Source\PSoC5/USBFS_episr.c ****                 USBFS_MIDI_OUT_EP_Service();
 323:.\Generated_Source\PSoC5/USBFS_episr.c ****             }
 324:.\Generated_Source\PSoC5/USBFS_episr.c ****         #endif /* End USBFS_ISR_SERVICE_MIDI_OUT */
 325:.\Generated_Source\PSoC5/USBFS_episr.c **** 
 326:.\Generated_Source\PSoC5/USBFS_episr.c ****         /* `#START EP5_END_USER_CODE` Place your code here */
 327:.\Generated_Source\PSoC5/USBFS_episr.c **** 
 328:.\Generated_Source\PSoC5/USBFS_episr.c ****         /* `#END` */
 329:.\Generated_Source\PSoC5/USBFS_episr.c **** 
 330:.\Generated_Source\PSoC5/USBFS_episr.c ****         #if (defined(USBFS_ENABLE_MIDI_STREAMING) && USBFS_ISR_SERVICE_MIDI_OUT && CY_PSOC3)
 331:.\Generated_Source\PSoC5/USBFS_episr.c ****             EA = int_en;
 332:.\Generated_Source\PSoC5/USBFS_episr.c ****         #endif /* CY_PSOC3 & USBFS_ISR_SERVICE_MIDI_OUT  */
 333:.\Generated_Source\PSoC5/USBFS_episr.c ****     }
 334:.\Generated_Source\PSoC5/USBFS_episr.c **** #endif   /* End USBFS_EP5_ISR_REMOVE */
ARM GAS  C:\Users\MICHA_~1\AppData\Local\Temp\ccP1x52T.s 			page 9


 335:.\Generated_Source\PSoC5/USBFS_episr.c **** 
 336:.\Generated_Source\PSoC5/USBFS_episr.c **** 
 337:.\Generated_Source\PSoC5/USBFS_episr.c **** #if(USBFS_EP6_ISR_REMOVE == 0u)
 338:.\Generated_Source\PSoC5/USBFS_episr.c **** 
 339:.\Generated_Source\PSoC5/USBFS_episr.c ****     /*******************************************************************************
 340:.\Generated_Source\PSoC5/USBFS_episr.c ****     * Function Name: USBFS_EP_6_ISR
 341:.\Generated_Source\PSoC5/USBFS_episr.c ****     ********************************************************************************
 342:.\Generated_Source\PSoC5/USBFS_episr.c ****     *
 343:.\Generated_Source\PSoC5/USBFS_episr.c ****     * Summary:
 344:.\Generated_Source\PSoC5/USBFS_episr.c ****     *  Endpoint 6 Interrupt Service Routine
 345:.\Generated_Source\PSoC5/USBFS_episr.c ****     *
 346:.\Generated_Source\PSoC5/USBFS_episr.c ****     * Parameters:
 347:.\Generated_Source\PSoC5/USBFS_episr.c ****     *  None.
 348:.\Generated_Source\PSoC5/USBFS_episr.c ****     *
 349:.\Generated_Source\PSoC5/USBFS_episr.c ****     * Return:
 350:.\Generated_Source\PSoC5/USBFS_episr.c ****     *  None.
 351:.\Generated_Source\PSoC5/USBFS_episr.c ****     *
 352:.\Generated_Source\PSoC5/USBFS_episr.c ****     *******************************************************************************/
 353:.\Generated_Source\PSoC5/USBFS_episr.c ****     CY_ISR(USBFS_EP_6_ISR)
 354:.\Generated_Source\PSoC5/USBFS_episr.c ****     {
 355:.\Generated_Source\PSoC5/USBFS_episr.c ****         #if (defined(USBFS_ENABLE_MIDI_STREAMING) && USBFS_ISR_SERVICE_MIDI_OUT && CY_PSOC3)
 356:.\Generated_Source\PSoC5/USBFS_episr.c ****             uint8 int_en;
 357:.\Generated_Source\PSoC5/USBFS_episr.c ****         #endif /* CY_PSOC3 & USBFS_ISR_SERVICE_MIDI_OUT  */
 358:.\Generated_Source\PSoC5/USBFS_episr.c **** 
 359:.\Generated_Source\PSoC5/USBFS_episr.c ****         /* `#START EP6_USER_CODE` Place your code here */
 360:.\Generated_Source\PSoC5/USBFS_episr.c **** 
 361:.\Generated_Source\PSoC5/USBFS_episr.c ****         /* `#END` */
 362:.\Generated_Source\PSoC5/USBFS_episr.c **** 
 363:.\Generated_Source\PSoC5/USBFS_episr.c ****         #if (defined(USBFS_ENABLE_MIDI_STREAMING) && USBFS_ISR_SERVICE_MIDI_OUT && CY_PSOC3)
 364:.\Generated_Source\PSoC5/USBFS_episr.c ****             int_en = EA;
 365:.\Generated_Source\PSoC5/USBFS_episr.c ****             CyGlobalIntEnable;  /* Make sure nested interrupt is enabled */
 366:.\Generated_Source\PSoC5/USBFS_episr.c ****         #endif /* CY_PSOC3 & USBFS_ISR_SERVICE_MIDI_OUT  */
 367:.\Generated_Source\PSoC5/USBFS_episr.c **** 
 368:.\Generated_Source\PSoC5/USBFS_episr.c ****         CY_GET_REG8(USBFS_SIE_EP6_CR0_PTR); /* Must read the mode reg */
 369:.\Generated_Source\PSoC5/USBFS_episr.c ****         /* Do not toggle ISOC endpoint */
 370:.\Generated_Source\PSoC5/USBFS_episr.c ****         if((USBFS_EP[USBFS_EP6].attrib & USBFS_EP_TYPE_MASK) !=
 371:.\Generated_Source\PSoC5/USBFS_episr.c ****                                                                                     USBFS_EP_TYPE_I
 372:.\Generated_Source\PSoC5/USBFS_episr.c ****         {
 373:.\Generated_Source\PSoC5/USBFS_episr.c ****             USBFS_EP[USBFS_EP6].epToggle ^= USBFS_EPX_CNT_DATA_TOGGLE;
 374:.\Generated_Source\PSoC5/USBFS_episr.c ****         }
 375:.\Generated_Source\PSoC5/USBFS_episr.c ****         USBFS_EP[USBFS_EP6].apiEpState = USBFS_EVENT_PENDING;
 376:.\Generated_Source\PSoC5/USBFS_episr.c ****         CY_SET_REG8(USBFS_SIE_EP_INT_SR_PTR, CY_GET_REG8(USBFS_SIE_EP_INT_SR_PTR)
 377:.\Generated_Source\PSoC5/USBFS_episr.c ****                                                                         & (uint8)~USBFS_SIE_EP_INT_
 378:.\Generated_Source\PSoC5/USBFS_episr.c **** 
 379:.\Generated_Source\PSoC5/USBFS_episr.c ****         #if (defined(USBFS_ENABLE_MIDI_STREAMING) && USBFS_ISR_SERVICE_MIDI_OUT)
 380:.\Generated_Source\PSoC5/USBFS_episr.c ****             if(USBFS_midi_out_ep == USBFS_EP6)
 381:.\Generated_Source\PSoC5/USBFS_episr.c ****             {
 382:.\Generated_Source\PSoC5/USBFS_episr.c ****                 USBFS_MIDI_OUT_EP_Service();
 383:.\Generated_Source\PSoC5/USBFS_episr.c ****             }
 384:.\Generated_Source\PSoC5/USBFS_episr.c ****         #endif /* End USBFS_ISR_SERVICE_MIDI_OUT  */
 385:.\Generated_Source\PSoC5/USBFS_episr.c **** 
 386:.\Generated_Source\PSoC5/USBFS_episr.c ****         /* `#START EP6_END_USER_CODE` Place your code here */
 387:.\Generated_Source\PSoC5/USBFS_episr.c **** 
 388:.\Generated_Source\PSoC5/USBFS_episr.c ****         /* `#END` */
 389:.\Generated_Source\PSoC5/USBFS_episr.c **** 
 390:.\Generated_Source\PSoC5/USBFS_episr.c ****         #if (defined(USBFS_ENABLE_MIDI_STREAMING) && USBFS_ISR_SERVICE_MIDI_OUT && CY_PSOC3)
 391:.\Generated_Source\PSoC5/USBFS_episr.c ****             EA = int_en;
ARM GAS  C:\Users\MICHA_~1\AppData\Local\Temp\ccP1x52T.s 			page 10


 392:.\Generated_Source\PSoC5/USBFS_episr.c ****         #endif /* CY_PSOC3 & USBFS_ISR_SERVICE_MIDI_OUT  */
 393:.\Generated_Source\PSoC5/USBFS_episr.c ****     }
 394:.\Generated_Source\PSoC5/USBFS_episr.c **** 
 395:.\Generated_Source\PSoC5/USBFS_episr.c **** #endif   /* End USBFS_EP6_ISR_REMOVE */
 396:.\Generated_Source\PSoC5/USBFS_episr.c **** 
 397:.\Generated_Source\PSoC5/USBFS_episr.c **** 
 398:.\Generated_Source\PSoC5/USBFS_episr.c **** #if(USBFS_EP7_ISR_REMOVE == 0u)
 399:.\Generated_Source\PSoC5/USBFS_episr.c **** 
 400:.\Generated_Source\PSoC5/USBFS_episr.c ****     /*******************************************************************************
 401:.\Generated_Source\PSoC5/USBFS_episr.c ****     * Function Name: USBFS_EP_7_ISR
 402:.\Generated_Source\PSoC5/USBFS_episr.c ****     ********************************************************************************
 403:.\Generated_Source\PSoC5/USBFS_episr.c ****     *
 404:.\Generated_Source\PSoC5/USBFS_episr.c ****     * Summary:
 405:.\Generated_Source\PSoC5/USBFS_episr.c ****     *  Endpoint 7 Interrupt Service Routine
 406:.\Generated_Source\PSoC5/USBFS_episr.c ****     *
 407:.\Generated_Source\PSoC5/USBFS_episr.c ****     * Parameters:
 408:.\Generated_Source\PSoC5/USBFS_episr.c ****     *  None.
 409:.\Generated_Source\PSoC5/USBFS_episr.c ****     *
 410:.\Generated_Source\PSoC5/USBFS_episr.c ****     * Return:
 411:.\Generated_Source\PSoC5/USBFS_episr.c ****     *  None.
 412:.\Generated_Source\PSoC5/USBFS_episr.c ****     *
 413:.\Generated_Source\PSoC5/USBFS_episr.c ****     *******************************************************************************/
 414:.\Generated_Source\PSoC5/USBFS_episr.c ****     CY_ISR(USBFS_EP_7_ISR)
 415:.\Generated_Source\PSoC5/USBFS_episr.c ****     {
 416:.\Generated_Source\PSoC5/USBFS_episr.c ****         #if (defined(USBFS_ENABLE_MIDI_STREAMING) && USBFS_ISR_SERVICE_MIDI_OUT && CY_PSOC3)
 417:.\Generated_Source\PSoC5/USBFS_episr.c ****             uint8 int_en;
 418:.\Generated_Source\PSoC5/USBFS_episr.c ****         #endif /* CY_PSOC3 & USBFS_ISR_SERVICE_MIDI_OUT  */
 419:.\Generated_Source\PSoC5/USBFS_episr.c **** 
 420:.\Generated_Source\PSoC5/USBFS_episr.c ****         /* `#START EP7_USER_CODE` Place your code here */
 421:.\Generated_Source\PSoC5/USBFS_episr.c **** 
 422:.\Generated_Source\PSoC5/USBFS_episr.c ****         /* `#END` */
 423:.\Generated_Source\PSoC5/USBFS_episr.c **** 
 424:.\Generated_Source\PSoC5/USBFS_episr.c ****         #if (defined(USBFS_ENABLE_MIDI_STREAMING) && USBFS_ISR_SERVICE_MIDI_OUT && CY_PSOC3)
 425:.\Generated_Source\PSoC5/USBFS_episr.c ****             int_en = EA;
 426:.\Generated_Source\PSoC5/USBFS_episr.c ****             CyGlobalIntEnable;  /* Make sure nested interrupt is enabled */
 427:.\Generated_Source\PSoC5/USBFS_episr.c ****         #endif /* CY_PSOC3 & USBFS_ISR_SERVICE_MIDI_OUT  */
 428:.\Generated_Source\PSoC5/USBFS_episr.c **** 
 429:.\Generated_Source\PSoC5/USBFS_episr.c ****         CY_GET_REG8(USBFS_SIE_EP7_CR0_PTR); /* Must read the mode reg */
 430:.\Generated_Source\PSoC5/USBFS_episr.c ****         /* Do not toggle ISOC endpoint */
 431:.\Generated_Source\PSoC5/USBFS_episr.c ****         if((USBFS_EP[USBFS_EP7].attrib & USBFS_EP_TYPE_MASK) !=
 432:.\Generated_Source\PSoC5/USBFS_episr.c ****                                                                                     USBFS_EP_TYPE_I
 433:.\Generated_Source\PSoC5/USBFS_episr.c ****         {
 434:.\Generated_Source\PSoC5/USBFS_episr.c ****             USBFS_EP[USBFS_EP7].epToggle ^= USBFS_EPX_CNT_DATA_TOGGLE;
 435:.\Generated_Source\PSoC5/USBFS_episr.c ****         }
 436:.\Generated_Source\PSoC5/USBFS_episr.c ****         USBFS_EP[USBFS_EP7].apiEpState = USBFS_EVENT_PENDING;
 437:.\Generated_Source\PSoC5/USBFS_episr.c ****         CY_SET_REG8(USBFS_SIE_EP_INT_SR_PTR, CY_GET_REG8(USBFS_SIE_EP_INT_SR_PTR)
 438:.\Generated_Source\PSoC5/USBFS_episr.c ****                                                                         & (uint8)~USBFS_SIE_EP_INT_
 439:.\Generated_Source\PSoC5/USBFS_episr.c **** 
 440:.\Generated_Source\PSoC5/USBFS_episr.c ****         #if (defined(USBFS_ENABLE_MIDI_STREAMING) && USBFS_ISR_SERVICE_MIDI_OUT)
 441:.\Generated_Source\PSoC5/USBFS_episr.c ****             if(USBFS_midi_out_ep == USBFS_EP7)
 442:.\Generated_Source\PSoC5/USBFS_episr.c ****             {
 443:.\Generated_Source\PSoC5/USBFS_episr.c ****                 USBFS_MIDI_OUT_EP_Service();
 444:.\Generated_Source\PSoC5/USBFS_episr.c ****             }
 445:.\Generated_Source\PSoC5/USBFS_episr.c ****         #endif /* End USBFS_ISR_SERVICE_MIDI_OUT  */
 446:.\Generated_Source\PSoC5/USBFS_episr.c **** 
 447:.\Generated_Source\PSoC5/USBFS_episr.c ****         /* `#START EP7_END_USER_CODE` Place your code here */
 448:.\Generated_Source\PSoC5/USBFS_episr.c **** 
ARM GAS  C:\Users\MICHA_~1\AppData\Local\Temp\ccP1x52T.s 			page 11


 449:.\Generated_Source\PSoC5/USBFS_episr.c ****         /* `#END` */
 450:.\Generated_Source\PSoC5/USBFS_episr.c **** 
 451:.\Generated_Source\PSoC5/USBFS_episr.c ****         #if (defined(USBFS_ENABLE_MIDI_STREAMING) && USBFS_ISR_SERVICE_MIDI_OUT && CY_PSOC3)
 452:.\Generated_Source\PSoC5/USBFS_episr.c ****             EA = int_en;
 453:.\Generated_Source\PSoC5/USBFS_episr.c ****         #endif /* CY_PSOC3 & USBFS_ISR_SERVICE_MIDI_OUT  */
 454:.\Generated_Source\PSoC5/USBFS_episr.c ****     }
 455:.\Generated_Source\PSoC5/USBFS_episr.c **** 
 456:.\Generated_Source\PSoC5/USBFS_episr.c **** #endif   /* End USBFS_EP7_ISR_REMOVE */
 457:.\Generated_Source\PSoC5/USBFS_episr.c **** 
 458:.\Generated_Source\PSoC5/USBFS_episr.c **** 
 459:.\Generated_Source\PSoC5/USBFS_episr.c **** #if(USBFS_EP8_ISR_REMOVE == 0u)
 460:.\Generated_Source\PSoC5/USBFS_episr.c **** 
 461:.\Generated_Source\PSoC5/USBFS_episr.c ****     /*******************************************************************************
 462:.\Generated_Source\PSoC5/USBFS_episr.c ****     * Function Name: USBFS_EP_8_ISR
 463:.\Generated_Source\PSoC5/USBFS_episr.c ****     ********************************************************************************
 464:.\Generated_Source\PSoC5/USBFS_episr.c ****     *
 465:.\Generated_Source\PSoC5/USBFS_episr.c ****     * Summary:
 466:.\Generated_Source\PSoC5/USBFS_episr.c ****     *  Endpoint 8 Interrupt Service Routine
 467:.\Generated_Source\PSoC5/USBFS_episr.c ****     *
 468:.\Generated_Source\PSoC5/USBFS_episr.c ****     * Parameters:
 469:.\Generated_Source\PSoC5/USBFS_episr.c ****     *  None.
 470:.\Generated_Source\PSoC5/USBFS_episr.c ****     *
 471:.\Generated_Source\PSoC5/USBFS_episr.c ****     * Return:
 472:.\Generated_Source\PSoC5/USBFS_episr.c ****     *  None.
 473:.\Generated_Source\PSoC5/USBFS_episr.c ****     *
 474:.\Generated_Source\PSoC5/USBFS_episr.c ****     *******************************************************************************/
 475:.\Generated_Source\PSoC5/USBFS_episr.c ****     CY_ISR(USBFS_EP_8_ISR)
 476:.\Generated_Source\PSoC5/USBFS_episr.c ****     {
 477:.\Generated_Source\PSoC5/USBFS_episr.c ****         #if (defined(USBFS_ENABLE_MIDI_STREAMING) && USBFS_ISR_SERVICE_MIDI_OUT && CY_PSOC3)
 478:.\Generated_Source\PSoC5/USBFS_episr.c ****             uint8 int_en;
 479:.\Generated_Source\PSoC5/USBFS_episr.c ****         #endif /* CY_PSOC3 & USBFS_ISR_SERVICE_MIDI_OUT  */
 480:.\Generated_Source\PSoC5/USBFS_episr.c **** 
 481:.\Generated_Source\PSoC5/USBFS_episr.c ****         /* `#START EP8_USER_CODE` Place your code here */
 482:.\Generated_Source\PSoC5/USBFS_episr.c **** 
 483:.\Generated_Source\PSoC5/USBFS_episr.c ****         /* `#END` */
 484:.\Generated_Source\PSoC5/USBFS_episr.c **** 
 485:.\Generated_Source\PSoC5/USBFS_episr.c ****         #if (defined(USBFS_ENABLE_MIDI_STREAMING) && USBFS_ISR_SERVICE_MIDI_OUT && CY_PSOC3)
 486:.\Generated_Source\PSoC5/USBFS_episr.c ****             int_en = EA;
 487:.\Generated_Source\PSoC5/USBFS_episr.c ****             CyGlobalIntEnable;  /* Make sure nested interrupt is enabled */
 488:.\Generated_Source\PSoC5/USBFS_episr.c ****         #endif /* CY_PSOC3 & USBFS_ISR_SERVICE_MIDI_OUT  */
 489:.\Generated_Source\PSoC5/USBFS_episr.c **** 
 490:.\Generated_Source\PSoC5/USBFS_episr.c ****         CY_GET_REG8(USBFS_SIE_EP8_CR0_PTR); /* Must read the mode reg */
 491:.\Generated_Source\PSoC5/USBFS_episr.c ****         /* Do not toggle ISOC endpoint */
 492:.\Generated_Source\PSoC5/USBFS_episr.c ****         if((USBFS_EP[USBFS_EP8].attrib & USBFS_EP_TYPE_MASK) !=
 493:.\Generated_Source\PSoC5/USBFS_episr.c ****                                                                                     USBFS_EP_TYPE_I
 494:.\Generated_Source\PSoC5/USBFS_episr.c ****         {
 495:.\Generated_Source\PSoC5/USBFS_episr.c ****             USBFS_EP[USBFS_EP8].epToggle ^= USBFS_EPX_CNT_DATA_TOGGLE;
 496:.\Generated_Source\PSoC5/USBFS_episr.c ****         }
 497:.\Generated_Source\PSoC5/USBFS_episr.c ****         USBFS_EP[USBFS_EP8].apiEpState = USBFS_EVENT_PENDING;
 498:.\Generated_Source\PSoC5/USBFS_episr.c ****         CY_SET_REG8(USBFS_SIE_EP_INT_SR_PTR, CY_GET_REG8(USBFS_SIE_EP_INT_SR_PTR)
 499:.\Generated_Source\PSoC5/USBFS_episr.c ****                                                                         & (uint8)~USBFS_SIE_EP_INT_
 500:.\Generated_Source\PSoC5/USBFS_episr.c **** 
 501:.\Generated_Source\PSoC5/USBFS_episr.c ****         #if (defined(USBFS_ENABLE_MIDI_STREAMING) && USBFS_ISR_SERVICE_MIDI_OUT)
 502:.\Generated_Source\PSoC5/USBFS_episr.c ****             if(USBFS_midi_out_ep == USBFS_EP8)
 503:.\Generated_Source\PSoC5/USBFS_episr.c ****             {
 504:.\Generated_Source\PSoC5/USBFS_episr.c ****                 USBFS_MIDI_OUT_EP_Service();
 505:.\Generated_Source\PSoC5/USBFS_episr.c ****             }
ARM GAS  C:\Users\MICHA_~1\AppData\Local\Temp\ccP1x52T.s 			page 12


 506:.\Generated_Source\PSoC5/USBFS_episr.c ****         #endif /* End USBFS_ISR_SERVICE_MIDI_OUT */
 507:.\Generated_Source\PSoC5/USBFS_episr.c **** 
 508:.\Generated_Source\PSoC5/USBFS_episr.c ****         /* `#START EP8_END_USER_CODE` Place your code here */
 509:.\Generated_Source\PSoC5/USBFS_episr.c **** 
 510:.\Generated_Source\PSoC5/USBFS_episr.c ****         /* `#END` */
 511:.\Generated_Source\PSoC5/USBFS_episr.c **** 
 512:.\Generated_Source\PSoC5/USBFS_episr.c ****         #if (defined(USBFS_ENABLE_MIDI_STREAMING) && USBFS_ISR_SERVICE_MIDI_OUT && CY_PSOC3)
 513:.\Generated_Source\PSoC5/USBFS_episr.c ****             EA = int_en;
 514:.\Generated_Source\PSoC5/USBFS_episr.c ****         #endif /* CY_PSOC3 & USBFS_ISR_SERVICE_MIDI_OUT  */
 515:.\Generated_Source\PSoC5/USBFS_episr.c ****     }
 516:.\Generated_Source\PSoC5/USBFS_episr.c **** 
 517:.\Generated_Source\PSoC5/USBFS_episr.c **** #endif   /* End USBFS_EP8_ISR_REMOVE */
 518:.\Generated_Source\PSoC5/USBFS_episr.c **** 
 519:.\Generated_Source\PSoC5/USBFS_episr.c **** 
 520:.\Generated_Source\PSoC5/USBFS_episr.c **** /*******************************************************************************
 521:.\Generated_Source\PSoC5/USBFS_episr.c **** * Function Name: USBFS_SOF_ISR
 522:.\Generated_Source\PSoC5/USBFS_episr.c **** ********************************************************************************
 523:.\Generated_Source\PSoC5/USBFS_episr.c **** *
 524:.\Generated_Source\PSoC5/USBFS_episr.c **** * Summary:
 525:.\Generated_Source\PSoC5/USBFS_episr.c **** *  Start of Frame Interrupt Service Routine
 526:.\Generated_Source\PSoC5/USBFS_episr.c **** *
 527:.\Generated_Source\PSoC5/USBFS_episr.c **** * Parameters:
 528:.\Generated_Source\PSoC5/USBFS_episr.c **** *  None.
 529:.\Generated_Source\PSoC5/USBFS_episr.c **** *
 530:.\Generated_Source\PSoC5/USBFS_episr.c **** * Return:
 531:.\Generated_Source\PSoC5/USBFS_episr.c **** *  None.
 532:.\Generated_Source\PSoC5/USBFS_episr.c **** *
 533:.\Generated_Source\PSoC5/USBFS_episr.c **** *******************************************************************************/
 534:.\Generated_Source\PSoC5/USBFS_episr.c **** CY_ISR(USBFS_SOF_ISR)
 535:.\Generated_Source\PSoC5/USBFS_episr.c **** {
 121              		.loc 1 535 0
 122              		.cfi_startproc
 123              		@ args = 0, pretend = 0, frame = 0
 124              		@ frame_needed = 0, uses_anonymous_args = 0
 125              		@ link register save eliminated.
 126 0000 7047     		bx	lr
 127              		.cfi_endproc
 128              	.LFE2:
 129              		.size	USBFS_SOF_ISR, .-USBFS_SOF_ISR
 130              		.section	.text.USBFS_BUS_RESET_ISR,"ax",%progbits
 131              		.align	1
 132              		.global	USBFS_BUS_RESET_ISR
 133              		.thumb
 134              		.thumb_func
 135              		.type	USBFS_BUS_RESET_ISR, %function
 136              	USBFS_BUS_RESET_ISR:
 137              	.LFB3:
 536:.\Generated_Source\PSoC5/USBFS_episr.c ****     /* `#START SOF_USER_CODE` Place your code here */
 537:.\Generated_Source\PSoC5/USBFS_episr.c **** 
 538:.\Generated_Source\PSoC5/USBFS_episr.c ****     /* `#END` */
 539:.\Generated_Source\PSoC5/USBFS_episr.c **** }
 540:.\Generated_Source\PSoC5/USBFS_episr.c **** 
 541:.\Generated_Source\PSoC5/USBFS_episr.c **** 
 542:.\Generated_Source\PSoC5/USBFS_episr.c **** /*******************************************************************************
 543:.\Generated_Source\PSoC5/USBFS_episr.c **** * Function Name: USBFS_BUS_RESET_ISR
 544:.\Generated_Source\PSoC5/USBFS_episr.c **** ********************************************************************************
 545:.\Generated_Source\PSoC5/USBFS_episr.c **** *
ARM GAS  C:\Users\MICHA_~1\AppData\Local\Temp\ccP1x52T.s 			page 13


 546:.\Generated_Source\PSoC5/USBFS_episr.c **** * Summary:
 547:.\Generated_Source\PSoC5/USBFS_episr.c **** *  USB Bus Reset Interrupt Service Routine.  Calls _Start with the same
 548:.\Generated_Source\PSoC5/USBFS_episr.c **** *  parameters as the last USER call to _Start
 549:.\Generated_Source\PSoC5/USBFS_episr.c **** *
 550:.\Generated_Source\PSoC5/USBFS_episr.c **** * Parameters:
 551:.\Generated_Source\PSoC5/USBFS_episr.c **** *  None.
 552:.\Generated_Source\PSoC5/USBFS_episr.c **** *
 553:.\Generated_Source\PSoC5/USBFS_episr.c **** * Return:
 554:.\Generated_Source\PSoC5/USBFS_episr.c **** *  None.
 555:.\Generated_Source\PSoC5/USBFS_episr.c **** *
 556:.\Generated_Source\PSoC5/USBFS_episr.c **** *******************************************************************************/
 557:.\Generated_Source\PSoC5/USBFS_episr.c **** CY_ISR(USBFS_BUS_RESET_ISR)
 558:.\Generated_Source\PSoC5/USBFS_episr.c **** {
 138              		.loc 1 558 0
 139              		.cfi_startproc
 140              		@ args = 0, pretend = 0, frame = 0
 141              		@ frame_needed = 0, uses_anonymous_args = 0
 142              		@ link register save eliminated.
 559:.\Generated_Source\PSoC5/USBFS_episr.c ****     /* `#START BUS_RESET_USER_CODE` Place your code here */
 560:.\Generated_Source\PSoC5/USBFS_episr.c **** 
 561:.\Generated_Source\PSoC5/USBFS_episr.c ****     /* `#END` */
 562:.\Generated_Source\PSoC5/USBFS_episr.c **** 
 563:.\Generated_Source\PSoC5/USBFS_episr.c ****     USBFS_ReInitComponent();
 564:.\Generated_Source\PSoC5/USBFS_episr.c **** }
 143              		.loc 1 564 0
 563:.\Generated_Source\PSoC5/USBFS_episr.c ****     USBFS_ReInitComponent();
 144              		.loc 1 563 0
 145 0000 FFF7FEBF 		b	USBFS_ReInitComponent
 146              	.LVL0:
 147              		.cfi_endproc
 148              	.LFE3:
 149              		.size	USBFS_BUS_RESET_ISR, .-USBFS_BUS_RESET_ISR
 150              		.text
 151              	.Letext0:
 152              		.file 2 ".\\Generated_Source\\PSoC5\\cytypes.h"
 153              		.file 3 ".\\Generated_Source\\PSoC5\\USBFS.h"
 154              		.file 4 ".\\Generated_Source\\PSoC5\\USBFS_pvt.h"