ARM GAS  C:\Users\MICHA_~1\AppData\Local\Temp\ccyD9XKy.s 			page 1


   1              		.syntax unified
   2              		.cpu cortex-m3
   3              		.fpu softvfp
   4              		.eabi_attribute 20, 1
   5              		.eabi_attribute 21, 1
   6              		.eabi_attribute 23, 3
   7              		.eabi_attribute 24, 1
   8              		.eabi_attribute 25, 1
   9              		.eabi_attribute 26, 1
  10              		.eabi_attribute 30, 4
  11              		.eabi_attribute 34, 1
  12              		.eabi_attribute 18, 4
  13              		.thumb
  14              		.file	"USBFS_drv.c"
  15              		.text
  16              	.Ltext0:
  17              		.cfi_sections	.debug_frame
  18              		.section	.text.USBFS_LoadEP0,"ax",%progbits
  19              		.align	1
  20              		.global	USBFS_LoadEP0
  21              		.thumb
  22              		.thumb_func
  23              		.type	USBFS_LoadEP0, %function
  24              	USBFS_LoadEP0:
  25              	.LFB4:
  26              		.file 1 ".\\Generated_Source\\PSoC5\\USBFS_drv.c"
   1:.\Generated_Source\PSoC5/USBFS_drv.c **** /*******************************************************************************
   2:.\Generated_Source\PSoC5/USBFS_drv.c **** * File Name: USBFS_drv.c
   3:.\Generated_Source\PSoC5/USBFS_drv.c **** * Version 2.60
   4:.\Generated_Source\PSoC5/USBFS_drv.c **** *
   5:.\Generated_Source\PSoC5/USBFS_drv.c **** * Description:
   6:.\Generated_Source\PSoC5/USBFS_drv.c **** *  Endpoint 0 Driver for the USBFS Component.
   7:.\Generated_Source\PSoC5/USBFS_drv.c **** *
   8:.\Generated_Source\PSoC5/USBFS_drv.c **** * Note:
   9:.\Generated_Source\PSoC5/USBFS_drv.c **** *
  10:.\Generated_Source\PSoC5/USBFS_drv.c **** ********************************************************************************
  11:.\Generated_Source\PSoC5/USBFS_drv.c **** * Copyright 2008-2013, Cypress Semiconductor Corporation.  All rights reserved.
  12:.\Generated_Source\PSoC5/USBFS_drv.c **** * You may use this file only in accordance with the license, terms, conditions,
  13:.\Generated_Source\PSoC5/USBFS_drv.c **** * disclaimers, and limitations in the end user license agreement accompanying
  14:.\Generated_Source\PSoC5/USBFS_drv.c **** * the software package with which this file was provided.
  15:.\Generated_Source\PSoC5/USBFS_drv.c **** *******************************************************************************/
  16:.\Generated_Source\PSoC5/USBFS_drv.c **** 
  17:.\Generated_Source\PSoC5/USBFS_drv.c **** #include "USBFS.h"
  18:.\Generated_Source\PSoC5/USBFS_drv.c **** #include "USBFS_pvt.h"
  19:.\Generated_Source\PSoC5/USBFS_drv.c **** 
  20:.\Generated_Source\PSoC5/USBFS_drv.c **** 
  21:.\Generated_Source\PSoC5/USBFS_drv.c **** /***************************************
  22:.\Generated_Source\PSoC5/USBFS_drv.c **** * Global data allocation
  23:.\Generated_Source\PSoC5/USBFS_drv.c **** ***************************************/
  24:.\Generated_Source\PSoC5/USBFS_drv.c **** 
  25:.\Generated_Source\PSoC5/USBFS_drv.c **** volatile T_USBFS_EP_CTL_BLOCK USBFS_EP[USBFS_MAX_EP];
  26:.\Generated_Source\PSoC5/USBFS_drv.c **** volatile uint8 USBFS_configuration;
  27:.\Generated_Source\PSoC5/USBFS_drv.c **** volatile uint8 USBFS_interfaceNumber;
  28:.\Generated_Source\PSoC5/USBFS_drv.c **** volatile uint8 USBFS_configurationChanged;
  29:.\Generated_Source\PSoC5/USBFS_drv.c **** volatile uint8 USBFS_deviceAddress;
  30:.\Generated_Source\PSoC5/USBFS_drv.c **** volatile uint8 USBFS_deviceStatus;
  31:.\Generated_Source\PSoC5/USBFS_drv.c **** volatile uint8 USBFS_interfaceSetting[USBFS_MAX_INTERFACES_NUMBER];
ARM GAS  C:\Users\MICHA_~1\AppData\Local\Temp\ccyD9XKy.s 			page 2


  32:.\Generated_Source\PSoC5/USBFS_drv.c **** volatile uint8 USBFS_interfaceSetting_last[USBFS_MAX_INTERFACES_NUMBER];
  33:.\Generated_Source\PSoC5/USBFS_drv.c **** volatile uint8 USBFS_interfaceStatus[USBFS_MAX_INTERFACES_NUMBER];
  34:.\Generated_Source\PSoC5/USBFS_drv.c **** volatile uint8 USBFS_device;
  35:.\Generated_Source\PSoC5/USBFS_drv.c **** const uint8 CYCODE *USBFS_interfaceClass;
  36:.\Generated_Source\PSoC5/USBFS_drv.c **** 
  37:.\Generated_Source\PSoC5/USBFS_drv.c **** 
  38:.\Generated_Source\PSoC5/USBFS_drv.c **** /***************************************
  39:.\Generated_Source\PSoC5/USBFS_drv.c **** * Local data allocation
  40:.\Generated_Source\PSoC5/USBFS_drv.c **** ***************************************/
  41:.\Generated_Source\PSoC5/USBFS_drv.c **** 
  42:.\Generated_Source\PSoC5/USBFS_drv.c **** volatile uint8 USBFS_ep0Toggle;
  43:.\Generated_Source\PSoC5/USBFS_drv.c **** volatile uint8 USBFS_lastPacketSize;
  44:.\Generated_Source\PSoC5/USBFS_drv.c **** volatile uint8 USBFS_transferState;
  45:.\Generated_Source\PSoC5/USBFS_drv.c **** volatile T_USBFS_TD USBFS_currentTD;
  46:.\Generated_Source\PSoC5/USBFS_drv.c **** volatile uint8 USBFS_ep0Mode;
  47:.\Generated_Source\PSoC5/USBFS_drv.c **** volatile uint8 USBFS_ep0Count;
  48:.\Generated_Source\PSoC5/USBFS_drv.c **** volatile uint16 USBFS_transferByteCount;
  49:.\Generated_Source\PSoC5/USBFS_drv.c **** 
  50:.\Generated_Source\PSoC5/USBFS_drv.c **** 
  51:.\Generated_Source\PSoC5/USBFS_drv.c **** /*******************************************************************************
  52:.\Generated_Source\PSoC5/USBFS_drv.c **** * Function Name: USBFS_ep_0_Interrupt
  53:.\Generated_Source\PSoC5/USBFS_drv.c **** ********************************************************************************
  54:.\Generated_Source\PSoC5/USBFS_drv.c **** *
  55:.\Generated_Source\PSoC5/USBFS_drv.c **** * Summary:
  56:.\Generated_Source\PSoC5/USBFS_drv.c **** *  This Interrupt Service Routine handles Endpoint 0 (Control Pipe) traffic.
  57:.\Generated_Source\PSoC5/USBFS_drv.c **** *  It dispatches setup requests and handles the data and status stages.
  58:.\Generated_Source\PSoC5/USBFS_drv.c **** *
  59:.\Generated_Source\PSoC5/USBFS_drv.c **** * Parameters:
  60:.\Generated_Source\PSoC5/USBFS_drv.c **** *  None.
  61:.\Generated_Source\PSoC5/USBFS_drv.c **** *
  62:.\Generated_Source\PSoC5/USBFS_drv.c **** * Return:
  63:.\Generated_Source\PSoC5/USBFS_drv.c **** *  None.
  64:.\Generated_Source\PSoC5/USBFS_drv.c **** *
  65:.\Generated_Source\PSoC5/USBFS_drv.c **** *******************************************************************************/
  66:.\Generated_Source\PSoC5/USBFS_drv.c **** CY_ISR(USBFS_EP_0_ISR)
  67:.\Generated_Source\PSoC5/USBFS_drv.c **** {
  68:.\Generated_Source\PSoC5/USBFS_drv.c ****     uint8 bRegTemp;
  69:.\Generated_Source\PSoC5/USBFS_drv.c ****     uint8 modifyReg;
  70:.\Generated_Source\PSoC5/USBFS_drv.c **** 
  71:.\Generated_Source\PSoC5/USBFS_drv.c **** 
  72:.\Generated_Source\PSoC5/USBFS_drv.c ****     bRegTemp = CY_GET_REG8(USBFS_EP0_CR_PTR);
  73:.\Generated_Source\PSoC5/USBFS_drv.c ****     if ((bRegTemp & USBFS_MODE_ACKD) != 0u)
  74:.\Generated_Source\PSoC5/USBFS_drv.c ****     {
  75:.\Generated_Source\PSoC5/USBFS_drv.c ****         modifyReg = 1u;
  76:.\Generated_Source\PSoC5/USBFS_drv.c ****         if ((bRegTemp & USBFS_MODE_SETUP_RCVD) != 0u)
  77:.\Generated_Source\PSoC5/USBFS_drv.c ****         {
  78:.\Generated_Source\PSoC5/USBFS_drv.c ****             if((bRegTemp & USBFS_MODE_MASK) != USBFS_MODE_NAK_IN_OUT)
  79:.\Generated_Source\PSoC5/USBFS_drv.c ****             {
  80:.\Generated_Source\PSoC5/USBFS_drv.c ****                 modifyReg = 0u;                                     /* When mode not NAK_IN_OUT => 
  81:.\Generated_Source\PSoC5/USBFS_drv.c ****             }
  82:.\Generated_Source\PSoC5/USBFS_drv.c ****             else
  83:.\Generated_Source\PSoC5/USBFS_drv.c ****             {
  84:.\Generated_Source\PSoC5/USBFS_drv.c ****                 USBFS_HandleSetup();
  85:.\Generated_Source\PSoC5/USBFS_drv.c ****                 if((USBFS_ep0Mode & USBFS_MODE_SETUP_RCVD) != 0u)
  86:.\Generated_Source\PSoC5/USBFS_drv.c ****                 {
  87:.\Generated_Source\PSoC5/USBFS_drv.c ****                     modifyReg = 0u;                         /* if SETUP bit set -> exit without mod
  88:.\Generated_Source\PSoC5/USBFS_drv.c ****                 }
ARM GAS  C:\Users\MICHA_~1\AppData\Local\Temp\ccyD9XKy.s 			page 3


  89:.\Generated_Source\PSoC5/USBFS_drv.c **** 
  90:.\Generated_Source\PSoC5/USBFS_drv.c ****             }
  91:.\Generated_Source\PSoC5/USBFS_drv.c ****         }
  92:.\Generated_Source\PSoC5/USBFS_drv.c ****         else if ((bRegTemp & USBFS_MODE_IN_RCVD) != 0u)
  93:.\Generated_Source\PSoC5/USBFS_drv.c ****         {
  94:.\Generated_Source\PSoC5/USBFS_drv.c ****             USBFS_HandleIN();
  95:.\Generated_Source\PSoC5/USBFS_drv.c ****         }
  96:.\Generated_Source\PSoC5/USBFS_drv.c ****         else if ((bRegTemp & USBFS_MODE_OUT_RCVD) != 0u)
  97:.\Generated_Source\PSoC5/USBFS_drv.c ****         {
  98:.\Generated_Source\PSoC5/USBFS_drv.c ****             USBFS_HandleOUT();
  99:.\Generated_Source\PSoC5/USBFS_drv.c ****         }
 100:.\Generated_Source\PSoC5/USBFS_drv.c ****         else
 101:.\Generated_Source\PSoC5/USBFS_drv.c ****         {
 102:.\Generated_Source\PSoC5/USBFS_drv.c ****             modifyReg = 0u;
 103:.\Generated_Source\PSoC5/USBFS_drv.c ****         }
 104:.\Generated_Source\PSoC5/USBFS_drv.c ****         if(modifyReg != 0u)
 105:.\Generated_Source\PSoC5/USBFS_drv.c ****         {
 106:.\Generated_Source\PSoC5/USBFS_drv.c ****             bRegTemp = CY_GET_REG8(USBFS_EP0_CR_PTR);    /* unlock registers */
 107:.\Generated_Source\PSoC5/USBFS_drv.c ****             if((bRegTemp & USBFS_MODE_SETUP_RCVD) == 0u)  /* Check if SETUP bit is not set, otherwi
 108:.\Generated_Source\PSoC5/USBFS_drv.c ****             {
 109:.\Generated_Source\PSoC5/USBFS_drv.c ****                 /* Update the count register */
 110:.\Generated_Source\PSoC5/USBFS_drv.c ****                 bRegTemp = USBFS_ep0Toggle | USBFS_ep0Count;
 111:.\Generated_Source\PSoC5/USBFS_drv.c ****                 CY_SET_REG8(USBFS_EP0_CNT_PTR, bRegTemp);
 112:.\Generated_Source\PSoC5/USBFS_drv.c ****                 if(bRegTemp == CY_GET_REG8(USBFS_EP0_CNT_PTR))   /* continue if writing was success
 113:.\Generated_Source\PSoC5/USBFS_drv.c ****                 {
 114:.\Generated_Source\PSoC5/USBFS_drv.c ****                     do
 115:.\Generated_Source\PSoC5/USBFS_drv.c ****                     {
 116:.\Generated_Source\PSoC5/USBFS_drv.c ****                         modifyReg = USBFS_ep0Mode;       /* Init temporary variable */
 117:.\Generated_Source\PSoC5/USBFS_drv.c ****                         /* Unlock registers */
 118:.\Generated_Source\PSoC5/USBFS_drv.c ****                         bRegTemp = CY_GET_REG8(USBFS_EP0_CR_PTR) & USBFS_MODE_SETUP_RCVD;
 119:.\Generated_Source\PSoC5/USBFS_drv.c ****                         if(bRegTemp == 0u)                          /* Check if SETUP bit is not se
 120:.\Generated_Source\PSoC5/USBFS_drv.c ****                         {
 121:.\Generated_Source\PSoC5/USBFS_drv.c ****                             /* Set the Mode Register  */
 122:.\Generated_Source\PSoC5/USBFS_drv.c ****                             CY_SET_REG8(USBFS_EP0_CR_PTR, USBFS_ep0Mode);
 123:.\Generated_Source\PSoC5/USBFS_drv.c ****                             /* Writing check */
 124:.\Generated_Source\PSoC5/USBFS_drv.c ****                             modifyReg = CY_GET_REG8(USBFS_EP0_CR_PTR) & USBFS_MODE_MASK;
 125:.\Generated_Source\PSoC5/USBFS_drv.c ****                         }
 126:.\Generated_Source\PSoC5/USBFS_drv.c ****                     }while(modifyReg != USBFS_ep0Mode);  /* Repeat if writing was not successful */
 127:.\Generated_Source\PSoC5/USBFS_drv.c ****                 }
 128:.\Generated_Source\PSoC5/USBFS_drv.c ****             }
 129:.\Generated_Source\PSoC5/USBFS_drv.c ****         }
 130:.\Generated_Source\PSoC5/USBFS_drv.c ****     }
 131:.\Generated_Source\PSoC5/USBFS_drv.c **** }
 132:.\Generated_Source\PSoC5/USBFS_drv.c **** 
 133:.\Generated_Source\PSoC5/USBFS_drv.c **** 
 134:.\Generated_Source\PSoC5/USBFS_drv.c **** /*******************************************************************************
 135:.\Generated_Source\PSoC5/USBFS_drv.c **** * Function Name: USBFS_HandleSetup
 136:.\Generated_Source\PSoC5/USBFS_drv.c **** ********************************************************************************
 137:.\Generated_Source\PSoC5/USBFS_drv.c **** *
 138:.\Generated_Source\PSoC5/USBFS_drv.c **** * Summary:
 139:.\Generated_Source\PSoC5/USBFS_drv.c **** *  This Routine dispatches requests for the four USB request types
 140:.\Generated_Source\PSoC5/USBFS_drv.c **** *
 141:.\Generated_Source\PSoC5/USBFS_drv.c **** * Parameters:
 142:.\Generated_Source\PSoC5/USBFS_drv.c **** *  None.
 143:.\Generated_Source\PSoC5/USBFS_drv.c **** *
 144:.\Generated_Source\PSoC5/USBFS_drv.c **** * Return:
 145:.\Generated_Source\PSoC5/USBFS_drv.c **** *  None.
ARM GAS  C:\Users\MICHA_~1\AppData\Local\Temp\ccyD9XKy.s 			page 4


 146:.\Generated_Source\PSoC5/USBFS_drv.c **** *
 147:.\Generated_Source\PSoC5/USBFS_drv.c **** * Reentrant:
 148:.\Generated_Source\PSoC5/USBFS_drv.c **** *  No.
 149:.\Generated_Source\PSoC5/USBFS_drv.c **** *
 150:.\Generated_Source\PSoC5/USBFS_drv.c **** *******************************************************************************/
 151:.\Generated_Source\PSoC5/USBFS_drv.c **** void USBFS_HandleSetup(void) 
 152:.\Generated_Source\PSoC5/USBFS_drv.c **** {
 153:.\Generated_Source\PSoC5/USBFS_drv.c ****     uint8 requestHandled;
 154:.\Generated_Source\PSoC5/USBFS_drv.c **** 
 155:.\Generated_Source\PSoC5/USBFS_drv.c ****     requestHandled = CY_GET_REG8(USBFS_EP0_CR_PTR);      /* unlock registers */
 156:.\Generated_Source\PSoC5/USBFS_drv.c ****     CY_SET_REG8(USBFS_EP0_CR_PTR, requestHandled);       /* clear setup bit */
 157:.\Generated_Source\PSoC5/USBFS_drv.c ****     requestHandled = CY_GET_REG8(USBFS_EP0_CR_PTR);      /* reread register */
 158:.\Generated_Source\PSoC5/USBFS_drv.c ****     if((requestHandled & USBFS_MODE_SETUP_RCVD) != 0u)
 159:.\Generated_Source\PSoC5/USBFS_drv.c ****     {
 160:.\Generated_Source\PSoC5/USBFS_drv.c ****         USBFS_ep0Mode = requestHandled;        /* if SETUP bit set -> exit without modifying the mo
 161:.\Generated_Source\PSoC5/USBFS_drv.c ****     }
 162:.\Generated_Source\PSoC5/USBFS_drv.c ****     else
 163:.\Generated_Source\PSoC5/USBFS_drv.c ****     {
 164:.\Generated_Source\PSoC5/USBFS_drv.c ****         /* In case the previous transfer did not complete, close it out */
 165:.\Generated_Source\PSoC5/USBFS_drv.c ****         USBFS_UpdateStatusBlock(USBFS_XFER_PREMATURE);
 166:.\Generated_Source\PSoC5/USBFS_drv.c **** 
 167:.\Generated_Source\PSoC5/USBFS_drv.c ****         switch (CY_GET_REG8(USBFS_bmRequestType) & USBFS_RQST_TYPE_MASK)
 168:.\Generated_Source\PSoC5/USBFS_drv.c ****         {
 169:.\Generated_Source\PSoC5/USBFS_drv.c ****             case USBFS_RQST_TYPE_STD:
 170:.\Generated_Source\PSoC5/USBFS_drv.c ****                 requestHandled = USBFS_HandleStandardRqst();
 171:.\Generated_Source\PSoC5/USBFS_drv.c ****                 break;
 172:.\Generated_Source\PSoC5/USBFS_drv.c ****             case USBFS_RQST_TYPE_CLS:
 173:.\Generated_Source\PSoC5/USBFS_drv.c ****                 requestHandled = USBFS_DispatchClassRqst();
 174:.\Generated_Source\PSoC5/USBFS_drv.c ****                 break;
 175:.\Generated_Source\PSoC5/USBFS_drv.c ****             case USBFS_RQST_TYPE_VND:
 176:.\Generated_Source\PSoC5/USBFS_drv.c ****                 requestHandled = USBFS_HandleVendorRqst();
 177:.\Generated_Source\PSoC5/USBFS_drv.c ****                 break;
 178:.\Generated_Source\PSoC5/USBFS_drv.c ****             default:
 179:.\Generated_Source\PSoC5/USBFS_drv.c ****                 requestHandled = USBFS_FALSE;
 180:.\Generated_Source\PSoC5/USBFS_drv.c ****                 break;
 181:.\Generated_Source\PSoC5/USBFS_drv.c ****         }
 182:.\Generated_Source\PSoC5/USBFS_drv.c ****         if (requestHandled == USBFS_FALSE)
 183:.\Generated_Source\PSoC5/USBFS_drv.c ****         {
 184:.\Generated_Source\PSoC5/USBFS_drv.c ****             USBFS_ep0Mode = USBFS_MODE_STALL_IN_OUT;
 185:.\Generated_Source\PSoC5/USBFS_drv.c ****         }
 186:.\Generated_Source\PSoC5/USBFS_drv.c ****     }
 187:.\Generated_Source\PSoC5/USBFS_drv.c **** }
 188:.\Generated_Source\PSoC5/USBFS_drv.c **** 
 189:.\Generated_Source\PSoC5/USBFS_drv.c **** 
 190:.\Generated_Source\PSoC5/USBFS_drv.c **** /*******************************************************************************
 191:.\Generated_Source\PSoC5/USBFS_drv.c **** * Function Name: USBFS_HandleIN
 192:.\Generated_Source\PSoC5/USBFS_drv.c **** ********************************************************************************
 193:.\Generated_Source\PSoC5/USBFS_drv.c **** *
 194:.\Generated_Source\PSoC5/USBFS_drv.c **** * Summary:
 195:.\Generated_Source\PSoC5/USBFS_drv.c **** *  This routine handles EP0 IN transfers.
 196:.\Generated_Source\PSoC5/USBFS_drv.c **** *
 197:.\Generated_Source\PSoC5/USBFS_drv.c **** * Parameters:
 198:.\Generated_Source\PSoC5/USBFS_drv.c **** *  None.
 199:.\Generated_Source\PSoC5/USBFS_drv.c **** *
 200:.\Generated_Source\PSoC5/USBFS_drv.c **** * Return:
 201:.\Generated_Source\PSoC5/USBFS_drv.c **** *  None.
 202:.\Generated_Source\PSoC5/USBFS_drv.c **** *
ARM GAS  C:\Users\MICHA_~1\AppData\Local\Temp\ccyD9XKy.s 			page 5


 203:.\Generated_Source\PSoC5/USBFS_drv.c **** * Reentrant:
 204:.\Generated_Source\PSoC5/USBFS_drv.c **** *  No.
 205:.\Generated_Source\PSoC5/USBFS_drv.c **** *
 206:.\Generated_Source\PSoC5/USBFS_drv.c **** *******************************************************************************/
 207:.\Generated_Source\PSoC5/USBFS_drv.c **** void USBFS_HandleIN(void) 
 208:.\Generated_Source\PSoC5/USBFS_drv.c **** {
 209:.\Generated_Source\PSoC5/USBFS_drv.c ****     switch (USBFS_transferState)
 210:.\Generated_Source\PSoC5/USBFS_drv.c ****     {
 211:.\Generated_Source\PSoC5/USBFS_drv.c ****         case USBFS_TRANS_STATE_IDLE:
 212:.\Generated_Source\PSoC5/USBFS_drv.c ****             break;
 213:.\Generated_Source\PSoC5/USBFS_drv.c ****         case USBFS_TRANS_STATE_CONTROL_READ:
 214:.\Generated_Source\PSoC5/USBFS_drv.c ****             USBFS_ControlReadDataStage();
 215:.\Generated_Source\PSoC5/USBFS_drv.c ****             break;
 216:.\Generated_Source\PSoC5/USBFS_drv.c ****         case USBFS_TRANS_STATE_CONTROL_WRITE:
 217:.\Generated_Source\PSoC5/USBFS_drv.c ****             USBFS_ControlWriteStatusStage();
 218:.\Generated_Source\PSoC5/USBFS_drv.c ****             break;
 219:.\Generated_Source\PSoC5/USBFS_drv.c ****         case USBFS_TRANS_STATE_NO_DATA_CONTROL:
 220:.\Generated_Source\PSoC5/USBFS_drv.c ****             USBFS_NoDataControlStatusStage();
 221:.\Generated_Source\PSoC5/USBFS_drv.c ****             break;
 222:.\Generated_Source\PSoC5/USBFS_drv.c ****         default:    /* there are no more states */
 223:.\Generated_Source\PSoC5/USBFS_drv.c ****             break;
 224:.\Generated_Source\PSoC5/USBFS_drv.c ****     }
 225:.\Generated_Source\PSoC5/USBFS_drv.c **** }
 226:.\Generated_Source\PSoC5/USBFS_drv.c **** 
 227:.\Generated_Source\PSoC5/USBFS_drv.c **** 
 228:.\Generated_Source\PSoC5/USBFS_drv.c **** /*******************************************************************************
 229:.\Generated_Source\PSoC5/USBFS_drv.c **** * Function Name: USBFS_HandleOUT
 230:.\Generated_Source\PSoC5/USBFS_drv.c **** ********************************************************************************
 231:.\Generated_Source\PSoC5/USBFS_drv.c **** *
 232:.\Generated_Source\PSoC5/USBFS_drv.c **** * Summary:
 233:.\Generated_Source\PSoC5/USBFS_drv.c **** *  This routine handles EP0 OUT transfers.
 234:.\Generated_Source\PSoC5/USBFS_drv.c **** *
 235:.\Generated_Source\PSoC5/USBFS_drv.c **** * Parameters:
 236:.\Generated_Source\PSoC5/USBFS_drv.c **** *  None.
 237:.\Generated_Source\PSoC5/USBFS_drv.c **** *
 238:.\Generated_Source\PSoC5/USBFS_drv.c **** * Return:
 239:.\Generated_Source\PSoC5/USBFS_drv.c **** *  None.
 240:.\Generated_Source\PSoC5/USBFS_drv.c **** *
 241:.\Generated_Source\PSoC5/USBFS_drv.c **** * Reentrant:
 242:.\Generated_Source\PSoC5/USBFS_drv.c **** *  No.
 243:.\Generated_Source\PSoC5/USBFS_drv.c **** *
 244:.\Generated_Source\PSoC5/USBFS_drv.c **** *******************************************************************************/
 245:.\Generated_Source\PSoC5/USBFS_drv.c **** void USBFS_HandleOUT(void) 
 246:.\Generated_Source\PSoC5/USBFS_drv.c **** {
 247:.\Generated_Source\PSoC5/USBFS_drv.c ****     switch (USBFS_transferState)
 248:.\Generated_Source\PSoC5/USBFS_drv.c ****     {
 249:.\Generated_Source\PSoC5/USBFS_drv.c ****         case USBFS_TRANS_STATE_IDLE:
 250:.\Generated_Source\PSoC5/USBFS_drv.c ****             break;
 251:.\Generated_Source\PSoC5/USBFS_drv.c ****         case USBFS_TRANS_STATE_CONTROL_READ:
 252:.\Generated_Source\PSoC5/USBFS_drv.c ****             USBFS_ControlReadStatusStage();
 253:.\Generated_Source\PSoC5/USBFS_drv.c ****             break;
 254:.\Generated_Source\PSoC5/USBFS_drv.c ****         case USBFS_TRANS_STATE_CONTROL_WRITE:
 255:.\Generated_Source\PSoC5/USBFS_drv.c ****             USBFS_ControlWriteDataStage();
 256:.\Generated_Source\PSoC5/USBFS_drv.c ****             break;
 257:.\Generated_Source\PSoC5/USBFS_drv.c ****         case USBFS_TRANS_STATE_NO_DATA_CONTROL:
 258:.\Generated_Source\PSoC5/USBFS_drv.c ****             /* Update the completion block */
 259:.\Generated_Source\PSoC5/USBFS_drv.c ****             USBFS_UpdateStatusBlock(USBFS_XFER_ERROR);
ARM GAS  C:\Users\MICHA_~1\AppData\Local\Temp\ccyD9XKy.s 			page 6


 260:.\Generated_Source\PSoC5/USBFS_drv.c ****             /* We expect no more data, so stall INs and OUTs */
 261:.\Generated_Source\PSoC5/USBFS_drv.c ****             USBFS_ep0Mode = USBFS_MODE_STALL_IN_OUT;
 262:.\Generated_Source\PSoC5/USBFS_drv.c ****             break;
 263:.\Generated_Source\PSoC5/USBFS_drv.c ****         default:    /* There are no more states */
 264:.\Generated_Source\PSoC5/USBFS_drv.c ****             break;
 265:.\Generated_Source\PSoC5/USBFS_drv.c ****     }
 266:.\Generated_Source\PSoC5/USBFS_drv.c **** }
 267:.\Generated_Source\PSoC5/USBFS_drv.c **** 
 268:.\Generated_Source\PSoC5/USBFS_drv.c **** 
 269:.\Generated_Source\PSoC5/USBFS_drv.c **** /*******************************************************************************
 270:.\Generated_Source\PSoC5/USBFS_drv.c **** * Function Name: USBFS_LoadEP0
 271:.\Generated_Source\PSoC5/USBFS_drv.c **** ********************************************************************************
 272:.\Generated_Source\PSoC5/USBFS_drv.c **** *
 273:.\Generated_Source\PSoC5/USBFS_drv.c **** * Summary:
 274:.\Generated_Source\PSoC5/USBFS_drv.c **** *  This routine loads the EP0 data registers for OUT transfers.  It uses the
 275:.\Generated_Source\PSoC5/USBFS_drv.c **** *  currentTD (previously initialized by the _InitControlWrite function and
 276:.\Generated_Source\PSoC5/USBFS_drv.c **** *  updated for each OUT transfer, and the bLastPacketSize) to determine how
 277:.\Generated_Source\PSoC5/USBFS_drv.c **** *  many uint8s to transfer on the current OUT.
 278:.\Generated_Source\PSoC5/USBFS_drv.c **** *
 279:.\Generated_Source\PSoC5/USBFS_drv.c **** *  If the number of uint8s remaining is zero and the last transfer was full,
 280:.\Generated_Source\PSoC5/USBFS_drv.c **** *  we need to send a zero length packet.  Otherwise we send the minimum
 281:.\Generated_Source\PSoC5/USBFS_drv.c **** *  of the control endpoint size (8) or remaining number of uint8s for the
 282:.\Generated_Source\PSoC5/USBFS_drv.c **** *  transaction.
 283:.\Generated_Source\PSoC5/USBFS_drv.c **** *
 284:.\Generated_Source\PSoC5/USBFS_drv.c **** * Parameters:
 285:.\Generated_Source\PSoC5/USBFS_drv.c **** *  None.
 286:.\Generated_Source\PSoC5/USBFS_drv.c **** *
 287:.\Generated_Source\PSoC5/USBFS_drv.c **** * Return:
 288:.\Generated_Source\PSoC5/USBFS_drv.c **** *  None.
 289:.\Generated_Source\PSoC5/USBFS_drv.c **** *
 290:.\Generated_Source\PSoC5/USBFS_drv.c **** * Global variables:
 291:.\Generated_Source\PSoC5/USBFS_drv.c **** *  USBFS_transferByteCount - Update the transfer byte count from the
 292:.\Generated_Source\PSoC5/USBFS_drv.c **** *     last transaction.
 293:.\Generated_Source\PSoC5/USBFS_drv.c **** *  USBFS_ep0Count - counts the data loaded to the SIE memory in
 294:.\Generated_Source\PSoC5/USBFS_drv.c **** *     current packet.
 295:.\Generated_Source\PSoC5/USBFS_drv.c **** *  USBFS_lastPacketSize - remembers the USBFS_ep0Count value for the
 296:.\Generated_Source\PSoC5/USBFS_drv.c **** *     next packet.
 297:.\Generated_Source\PSoC5/USBFS_drv.c **** *  USBFS_transferByteCount - sum of the previous bytes transferred
 298:.\Generated_Source\PSoC5/USBFS_drv.c **** *     on previous packets(sum of USBFS_lastPacketSize)
 299:.\Generated_Source\PSoC5/USBFS_drv.c **** *  USBFS_ep0Toggle - inverted
 300:.\Generated_Source\PSoC5/USBFS_drv.c **** *  USBFS_ep0Mode  - prepare for mode register content.
 301:.\Generated_Source\PSoC5/USBFS_drv.c **** *  USBFS_transferState - set to TRANS_STATE_CONTROL_READ
 302:.\Generated_Source\PSoC5/USBFS_drv.c **** *
 303:.\Generated_Source\PSoC5/USBFS_drv.c **** * Reentrant:
 304:.\Generated_Source\PSoC5/USBFS_drv.c **** *  No.
 305:.\Generated_Source\PSoC5/USBFS_drv.c **** *
 306:.\Generated_Source\PSoC5/USBFS_drv.c **** *******************************************************************************/
 307:.\Generated_Source\PSoC5/USBFS_drv.c **** void USBFS_LoadEP0(void) 
 308:.\Generated_Source\PSoC5/USBFS_drv.c **** {
  27              		.loc 1 308 0
  28              		.cfi_startproc
  29              		@ args = 0, pretend = 0, frame = 0
  30              		@ frame_needed = 0, uses_anonymous_args = 0
  31              		@ link register save eliminated.
  32              	.LVL0:
 309:.\Generated_Source\PSoC5/USBFS_drv.c ****     uint8 ep0Count = 0u;
 310:.\Generated_Source\PSoC5/USBFS_drv.c **** 
ARM GAS  C:\Users\MICHA_~1\AppData\Local\Temp\ccyD9XKy.s 			page 7


 311:.\Generated_Source\PSoC5/USBFS_drv.c ****     /* Update the transfer byte count from the last transaction */
 312:.\Generated_Source\PSoC5/USBFS_drv.c ****     USBFS_transferByteCount += USBFS_lastPacketSize;
  33              		.loc 1 312 0
  34 0000 1B4B     		ldr	r3, .L16
  35 0002 1C49     		ldr	r1, .L16+4
  36 0004 1A88     		ldrh	r2, [r3, #0]
  37 0006 0878     		ldrb	r0, [r1, #0]	@ zero_extendqisi2
  38 0008 8218     		adds	r2, r0, r2
  39 000a 91B2     		uxth	r1, r2
  40 000c 1980     		strh	r1, [r3, #0]	@ movhi
 313:.\Generated_Source\PSoC5/USBFS_drv.c ****     /* Now load the next transaction */
 314:.\Generated_Source\PSoC5/USBFS_drv.c ****     while ((USBFS_currentTD.count > 0u) && (ep0Count < 8u))
  41              		.loc 1 314 0
  42 000e 1A49     		ldr	r1, .L16+8
  43              	.LVL1:
  44              	.L2:
  45              		.loc 1 314 0 is_stmt 0 discriminator 1
  46 0010 1A4B     		ldr	r3, .L16+12
  47 0012 CAB2     		uxtb	r2, r1
  48 0014 1888     		ldrh	r0, [r3, #0]
  49 0016 80B2     		uxth	r0, r0
  50 0018 78B1     		cbz	r0, .L3
  51              		.loc 1 314 0 discriminator 2
  52 001a 194A     		ldr	r2, .L16+16
  53 001c 9142     		cmp	r1, r2
  54 001e 0BD0     		beq	.L15
  55              	.L4:
 315:.\Generated_Source\PSoC5/USBFS_drv.c ****     {
 316:.\Generated_Source\PSoC5/USBFS_drv.c ****         CY_SET_REG8((reg8 *)(USBFS_EP0_DR0_IND + ep0Count), *USBFS_currentTD.pData);
  56              		.loc 1 316 0 is_stmt 1
  57 0020 5A68     		ldr	r2, [r3, #4]
  58 0022 1078     		ldrb	r0, [r2, #0]	@ zero_extendqisi2
  59 0024 01F8010B 		strb	r0, [r1], #1
 317:.\Generated_Source\PSoC5/USBFS_drv.c ****         USBFS_currentTD.pData = &USBFS_currentTD.pData[1u];
  60              		.loc 1 317 0
  61 0028 5A68     		ldr	r2, [r3, #4]
  62 002a 501C     		adds	r0, r2, #1
  63 002c 5860     		str	r0, [r3, #4]
 318:.\Generated_Source\PSoC5/USBFS_drv.c ****         ep0Count++;
 319:.\Generated_Source\PSoC5/USBFS_drv.c ****         USBFS_currentTD.count--;
  64              		.loc 1 319 0
  65 002e 1A88     		ldrh	r2, [r3, #0]
  66 0030 501E     		subs	r0, r2, #1
  67 0032 82B2     		uxth	r2, r0
  68 0034 1A80     		strh	r2, [r3, #0]	@ movhi
  69 0036 EBE7     		b	.L2
  70              	.L15:
 314:.\Generated_Source\PSoC5/USBFS_drv.c ****     while ((USBFS_currentTD.count > 0u) && (ep0Count < 8u))
  71              		.loc 1 314 0
  72 0038 0822     		movs	r2, #8
  73              	.L3:
 320:.\Generated_Source\PSoC5/USBFS_drv.c ****     }
 321:.\Generated_Source\PSoC5/USBFS_drv.c ****     /* Support zero-length packet*/
 322:.\Generated_Source\PSoC5/USBFS_drv.c ****     if( (USBFS_lastPacketSize == 8u) || (ep0Count > 0u) )
  74              		.loc 1 322 0
  75 003a 0E49     		ldr	r1, .L16+4
  76 003c 0B78     		ldrb	r3, [r1, #0]	@ zero_extendqisi2
ARM GAS  C:\Users\MICHA_~1\AppData\Local\Temp\ccyD9XKy.s 			page 8


  77 003e 082B     		cmp	r3, #8
  78 0040 00D0     		beq	.L5
  79              		.loc 1 322 0 is_stmt 0 discriminator 1
  80 0042 5AB1     		cbz	r2, .L6
  81              	.L5:
 323:.\Generated_Source\PSoC5/USBFS_drv.c ****     {
 324:.\Generated_Source\PSoC5/USBFS_drv.c ****         /* Update the data toggle */
 325:.\Generated_Source\PSoC5/USBFS_drv.c ****         USBFS_ep0Toggle ^= USBFS_EP0_CNT_DATA_TOGGLE;
  82              		.loc 1 325 0 is_stmt 1
  83 0044 0F48     		ldr	r0, .L16+20
  84 0046 0178     		ldrb	r1, [r0, #0]	@ zero_extendqisi2
  85 0048 81F08003 		eor	r3, r1, #128
 326:.\Generated_Source\PSoC5/USBFS_drv.c ****         /* Set the Mode Register  */
 327:.\Generated_Source\PSoC5/USBFS_drv.c ****         USBFS_ep0Mode = USBFS_MODE_ACK_IN_STATUS_OUT;
  86              		.loc 1 327 0
  87 004c 0E49     		ldr	r1, .L16+24
 325:.\Generated_Source\PSoC5/USBFS_drv.c ****         USBFS_ep0Toggle ^= USBFS_EP0_CNT_DATA_TOGGLE;
  88              		.loc 1 325 0
  89 004e 0370     		strb	r3, [r0, #0]
  90              		.loc 1 327 0
  91 0050 0F20     		movs	r0, #15
 328:.\Generated_Source\PSoC5/USBFS_drv.c ****         /* Update the state (or stay the same) */
 329:.\Generated_Source\PSoC5/USBFS_drv.c ****         USBFS_transferState = USBFS_TRANS_STATE_CONTROL_READ;
  92              		.loc 1 329 0
  93 0052 0E4B     		ldr	r3, .L16+28
 327:.\Generated_Source\PSoC5/USBFS_drv.c ****         USBFS_ep0Mode = USBFS_MODE_ACK_IN_STATUS_OUT;
  94              		.loc 1 327 0
  95 0054 0870     		strb	r0, [r1, #0]
  96              		.loc 1 329 0
  97 0056 0220     		movs	r0, #2
  98 0058 1870     		strb	r0, [r3, #0]
  99 005a 04E0     		b	.L7
 100              	.L6:
 330:.\Generated_Source\PSoC5/USBFS_drv.c ****     }
 331:.\Generated_Source\PSoC5/USBFS_drv.c ****     else
 332:.\Generated_Source\PSoC5/USBFS_drv.c ****     {
 333:.\Generated_Source\PSoC5/USBFS_drv.c ****         /* Expect Status Stage Out */
 334:.\Generated_Source\PSoC5/USBFS_drv.c ****         USBFS_ep0Mode = USBFS_MODE_STATUS_OUT_ONLY;
 101              		.loc 1 334 0
 102 005c 0A49     		ldr	r1, .L16+24
 335:.\Generated_Source\PSoC5/USBFS_drv.c ****         /* Update the state (or stay the same) */
 336:.\Generated_Source\PSoC5/USBFS_drv.c ****         USBFS_transferState = USBFS_TRANS_STATE_CONTROL_READ;
 103              		.loc 1 336 0
 104 005e 0B4B     		ldr	r3, .L16+28
 334:.\Generated_Source\PSoC5/USBFS_drv.c ****         USBFS_ep0Mode = USBFS_MODE_STATUS_OUT_ONLY;
 105              		.loc 1 334 0
 106 0060 0220     		movs	r0, #2
 107 0062 0870     		strb	r0, [r1, #0]
 108              		.loc 1 336 0
 109 0064 1870     		strb	r0, [r3, #0]
 110              	.L7:
 337:.\Generated_Source\PSoC5/USBFS_drv.c ****     }
 338:.\Generated_Source\PSoC5/USBFS_drv.c **** 
 339:.\Generated_Source\PSoC5/USBFS_drv.c ****     /* Save the packet size for next time */
 340:.\Generated_Source\PSoC5/USBFS_drv.c ****     USBFS_lastPacketSize = ep0Count;
 111              		.loc 1 340 0
 112 0066 0349     		ldr	r1, .L16+4
ARM GAS  C:\Users\MICHA_~1\AppData\Local\Temp\ccyD9XKy.s 			page 9


 341:.\Generated_Source\PSoC5/USBFS_drv.c ****     USBFS_ep0Count = ep0Count;
 113              		.loc 1 341 0
 114 0068 0948     		ldr	r0, .L16+32
 340:.\Generated_Source\PSoC5/USBFS_drv.c ****     USBFS_lastPacketSize = ep0Count;
 115              		.loc 1 340 0
 116 006a 0A70     		strb	r2, [r1, #0]
 117              		.loc 1 341 0
 118 006c 0270     		strb	r2, [r0, #0]
 119 006e 7047     		bx	lr
 120              	.L17:
 121              		.align	2
 122              	.L16:
 123 0070 00000000 		.word	USBFS_transferByteCount
 124 0074 00000000 		.word	USBFS_lastPacketSize
 125 0078 00600040 		.word	1073766400
 126 007c 00000000 		.word	USBFS_currentTD
 127 0080 08600040 		.word	1073766408
 128 0084 00000000 		.word	USBFS_ep0Toggle
 129 0088 00000000 		.word	USBFS_ep0Mode
 130 008c 00000000 		.word	USBFS_transferState
 131 0090 00000000 		.word	USBFS_ep0Count
 132              		.cfi_endproc
 133              	.LFE4:
 134              		.size	USBFS_LoadEP0, .-USBFS_LoadEP0
 135              		.section	.text.USBFS_InitZeroLengthControlTransfer,"ax",%progbits
 136              		.align	1
 137              		.global	USBFS_InitZeroLengthControlTransfer
 138              		.thumb
 139              		.thumb_func
 140              		.type	USBFS_InitZeroLengthControlTransfer, %function
 141              	USBFS_InitZeroLengthControlTransfer:
 142              	.LFB6:
 342:.\Generated_Source\PSoC5/USBFS_drv.c **** }
 343:.\Generated_Source\PSoC5/USBFS_drv.c **** 
 344:.\Generated_Source\PSoC5/USBFS_drv.c **** 
 345:.\Generated_Source\PSoC5/USBFS_drv.c **** /*******************************************************************************
 346:.\Generated_Source\PSoC5/USBFS_drv.c **** * Function Name: USBFS_InitControlRead
 347:.\Generated_Source\PSoC5/USBFS_drv.c **** ********************************************************************************
 348:.\Generated_Source\PSoC5/USBFS_drv.c **** *
 349:.\Generated_Source\PSoC5/USBFS_drv.c **** * Summary:
 350:.\Generated_Source\PSoC5/USBFS_drv.c **** *  Initialize a control read transaction, usable to send data to the host.
 351:.\Generated_Source\PSoC5/USBFS_drv.c **** *  The following global variables should be initialized before this function
 352:.\Generated_Source\PSoC5/USBFS_drv.c **** *  called. To send zero length packet use InitZeroLengthControlTransfer
 353:.\Generated_Source\PSoC5/USBFS_drv.c **** *  function.
 354:.\Generated_Source\PSoC5/USBFS_drv.c **** *
 355:.\Generated_Source\PSoC5/USBFS_drv.c **** * Parameters:
 356:.\Generated_Source\PSoC5/USBFS_drv.c **** *  None.
 357:.\Generated_Source\PSoC5/USBFS_drv.c **** *
 358:.\Generated_Source\PSoC5/USBFS_drv.c **** * Return:
 359:.\Generated_Source\PSoC5/USBFS_drv.c **** *  requestHandled state.
 360:.\Generated_Source\PSoC5/USBFS_drv.c **** *
 361:.\Generated_Source\PSoC5/USBFS_drv.c **** * Global variables:
 362:.\Generated_Source\PSoC5/USBFS_drv.c **** *  USBFS_currentTD.count - counts of data to be sent.
 363:.\Generated_Source\PSoC5/USBFS_drv.c **** *  USBFS_currentTD.pData - data pointer.
 364:.\Generated_Source\PSoC5/USBFS_drv.c **** *
 365:.\Generated_Source\PSoC5/USBFS_drv.c **** * Reentrant:
 366:.\Generated_Source\PSoC5/USBFS_drv.c **** *  No.
ARM GAS  C:\Users\MICHA_~1\AppData\Local\Temp\ccyD9XKy.s 			page 10


 367:.\Generated_Source\PSoC5/USBFS_drv.c **** *
 368:.\Generated_Source\PSoC5/USBFS_drv.c **** *******************************************************************************/
 369:.\Generated_Source\PSoC5/USBFS_drv.c **** uint8 USBFS_InitControlRead(void) 
 370:.\Generated_Source\PSoC5/USBFS_drv.c **** {
 371:.\Generated_Source\PSoC5/USBFS_drv.c ****     uint16 xferCount;
 372:.\Generated_Source\PSoC5/USBFS_drv.c ****     if(USBFS_currentTD.count == 0u)
 373:.\Generated_Source\PSoC5/USBFS_drv.c ****     {
 374:.\Generated_Source\PSoC5/USBFS_drv.c ****         (void) USBFS_InitZeroLengthControlTransfer();
 375:.\Generated_Source\PSoC5/USBFS_drv.c ****     }
 376:.\Generated_Source\PSoC5/USBFS_drv.c ****     else
 377:.\Generated_Source\PSoC5/USBFS_drv.c ****     {
 378:.\Generated_Source\PSoC5/USBFS_drv.c ****         /* Set up the state machine */
 379:.\Generated_Source\PSoC5/USBFS_drv.c ****         USBFS_transferState = USBFS_TRANS_STATE_CONTROL_READ;
 380:.\Generated_Source\PSoC5/USBFS_drv.c ****         /* Set the toggle, it gets updated in LoadEP */
 381:.\Generated_Source\PSoC5/USBFS_drv.c ****         USBFS_ep0Toggle = 0u;
 382:.\Generated_Source\PSoC5/USBFS_drv.c ****         /* Initialize the Status Block */
 383:.\Generated_Source\PSoC5/USBFS_drv.c ****         USBFS_InitializeStatusBlock();
 384:.\Generated_Source\PSoC5/USBFS_drv.c ****         xferCount = (((uint16)CY_GET_REG8(USBFS_lengthHi) << 8u) | (CY_GET_REG8(USBFS_lengthLo)));
 385:.\Generated_Source\PSoC5/USBFS_drv.c **** 
 386:.\Generated_Source\PSoC5/USBFS_drv.c ****         if (USBFS_currentTD.count > xferCount)
 387:.\Generated_Source\PSoC5/USBFS_drv.c ****         {
 388:.\Generated_Source\PSoC5/USBFS_drv.c ****             USBFS_currentTD.count = xferCount;
 389:.\Generated_Source\PSoC5/USBFS_drv.c ****         }
 390:.\Generated_Source\PSoC5/USBFS_drv.c ****         USBFS_LoadEP0();
 391:.\Generated_Source\PSoC5/USBFS_drv.c ****     }
 392:.\Generated_Source\PSoC5/USBFS_drv.c **** 
 393:.\Generated_Source\PSoC5/USBFS_drv.c ****     return(USBFS_TRUE);
 394:.\Generated_Source\PSoC5/USBFS_drv.c **** }
 395:.\Generated_Source\PSoC5/USBFS_drv.c **** 
 396:.\Generated_Source\PSoC5/USBFS_drv.c **** 
 397:.\Generated_Source\PSoC5/USBFS_drv.c **** /*******************************************************************************
 398:.\Generated_Source\PSoC5/USBFS_drv.c **** * Function Name: USBFS_InitZeroLengthControlTransfer
 399:.\Generated_Source\PSoC5/USBFS_drv.c **** ********************************************************************************
 400:.\Generated_Source\PSoC5/USBFS_drv.c **** *
 401:.\Generated_Source\PSoC5/USBFS_drv.c **** * Summary:
 402:.\Generated_Source\PSoC5/USBFS_drv.c **** *  Initialize a zero length data IN transfer.
 403:.\Generated_Source\PSoC5/USBFS_drv.c **** *
 404:.\Generated_Source\PSoC5/USBFS_drv.c **** * Parameters:
 405:.\Generated_Source\PSoC5/USBFS_drv.c **** *  None.
 406:.\Generated_Source\PSoC5/USBFS_drv.c **** *
 407:.\Generated_Source\PSoC5/USBFS_drv.c **** * Return:
 408:.\Generated_Source\PSoC5/USBFS_drv.c **** *  requestHandled state.
 409:.\Generated_Source\PSoC5/USBFS_drv.c **** *
 410:.\Generated_Source\PSoC5/USBFS_drv.c **** * Global variables:
 411:.\Generated_Source\PSoC5/USBFS_drv.c **** *  USBFS_ep0Toggle - set to EP0_CNT_DATA_TOGGLE
 412:.\Generated_Source\PSoC5/USBFS_drv.c **** *  USBFS_ep0Mode  - prepare for mode register content.
 413:.\Generated_Source\PSoC5/USBFS_drv.c **** *  USBFS_transferState - set to TRANS_STATE_CONTROL_READ
 414:.\Generated_Source\PSoC5/USBFS_drv.c **** *  USBFS_ep0Count - cleared, means the zero-length packet.
 415:.\Generated_Source\PSoC5/USBFS_drv.c **** *  USBFS_lastPacketSize - cleared.
 416:.\Generated_Source\PSoC5/USBFS_drv.c **** *
 417:.\Generated_Source\PSoC5/USBFS_drv.c **** * Reentrant:
 418:.\Generated_Source\PSoC5/USBFS_drv.c **** *  No.
 419:.\Generated_Source\PSoC5/USBFS_drv.c **** *
 420:.\Generated_Source\PSoC5/USBFS_drv.c **** *******************************************************************************/
 421:.\Generated_Source\PSoC5/USBFS_drv.c **** uint8 USBFS_InitZeroLengthControlTransfer(void)
 422:.\Generated_Source\PSoC5/USBFS_drv.c ****                                                 
 423:.\Generated_Source\PSoC5/USBFS_drv.c **** {
ARM GAS  C:\Users\MICHA_~1\AppData\Local\Temp\ccyD9XKy.s 			page 11


 143              		.loc 1 423 0
 144              		.cfi_startproc
 145              		@ args = 0, pretend = 0, frame = 0
 146              		@ frame_needed = 0, uses_anonymous_args = 0
 147              		@ link register save eliminated.
 424:.\Generated_Source\PSoC5/USBFS_drv.c ****     /* Update the state */
 425:.\Generated_Source\PSoC5/USBFS_drv.c ****     USBFS_transferState = USBFS_TRANS_STATE_CONTROL_READ;
 148              		.loc 1 425 0
 149 0000 074B     		ldr	r3, .L19
 150 0002 0222     		movs	r2, #2
 151 0004 1A70     		strb	r2, [r3, #0]
 426:.\Generated_Source\PSoC5/USBFS_drv.c ****     /* Set the data toggle */
 427:.\Generated_Source\PSoC5/USBFS_drv.c ****     USBFS_ep0Toggle = USBFS_EP0_CNT_DATA_TOGGLE;
 152              		.loc 1 427 0
 153 0006 0749     		ldr	r1, .L19+4
 428:.\Generated_Source\PSoC5/USBFS_drv.c ****     /* Set the Mode Register  */
 429:.\Generated_Source\PSoC5/USBFS_drv.c ****     USBFS_ep0Mode = USBFS_MODE_ACK_IN_STATUS_OUT;
 154              		.loc 1 429 0
 155 0008 074B     		ldr	r3, .L19+8
 427:.\Generated_Source\PSoC5/USBFS_drv.c ****     USBFS_ep0Toggle = USBFS_EP0_CNT_DATA_TOGGLE;
 156              		.loc 1 427 0
 157 000a 8020     		movs	r0, #128
 158              		.loc 1 429 0
 159 000c 0F22     		movs	r2, #15
 427:.\Generated_Source\PSoC5/USBFS_drv.c ****     USBFS_ep0Toggle = USBFS_EP0_CNT_DATA_TOGGLE;
 160              		.loc 1 427 0
 161 000e 0870     		strb	r0, [r1, #0]
 162              		.loc 1 429 0
 163 0010 1A70     		strb	r2, [r3, #0]
 430:.\Generated_Source\PSoC5/USBFS_drv.c ****     /* Save the packet size for next time */
 431:.\Generated_Source\PSoC5/USBFS_drv.c ****     USBFS_lastPacketSize = 0u;
 164              		.loc 1 431 0
 165 0012 0649     		ldr	r1, .L19+12
 432:.\Generated_Source\PSoC5/USBFS_drv.c ****     USBFS_ep0Count = 0u;
 166              		.loc 1 432 0
 167 0014 064A     		ldr	r2, .L19+16
 431:.\Generated_Source\PSoC5/USBFS_drv.c ****     USBFS_lastPacketSize = 0u;
 168              		.loc 1 431 0
 169 0016 0020     		movs	r0, #0
 170 0018 0870     		strb	r0, [r1, #0]
 171              		.loc 1 432 0
 172 001a 1070     		strb	r0, [r2, #0]
 433:.\Generated_Source\PSoC5/USBFS_drv.c **** 
 434:.\Generated_Source\PSoC5/USBFS_drv.c ****     return(USBFS_TRUE);
 435:.\Generated_Source\PSoC5/USBFS_drv.c **** }
 173              		.loc 1 435 0
 174 001c 0120     		movs	r0, #1
 175 001e 7047     		bx	lr
 176              	.L20:
 177              		.align	2
 178              	.L19:
 179 0020 00000000 		.word	USBFS_transferState
 180 0024 00000000 		.word	USBFS_ep0Toggle
 181 0028 00000000 		.word	USBFS_ep0Mode
 182 002c 00000000 		.word	USBFS_lastPacketSize
 183 0030 00000000 		.word	USBFS_ep0Count
 184              		.cfi_endproc
ARM GAS  C:\Users\MICHA_~1\AppData\Local\Temp\ccyD9XKy.s 			page 12


 185              	.LFE6:
 186              		.size	USBFS_InitZeroLengthControlTransfer, .-USBFS_InitZeroLengthControlTransfer
 187              		.section	.text.USBFS_ControlReadDataStage,"ax",%progbits
 188              		.align	1
 189              		.global	USBFS_ControlReadDataStage
 190              		.thumb
 191              		.thumb_func
 192              		.type	USBFS_ControlReadDataStage, %function
 193              	USBFS_ControlReadDataStage:
 194              	.LFB7:
 436:.\Generated_Source\PSoC5/USBFS_drv.c **** 
 437:.\Generated_Source\PSoC5/USBFS_drv.c **** 
 438:.\Generated_Source\PSoC5/USBFS_drv.c **** /*******************************************************************************
 439:.\Generated_Source\PSoC5/USBFS_drv.c **** * Function Name: USBFS_ControlReadDataStage
 440:.\Generated_Source\PSoC5/USBFS_drv.c **** ********************************************************************************
 441:.\Generated_Source\PSoC5/USBFS_drv.c **** *
 442:.\Generated_Source\PSoC5/USBFS_drv.c **** * Summary:
 443:.\Generated_Source\PSoC5/USBFS_drv.c **** *  Handle the Data Stage of a control read transfer.
 444:.\Generated_Source\PSoC5/USBFS_drv.c **** *
 445:.\Generated_Source\PSoC5/USBFS_drv.c **** * Parameters:
 446:.\Generated_Source\PSoC5/USBFS_drv.c **** *  None.
 447:.\Generated_Source\PSoC5/USBFS_drv.c **** *
 448:.\Generated_Source\PSoC5/USBFS_drv.c **** * Return:
 449:.\Generated_Source\PSoC5/USBFS_drv.c **** *  None.
 450:.\Generated_Source\PSoC5/USBFS_drv.c **** *
 451:.\Generated_Source\PSoC5/USBFS_drv.c **** * Reentrant:
 452:.\Generated_Source\PSoC5/USBFS_drv.c **** *  No.
 453:.\Generated_Source\PSoC5/USBFS_drv.c **** *
 454:.\Generated_Source\PSoC5/USBFS_drv.c **** *******************************************************************************/
 455:.\Generated_Source\PSoC5/USBFS_drv.c **** void USBFS_ControlReadDataStage(void) 
 456:.\Generated_Source\PSoC5/USBFS_drv.c **** 
 457:.\Generated_Source\PSoC5/USBFS_drv.c **** {
 195              		.loc 1 457 0
 196              		.cfi_startproc
 197              		@ args = 0, pretend = 0, frame = 0
 198              		@ frame_needed = 0, uses_anonymous_args = 0
 199              		@ link register save eliminated.
 458:.\Generated_Source\PSoC5/USBFS_drv.c ****     USBFS_LoadEP0();
 459:.\Generated_Source\PSoC5/USBFS_drv.c **** }
 200              		.loc 1 459 0
 458:.\Generated_Source\PSoC5/USBFS_drv.c ****     USBFS_LoadEP0();
 201              		.loc 1 458 0
 202 0000 FFF7FEBF 		b	USBFS_LoadEP0
 203              	.LVL2:
 204              		.cfi_endproc
 205              	.LFE7:
 206              		.size	USBFS_ControlReadDataStage, .-USBFS_ControlReadDataStage
 207              		.section	.text.USBFS_ControlWriteDataStage,"ax",%progbits
 208              		.align	1
 209              		.global	USBFS_ControlWriteDataStage
 210              		.thumb
 211              		.thumb_func
 212              		.type	USBFS_ControlWriteDataStage, %function
 213              	USBFS_ControlWriteDataStage:
 214              	.LFB10:
 460:.\Generated_Source\PSoC5/USBFS_drv.c **** 
 461:.\Generated_Source\PSoC5/USBFS_drv.c **** 
ARM GAS  C:\Users\MICHA_~1\AppData\Local\Temp\ccyD9XKy.s 			page 13


 462:.\Generated_Source\PSoC5/USBFS_drv.c **** /*******************************************************************************
 463:.\Generated_Source\PSoC5/USBFS_drv.c **** * Function Name: USBFS_ControlReadStatusStage
 464:.\Generated_Source\PSoC5/USBFS_drv.c **** ********************************************************************************
 465:.\Generated_Source\PSoC5/USBFS_drv.c **** *
 466:.\Generated_Source\PSoC5/USBFS_drv.c **** * Summary:
 467:.\Generated_Source\PSoC5/USBFS_drv.c **** *  Handle the Status Stage of a control read transfer.
 468:.\Generated_Source\PSoC5/USBFS_drv.c **** *
 469:.\Generated_Source\PSoC5/USBFS_drv.c **** * Parameters:
 470:.\Generated_Source\PSoC5/USBFS_drv.c **** *  None.
 471:.\Generated_Source\PSoC5/USBFS_drv.c **** *
 472:.\Generated_Source\PSoC5/USBFS_drv.c **** * Return:
 473:.\Generated_Source\PSoC5/USBFS_drv.c **** *  None.
 474:.\Generated_Source\PSoC5/USBFS_drv.c **** *
 475:.\Generated_Source\PSoC5/USBFS_drv.c **** * Global variables:
 476:.\Generated_Source\PSoC5/USBFS_drv.c **** *  USBFS_USBFS_transferByteCount - updated with last packet size.
 477:.\Generated_Source\PSoC5/USBFS_drv.c **** *  USBFS_transferState - set to TRANS_STATE_IDLE.
 478:.\Generated_Source\PSoC5/USBFS_drv.c **** *  USBFS_ep0Mode  - set to MODE_STALL_IN_OUT.
 479:.\Generated_Source\PSoC5/USBFS_drv.c **** *
 480:.\Generated_Source\PSoC5/USBFS_drv.c **** * Reentrant:
 481:.\Generated_Source\PSoC5/USBFS_drv.c **** *  No.
 482:.\Generated_Source\PSoC5/USBFS_drv.c **** *
 483:.\Generated_Source\PSoC5/USBFS_drv.c **** *******************************************************************************/
 484:.\Generated_Source\PSoC5/USBFS_drv.c **** void USBFS_ControlReadStatusStage(void) 
 485:.\Generated_Source\PSoC5/USBFS_drv.c **** {
 486:.\Generated_Source\PSoC5/USBFS_drv.c ****     /* Update the transfer byte count */
 487:.\Generated_Source\PSoC5/USBFS_drv.c ****     USBFS_transferByteCount += USBFS_lastPacketSize;
 488:.\Generated_Source\PSoC5/USBFS_drv.c ****     /* Go Idle */
 489:.\Generated_Source\PSoC5/USBFS_drv.c ****     USBFS_transferState = USBFS_TRANS_STATE_IDLE;
 490:.\Generated_Source\PSoC5/USBFS_drv.c ****     /* Update the completion block */
 491:.\Generated_Source\PSoC5/USBFS_drv.c ****     USBFS_UpdateStatusBlock(USBFS_XFER_STATUS_ACK);
 492:.\Generated_Source\PSoC5/USBFS_drv.c ****     /* We expect no more data, so stall INs and OUTs */
 493:.\Generated_Source\PSoC5/USBFS_drv.c ****     USBFS_ep0Mode =  USBFS_MODE_STALL_IN_OUT;
 494:.\Generated_Source\PSoC5/USBFS_drv.c **** }
 495:.\Generated_Source\PSoC5/USBFS_drv.c **** 
 496:.\Generated_Source\PSoC5/USBFS_drv.c **** 
 497:.\Generated_Source\PSoC5/USBFS_drv.c **** /*******************************************************************************
 498:.\Generated_Source\PSoC5/USBFS_drv.c **** * Function Name: USBFS_InitControlWrite
 499:.\Generated_Source\PSoC5/USBFS_drv.c **** ********************************************************************************
 500:.\Generated_Source\PSoC5/USBFS_drv.c **** *
 501:.\Generated_Source\PSoC5/USBFS_drv.c **** * Summary:
 502:.\Generated_Source\PSoC5/USBFS_drv.c **** *  Initialize a control write transaction
 503:.\Generated_Source\PSoC5/USBFS_drv.c **** *
 504:.\Generated_Source\PSoC5/USBFS_drv.c **** * Parameters:
 505:.\Generated_Source\PSoC5/USBFS_drv.c **** *  None.
 506:.\Generated_Source\PSoC5/USBFS_drv.c **** *
 507:.\Generated_Source\PSoC5/USBFS_drv.c **** * Return:
 508:.\Generated_Source\PSoC5/USBFS_drv.c **** *  requestHandled state.
 509:.\Generated_Source\PSoC5/USBFS_drv.c **** *
 510:.\Generated_Source\PSoC5/USBFS_drv.c **** * Global variables:
 511:.\Generated_Source\PSoC5/USBFS_drv.c **** *  USBFS_USBFS_transferState - set to TRANS_STATE_CONTROL_WRITE
 512:.\Generated_Source\PSoC5/USBFS_drv.c **** *  USBFS_ep0Toggle - set to EP0_CNT_DATA_TOGGLE
 513:.\Generated_Source\PSoC5/USBFS_drv.c **** *  USBFS_ep0Mode  - set to MODE_ACK_OUT_STATUS_IN
 514:.\Generated_Source\PSoC5/USBFS_drv.c **** *
 515:.\Generated_Source\PSoC5/USBFS_drv.c **** * Reentrant:
 516:.\Generated_Source\PSoC5/USBFS_drv.c **** *  No.
 517:.\Generated_Source\PSoC5/USBFS_drv.c **** *
 518:.\Generated_Source\PSoC5/USBFS_drv.c **** *******************************************************************************/
ARM GAS  C:\Users\MICHA_~1\AppData\Local\Temp\ccyD9XKy.s 			page 14


 519:.\Generated_Source\PSoC5/USBFS_drv.c **** uint8 USBFS_InitControlWrite(void) 
 520:.\Generated_Source\PSoC5/USBFS_drv.c **** {
 521:.\Generated_Source\PSoC5/USBFS_drv.c ****     uint16 xferCount;
 522:.\Generated_Source\PSoC5/USBFS_drv.c **** 
 523:.\Generated_Source\PSoC5/USBFS_drv.c ****     /* Set up the state machine */
 524:.\Generated_Source\PSoC5/USBFS_drv.c ****     USBFS_transferState = USBFS_TRANS_STATE_CONTROL_WRITE;
 525:.\Generated_Source\PSoC5/USBFS_drv.c ****     /* This might not be necessary */
 526:.\Generated_Source\PSoC5/USBFS_drv.c ****     USBFS_ep0Toggle = USBFS_EP0_CNT_DATA_TOGGLE;
 527:.\Generated_Source\PSoC5/USBFS_drv.c ****     /* Initialize the Status Block */
 528:.\Generated_Source\PSoC5/USBFS_drv.c ****     USBFS_InitializeStatusBlock();
 529:.\Generated_Source\PSoC5/USBFS_drv.c **** 
 530:.\Generated_Source\PSoC5/USBFS_drv.c ****     xferCount = (((uint16)CY_GET_REG8(USBFS_lengthHi) << 8u) | (CY_GET_REG8(USBFS_lengthLo)));
 531:.\Generated_Source\PSoC5/USBFS_drv.c **** 
 532:.\Generated_Source\PSoC5/USBFS_drv.c ****     if (USBFS_currentTD.count > xferCount)
 533:.\Generated_Source\PSoC5/USBFS_drv.c ****     {
 534:.\Generated_Source\PSoC5/USBFS_drv.c ****         USBFS_currentTD.count = xferCount;
 535:.\Generated_Source\PSoC5/USBFS_drv.c ****     }
 536:.\Generated_Source\PSoC5/USBFS_drv.c **** 
 537:.\Generated_Source\PSoC5/USBFS_drv.c ****     /* Expect Data or Status Stage */
 538:.\Generated_Source\PSoC5/USBFS_drv.c ****     USBFS_ep0Mode = USBFS_MODE_ACK_OUT_STATUS_IN;
 539:.\Generated_Source\PSoC5/USBFS_drv.c **** 
 540:.\Generated_Source\PSoC5/USBFS_drv.c ****     return(USBFS_TRUE);
 541:.\Generated_Source\PSoC5/USBFS_drv.c **** }
 542:.\Generated_Source\PSoC5/USBFS_drv.c **** 
 543:.\Generated_Source\PSoC5/USBFS_drv.c **** 
 544:.\Generated_Source\PSoC5/USBFS_drv.c **** /*******************************************************************************
 545:.\Generated_Source\PSoC5/USBFS_drv.c **** * Function Name: USBFS_ControlWriteDataStage
 546:.\Generated_Source\PSoC5/USBFS_drv.c **** ********************************************************************************
 547:.\Generated_Source\PSoC5/USBFS_drv.c **** *
 548:.\Generated_Source\PSoC5/USBFS_drv.c **** * Summary:
 549:.\Generated_Source\PSoC5/USBFS_drv.c **** *  Handle the Data Stage of a control write transfer
 550:.\Generated_Source\PSoC5/USBFS_drv.c **** *       1. Get the data (We assume the destination was validated previously)
 551:.\Generated_Source\PSoC5/USBFS_drv.c **** *       2. Update the count and data toggle
 552:.\Generated_Source\PSoC5/USBFS_drv.c **** *       3. Update the mode register for the next transaction
 553:.\Generated_Source\PSoC5/USBFS_drv.c **** *
 554:.\Generated_Source\PSoC5/USBFS_drv.c **** * Parameters:
 555:.\Generated_Source\PSoC5/USBFS_drv.c **** *  None.
 556:.\Generated_Source\PSoC5/USBFS_drv.c **** *
 557:.\Generated_Source\PSoC5/USBFS_drv.c **** * Return:
 558:.\Generated_Source\PSoC5/USBFS_drv.c **** *  None.
 559:.\Generated_Source\PSoC5/USBFS_drv.c **** *
 560:.\Generated_Source\PSoC5/USBFS_drv.c **** * Global variables:
 561:.\Generated_Source\PSoC5/USBFS_drv.c **** *  USBFS_transferByteCount - Update the transfer byte count from the
 562:.\Generated_Source\PSoC5/USBFS_drv.c **** *    last transaction.
 563:.\Generated_Source\PSoC5/USBFS_drv.c **** *  USBFS_ep0Count - counts the data loaded from the SIE memory
 564:.\Generated_Source\PSoC5/USBFS_drv.c **** *    in current packet.
 565:.\Generated_Source\PSoC5/USBFS_drv.c **** *  USBFS_transferByteCount - sum of the previous bytes transferred
 566:.\Generated_Source\PSoC5/USBFS_drv.c **** *    on previous packets(sum of USBFS_lastPacketSize)
 567:.\Generated_Source\PSoC5/USBFS_drv.c **** *  USBFS_ep0Toggle - inverted
 568:.\Generated_Source\PSoC5/USBFS_drv.c **** *  USBFS_ep0Mode  - set to MODE_ACK_OUT_STATUS_IN.
 569:.\Generated_Source\PSoC5/USBFS_drv.c **** *
 570:.\Generated_Source\PSoC5/USBFS_drv.c **** * Reentrant:
 571:.\Generated_Source\PSoC5/USBFS_drv.c **** *  No.
 572:.\Generated_Source\PSoC5/USBFS_drv.c **** *
 573:.\Generated_Source\PSoC5/USBFS_drv.c **** *******************************************************************************/
 574:.\Generated_Source\PSoC5/USBFS_drv.c **** void USBFS_ControlWriteDataStage(void) 
 575:.\Generated_Source\PSoC5/USBFS_drv.c **** {
ARM GAS  C:\Users\MICHA_~1\AppData\Local\Temp\ccyD9XKy.s 			page 15


 215              		.loc 1 575 0
 216              		.cfi_startproc
 217              		@ args = 0, pretend = 0, frame = 0
 218              		@ frame_needed = 0, uses_anonymous_args = 0
 219              	.LVL3:
 220 0000 10B5     		push	{r4, lr}
 221              	.LCFI0:
 222              		.cfi_def_cfa_offset 8
 223              		.cfi_offset 4, -8
 224              		.cfi_offset 14, -4
 576:.\Generated_Source\PSoC5/USBFS_drv.c ****     uint8 ep0Count;
 577:.\Generated_Source\PSoC5/USBFS_drv.c ****     uint8 regIndex = 0u;
 578:.\Generated_Source\PSoC5/USBFS_drv.c **** 
 579:.\Generated_Source\PSoC5/USBFS_drv.c ****     ep0Count = (CY_GET_REG8(USBFS_EP0_CNT_PTR) & USBFS_EPX_CNT0_MASK) -
 225              		.loc 1 579 0
 226 0002 154B     		ldr	r3, .L29
 227 0004 1A78     		ldrb	r2, [r3, #0]	@ zero_extendqisi2
 580:.\Generated_Source\PSoC5/USBFS_drv.c ****                USBFS_EPX_CNTX_CRC_COUNT;
 581:.\Generated_Source\PSoC5/USBFS_drv.c **** 
 582:.\Generated_Source\PSoC5/USBFS_drv.c ****     USBFS_transferByteCount += ep0Count;
 228              		.loc 1 582 0
 229 0006 154B     		ldr	r3, .L29+4
 579:.\Generated_Source\PSoC5/USBFS_drv.c ****     ep0Count = (CY_GET_REG8(USBFS_EP0_CNT_PTR) & USBFS_EPX_CNT0_MASK) -
 230              		.loc 1 579 0
 231 0008 02F00F00 		and	r0, r2, #15
 232 000c 811E     		subs	r1, r0, #2
 233              		.loc 1 582 0
 234 000e 1888     		ldrh	r0, [r3, #0]
 579:.\Generated_Source\PSoC5/USBFS_drv.c ****     ep0Count = (CY_GET_REG8(USBFS_EP0_CNT_PTR) & USBFS_EPX_CNT0_MASK) -
 235              		.loc 1 579 0
 236 0010 CAB2     		uxtb	r2, r1
 237              	.LVL4:
 238              		.loc 1 582 0
 239 0012 1118     		adds	r1, r2, r0
 240              	.LVL5:
 241 0014 88B2     		uxth	r0, r1
 583:.\Generated_Source\PSoC5/USBFS_drv.c **** 
 584:.\Generated_Source\PSoC5/USBFS_drv.c ****     while ((USBFS_currentTD.count > 0u) && (ep0Count > 0u))
 242              		.loc 1 584 0
 243 0016 1249     		ldr	r1, .L29+8
 582:.\Generated_Source\PSoC5/USBFS_drv.c ****     USBFS_transferByteCount += ep0Count;
 244              		.loc 1 582 0
 245 0018 1880     		strh	r0, [r3, #0]	@ movhi
 246              	.LVL6:
 247              	.L23:
 248              		.loc 1 584 0 discriminator 1
 249 001a 124B     		ldr	r3, .L29+12
 250 001c 1888     		ldrh	r0, [r3, #0]
 251 001e 80B2     		uxth	r0, r0
 252 0020 70B1     		cbz	r0, .L24
 253              		.loc 1 584 0 is_stmt 0 discriminator 2
 254 0022 6AB1     		cbz	r2, .L24
 255              	.L25:
 585:.\Generated_Source\PSoC5/USBFS_drv.c ****     {
 586:.\Generated_Source\PSoC5/USBFS_drv.c ****         *USBFS_currentTD.pData = CY_GET_REG8((reg8 *)(USBFS_EP0_DR0_IND + regIndex));
 256              		.loc 1 586 0 is_stmt 1
 257 0024 5868     		ldr	r0, [r3, #4]
ARM GAS  C:\Users\MICHA_~1\AppData\Local\Temp\ccyD9XKy.s 			page 16


 258 0026 11F8014B 		ldrb	r4, [r1], #1	@ zero_extendqisi2
 587:.\Generated_Source\PSoC5/USBFS_drv.c ****         USBFS_currentTD.pData = &USBFS_currentTD.pData[1u];
 588:.\Generated_Source\PSoC5/USBFS_drv.c ****         regIndex++;
 589:.\Generated_Source\PSoC5/USBFS_drv.c ****         ep0Count--;
 259              		.loc 1 589 0
 260 002a 013A     		subs	r2, r2, #1
 261              	.LVL7:
 586:.\Generated_Source\PSoC5/USBFS_drv.c ****         *USBFS_currentTD.pData = CY_GET_REG8((reg8 *)(USBFS_EP0_DR0_IND + regIndex));
 262              		.loc 1 586 0
 263 002c 0470     		strb	r4, [r0, #0]
 587:.\Generated_Source\PSoC5/USBFS_drv.c ****         USBFS_currentTD.pData = &USBFS_currentTD.pData[1u];
 264              		.loc 1 587 0
 265 002e 5868     		ldr	r0, [r3, #4]
 266              		.loc 1 589 0
 267 0030 D2B2     		uxtb	r2, r2
 268              	.LVL8:
 587:.\Generated_Source\PSoC5/USBFS_drv.c ****         USBFS_currentTD.pData = &USBFS_currentTD.pData[1u];
 269              		.loc 1 587 0
 270 0032 0130     		adds	r0, r0, #1
 271 0034 5860     		str	r0, [r3, #4]
 272              	.LVL9:
 590:.\Generated_Source\PSoC5/USBFS_drv.c ****         USBFS_currentTD.count--;
 273              		.loc 1 590 0
 274 0036 1888     		ldrh	r0, [r3, #0]
 275 0038 0138     		subs	r0, r0, #1
 276 003a 80B2     		uxth	r0, r0
 277 003c 1880     		strh	r0, [r3, #0]	@ movhi
 278 003e ECE7     		b	.L23
 279              	.L24:
 591:.\Generated_Source\PSoC5/USBFS_drv.c ****     }
 592:.\Generated_Source\PSoC5/USBFS_drv.c ****     USBFS_ep0Count = ep0Count;
 280              		.loc 1 592 0
 281 0040 0949     		ldr	r1, .L29+16
 593:.\Generated_Source\PSoC5/USBFS_drv.c ****     /* Update the data toggle */
 594:.\Generated_Source\PSoC5/USBFS_drv.c ****     USBFS_ep0Toggle ^= USBFS_EP0_CNT_DATA_TOGGLE;
 282              		.loc 1 594 0
 283 0042 0A4B     		ldr	r3, .L29+20
 592:.\Generated_Source\PSoC5/USBFS_drv.c ****     USBFS_ep0Count = ep0Count;
 284              		.loc 1 592 0
 285 0044 0A70     		strb	r2, [r1, #0]
 286              		.loc 1 594 0
 287 0046 1A78     		ldrb	r2, [r3, #0]	@ zero_extendqisi2
 288              	.LVL10:
 595:.\Generated_Source\PSoC5/USBFS_drv.c ****     /* Expect Data or Status Stage */
 596:.\Generated_Source\PSoC5/USBFS_drv.c ****     USBFS_ep0Mode = USBFS_MODE_ACK_OUT_STATUS_IN;
 289              		.loc 1 596 0
 290 0048 0B21     		movs	r1, #11
 594:.\Generated_Source\PSoC5/USBFS_drv.c ****     USBFS_ep0Toggle ^= USBFS_EP0_CNT_DATA_TOGGLE;
 291              		.loc 1 594 0
 292 004a 82F08000 		eor	r0, r2, #128
 293 004e 1870     		strb	r0, [r3, #0]
 294              		.loc 1 596 0
 295 0050 074B     		ldr	r3, .L29+24
 296 0052 1970     		strb	r1, [r3, #0]
 297 0054 10BD     		pop	{r4, pc}
 298              	.L30:
 299 0056 00BF     		.align	2
ARM GAS  C:\Users\MICHA_~1\AppData\Local\Temp\ccyD9XKy.s 			page 17


 300              	.L29:
 301 0058 29600040 		.word	1073766441
 302 005c 00000000 		.word	USBFS_transferByteCount
 303 0060 00600040 		.word	1073766400
 304 0064 00000000 		.word	USBFS_currentTD
 305 0068 00000000 		.word	USBFS_ep0Count
 306 006c 00000000 		.word	USBFS_ep0Toggle
 307 0070 00000000 		.word	USBFS_ep0Mode
 308              		.cfi_endproc
 309              	.LFE10:
 310              		.size	USBFS_ControlWriteDataStage, .-USBFS_ControlWriteDataStage
 311              		.section	.text.USBFS_InitNoDataControlTransfer,"ax",%progbits
 312              		.align	1
 313              		.global	USBFS_InitNoDataControlTransfer
 314              		.thumb
 315              		.thumb_func
 316              		.type	USBFS_InitNoDataControlTransfer, %function
 317              	USBFS_InitNoDataControlTransfer:
 318              	.LFB12:
 597:.\Generated_Source\PSoC5/USBFS_drv.c **** }
 598:.\Generated_Source\PSoC5/USBFS_drv.c **** 
 599:.\Generated_Source\PSoC5/USBFS_drv.c **** 
 600:.\Generated_Source\PSoC5/USBFS_drv.c **** /*******************************************************************************
 601:.\Generated_Source\PSoC5/USBFS_drv.c **** * Function Name: USBFS_ControlWriteStatusStage
 602:.\Generated_Source\PSoC5/USBFS_drv.c **** ********************************************************************************
 603:.\Generated_Source\PSoC5/USBFS_drv.c **** *
 604:.\Generated_Source\PSoC5/USBFS_drv.c **** * Summary:
 605:.\Generated_Source\PSoC5/USBFS_drv.c **** *  Handle the Status Stage of a control write transfer
 606:.\Generated_Source\PSoC5/USBFS_drv.c **** *
 607:.\Generated_Source\PSoC5/USBFS_drv.c **** * Parameters:
 608:.\Generated_Source\PSoC5/USBFS_drv.c **** *  None.
 609:.\Generated_Source\PSoC5/USBFS_drv.c **** *
 610:.\Generated_Source\PSoC5/USBFS_drv.c **** * Return:
 611:.\Generated_Source\PSoC5/USBFS_drv.c **** *  None.
 612:.\Generated_Source\PSoC5/USBFS_drv.c **** *
 613:.\Generated_Source\PSoC5/USBFS_drv.c **** * Global variables:
 614:.\Generated_Source\PSoC5/USBFS_drv.c **** *  USBFS_transferState - set to TRANS_STATE_IDLE.
 615:.\Generated_Source\PSoC5/USBFS_drv.c **** *  USBFS_USBFS_ep0Mode  - set to MODE_STALL_IN_OUT.
 616:.\Generated_Source\PSoC5/USBFS_drv.c **** *
 617:.\Generated_Source\PSoC5/USBFS_drv.c **** * Reentrant:
 618:.\Generated_Source\PSoC5/USBFS_drv.c **** *  No.
 619:.\Generated_Source\PSoC5/USBFS_drv.c **** *
 620:.\Generated_Source\PSoC5/USBFS_drv.c **** *******************************************************************************/
 621:.\Generated_Source\PSoC5/USBFS_drv.c **** void USBFS_ControlWriteStatusStage(void) 
 622:.\Generated_Source\PSoC5/USBFS_drv.c **** {
 623:.\Generated_Source\PSoC5/USBFS_drv.c ****     /* Go Idle */
 624:.\Generated_Source\PSoC5/USBFS_drv.c ****     USBFS_transferState = USBFS_TRANS_STATE_IDLE;
 625:.\Generated_Source\PSoC5/USBFS_drv.c ****     /* Update the completion block */
 626:.\Generated_Source\PSoC5/USBFS_drv.c ****     USBFS_UpdateStatusBlock(USBFS_XFER_STATUS_ACK);
 627:.\Generated_Source\PSoC5/USBFS_drv.c ****     /* We expect no more data, so stall INs and OUTs */
 628:.\Generated_Source\PSoC5/USBFS_drv.c ****     USBFS_ep0Mode = USBFS_MODE_STALL_IN_OUT;
 629:.\Generated_Source\PSoC5/USBFS_drv.c **** }
 630:.\Generated_Source\PSoC5/USBFS_drv.c **** 
 631:.\Generated_Source\PSoC5/USBFS_drv.c **** 
 632:.\Generated_Source\PSoC5/USBFS_drv.c **** /*******************************************************************************
 633:.\Generated_Source\PSoC5/USBFS_drv.c **** * Function Name: USBFS_InitNoDataControlTransfer
 634:.\Generated_Source\PSoC5/USBFS_drv.c **** ********************************************************************************
ARM GAS  C:\Users\MICHA_~1\AppData\Local\Temp\ccyD9XKy.s 			page 18


 635:.\Generated_Source\PSoC5/USBFS_drv.c **** *
 636:.\Generated_Source\PSoC5/USBFS_drv.c **** * Summary:
 637:.\Generated_Source\PSoC5/USBFS_drv.c **** *  Initialize a no data control transfer
 638:.\Generated_Source\PSoC5/USBFS_drv.c **** *
 639:.\Generated_Source\PSoC5/USBFS_drv.c **** * Parameters:
 640:.\Generated_Source\PSoC5/USBFS_drv.c **** *  None.
 641:.\Generated_Source\PSoC5/USBFS_drv.c **** *
 642:.\Generated_Source\PSoC5/USBFS_drv.c **** * Return:
 643:.\Generated_Source\PSoC5/USBFS_drv.c **** *  requestHandled state.
 644:.\Generated_Source\PSoC5/USBFS_drv.c **** *
 645:.\Generated_Source\PSoC5/USBFS_drv.c **** * Global variables:
 646:.\Generated_Source\PSoC5/USBFS_drv.c **** *  USBFS_transferState - set to TRANS_STATE_NO_DATA_CONTROL.
 647:.\Generated_Source\PSoC5/USBFS_drv.c **** *  USBFS_ep0Mode  - set to MODE_STATUS_IN_ONLY.
 648:.\Generated_Source\PSoC5/USBFS_drv.c **** *  USBFS_ep0Count - cleared.
 649:.\Generated_Source\PSoC5/USBFS_drv.c **** *  USBFS_ep0Toggle - set to EP0_CNT_DATA_TOGGLE
 650:.\Generated_Source\PSoC5/USBFS_drv.c **** *
 651:.\Generated_Source\PSoC5/USBFS_drv.c **** * Reentrant:
 652:.\Generated_Source\PSoC5/USBFS_drv.c **** *  No.
 653:.\Generated_Source\PSoC5/USBFS_drv.c **** *
 654:.\Generated_Source\PSoC5/USBFS_drv.c **** *******************************************************************************/
 655:.\Generated_Source\PSoC5/USBFS_drv.c **** uint8 USBFS_InitNoDataControlTransfer(void) 
 656:.\Generated_Source\PSoC5/USBFS_drv.c **** {
 319              		.loc 1 656 0
 320              		.cfi_startproc
 321              		@ args = 0, pretend = 0, frame = 0
 322              		@ frame_needed = 0, uses_anonymous_args = 0
 323              		@ link register save eliminated.
 657:.\Generated_Source\PSoC5/USBFS_drv.c ****     USBFS_transferState = USBFS_TRANS_STATE_NO_DATA_CONTROL;
 324              		.loc 1 657 0
 325 0000 064A     		ldr	r2, .L32
 658:.\Generated_Source\PSoC5/USBFS_drv.c ****     USBFS_ep0Mode = USBFS_MODE_STATUS_IN_ONLY;
 326              		.loc 1 658 0
 327 0002 0748     		ldr	r0, .L32+4
 657:.\Generated_Source\PSoC5/USBFS_drv.c ****     USBFS_transferState = USBFS_TRANS_STATE_NO_DATA_CONTROL;
 328              		.loc 1 657 0
 329 0004 0623     		movs	r3, #6
 330 0006 1370     		strb	r3, [r2, #0]
 331              		.loc 1 658 0
 332 0008 0370     		strb	r3, [r0, #0]
 659:.\Generated_Source\PSoC5/USBFS_drv.c ****     USBFS_ep0Toggle = USBFS_EP0_CNT_DATA_TOGGLE;
 333              		.loc 1 659 0
 334 000a 064B     		ldr	r3, .L32+8
 660:.\Generated_Source\PSoC5/USBFS_drv.c ****     USBFS_ep0Count = 0u;
 335              		.loc 1 660 0
 336 000c 0648     		ldr	r0, .L32+12
 659:.\Generated_Source\PSoC5/USBFS_drv.c ****     USBFS_ep0Toggle = USBFS_EP0_CNT_DATA_TOGGLE;
 337              		.loc 1 659 0
 338 000e 8021     		movs	r1, #128
 339              		.loc 1 660 0
 340 0010 0022     		movs	r2, #0
 659:.\Generated_Source\PSoC5/USBFS_drv.c ****     USBFS_ep0Toggle = USBFS_EP0_CNT_DATA_TOGGLE;
 341              		.loc 1 659 0
 342 0012 1970     		strb	r1, [r3, #0]
 343              		.loc 1 660 0
 344 0014 0270     		strb	r2, [r0, #0]
 661:.\Generated_Source\PSoC5/USBFS_drv.c **** 
 662:.\Generated_Source\PSoC5/USBFS_drv.c ****     return(USBFS_TRUE);
ARM GAS  C:\Users\MICHA_~1\AppData\Local\Temp\ccyD9XKy.s 			page 19


 663:.\Generated_Source\PSoC5/USBFS_drv.c **** }
 345              		.loc 1 663 0
 346 0016 0120     		movs	r0, #1
 347 0018 7047     		bx	lr
 348              	.L33:
 349 001a 00BF     		.align	2
 350              	.L32:
 351 001c 00000000 		.word	USBFS_transferState
 352 0020 00000000 		.word	USBFS_ep0Mode
 353 0024 00000000 		.word	USBFS_ep0Toggle
 354 0028 00000000 		.word	USBFS_ep0Count
 355              		.cfi_endproc
 356              	.LFE12:
 357              		.size	USBFS_InitNoDataControlTransfer, .-USBFS_InitNoDataControlTransfer
 358              		.section	.text.USBFS_UpdateStatusBlock,"ax",%progbits
 359              		.align	1
 360              		.global	USBFS_UpdateStatusBlock
 361              		.thumb
 362              		.thumb_func
 363              		.type	USBFS_UpdateStatusBlock, %function
 364              	USBFS_UpdateStatusBlock:
 365              	.LFB14:
 664:.\Generated_Source\PSoC5/USBFS_drv.c **** 
 665:.\Generated_Source\PSoC5/USBFS_drv.c **** 
 666:.\Generated_Source\PSoC5/USBFS_drv.c **** /*******************************************************************************
 667:.\Generated_Source\PSoC5/USBFS_drv.c **** * Function Name: USBFS_NoDataControlStatusStage
 668:.\Generated_Source\PSoC5/USBFS_drv.c **** ********************************************************************************
 669:.\Generated_Source\PSoC5/USBFS_drv.c **** * Summary:
 670:.\Generated_Source\PSoC5/USBFS_drv.c **** *  Handle the Status Stage of a no data control transfer.
 671:.\Generated_Source\PSoC5/USBFS_drv.c **** *
 672:.\Generated_Source\PSoC5/USBFS_drv.c **** *  SET_ADDRESS is special, since we need to receive the status stage with
 673:.\Generated_Source\PSoC5/USBFS_drv.c **** *  the old address.
 674:.\Generated_Source\PSoC5/USBFS_drv.c **** *
 675:.\Generated_Source\PSoC5/USBFS_drv.c **** * Parameters:
 676:.\Generated_Source\PSoC5/USBFS_drv.c **** *  None.
 677:.\Generated_Source\PSoC5/USBFS_drv.c **** *
 678:.\Generated_Source\PSoC5/USBFS_drv.c **** * Return:
 679:.\Generated_Source\PSoC5/USBFS_drv.c **** *  None.
 680:.\Generated_Source\PSoC5/USBFS_drv.c **** *
 681:.\Generated_Source\PSoC5/USBFS_drv.c **** * Global variables:
 682:.\Generated_Source\PSoC5/USBFS_drv.c **** *  USBFS_transferState - set to TRANS_STATE_IDLE.
 683:.\Generated_Source\PSoC5/USBFS_drv.c **** *  USBFS_ep0Mode  - set to MODE_STALL_IN_OUT.
 684:.\Generated_Source\PSoC5/USBFS_drv.c **** *  USBFS_ep0Toggle - set to EP0_CNT_DATA_TOGGLE
 685:.\Generated_Source\PSoC5/USBFS_drv.c **** *  USBFS_deviceAddress - used to set new address and cleared
 686:.\Generated_Source\PSoC5/USBFS_drv.c **** *
 687:.\Generated_Source\PSoC5/USBFS_drv.c **** * Reentrant:
 688:.\Generated_Source\PSoC5/USBFS_drv.c **** *  No.
 689:.\Generated_Source\PSoC5/USBFS_drv.c **** *
 690:.\Generated_Source\PSoC5/USBFS_drv.c **** *******************************************************************************/
 691:.\Generated_Source\PSoC5/USBFS_drv.c **** void USBFS_NoDataControlStatusStage(void) 
 692:.\Generated_Source\PSoC5/USBFS_drv.c **** {
 693:.\Generated_Source\PSoC5/USBFS_drv.c ****     /* Change the USB address register if we got a SET_ADDRESS. */
 694:.\Generated_Source\PSoC5/USBFS_drv.c ****     if (USBFS_deviceAddress != 0u)
 695:.\Generated_Source\PSoC5/USBFS_drv.c ****     {
 696:.\Generated_Source\PSoC5/USBFS_drv.c ****         CY_SET_REG8(USBFS_CR0_PTR, USBFS_deviceAddress | USBFS_CR0_ENABLE);
 697:.\Generated_Source\PSoC5/USBFS_drv.c ****         USBFS_deviceAddress = 0u;
 698:.\Generated_Source\PSoC5/USBFS_drv.c ****     }
ARM GAS  C:\Users\MICHA_~1\AppData\Local\Temp\ccyD9XKy.s 			page 20


 699:.\Generated_Source\PSoC5/USBFS_drv.c ****     /* Go Idle */
 700:.\Generated_Source\PSoC5/USBFS_drv.c ****     USBFS_transferState = USBFS_TRANS_STATE_IDLE;
 701:.\Generated_Source\PSoC5/USBFS_drv.c ****     /* Update the completion block */
 702:.\Generated_Source\PSoC5/USBFS_drv.c ****     USBFS_UpdateStatusBlock(USBFS_XFER_STATUS_ACK);
 703:.\Generated_Source\PSoC5/USBFS_drv.c ****      /* We expect no more data, so stall INs and OUTs */
 704:.\Generated_Source\PSoC5/USBFS_drv.c ****     USBFS_ep0Mode = USBFS_MODE_STALL_IN_OUT;
 705:.\Generated_Source\PSoC5/USBFS_drv.c **** }
 706:.\Generated_Source\PSoC5/USBFS_drv.c **** 
 707:.\Generated_Source\PSoC5/USBFS_drv.c **** 
 708:.\Generated_Source\PSoC5/USBFS_drv.c **** /*******************************************************************************
 709:.\Generated_Source\PSoC5/USBFS_drv.c **** * Function Name: USBFS_UpdateStatusBlock
 710:.\Generated_Source\PSoC5/USBFS_drv.c **** ********************************************************************************
 711:.\Generated_Source\PSoC5/USBFS_drv.c **** *
 712:.\Generated_Source\PSoC5/USBFS_drv.c **** * Summary:
 713:.\Generated_Source\PSoC5/USBFS_drv.c **** *  Update the Completion Status Block for a Request.  The block is updated
 714:.\Generated_Source\PSoC5/USBFS_drv.c **** *  with the completion code the USBFS_transferByteCount.  The
 715:.\Generated_Source\PSoC5/USBFS_drv.c **** *  StatusBlock Pointer is set to NULL.
 716:.\Generated_Source\PSoC5/USBFS_drv.c **** *
 717:.\Generated_Source\PSoC5/USBFS_drv.c **** * Parameters:
 718:.\Generated_Source\PSoC5/USBFS_drv.c **** *  completionCode - status.
 719:.\Generated_Source\PSoC5/USBFS_drv.c **** *
 720:.\Generated_Source\PSoC5/USBFS_drv.c **** * Return:
 721:.\Generated_Source\PSoC5/USBFS_drv.c **** *  None.
 722:.\Generated_Source\PSoC5/USBFS_drv.c **** *
 723:.\Generated_Source\PSoC5/USBFS_drv.c **** * Global variables:
 724:.\Generated_Source\PSoC5/USBFS_drv.c **** *  USBFS_currentTD.pStatusBlock->status - updated by the
 725:.\Generated_Source\PSoC5/USBFS_drv.c **** *    completionCode parameter.
 726:.\Generated_Source\PSoC5/USBFS_drv.c **** *  USBFS_currentTD.pStatusBlock->length - updated.
 727:.\Generated_Source\PSoC5/USBFS_drv.c **** *  USBFS_currentTD.pStatusBlock - cleared.
 728:.\Generated_Source\PSoC5/USBFS_drv.c **** *
 729:.\Generated_Source\PSoC5/USBFS_drv.c **** * Reentrant:
 730:.\Generated_Source\PSoC5/USBFS_drv.c **** *  No.
 731:.\Generated_Source\PSoC5/USBFS_drv.c **** *
 732:.\Generated_Source\PSoC5/USBFS_drv.c **** *******************************************************************************/
 733:.\Generated_Source\PSoC5/USBFS_drv.c **** void USBFS_UpdateStatusBlock(uint8 completionCode) 
 734:.\Generated_Source\PSoC5/USBFS_drv.c **** {
 366              		.loc 1 734 0
 367              		.cfi_startproc
 368              		@ args = 0, pretend = 0, frame = 0
 369              		@ frame_needed = 0, uses_anonymous_args = 0
 370              		@ link register save eliminated.
 371              	.LVL11:
 735:.\Generated_Source\PSoC5/USBFS_drv.c ****     if (USBFS_currentTD.pStatusBlock != NULL)
 372              		.loc 1 735 0
 373 0000 054B     		ldr	r3, .L39
 374 0002 9A68     		ldr	r2, [r3, #8]
 375 0004 3AB1     		cbz	r2, .L34
 736:.\Generated_Source\PSoC5/USBFS_drv.c ****     {
 737:.\Generated_Source\PSoC5/USBFS_drv.c ****         USBFS_currentTD.pStatusBlock->status = completionCode;
 376              		.loc 1 737 0
 377 0006 9968     		ldr	r1, [r3, #8]
 738:.\Generated_Source\PSoC5/USBFS_drv.c ****         USBFS_currentTD.pStatusBlock->length = USBFS_transferByteCount;
 378              		.loc 1 738 0
 379 0008 044A     		ldr	r2, .L39+4
 737:.\Generated_Source\PSoC5/USBFS_drv.c ****         USBFS_currentTD.pStatusBlock->status = completionCode;
 380              		.loc 1 737 0
 381 000a 0870     		strb	r0, [r1, #0]
ARM GAS  C:\Users\MICHA_~1\AppData\Local\Temp\ccyD9XKy.s 			page 21


 382              		.loc 1 738 0
 383 000c 9868     		ldr	r0, [r3, #8]
 384              	.LVL12:
 385 000e 1188     		ldrh	r1, [r2, #0]
 386              	.LVL13:
 387 0010 4180     		strh	r1, [r0, #2]	@ movhi
 739:.\Generated_Source\PSoC5/USBFS_drv.c ****         USBFS_currentTD.pStatusBlock = NULL;
 388              		.loc 1 739 0
 389 0012 0020     		movs	r0, #0
 390 0014 9860     		str	r0, [r3, #8]
 391              	.L34:
 392 0016 7047     		bx	lr
 393              	.L40:
 394              		.align	2
 395              	.L39:
 396 0018 00000000 		.word	USBFS_currentTD
 397 001c 00000000 		.word	USBFS_transferByteCount
 398              		.cfi_endproc
 399              	.LFE14:
 400              		.size	USBFS_UpdateStatusBlock, .-USBFS_UpdateStatusBlock
 401              		.section	.text.USBFS_NoDataControlStatusStage,"ax",%progbits
 402              		.align	1
 403              		.global	USBFS_NoDataControlStatusStage
 404              		.thumb
 405              		.thumb_func
 406              		.type	USBFS_NoDataControlStatusStage, %function
 407              	USBFS_NoDataControlStatusStage:
 408              	.LFB13:
 692:.\Generated_Source\PSoC5/USBFS_drv.c **** {
 409              		.loc 1 692 0
 410              		.cfi_startproc
 411              		@ args = 0, pretend = 0, frame = 0
 412              		@ frame_needed = 0, uses_anonymous_args = 0
 413 0000 08B5     		push	{r3, lr}
 414              	.LCFI1:
 415              		.cfi_def_cfa_offset 8
 416              		.cfi_offset 3, -8
 417              		.cfi_offset 14, -4
 694:.\Generated_Source\PSoC5/USBFS_drv.c ****     if (USBFS_deviceAddress != 0u)
 418              		.loc 1 694 0
 419 0002 0A4B     		ldr	r3, .L46
 420 0004 1A78     		ldrb	r2, [r3, #0]	@ zero_extendqisi2
 421 0006 32B1     		cbz	r2, .L42
 696:.\Generated_Source\PSoC5/USBFS_drv.c ****         CY_SET_REG8(USBFS_CR0_PTR, USBFS_deviceAddress | USBFS_CR0_ENABLE);
 422              		.loc 1 696 0
 423 0008 1978     		ldrb	r1, [r3, #0]	@ zero_extendqisi2
 424 000a 094A     		ldr	r2, .L46+4
 425 000c 41F08000 		orr	r0, r1, #128
 697:.\Generated_Source\PSoC5/USBFS_drv.c ****         USBFS_deviceAddress = 0u;
 426              		.loc 1 697 0
 427 0010 0021     		movs	r1, #0
 696:.\Generated_Source\PSoC5/USBFS_drv.c ****         CY_SET_REG8(USBFS_CR0_PTR, USBFS_deviceAddress | USBFS_CR0_ENABLE);
 428              		.loc 1 696 0
 429 0012 1070     		strb	r0, [r2, #0]
 697:.\Generated_Source\PSoC5/USBFS_drv.c ****         USBFS_deviceAddress = 0u;
 430              		.loc 1 697 0
 431 0014 1970     		strb	r1, [r3, #0]
ARM GAS  C:\Users\MICHA_~1\AppData\Local\Temp\ccyD9XKy.s 			page 22


 432              	.L42:
 700:.\Generated_Source\PSoC5/USBFS_drv.c ****     USBFS_transferState = USBFS_TRANS_STATE_IDLE;
 433              		.loc 1 700 0
 434 0016 074B     		ldr	r3, .L46+8
 435 0018 0020     		movs	r0, #0
 436 001a 1870     		strb	r0, [r3, #0]
 702:.\Generated_Source\PSoC5/USBFS_drv.c ****     USBFS_UpdateStatusBlock(USBFS_XFER_STATUS_ACK);
 437              		.loc 1 702 0
 438 001c 0120     		movs	r0, #1
 439 001e FFF7FEFF 		bl	USBFS_UpdateStatusBlock
 440              	.LVL14:
 704:.\Generated_Source\PSoC5/USBFS_drv.c ****     USBFS_ep0Mode = USBFS_MODE_STALL_IN_OUT;
 441              		.loc 1 704 0
 442 0022 0549     		ldr	r1, .L46+12
 443 0024 0322     		movs	r2, #3
 444 0026 0A70     		strb	r2, [r1, #0]
 445 0028 08BD     		pop	{r3, pc}
 446              	.L47:
 447 002a 00BF     		.align	2
 448              	.L46:
 449 002c 00000000 		.word	USBFS_deviceAddress
 450 0030 08600040 		.word	1073766408
 451 0034 00000000 		.word	USBFS_transferState
 452 0038 00000000 		.word	USBFS_ep0Mode
 453              		.cfi_endproc
 454              	.LFE13:
 455              		.size	USBFS_NoDataControlStatusStage, .-USBFS_NoDataControlStatusStage
 456              		.section	.text.USBFS_ControlWriteStatusStage,"ax",%progbits
 457              		.align	1
 458              		.global	USBFS_ControlWriteStatusStage
 459              		.thumb
 460              		.thumb_func
 461              		.type	USBFS_ControlWriteStatusStage, %function
 462              	USBFS_ControlWriteStatusStage:
 463              	.LFB11:
 622:.\Generated_Source\PSoC5/USBFS_drv.c **** {
 464              		.loc 1 622 0
 465              		.cfi_startproc
 466              		@ args = 0, pretend = 0, frame = 0
 467              		@ frame_needed = 0, uses_anonymous_args = 0
 468 0000 08B5     		push	{r3, lr}
 469              	.LCFI2:
 470              		.cfi_def_cfa_offset 8
 471              		.cfi_offset 3, -8
 472              		.cfi_offset 14, -4
 624:.\Generated_Source\PSoC5/USBFS_drv.c ****     USBFS_transferState = USBFS_TRANS_STATE_IDLE;
 473              		.loc 1 624 0
 474 0002 054B     		ldr	r3, .L49
 475 0004 0022     		movs	r2, #0
 626:.\Generated_Source\PSoC5/USBFS_drv.c ****     USBFS_UpdateStatusBlock(USBFS_XFER_STATUS_ACK);
 476              		.loc 1 626 0
 477 0006 0120     		movs	r0, #1
 624:.\Generated_Source\PSoC5/USBFS_drv.c ****     USBFS_transferState = USBFS_TRANS_STATE_IDLE;
 478              		.loc 1 624 0
 479 0008 1A70     		strb	r2, [r3, #0]
 626:.\Generated_Source\PSoC5/USBFS_drv.c ****     USBFS_UpdateStatusBlock(USBFS_XFER_STATUS_ACK);
 480              		.loc 1 626 0
ARM GAS  C:\Users\MICHA_~1\AppData\Local\Temp\ccyD9XKy.s 			page 23


 481 000a FFF7FEFF 		bl	USBFS_UpdateStatusBlock
 482              	.LVL15:
 628:.\Generated_Source\PSoC5/USBFS_drv.c ****     USBFS_ep0Mode = USBFS_MODE_STALL_IN_OUT;
 483              		.loc 1 628 0
 484 000e 0349     		ldr	r1, .L49+4
 485 0010 0320     		movs	r0, #3
 486 0012 0870     		strb	r0, [r1, #0]
 487 0014 08BD     		pop	{r3, pc}
 488              	.L50:
 489 0016 00BF     		.align	2
 490              	.L49:
 491 0018 00000000 		.word	USBFS_transferState
 492 001c 00000000 		.word	USBFS_ep0Mode
 493              		.cfi_endproc
 494              	.LFE11:
 495              		.size	USBFS_ControlWriteStatusStage, .-USBFS_ControlWriteStatusStage
 496              		.section	.text.USBFS_HandleIN,"ax",%progbits
 497              		.align	1
 498              		.global	USBFS_HandleIN
 499              		.thumb
 500              		.thumb_func
 501              		.type	USBFS_HandleIN, %function
 502              	USBFS_HandleIN:
 503              	.LFB2:
 208:.\Generated_Source\PSoC5/USBFS_drv.c **** {
 504              		.loc 1 208 0
 505              		.cfi_startproc
 506              		@ args = 0, pretend = 0, frame = 0
 507              		@ frame_needed = 0, uses_anonymous_args = 0
 508              		@ link register save eliminated.
 209:.\Generated_Source\PSoC5/USBFS_drv.c ****     switch (USBFS_transferState)
 509              		.loc 1 209 0
 510 0000 074B     		ldr	r3, .L57
 511 0002 1878     		ldrb	r0, [r3, #0]	@ zero_extendqisi2
 512 0004 0428     		cmp	r0, #4
 513 0006 05D0     		beq	.L54
 514 0008 0628     		cmp	r0, #6
 515 000a 05D0     		beq	.L55
 516 000c 0228     		cmp	r0, #2
 517 000e 05D1     		bne	.L56
 225:.\Generated_Source\PSoC5/USBFS_drv.c **** }
 518              		.loc 1 225 0
 519              	.LBB4:
 520              	.LBB5:
 458:.\Generated_Source\PSoC5/USBFS_drv.c ****     USBFS_LoadEP0();
 521              		.loc 1 458 0
 522 0010 FFF7FEBF 		b	USBFS_LoadEP0
 523              	.LVL16:
 524              	.L54:
 525              	.LBE5:
 526              	.LBE4:
 225:.\Generated_Source\PSoC5/USBFS_drv.c **** }
 527              		.loc 1 225 0
 217:.\Generated_Source\PSoC5/USBFS_drv.c ****             USBFS_ControlWriteStatusStage();
 528              		.loc 1 217 0
 529 0014 FFF7FEBF 		b	USBFS_ControlWriteStatusStage
 530              	.LVL17:
ARM GAS  C:\Users\MICHA_~1\AppData\Local\Temp\ccyD9XKy.s 			page 24


 531              	.L55:
 225:.\Generated_Source\PSoC5/USBFS_drv.c **** }
 532              		.loc 1 225 0
 220:.\Generated_Source\PSoC5/USBFS_drv.c ****             USBFS_NoDataControlStatusStage();
 533              		.loc 1 220 0
 534 0018 FFF7FEBF 		b	USBFS_NoDataControlStatusStage
 535              	.LVL18:
 536              	.L56:
 537 001c 7047     		bx	lr
 538              	.L58:
 539 001e 00BF     		.align	2
 540              	.L57:
 541 0020 00000000 		.word	USBFS_transferState
 542              		.cfi_endproc
 543              	.LFE2:
 544              		.size	USBFS_HandleIN, .-USBFS_HandleIN
 545              		.section	.text.USBFS_ControlReadStatusStage,"ax",%progbits
 546              		.align	1
 547              		.global	USBFS_ControlReadStatusStage
 548              		.thumb
 549              		.thumb_func
 550              		.type	USBFS_ControlReadStatusStage, %function
 551              	USBFS_ControlReadStatusStage:
 552              	.LFB8:
 485:.\Generated_Source\PSoC5/USBFS_drv.c **** {
 553              		.loc 1 485 0
 554              		.cfi_startproc
 555              		@ args = 0, pretend = 0, frame = 0
 556              		@ frame_needed = 0, uses_anonymous_args = 0
 557 0000 08B5     		push	{r3, lr}
 558              	.LCFI3:
 559              		.cfi_def_cfa_offset 8
 560              		.cfi_offset 3, -8
 561              		.cfi_offset 14, -4
 487:.\Generated_Source\PSoC5/USBFS_drv.c ****     USBFS_transferByteCount += USBFS_lastPacketSize;
 562              		.loc 1 487 0
 563 0002 0849     		ldr	r1, .L60
 564 0004 084B     		ldr	r3, .L60+4
 565 0006 1A88     		ldrh	r2, [r3, #0]
 566 0008 0878     		ldrb	r0, [r1, #0]	@ zero_extendqisi2
 567 000a 8218     		adds	r2, r0, r2
 568 000c 91B2     		uxth	r1, r2
 569 000e 1980     		strh	r1, [r3, #0]	@ movhi
 489:.\Generated_Source\PSoC5/USBFS_drv.c ****     USBFS_transferState = USBFS_TRANS_STATE_IDLE;
 570              		.loc 1 489 0
 571 0010 064B     		ldr	r3, .L60+8
 572 0012 0020     		movs	r0, #0
 573 0014 1870     		strb	r0, [r3, #0]
 491:.\Generated_Source\PSoC5/USBFS_drv.c ****     USBFS_UpdateStatusBlock(USBFS_XFER_STATUS_ACK);
 574              		.loc 1 491 0
 575 0016 0120     		movs	r0, #1
 576 0018 FFF7FEFF 		bl	USBFS_UpdateStatusBlock
 577              	.LVL19:
 493:.\Generated_Source\PSoC5/USBFS_drv.c ****     USBFS_ep0Mode =  USBFS_MODE_STALL_IN_OUT;
 578              		.loc 1 493 0
 579 001c 0449     		ldr	r1, .L60+12
 580 001e 0322     		movs	r2, #3
ARM GAS  C:\Users\MICHA_~1\AppData\Local\Temp\ccyD9XKy.s 			page 25


 581 0020 0A70     		strb	r2, [r1, #0]
 582 0022 08BD     		pop	{r3, pc}
 583              	.L61:
 584              		.align	2
 585              	.L60:
 586 0024 00000000 		.word	USBFS_lastPacketSize
 587 0028 00000000 		.word	USBFS_transferByteCount
 588 002c 00000000 		.word	USBFS_transferState
 589 0030 00000000 		.word	USBFS_ep0Mode
 590              		.cfi_endproc
 591              	.LFE8:
 592              		.size	USBFS_ControlReadStatusStage, .-USBFS_ControlReadStatusStage
 593              		.section	.text.USBFS_HandleOUT,"ax",%progbits
 594              		.align	1
 595              		.global	USBFS_HandleOUT
 596              		.thumb
 597              		.thumb_func
 598              		.type	USBFS_HandleOUT, %function
 599              	USBFS_HandleOUT:
 600              	.LFB3:
 246:.\Generated_Source\PSoC5/USBFS_drv.c **** {
 601              		.loc 1 246 0
 602              		.cfi_startproc
 603              		@ args = 0, pretend = 0, frame = 0
 604              		@ frame_needed = 0, uses_anonymous_args = 0
 605 0000 08B5     		push	{r3, lr}
 606              	.LCFI4:
 607              		.cfi_def_cfa_offset 8
 608              		.cfi_offset 3, -8
 609              		.cfi_offset 14, -4
 247:.\Generated_Source\PSoC5/USBFS_drv.c ****     switch (USBFS_transferState)
 610              		.loc 1 247 0
 611 0002 0B4B     		ldr	r3, .L67
 612 0004 1878     		ldrb	r0, [r3, #0]	@ zero_extendqisi2
 613 0006 0428     		cmp	r0, #4
 614 0008 07D0     		beq	.L65
 615 000a 0628     		cmp	r0, #6
 616 000c 09D0     		beq	.L66
 617 000e 0228     		cmp	r0, #2
 618 0010 0DD1     		bne	.L62
 266:.\Generated_Source\PSoC5/USBFS_drv.c **** }
 619              		.loc 1 266 0
 620 0012 BDE80840 		pop	{r3, lr}
 252:.\Generated_Source\PSoC5/USBFS_drv.c ****             USBFS_ControlReadStatusStage();
 621              		.loc 1 252 0
 622 0016 FFF7FEBF 		b	USBFS_ControlReadStatusStage
 623              	.LVL20:
 624              	.L65:
 266:.\Generated_Source\PSoC5/USBFS_drv.c **** }
 625              		.loc 1 266 0
 626 001a BDE80840 		pop	{r3, lr}
 255:.\Generated_Source\PSoC5/USBFS_drv.c ****             USBFS_ControlWriteDataStage();
 627              		.loc 1 255 0
 628 001e FFF7FEBF 		b	USBFS_ControlWriteDataStage
 629              	.LVL21:
 630              	.L66:
 259:.\Generated_Source\PSoC5/USBFS_drv.c ****             USBFS_UpdateStatusBlock(USBFS_XFER_ERROR);
ARM GAS  C:\Users\MICHA_~1\AppData\Local\Temp\ccyD9XKy.s 			page 26


 631              		.loc 1 259 0
 632 0022 0320     		movs	r0, #3
 633 0024 FFF7FEFF 		bl	USBFS_UpdateStatusBlock
 634              	.LVL22:
 261:.\Generated_Source\PSoC5/USBFS_drv.c ****             USBFS_ep0Mode = USBFS_MODE_STALL_IN_OUT;
 635              		.loc 1 261 0
 636 0028 0249     		ldr	r1, .L67+4
 637 002a 0322     		movs	r2, #3
 638 002c 0A70     		strb	r2, [r1, #0]
 639              	.L62:
 640 002e 08BD     		pop	{r3, pc}
 641              	.L68:
 642              		.align	2
 643              	.L67:
 644 0030 00000000 		.word	USBFS_transferState
 645 0034 00000000 		.word	USBFS_ep0Mode
 646              		.cfi_endproc
 647              	.LFE3:
 648              		.size	USBFS_HandleOUT, .-USBFS_HandleOUT
 649              		.section	.text.USBFS_HandleSetup,"ax",%progbits
 650              		.align	1
 651              		.global	USBFS_HandleSetup
 652              		.thumb
 653              		.thumb_func
 654              		.type	USBFS_HandleSetup, %function
 655              	USBFS_HandleSetup:
 656              	.LFB1:
 152:.\Generated_Source\PSoC5/USBFS_drv.c **** {
 657              		.loc 1 152 0
 658              		.cfi_startproc
 659              		@ args = 0, pretend = 0, frame = 0
 660              		@ frame_needed = 0, uses_anonymous_args = 0
 661 0000 08B5     		push	{r3, lr}
 662              	.LCFI5:
 663              		.cfi_def_cfa_offset 8
 664              		.cfi_offset 3, -8
 665              		.cfi_offset 14, -4
 155:.\Generated_Source\PSoC5/USBFS_drv.c ****     requestHandled = CY_GET_REG8(USBFS_EP0_CR_PTR);      /* unlock registers */
 666              		.loc 1 155 0
 667 0002 114B     		ldr	r3, .L77
 668 0004 1A78     		ldrb	r2, [r3, #0]	@ zero_extendqisi2
 669              	.LVL23:
 156:.\Generated_Source\PSoC5/USBFS_drv.c ****     CY_SET_REG8(USBFS_EP0_CR_PTR, requestHandled);       /* clear setup bit */
 670              		.loc 1 156 0
 671 0006 1A70     		strb	r2, [r3, #0]
 157:.\Generated_Source\PSoC5/USBFS_drv.c ****     requestHandled = CY_GET_REG8(USBFS_EP0_CR_PTR);      /* reread register */
 672              		.loc 1 157 0
 673 0008 1878     		ldrb	r0, [r3, #0]	@ zero_extendqisi2
 674              	.LVL24:
 158:.\Generated_Source\PSoC5/USBFS_drv.c ****     if((requestHandled & USBFS_MODE_SETUP_RCVD) != 0u)
 675              		.loc 1 158 0
 676 000a 0206     		lsls	r2, r0, #24
 677 000c 02D5     		bpl	.L70
 160:.\Generated_Source\PSoC5/USBFS_drv.c ****         USBFS_ep0Mode = requestHandled;        /* if SETUP bit set -> exit without modifying the mo
 678              		.loc 1 160 0
 679 000e 0F4B     		ldr	r3, .L77+4
 680 0010 1870     		strb	r0, [r3, #0]
ARM GAS  C:\Users\MICHA_~1\AppData\Local\Temp\ccyD9XKy.s 			page 27


 681 0012 08BD     		pop	{r3, pc}
 682              	.L70:
 165:.\Generated_Source\PSoC5/USBFS_drv.c ****         USBFS_UpdateStatusBlock(USBFS_XFER_PREMATURE);
 683              		.loc 1 165 0
 684 0014 0220     		movs	r0, #2
 685              	.LVL25:
 686 0016 FFF7FEFF 		bl	USBFS_UpdateStatusBlock
 687              	.LVL26:
 167:.\Generated_Source\PSoC5/USBFS_drv.c ****         switch (CY_GET_REG8(USBFS_bmRequestType) & USBFS_RQST_TYPE_MASK)
 688              		.loc 1 167 0
 689 001a 0D49     		ldr	r1, .L77+8
 690 001c 0B78     		ldrb	r3, [r1, #0]	@ zero_extendqisi2
 691 001e 03F06002 		and	r2, r3, #96
 692 0022 202A     		cmp	r2, #32
 693 0024 05D0     		beq	.L74
 694 0026 402A     		cmp	r2, #64
 695 0028 06D0     		beq	.L75
 696 002a 42B9     		cbnz	r2, .L72
 170:.\Generated_Source\PSoC5/USBFS_drv.c ****                 requestHandled = USBFS_HandleStandardRqst();
 697              		.loc 1 170 0
 698 002c FFF7FEFF 		bl	USBFS_HandleStandardRqst
 699              	.LVL27:
 171:.\Generated_Source\PSoC5/USBFS_drv.c ****                 break;
 700              		.loc 1 171 0
 701 0030 04E0     		b	.L76
 702              	.LVL28:
 703              	.L74:
 173:.\Generated_Source\PSoC5/USBFS_drv.c ****                 requestHandled = USBFS_DispatchClassRqst();
 704              		.loc 1 173 0
 705 0032 FFF7FEFF 		bl	USBFS_DispatchClassRqst
 706              	.LVL29:
 174:.\Generated_Source\PSoC5/USBFS_drv.c ****                 break;
 707              		.loc 1 174 0
 708 0036 01E0     		b	.L76
 709              	.LVL30:
 710              	.L75:
 176:.\Generated_Source\PSoC5/USBFS_drv.c ****                 requestHandled = USBFS_HandleVendorRqst();
 711              		.loc 1 176 0
 712 0038 FFF7FEFF 		bl	USBFS_HandleVendorRqst
 713              	.LVL31:
 714              	.L76:
 182:.\Generated_Source\PSoC5/USBFS_drv.c ****         if (requestHandled == USBFS_FALSE)
 715              		.loc 1 182 0
 716 003c 10B9     		cbnz	r0, .L69
 717              	.LVL32:
 718              	.L72:
 184:.\Generated_Source\PSoC5/USBFS_drv.c ****             USBFS_ep0Mode = USBFS_MODE_STALL_IN_OUT;
 719              		.loc 1 184 0
 720 003e 0349     		ldr	r1, .L77+4
 721 0040 0320     		movs	r0, #3
 722 0042 0870     		strb	r0, [r1, #0]
 723              	.L69:
 724 0044 08BD     		pop	{r3, pc}
 725              	.L78:
 726 0046 00BF     		.align	2
 727              	.L77:
 728 0048 28600040 		.word	1073766440
ARM GAS  C:\Users\MICHA_~1\AppData\Local\Temp\ccyD9XKy.s 			page 28


 729 004c 00000000 		.word	USBFS_ep0Mode
 730 0050 00600040 		.word	1073766400
 731              		.cfi_endproc
 732              	.LFE1:
 733              		.size	USBFS_HandleSetup, .-USBFS_HandleSetup
 734              		.section	.text.USBFS_EP_0_ISR,"ax",%progbits
 735              		.align	1
 736              		.global	USBFS_EP_0_ISR
 737              		.thumb
 738              		.thumb_func
 739              		.type	USBFS_EP_0_ISR, %function
 740              	USBFS_EP_0_ISR:
 741              	.LFB0:
  67:.\Generated_Source\PSoC5/USBFS_drv.c **** {
 742              		.loc 1 67 0
 743              		.cfi_startproc
 744              		@ args = 0, pretend = 0, frame = 0
 745              		@ frame_needed = 0, uses_anonymous_args = 0
 746 0000 08B5     		push	{r3, lr}
 747              	.LCFI6:
 748              		.cfi_def_cfa_offset 8
 749              		.cfi_offset 3, -8
 750              		.cfi_offset 14, -4
  72:.\Generated_Source\PSoC5/USBFS_drv.c ****     bRegTemp = CY_GET_REG8(USBFS_EP0_CR_PTR);
 751              		.loc 1 72 0
 752 0002 224B     		ldr	r3, .L95
 753 0004 1A78     		ldrb	r2, [r3, #0]	@ zero_extendqisi2
 754 0006 D0B2     		uxtb	r0, r2
 755              	.LVL33:
  73:.\Generated_Source\PSoC5/USBFS_drv.c ****     if ((bRegTemp & USBFS_MODE_ACKD) != 0u)
 756              		.loc 1 73 0
 757 0008 00F01001 		and	r1, r0, #16
 758 000c CBB2     		uxtb	r3, r1
 759 000e 002B     		cmp	r3, #0
 760 0010 3BD0     		beq	.L79
 761              	.LVL34:
  76:.\Generated_Source\PSoC5/USBFS_drv.c ****         if ((bRegTemp & USBFS_MODE_SETUP_RCVD) != 0u)
 762              		.loc 1 76 0
 763 0012 52B2     		sxtb	r2, r2
 764 0014 002A     		cmp	r2, #0
 765 0016 0ADA     		bge	.L82
  78:.\Generated_Source\PSoC5/USBFS_drv.c ****             if((bRegTemp & USBFS_MODE_MASK) != USBFS_MODE_NAK_IN_OUT)
 766              		.loc 1 78 0
 767 0018 00F00F01 		and	r1, r0, #15
 768 001c 0129     		cmp	r1, #1
 769 001e 34D1     		bne	.L79
  84:.\Generated_Source\PSoC5/USBFS_drv.c ****                 USBFS_HandleSetup();
 770              		.loc 1 84 0
 771 0020 FFF7FEFF 		bl	USBFS_HandleSetup
 772              	.LVL35:
  85:.\Generated_Source\PSoC5/USBFS_drv.c ****                 if((USBFS_ep0Mode & USBFS_MODE_SETUP_RCVD) != 0u)
 773              		.loc 1 85 0
 774 0024 1A4B     		ldr	r3, .L95+4
 775 0026 1878     		ldrb	r0, [r3, #0]	@ zero_extendqisi2
 776 0028 0006     		lsls	r0, r0, #24
 777 002a 0DD5     		bpl	.L84
 778 002c 08BD     		pop	{r3, pc}
ARM GAS  C:\Users\MICHA_~1\AppData\Local\Temp\ccyD9XKy.s 			page 29


 779              	.LVL36:
 780              	.L82:
  92:.\Generated_Source\PSoC5/USBFS_drv.c ****         else if ((bRegTemp & USBFS_MODE_IN_RCVD) != 0u)
 781              		.loc 1 92 0
 782 002e 00F04001 		and	r1, r0, #64
 783 0032 CBB2     		uxtb	r3, r1
 784 0034 13B1     		cbz	r3, .L85
  94:.\Generated_Source\PSoC5/USBFS_drv.c ****             USBFS_HandleIN();
 785              		.loc 1 94 0
 786 0036 FFF7FEFF 		bl	USBFS_HandleIN
 787              	.LVL37:
 788 003a 05E0     		b	.L84
 789              	.LVL38:
 790              	.L85:
  96:.\Generated_Source\PSoC5/USBFS_drv.c ****         else if ((bRegTemp & USBFS_MODE_OUT_RCVD) != 0u)
 791              		.loc 1 96 0
 792 003c 00F02000 		and	r0, r0, #32
 793 0040 C2B2     		uxtb	r2, r0
 794              	.LVL39:
 795 0042 12B3     		cbz	r2, .L79
  98:.\Generated_Source\PSoC5/USBFS_drv.c ****             USBFS_HandleOUT();
 796              		.loc 1 98 0
 797 0044 FFF7FEFF 		bl	USBFS_HandleOUT
 798              	.LVL40:
 799              	.L84:
 106:.\Generated_Source\PSoC5/USBFS_drv.c ****             bRegTemp = CY_GET_REG8(USBFS_EP0_CR_PTR);    /* unlock registers */
 800              		.loc 1 106 0
 801 0048 104A     		ldr	r2, .L95
 802 004a 1178     		ldrb	r1, [r2, #0]	@ zero_extendqisi2
 803              	.LVL41:
 107:.\Generated_Source\PSoC5/USBFS_drv.c ****             if((bRegTemp & USBFS_MODE_SETUP_RCVD) == 0u)  /* Check if SETUP bit is not set, otherwi
 804              		.loc 1 107 0
 805 004c 0906     		lsls	r1, r1, #24
 806              	.LVL42:
 807 004e 1CD4     		bmi	.L79
 808              	.L89:
 110:.\Generated_Source\PSoC5/USBFS_drv.c ****                 bRegTemp = USBFS_ep0Toggle | USBFS_ep0Count;
 809              		.loc 1 110 0
 810 0050 104B     		ldr	r3, .L95+8
 811 0052 114A     		ldr	r2, .L95+12
 812 0054 1878     		ldrb	r0, [r3, #0]	@ zero_extendqisi2
 813 0056 1178     		ldrb	r1, [r2, #0]	@ zero_extendqisi2
 814 0058 41EA0003 		orr	r3, r1, r0
 815              	.LVL43:
 111:.\Generated_Source\PSoC5/USBFS_drv.c ****                 CY_SET_REG8(USBFS_EP0_CNT_PTR, bRegTemp);
 816              		.loc 1 111 0
 817 005c 0F48     		ldr	r0, .L95+16
 818 005e 0370     		strb	r3, [r0, #0]
 112:.\Generated_Source\PSoC5/USBFS_drv.c ****                 if(bRegTemp == CY_GET_REG8(USBFS_EP0_CNT_PTR))   /* continue if writing was success
 819              		.loc 1 112 0
 820 0060 0278     		ldrb	r2, [r0, #0]	@ zero_extendqisi2
 821 0062 9342     		cmp	r3, r2
 822 0064 11D1     		bne	.L79
 823              	.LVL44:
 824              	.L92:
 116:.\Generated_Source\PSoC5/USBFS_drv.c ****                         modifyReg = USBFS_ep0Mode;       /* Init temporary variable */
 825              		.loc 1 116 0
ARM GAS  C:\Users\MICHA_~1\AppData\Local\Temp\ccyD9XKy.s 			page 30


 826 0066 0A49     		ldr	r1, .L95+4
 118:.\Generated_Source\PSoC5/USBFS_drv.c ****                         bRegTemp = CY_GET_REG8(USBFS_EP0_CR_PTR) & USBFS_MODE_SETUP_RCVD;
 827              		.loc 1 118 0
 828 0068 084B     		ldr	r3, .L95
 116:.\Generated_Source\PSoC5/USBFS_drv.c ****                         modifyReg = USBFS_ep0Mode;       /* Init temporary variable */
 829              		.loc 1 116 0
 830 006a 0A78     		ldrb	r2, [r1, #0]	@ zero_extendqisi2
 831              	.LVL45:
 118:.\Generated_Source\PSoC5/USBFS_drv.c ****                         bRegTemp = CY_GET_REG8(USBFS_EP0_CR_PTR) & USBFS_MODE_SETUP_RCVD;
 832              		.loc 1 118 0
 833 006c 1878     		ldrb	r0, [r3, #0]	@ zero_extendqisi2
 834              	.LVL46:
 119:.\Generated_Source\PSoC5/USBFS_drv.c ****                         if(bRegTemp == 0u)                          /* Check if SETUP bit is not se
 835              		.loc 1 119 0
 836 006e 00F08000 		and	r0, r0, #128
 837              	.LVL47:
 838 0072 C0B2     		uxtb	r0, r0
 839 0074 20B9     		cbnz	r0, .L87
 122:.\Generated_Source\PSoC5/USBFS_drv.c ****                             CY_SET_REG8(USBFS_EP0_CR_PTR, USBFS_ep0Mode);
 840              		.loc 1 122 0
 841 0076 0A78     		ldrb	r2, [r1, #0]	@ zero_extendqisi2
 842              	.LVL48:
 843 0078 1A70     		strb	r2, [r3, #0]
 124:.\Generated_Source\PSoC5/USBFS_drv.c ****                             modifyReg = CY_GET_REG8(USBFS_EP0_CR_PTR) & USBFS_MODE_MASK;
 844              		.loc 1 124 0
 845 007a 1978     		ldrb	r1, [r3, #0]	@ zero_extendqisi2
 846 007c 01F00F02 		and	r2, r1, #15
 847              	.LVL49:
 848              	.L87:
 126:.\Generated_Source\PSoC5/USBFS_drv.c ****                     }while(modifyReg != USBFS_ep0Mode);  /* Repeat if writing was not successful */
 849              		.loc 1 126 0
 850 0080 034B     		ldr	r3, .L95+4
 851 0082 1878     		ldrb	r0, [r3, #0]	@ zero_extendqisi2
 852 0084 8242     		cmp	r2, r0
 853 0086 EED1     		bne	.L92
 854 0088 08BD     		pop	{r3, pc}
 855              	.LVL50:
 856              	.L79:
 857 008a 08BD     		pop	{r3, pc}
 858              	.L96:
 859              		.align	2
 860              	.L95:
 861 008c 28600040 		.word	1073766440
 862 0090 00000000 		.word	USBFS_ep0Mode
 863 0094 00000000 		.word	USBFS_ep0Toggle
 864 0098 00000000 		.word	USBFS_ep0Count
 865 009c 29600040 		.word	1073766441
 866              		.cfi_endproc
 867              	.LFE0:
 868              		.size	USBFS_EP_0_ISR, .-USBFS_EP_0_ISR
 869              		.section	.text.USBFS_InitializeStatusBlock,"ax",%progbits
 870              		.align	1
 871              		.global	USBFS_InitializeStatusBlock
 872              		.thumb
 873              		.thumb_func
 874              		.type	USBFS_InitializeStatusBlock, %function
 875              	USBFS_InitializeStatusBlock:
ARM GAS  C:\Users\MICHA_~1\AppData\Local\Temp\ccyD9XKy.s 			page 31


 876              	.LFB15:
 740:.\Generated_Source\PSoC5/USBFS_drv.c ****     }
 741:.\Generated_Source\PSoC5/USBFS_drv.c **** }
 742:.\Generated_Source\PSoC5/USBFS_drv.c **** 
 743:.\Generated_Source\PSoC5/USBFS_drv.c **** 
 744:.\Generated_Source\PSoC5/USBFS_drv.c **** /*******************************************************************************
 745:.\Generated_Source\PSoC5/USBFS_drv.c **** * Function Name: USBFS_InitializeStatusBlock
 746:.\Generated_Source\PSoC5/USBFS_drv.c **** ********************************************************************************
 747:.\Generated_Source\PSoC5/USBFS_drv.c **** *
 748:.\Generated_Source\PSoC5/USBFS_drv.c **** * Summary:
 749:.\Generated_Source\PSoC5/USBFS_drv.c **** *  Initialize the Completion Status Block for a Request.  The completion
 750:.\Generated_Source\PSoC5/USBFS_drv.c **** *  code is set to USB_XFER_IDLE.
 751:.\Generated_Source\PSoC5/USBFS_drv.c **** *
 752:.\Generated_Source\PSoC5/USBFS_drv.c **** *  Also, initializes USBFS_transferByteCount.  Save some space,
 753:.\Generated_Source\PSoC5/USBFS_drv.c **** *  this is the only consumer.
 754:.\Generated_Source\PSoC5/USBFS_drv.c **** *
 755:.\Generated_Source\PSoC5/USBFS_drv.c **** * Parameters:
 756:.\Generated_Source\PSoC5/USBFS_drv.c **** *  None.
 757:.\Generated_Source\PSoC5/USBFS_drv.c **** *
 758:.\Generated_Source\PSoC5/USBFS_drv.c **** * Return:
 759:.\Generated_Source\PSoC5/USBFS_drv.c **** *  None.
 760:.\Generated_Source\PSoC5/USBFS_drv.c **** *
 761:.\Generated_Source\PSoC5/USBFS_drv.c **** * Global variables:
 762:.\Generated_Source\PSoC5/USBFS_drv.c **** *  USBFS_currentTD.pStatusBlock->status - set to XFER_IDLE.
 763:.\Generated_Source\PSoC5/USBFS_drv.c **** *  USBFS_currentTD.pStatusBlock->length - cleared.
 764:.\Generated_Source\PSoC5/USBFS_drv.c **** *  USBFS_transferByteCount - cleared.
 765:.\Generated_Source\PSoC5/USBFS_drv.c **** *
 766:.\Generated_Source\PSoC5/USBFS_drv.c **** * Reentrant:
 767:.\Generated_Source\PSoC5/USBFS_drv.c **** *  No.
 768:.\Generated_Source\PSoC5/USBFS_drv.c **** *
 769:.\Generated_Source\PSoC5/USBFS_drv.c **** *******************************************************************************/
 770:.\Generated_Source\PSoC5/USBFS_drv.c **** void USBFS_InitializeStatusBlock(void) 
 771:.\Generated_Source\PSoC5/USBFS_drv.c **** {
 877              		.loc 1 771 0
 878              		.cfi_startproc
 879              		@ args = 0, pretend = 0, frame = 0
 880              		@ frame_needed = 0, uses_anonymous_args = 0
 881              		@ link register save eliminated.
 772:.\Generated_Source\PSoC5/USBFS_drv.c ****     USBFS_transferByteCount = 0u;
 882              		.loc 1 772 0
 883 0000 054A     		ldr	r2, .L102
 884 0002 0023     		movs	r3, #0
 885 0004 1380     		strh	r3, [r2, #0]	@ movhi
 773:.\Generated_Source\PSoC5/USBFS_drv.c ****     if(USBFS_currentTD.pStatusBlock != NULL)
 886              		.loc 1 773 0
 887 0006 054A     		ldr	r2, .L102+4
 888 0008 9168     		ldr	r1, [r2, #8]
 889 000a 19B1     		cbz	r1, .L97
 774:.\Generated_Source\PSoC5/USBFS_drv.c ****     {
 775:.\Generated_Source\PSoC5/USBFS_drv.c ****         USBFS_currentTD.pStatusBlock->status = USBFS_XFER_IDLE;
 890              		.loc 1 775 0
 891 000c 9168     		ldr	r1, [r2, #8]
 892 000e 0B70     		strb	r3, [r1, #0]
 776:.\Generated_Source\PSoC5/USBFS_drv.c ****         USBFS_currentTD.pStatusBlock->length = 0u;
 893              		.loc 1 776 0
 894 0010 9068     		ldr	r0, [r2, #8]
 895 0012 4380     		strh	r3, [r0, #2]	@ movhi
ARM GAS  C:\Users\MICHA_~1\AppData\Local\Temp\ccyD9XKy.s 			page 32


 896              	.L97:
 897 0014 7047     		bx	lr
 898              	.L103:
 899 0016 00BF     		.align	2
 900              	.L102:
 901 0018 00000000 		.word	USBFS_transferByteCount
 902 001c 00000000 		.word	USBFS_currentTD
 903              		.cfi_endproc
 904              	.LFE15:
 905              		.size	USBFS_InitializeStatusBlock, .-USBFS_InitializeStatusBlock
 906              		.section	.text.USBFS_InitControlWrite,"ax",%progbits
 907              		.align	1
 908              		.global	USBFS_InitControlWrite
 909              		.thumb
 910              		.thumb_func
 911              		.type	USBFS_InitControlWrite, %function
 912              	USBFS_InitControlWrite:
 913              	.LFB9:
 520:.\Generated_Source\PSoC5/USBFS_drv.c **** {
 914              		.loc 1 520 0
 915              		.cfi_startproc
 916              		@ args = 0, pretend = 0, frame = 0
 917              		@ frame_needed = 0, uses_anonymous_args = 0
 918 0000 08B5     		push	{r3, lr}
 919              	.LCFI7:
 920              		.cfi_def_cfa_offset 8
 921              		.cfi_offset 3, -8
 922              		.cfi_offset 14, -4
 526:.\Generated_Source\PSoC5/USBFS_drv.c ****     USBFS_ep0Toggle = USBFS_EP0_CNT_DATA_TOGGLE;
 923              		.loc 1 526 0
 924 0002 0C49     		ldr	r1, .L106
 524:.\Generated_Source\PSoC5/USBFS_drv.c ****     USBFS_transferState = USBFS_TRANS_STATE_CONTROL_WRITE;
 925              		.loc 1 524 0
 926 0004 0C4B     		ldr	r3, .L106+4
 927 0006 0422     		movs	r2, #4
 526:.\Generated_Source\PSoC5/USBFS_drv.c ****     USBFS_ep0Toggle = USBFS_EP0_CNT_DATA_TOGGLE;
 928              		.loc 1 526 0
 929 0008 8020     		movs	r0, #128
 524:.\Generated_Source\PSoC5/USBFS_drv.c ****     USBFS_transferState = USBFS_TRANS_STATE_CONTROL_WRITE;
 930              		.loc 1 524 0
 931 000a 1A70     		strb	r2, [r3, #0]
 526:.\Generated_Source\PSoC5/USBFS_drv.c ****     USBFS_ep0Toggle = USBFS_EP0_CNT_DATA_TOGGLE;
 932              		.loc 1 526 0
 933 000c 0870     		strb	r0, [r1, #0]
 528:.\Generated_Source\PSoC5/USBFS_drv.c ****     USBFS_InitializeStatusBlock();
 934              		.loc 1 528 0
 935 000e FFF7FEFF 		bl	USBFS_InitializeStatusBlock
 936              	.LVL51:
 530:.\Generated_Source\PSoC5/USBFS_drv.c ****     xferCount = (((uint16)CY_GET_REG8(USBFS_lengthHi) << 8u) | (CY_GET_REG8(USBFS_lengthLo)));
 937              		.loc 1 530 0
 938 0012 0A4B     		ldr	r3, .L106+8
 939 0014 1A78     		ldrb	r2, [r3, #0]	@ zero_extendqisi2
 940 0016 581E     		subs	r0, r3, #1
 532:.\Generated_Source\PSoC5/USBFS_drv.c ****     if (USBFS_currentTD.count > xferCount)
 941              		.loc 1 532 0
 942 0018 094B     		ldr	r3, .L106+12
 530:.\Generated_Source\PSoC5/USBFS_drv.c ****     xferCount = (((uint16)CY_GET_REG8(USBFS_lengthHi) << 8u) | (CY_GET_REG8(USBFS_lengthLo)));
ARM GAS  C:\Users\MICHA_~1\AppData\Local\Temp\ccyD9XKy.s 			page 33


 943              		.loc 1 530 0
 944 001a 0178     		ldrb	r1, [r0, #0]	@ zero_extendqisi2
 532:.\Generated_Source\PSoC5/USBFS_drv.c ****     if (USBFS_currentTD.count > xferCount)
 945              		.loc 1 532 0
 946 001c 1888     		ldrh	r0, [r3, #0]
 530:.\Generated_Source\PSoC5/USBFS_drv.c ****     xferCount = (((uint16)CY_GET_REG8(USBFS_lengthHi) << 8u) | (CY_GET_REG8(USBFS_lengthLo)));
 947              		.loc 1 530 0
 948 001e 41EA0222 		orr	r2, r1, r2, lsl #8
 949              	.LVL52:
 532:.\Generated_Source\PSoC5/USBFS_drv.c ****     if (USBFS_currentTD.count > xferCount)
 950              		.loc 1 532 0
 951 0022 81B2     		uxth	r1, r0
 952 0024 9142     		cmp	r1, r2
 534:.\Generated_Source\PSoC5/USBFS_drv.c ****         USBFS_currentTD.count = xferCount;
 953              		.loc 1 534 0
 954 0026 88BF     		it	hi
 955 0028 1A80     		strhhi	r2, [r3, #0]	@ movhi
 538:.\Generated_Source\PSoC5/USBFS_drv.c ****     USBFS_ep0Mode = USBFS_MODE_ACK_OUT_STATUS_IN;
 956              		.loc 1 538 0
 957 002a 064B     		ldr	r3, .L106+16
 958 002c 0B22     		movs	r2, #11
 959              	.LVL53:
 960 002e 1A70     		strb	r2, [r3, #0]
 541:.\Generated_Source\PSoC5/USBFS_drv.c **** }
 961              		.loc 1 541 0
 962 0030 0120     		movs	r0, #1
 963 0032 08BD     		pop	{r3, pc}
 964              	.L107:
 965              		.align	2
 966              	.L106:
 967 0034 00000000 		.word	USBFS_ep0Toggle
 968 0038 00000000 		.word	USBFS_transferState
 969 003c 07600040 		.word	1073766407
 970 0040 00000000 		.word	USBFS_currentTD
 971 0044 00000000 		.word	USBFS_ep0Mode
 972              		.cfi_endproc
 973              	.LFE9:
 974              		.size	USBFS_InitControlWrite, .-USBFS_InitControlWrite
 975              		.section	.text.USBFS_InitControlRead,"ax",%progbits
 976              		.align	1
 977              		.global	USBFS_InitControlRead
 978              		.thumb
 979              		.thumb_func
 980              		.type	USBFS_InitControlRead, %function
 981              	USBFS_InitControlRead:
 982              	.LFB5:
 370:.\Generated_Source\PSoC5/USBFS_drv.c **** {
 983              		.loc 1 370 0
 984              		.cfi_startproc
 985              		@ args = 0, pretend = 0, frame = 0
 986              		@ frame_needed = 0, uses_anonymous_args = 0
 987 0000 10B5     		push	{r4, lr}
 988              	.LCFI8:
 989              		.cfi_def_cfa_offset 8
 990              		.cfi_offset 4, -8
 991              		.cfi_offset 14, -4
 372:.\Generated_Source\PSoC5/USBFS_drv.c ****     if(USBFS_currentTD.count == 0u)
ARM GAS  C:\Users\MICHA_~1\AppData\Local\Temp\ccyD9XKy.s 			page 34


 992              		.loc 1 372 0
 993 0002 0F4C     		ldr	r4, .L112
 994 0004 2388     		ldrh	r3, [r4, #0]
 995 0006 98B2     		uxth	r0, r3
 996 0008 10B9     		cbnz	r0, .L109
 374:.\Generated_Source\PSoC5/USBFS_drv.c ****         (void) USBFS_InitZeroLengthControlTransfer();
 997              		.loc 1 374 0
 998 000a FFF7FEFF 		bl	USBFS_InitZeroLengthControlTransfer
 999              	.LVL54:
 1000 000e 14E0     		b	.L110
 1001              	.L109:
 379:.\Generated_Source\PSoC5/USBFS_drv.c ****         USBFS_transferState = USBFS_TRANS_STATE_CONTROL_READ;
 1002              		.loc 1 379 0
 1003 0010 0C49     		ldr	r1, .L112+4
 381:.\Generated_Source\PSoC5/USBFS_drv.c ****         USBFS_ep0Toggle = 0u;
 1004              		.loc 1 381 0
 1005 0012 0D4B     		ldr	r3, .L112+8
 379:.\Generated_Source\PSoC5/USBFS_drv.c ****         USBFS_transferState = USBFS_TRANS_STATE_CONTROL_READ;
 1006              		.loc 1 379 0
 1007 0014 0222     		movs	r2, #2
 381:.\Generated_Source\PSoC5/USBFS_drv.c ****         USBFS_ep0Toggle = 0u;
 1008              		.loc 1 381 0
 1009 0016 0020     		movs	r0, #0
 379:.\Generated_Source\PSoC5/USBFS_drv.c ****         USBFS_transferState = USBFS_TRANS_STATE_CONTROL_READ;
 1010              		.loc 1 379 0
 1011 0018 0A70     		strb	r2, [r1, #0]
 381:.\Generated_Source\PSoC5/USBFS_drv.c ****         USBFS_ep0Toggle = 0u;
 1012              		.loc 1 381 0
 1013 001a 1870     		strb	r0, [r3, #0]
 383:.\Generated_Source\PSoC5/USBFS_drv.c ****         USBFS_InitializeStatusBlock();
 1014              		.loc 1 383 0
 1015 001c FFF7FEFF 		bl	USBFS_InitializeStatusBlock
 1016              	.LVL55:
 384:.\Generated_Source\PSoC5/USBFS_drv.c ****         xferCount = (((uint16)CY_GET_REG8(USBFS_lengthHi) << 8u) | (CY_GET_REG8(USBFS_lengthLo)));
 1017              		.loc 1 384 0
 1018 0020 0A49     		ldr	r1, .L112+12
 1019 0022 481E     		subs	r0, r1, #1
 1020 0024 0A78     		ldrb	r2, [r1, #0]	@ zero_extendqisi2
 1021 0026 0378     		ldrb	r3, [r0, #0]	@ zero_extendqisi2
 1022 0028 43EA0221 		orr	r1, r3, r2, lsl #8
 1023              	.LVL56:
 386:.\Generated_Source\PSoC5/USBFS_drv.c ****         if (USBFS_currentTD.count > xferCount)
 1024              		.loc 1 386 0
 1025 002c 2288     		ldrh	r2, [r4, #0]
 1026 002e 90B2     		uxth	r0, r2
 1027 0030 8842     		cmp	r0, r1
 388:.\Generated_Source\PSoC5/USBFS_drv.c ****             USBFS_currentTD.count = xferCount;
 1028              		.loc 1 388 0
 1029 0032 88BF     		it	hi
 1030 0034 2180     		strhhi	r1, [r4, #0]	@ movhi
 390:.\Generated_Source\PSoC5/USBFS_drv.c ****         USBFS_LoadEP0();
 1031              		.loc 1 390 0
 1032 0036 FFF7FEFF 		bl	USBFS_LoadEP0
 1033              	.LVL57:
 1034              	.L110:
 394:.\Generated_Source\PSoC5/USBFS_drv.c **** }
 1035              		.loc 1 394 0
ARM GAS  C:\Users\MICHA_~1\AppData\Local\Temp\ccyD9XKy.s 			page 35


 1036 003a 0120     		movs	r0, #1
 1037 003c 10BD     		pop	{r4, pc}
 1038              	.L113:
 1039 003e 00BF     		.align	2
 1040              	.L112:
 1041 0040 00000000 		.word	USBFS_currentTD
 1042 0044 00000000 		.word	USBFS_transferState
 1043 0048 00000000 		.word	USBFS_ep0Toggle
 1044 004c 07600040 		.word	1073766407
 1045              		.cfi_endproc
 1046              	.LFE5:
 1047              		.size	USBFS_InitControlRead, .-USBFS_InitControlRead
 1048              		.comm	USBFS_transferByteCount,2,2
 1049              		.comm	USBFS_ep0Count,1,1
 1050              		.comm	USBFS_ep0Mode,1,1
 1051              		.comm	USBFS_currentTD,12,4
 1052              		.comm	USBFS_transferState,1,1
 1053              		.comm	USBFS_lastPacketSize,1,1
 1054              		.comm	USBFS_ep0Toggle,1,1
 1055              		.comm	USBFS_interfaceClass,4,4
 1056              		.comm	USBFS_device,1,1
 1057              		.comm	USBFS_interfaceStatus,1,1
 1058              		.comm	USBFS_interfaceSetting_last,1,1
 1059              		.comm	USBFS_interfaceSetting,1,1
 1060              		.comm	USBFS_deviceStatus,1,1
 1061              		.comm	USBFS_deviceAddress,1,1
 1062              		.comm	USBFS_configurationChanged,1,1
 1063              		.comm	USBFS_interfaceNumber,1,1
 1064              		.comm	USBFS_configuration,1,1
 1065              		.comm	USBFS_EP,108,2
 1066              		.text
 1067              	.Letext0:
 1068              		.file 2 ".\\Generated_Source\\PSoC5\\cytypes.h"
 1069              		.file 3 ".\\Generated_Source\\PSoC5\\USBFS.h"
 1070              		.file 4 ".\\Generated_Source\\PSoC5\\USBFS_pvt.h"