ARM GAS  C:\Users\MICHA_~1\AppData\Local\Temp\ccm5Lblu.s 			page 1


   1              		.syntax unified
   2              		.cpu cortex-m3
   3              		.fpu softvfp
   4              		.eabi_attribute 20, 1
   5              		.eabi_attribute 21, 1
   6              		.eabi_attribute 23, 3
   7              		.eabi_attribute 24, 1
   8              		.eabi_attribute 25, 1
   9              		.eabi_attribute 26, 1
  10              		.eabi_attribute 30, 4
  11              		.eabi_attribute 34, 1
  12              		.eabi_attribute 18, 4
  13              		.thumb
  14              		.file	"USBFS_std.c"
  15              		.text
  16              	.Ltext0:
  17              		.cfi_sections	.debug_frame
  18              		.section	.text.USBFS_ConfigReg,"ax",%progbits
  19              		.align	1
  20              		.global	USBFS_ConfigReg
  21              		.thumb
  22              		.thumb_func
  23              		.type	USBFS_ConfigReg, %function
  24              	USBFS_ConfigReg:
  25              	.LFB1:
  26              		.file 1 ".\\Generated_Source\\PSoC5\\USBFS_std.c"
   1:.\Generated_Source\PSoC5/USBFS_std.c **** /*******************************************************************************
   2:.\Generated_Source\PSoC5/USBFS_std.c **** * File Name: USBFS_std.c
   3:.\Generated_Source\PSoC5/USBFS_std.c **** * Version 2.60
   4:.\Generated_Source\PSoC5/USBFS_std.c **** *
   5:.\Generated_Source\PSoC5/USBFS_std.c **** * Description:
   6:.\Generated_Source\PSoC5/USBFS_std.c **** *  USB Standard request handler.
   7:.\Generated_Source\PSoC5/USBFS_std.c **** *
   8:.\Generated_Source\PSoC5/USBFS_std.c **** * Note:
   9:.\Generated_Source\PSoC5/USBFS_std.c **** *
  10:.\Generated_Source\PSoC5/USBFS_std.c **** ********************************************************************************
  11:.\Generated_Source\PSoC5/USBFS_std.c **** * Copyright 2008-2013, Cypress Semiconductor Corporation.  All rights reserved.
  12:.\Generated_Source\PSoC5/USBFS_std.c **** * You may use this file only in accordance with the license, terms, conditions,
  13:.\Generated_Source\PSoC5/USBFS_std.c **** * disclaimers, and limitations in the end user license agreement accompanying
  14:.\Generated_Source\PSoC5/USBFS_std.c **** * the software package with which this file was provided.
  15:.\Generated_Source\PSoC5/USBFS_std.c **** *******************************************************************************/
  16:.\Generated_Source\PSoC5/USBFS_std.c **** 
  17:.\Generated_Source\PSoC5/USBFS_std.c **** #include "USBFS.h"
  18:.\Generated_Source\PSoC5/USBFS_std.c **** #include "USBFS_cdc.h"
  19:.\Generated_Source\PSoC5/USBFS_std.c **** #include "USBFS_pvt.h"
  20:.\Generated_Source\PSoC5/USBFS_std.c **** #if defined(USBFS_ENABLE_MIDI_STREAMING) 
  21:.\Generated_Source\PSoC5/USBFS_std.c ****     #include "USBFS_midi.h"
  22:.\Generated_Source\PSoC5/USBFS_std.c **** #endif /* End USBFS_ENABLE_MIDI_STREAMING*/
  23:.\Generated_Source\PSoC5/USBFS_std.c **** 
  24:.\Generated_Source\PSoC5/USBFS_std.c **** 
  25:.\Generated_Source\PSoC5/USBFS_std.c **** /***************************************
  26:.\Generated_Source\PSoC5/USBFS_std.c **** *   Static data allocation
  27:.\Generated_Source\PSoC5/USBFS_std.c **** ***************************************/
  28:.\Generated_Source\PSoC5/USBFS_std.c **** 
  29:.\Generated_Source\PSoC5/USBFS_std.c **** #if defined(USBFS_ENABLE_FWSN_STRING)
  30:.\Generated_Source\PSoC5/USBFS_std.c ****     static volatile uint8 *USBFS_fwSerialNumberStringDescriptor;
  31:.\Generated_Source\PSoC5/USBFS_std.c ****     static volatile uint8 USBFS_snStringConfirm = USBFS_FALSE;
ARM GAS  C:\Users\MICHA_~1\AppData\Local\Temp\ccm5Lblu.s 			page 2


  32:.\Generated_Source\PSoC5/USBFS_std.c **** #endif  /* USBFS_ENABLE_FWSN_STRING */
  33:.\Generated_Source\PSoC5/USBFS_std.c **** 
  34:.\Generated_Source\PSoC5/USBFS_std.c **** #if defined(USBFS_ENABLE_FWSN_STRING)
  35:.\Generated_Source\PSoC5/USBFS_std.c **** 
  36:.\Generated_Source\PSoC5/USBFS_std.c **** 
  37:.\Generated_Source\PSoC5/USBFS_std.c ****     /*******************************************************************************
  38:.\Generated_Source\PSoC5/USBFS_std.c ****     * Function Name: USBFS_SerialNumString
  39:.\Generated_Source\PSoC5/USBFS_std.c ****     ********************************************************************************
  40:.\Generated_Source\PSoC5/USBFS_std.c ****     *
  41:.\Generated_Source\PSoC5/USBFS_std.c ****     * Summary:
  42:.\Generated_Source\PSoC5/USBFS_std.c ****     *  Application firmware may supply the source of the USB device descriptors
  43:.\Generated_Source\PSoC5/USBFS_std.c ****     *  serial number string during runtime.
  44:.\Generated_Source\PSoC5/USBFS_std.c ****     *
  45:.\Generated_Source\PSoC5/USBFS_std.c ****     * Parameters:
  46:.\Generated_Source\PSoC5/USBFS_std.c ****     *  snString:  pointer to string.
  47:.\Generated_Source\PSoC5/USBFS_std.c ****     *
  48:.\Generated_Source\PSoC5/USBFS_std.c ****     * Return:
  49:.\Generated_Source\PSoC5/USBFS_std.c ****     *  None.
  50:.\Generated_Source\PSoC5/USBFS_std.c ****     *
  51:.\Generated_Source\PSoC5/USBFS_std.c ****     * Reentrant:
  52:.\Generated_Source\PSoC5/USBFS_std.c ****     *  No.
  53:.\Generated_Source\PSoC5/USBFS_std.c ****     *
  54:.\Generated_Source\PSoC5/USBFS_std.c ****     *******************************************************************************/
  55:.\Generated_Source\PSoC5/USBFS_std.c ****     void  USBFS_SerialNumString(uint8 snString[]) 
  56:.\Generated_Source\PSoC5/USBFS_std.c ****     {
  57:.\Generated_Source\PSoC5/USBFS_std.c ****         USBFS_snStringConfirm = USBFS_FALSE;
  58:.\Generated_Source\PSoC5/USBFS_std.c ****         if(snString != NULL)
  59:.\Generated_Source\PSoC5/USBFS_std.c ****         {
  60:.\Generated_Source\PSoC5/USBFS_std.c ****             USBFS_fwSerialNumberStringDescriptor = snString;
  61:.\Generated_Source\PSoC5/USBFS_std.c ****             /* Check descriptor validation */
  62:.\Generated_Source\PSoC5/USBFS_std.c ****             if( (snString[0u] > 1u ) && (snString[1u] == USBFS_DESCR_STRING) )
  63:.\Generated_Source\PSoC5/USBFS_std.c ****             {
  64:.\Generated_Source\PSoC5/USBFS_std.c ****                 USBFS_snStringConfirm = USBFS_TRUE;
  65:.\Generated_Source\PSoC5/USBFS_std.c ****             }
  66:.\Generated_Source\PSoC5/USBFS_std.c ****         }
  67:.\Generated_Source\PSoC5/USBFS_std.c ****     }
  68:.\Generated_Source\PSoC5/USBFS_std.c **** 
  69:.\Generated_Source\PSoC5/USBFS_std.c **** #endif  /* USBFS_ENABLE_FWSN_STRING */
  70:.\Generated_Source\PSoC5/USBFS_std.c **** 
  71:.\Generated_Source\PSoC5/USBFS_std.c **** 
  72:.\Generated_Source\PSoC5/USBFS_std.c **** /*******************************************************************************
  73:.\Generated_Source\PSoC5/USBFS_std.c **** * Function Name: USBFS_HandleStandardRqst
  74:.\Generated_Source\PSoC5/USBFS_std.c **** ********************************************************************************
  75:.\Generated_Source\PSoC5/USBFS_std.c **** *
  76:.\Generated_Source\PSoC5/USBFS_std.c **** * Summary:
  77:.\Generated_Source\PSoC5/USBFS_std.c **** *  This Routine dispatches standard requests
  78:.\Generated_Source\PSoC5/USBFS_std.c **** *
  79:.\Generated_Source\PSoC5/USBFS_std.c **** * Parameters:
  80:.\Generated_Source\PSoC5/USBFS_std.c **** *  None.
  81:.\Generated_Source\PSoC5/USBFS_std.c **** *
  82:.\Generated_Source\PSoC5/USBFS_std.c **** * Return:
  83:.\Generated_Source\PSoC5/USBFS_std.c **** *  TRUE if request handled.
  84:.\Generated_Source\PSoC5/USBFS_std.c **** *
  85:.\Generated_Source\PSoC5/USBFS_std.c **** * Reentrant:
  86:.\Generated_Source\PSoC5/USBFS_std.c **** *  No.
  87:.\Generated_Source\PSoC5/USBFS_std.c **** *
  88:.\Generated_Source\PSoC5/USBFS_std.c **** *******************************************************************************/
ARM GAS  C:\Users\MICHA_~1\AppData\Local\Temp\ccm5Lblu.s 			page 3


  89:.\Generated_Source\PSoC5/USBFS_std.c **** uint8 USBFS_HandleStandardRqst(void) 
  90:.\Generated_Source\PSoC5/USBFS_std.c **** {
  91:.\Generated_Source\PSoC5/USBFS_std.c ****     uint8 requestHandled = USBFS_FALSE;
  92:.\Generated_Source\PSoC5/USBFS_std.c ****     uint8 interfaceNumber;
  93:.\Generated_Source\PSoC5/USBFS_std.c ****     #if defined(USBFS_ENABLE_STRINGS)
  94:.\Generated_Source\PSoC5/USBFS_std.c ****         volatile uint8 *pStr = 0u;
  95:.\Generated_Source\PSoC5/USBFS_std.c ****         #if defined(USBFS_ENABLE_DESCRIPTOR_STRINGS)
  96:.\Generated_Source\PSoC5/USBFS_std.c ****             uint8 nStr;
  97:.\Generated_Source\PSoC5/USBFS_std.c ****             uint8 descrLength;
  98:.\Generated_Source\PSoC5/USBFS_std.c ****         #endif /* USBFS_ENABLE_DESCRIPTOR_STRINGS */
  99:.\Generated_Source\PSoC5/USBFS_std.c ****     #endif /* USBFS_ENABLE_STRINGS */
 100:.\Generated_Source\PSoC5/USBFS_std.c ****     static volatile uint8 USBFS_tBuffer[USBFS_STATUS_LENGTH_MAX];
 101:.\Generated_Source\PSoC5/USBFS_std.c ****     const T_USBFS_LUT CYCODE *pTmp;
 102:.\Generated_Source\PSoC5/USBFS_std.c ****     USBFS_currentTD.count = 0u;
 103:.\Generated_Source\PSoC5/USBFS_std.c **** 
 104:.\Generated_Source\PSoC5/USBFS_std.c ****     if ((CY_GET_REG8(USBFS_bmRequestType) & USBFS_RQST_DIR_MASK) == USBFS_RQST_DIR_D2H)
 105:.\Generated_Source\PSoC5/USBFS_std.c ****     {
 106:.\Generated_Source\PSoC5/USBFS_std.c ****         /* Control Read */
 107:.\Generated_Source\PSoC5/USBFS_std.c ****         switch (CY_GET_REG8(USBFS_bRequest))
 108:.\Generated_Source\PSoC5/USBFS_std.c ****         {
 109:.\Generated_Source\PSoC5/USBFS_std.c ****             case USBFS_GET_DESCRIPTOR:
 110:.\Generated_Source\PSoC5/USBFS_std.c ****                 if (CY_GET_REG8(USBFS_wValueHi) == USBFS_DESCR_DEVICE)
 111:.\Generated_Source\PSoC5/USBFS_std.c ****                 {
 112:.\Generated_Source\PSoC5/USBFS_std.c ****                     pTmp = USBFS_GetDeviceTablePtr();
 113:.\Generated_Source\PSoC5/USBFS_std.c ****                     USBFS_currentTD.pData = (volatile uint8 *)pTmp->p_list;
 114:.\Generated_Source\PSoC5/USBFS_std.c ****                     USBFS_currentTD.count = USBFS_DEVICE_DESCR_LENGTH;
 115:.\Generated_Source\PSoC5/USBFS_std.c ****                     requestHandled  = USBFS_InitControlRead();
 116:.\Generated_Source\PSoC5/USBFS_std.c ****                 }
 117:.\Generated_Source\PSoC5/USBFS_std.c ****                 else if (CY_GET_REG8(USBFS_wValueHi) == USBFS_DESCR_CONFIG)
 118:.\Generated_Source\PSoC5/USBFS_std.c ****                 {
 119:.\Generated_Source\PSoC5/USBFS_std.c ****                     pTmp = USBFS_GetConfigTablePtr(CY_GET_REG8(USBFS_wValueLo));
 120:.\Generated_Source\PSoC5/USBFS_std.c ****                     USBFS_currentTD.pData = (volatile uint8 *)pTmp->p_list;
 121:.\Generated_Source\PSoC5/USBFS_std.c ****                     USBFS_currentTD.count = ((uint16)(USBFS_currentTD.pData)[ \
 122:.\Generated_Source\PSoC5/USBFS_std.c ****                                       USBFS_CONFIG_DESCR_TOTAL_LENGTH_HI] << 8u) | \
 123:.\Generated_Source\PSoC5/USBFS_std.c ****                                      (USBFS_currentTD.pData)[USBFS_CONFIG_DESCR_TOTAL_LENGTH_LOW];
 124:.\Generated_Source\PSoC5/USBFS_std.c ****                     requestHandled  = USBFS_InitControlRead();
 125:.\Generated_Source\PSoC5/USBFS_std.c ****                 }
 126:.\Generated_Source\PSoC5/USBFS_std.c ****                 #if defined(USBFS_ENABLE_STRINGS)
 127:.\Generated_Source\PSoC5/USBFS_std.c ****                 else if (CY_GET_REG8(USBFS_wValueHi) == USBFS_DESCR_STRING)
 128:.\Generated_Source\PSoC5/USBFS_std.c ****                 {
 129:.\Generated_Source\PSoC5/USBFS_std.c ****                     /* Descriptor Strings*/
 130:.\Generated_Source\PSoC5/USBFS_std.c ****                     #if defined(USBFS_ENABLE_DESCRIPTOR_STRINGS)
 131:.\Generated_Source\PSoC5/USBFS_std.c ****                         nStr = 0u;
 132:.\Generated_Source\PSoC5/USBFS_std.c ****                         pStr = (volatile uint8 *)&USBFS_STRING_DESCRIPTORS[0u];
 133:.\Generated_Source\PSoC5/USBFS_std.c ****                         while ( (CY_GET_REG8(USBFS_wValueLo) > nStr) && (*pStr != 0u) )
 134:.\Generated_Source\PSoC5/USBFS_std.c ****                         {
 135:.\Generated_Source\PSoC5/USBFS_std.c ****                             /* Read descriptor length from 1st byte */
 136:.\Generated_Source\PSoC5/USBFS_std.c ****                             descrLength = *pStr;
 137:.\Generated_Source\PSoC5/USBFS_std.c ****                             /* Move to next string descriptor */
 138:.\Generated_Source\PSoC5/USBFS_std.c ****                             pStr = &pStr[descrLength];
 139:.\Generated_Source\PSoC5/USBFS_std.c ****                             nStr++;
 140:.\Generated_Source\PSoC5/USBFS_std.c ****                         }
 141:.\Generated_Source\PSoC5/USBFS_std.c ****                     #endif /* End USBFS_ENABLE_DESCRIPTOR_STRINGS */
 142:.\Generated_Source\PSoC5/USBFS_std.c ****                     /* Microsoft OS String*/
 143:.\Generated_Source\PSoC5/USBFS_std.c ****                     #if defined(USBFS_ENABLE_MSOS_STRING)
 144:.\Generated_Source\PSoC5/USBFS_std.c ****                         if( CY_GET_REG8(USBFS_wValueLo) == USBFS_STRING_MSOS )
 145:.\Generated_Source\PSoC5/USBFS_std.c ****                         {
ARM GAS  C:\Users\MICHA_~1\AppData\Local\Temp\ccm5Lblu.s 			page 4


 146:.\Generated_Source\PSoC5/USBFS_std.c ****                             pStr = (volatile uint8 *)&USBFS_MSOS_DESCRIPTOR[0u];
 147:.\Generated_Source\PSoC5/USBFS_std.c ****                         }
 148:.\Generated_Source\PSoC5/USBFS_std.c ****                     #endif /* End USBFS_ENABLE_MSOS_STRING*/
 149:.\Generated_Source\PSoC5/USBFS_std.c ****                     /* SN string */
 150:.\Generated_Source\PSoC5/USBFS_std.c ****                     #if defined(USBFS_ENABLE_SN_STRING)
 151:.\Generated_Source\PSoC5/USBFS_std.c ****                         if( (CY_GET_REG8(USBFS_wValueLo) != 0u) &&
 152:.\Generated_Source\PSoC5/USBFS_std.c ****                             (CY_GET_REG8(USBFS_wValueLo) ==
 153:.\Generated_Source\PSoC5/USBFS_std.c ****                             USBFS_DEVICE0_DESCR[USBFS_DEVICE_DESCR_SN_SHIFT]) )
 154:.\Generated_Source\PSoC5/USBFS_std.c ****                         {
 155:.\Generated_Source\PSoC5/USBFS_std.c ****                             pStr = (volatile uint8 *)&USBFS_SN_STRING_DESCRIPTOR[0u];
 156:.\Generated_Source\PSoC5/USBFS_std.c ****                             #if defined(USBFS_ENABLE_FWSN_STRING)
 157:.\Generated_Source\PSoC5/USBFS_std.c ****                                 if(USBFS_snStringConfirm != USBFS_FALSE)
 158:.\Generated_Source\PSoC5/USBFS_std.c ****                                 {
 159:.\Generated_Source\PSoC5/USBFS_std.c ****                                     pStr = USBFS_fwSerialNumberStringDescriptor;
 160:.\Generated_Source\PSoC5/USBFS_std.c ****                                 }
 161:.\Generated_Source\PSoC5/USBFS_std.c ****                             #endif  /* USBFS_ENABLE_FWSN_STRING */
 162:.\Generated_Source\PSoC5/USBFS_std.c ****                             #if defined(USBFS_ENABLE_IDSN_STRING)
 163:.\Generated_Source\PSoC5/USBFS_std.c ****                                 /* Read DIE ID and generate string descriptor in RAM */
 164:.\Generated_Source\PSoC5/USBFS_std.c ****                                 USBFS_ReadDieID(USBFS_idSerialNumberStringDescriptor);
 165:.\Generated_Source\PSoC5/USBFS_std.c ****                                 pStr = USBFS_idSerialNumberStringDescriptor;
 166:.\Generated_Source\PSoC5/USBFS_std.c ****                             #endif    /* End USBFS_ENABLE_IDSN_STRING */
 167:.\Generated_Source\PSoC5/USBFS_std.c ****                         }
 168:.\Generated_Source\PSoC5/USBFS_std.c ****                     #endif    /* End USBFS_ENABLE_SN_STRING */
 169:.\Generated_Source\PSoC5/USBFS_std.c ****                     if (*pStr != 0u)
 170:.\Generated_Source\PSoC5/USBFS_std.c ****                     {
 171:.\Generated_Source\PSoC5/USBFS_std.c ****                         USBFS_currentTD.count = *pStr;
 172:.\Generated_Source\PSoC5/USBFS_std.c ****                         USBFS_currentTD.pData = pStr;
 173:.\Generated_Source\PSoC5/USBFS_std.c ****                         requestHandled  = USBFS_InitControlRead();
 174:.\Generated_Source\PSoC5/USBFS_std.c ****                     }
 175:.\Generated_Source\PSoC5/USBFS_std.c ****                 }
 176:.\Generated_Source\PSoC5/USBFS_std.c ****                 #endif /* End USBFS_ENABLE_STRINGS */
 177:.\Generated_Source\PSoC5/USBFS_std.c ****                 else
 178:.\Generated_Source\PSoC5/USBFS_std.c ****                 {
 179:.\Generated_Source\PSoC5/USBFS_std.c ****                     requestHandled = USBFS_DispatchClassRqst();
 180:.\Generated_Source\PSoC5/USBFS_std.c ****                 }
 181:.\Generated_Source\PSoC5/USBFS_std.c ****                 break;
 182:.\Generated_Source\PSoC5/USBFS_std.c ****             case USBFS_GET_STATUS:
 183:.\Generated_Source\PSoC5/USBFS_std.c ****                 switch ((CY_GET_REG8(USBFS_bmRequestType) & USBFS_RQST_RCPT_MASK))
 184:.\Generated_Source\PSoC5/USBFS_std.c ****                 {
 185:.\Generated_Source\PSoC5/USBFS_std.c ****                     case USBFS_RQST_RCPT_EP:
 186:.\Generated_Source\PSoC5/USBFS_std.c ****                         USBFS_currentTD.count = USBFS_EP_STATUS_LENGTH;
 187:.\Generated_Source\PSoC5/USBFS_std.c ****                         USBFS_tBuffer[0u] = USBFS_EP[ \
 188:.\Generated_Source\PSoC5/USBFS_std.c ****                                         CY_GET_REG8(USBFS_wIndexLo) & USBFS_DIR_UNUSED].hwEpState;
 189:.\Generated_Source\PSoC5/USBFS_std.c ****                         USBFS_tBuffer[1u] = 0u;
 190:.\Generated_Source\PSoC5/USBFS_std.c ****                         USBFS_currentTD.pData = &USBFS_tBuffer[0u];
 191:.\Generated_Source\PSoC5/USBFS_std.c ****                         requestHandled  = USBFS_InitControlRead();
 192:.\Generated_Source\PSoC5/USBFS_std.c ****                         break;
 193:.\Generated_Source\PSoC5/USBFS_std.c ****                     case USBFS_RQST_RCPT_DEV:
 194:.\Generated_Source\PSoC5/USBFS_std.c ****                         USBFS_currentTD.count = USBFS_DEVICE_STATUS_LENGTH;
 195:.\Generated_Source\PSoC5/USBFS_std.c ****                         USBFS_tBuffer[0u] = USBFS_deviceStatus;
 196:.\Generated_Source\PSoC5/USBFS_std.c ****                         USBFS_tBuffer[1u] = 0u;
 197:.\Generated_Source\PSoC5/USBFS_std.c ****                         USBFS_currentTD.pData = &USBFS_tBuffer[0u];
 198:.\Generated_Source\PSoC5/USBFS_std.c ****                         requestHandled  = USBFS_InitControlRead();
 199:.\Generated_Source\PSoC5/USBFS_std.c ****                         break;
 200:.\Generated_Source\PSoC5/USBFS_std.c ****                     default:    /* requestHandled is initialized as FALSE by default */
 201:.\Generated_Source\PSoC5/USBFS_std.c ****                         break;
 202:.\Generated_Source\PSoC5/USBFS_std.c ****                 }
ARM GAS  C:\Users\MICHA_~1\AppData\Local\Temp\ccm5Lblu.s 			page 5


 203:.\Generated_Source\PSoC5/USBFS_std.c ****                 break;
 204:.\Generated_Source\PSoC5/USBFS_std.c ****             case USBFS_GET_CONFIGURATION:
 205:.\Generated_Source\PSoC5/USBFS_std.c ****                 USBFS_currentTD.count = 1u;
 206:.\Generated_Source\PSoC5/USBFS_std.c ****                 USBFS_currentTD.pData = (volatile uint8 *)&USBFS_configuration;
 207:.\Generated_Source\PSoC5/USBFS_std.c ****                 requestHandled  = USBFS_InitControlRead();
 208:.\Generated_Source\PSoC5/USBFS_std.c ****                 break;
 209:.\Generated_Source\PSoC5/USBFS_std.c ****             case USBFS_GET_INTERFACE:
 210:.\Generated_Source\PSoC5/USBFS_std.c ****                 USBFS_currentTD.count = 1u;
 211:.\Generated_Source\PSoC5/USBFS_std.c ****                 USBFS_currentTD.pData = (volatile uint8 *)&USBFS_interfaceSetting[ \
 212:.\Generated_Source\PSoC5/USBFS_std.c ****                                                                             CY_GET_REG8(USBFS_wInde
 213:.\Generated_Source\PSoC5/USBFS_std.c ****                 requestHandled  = USBFS_InitControlRead();
 214:.\Generated_Source\PSoC5/USBFS_std.c ****                 break;
 215:.\Generated_Source\PSoC5/USBFS_std.c ****             default: /* requestHandled is initialized as FALSE by default */
 216:.\Generated_Source\PSoC5/USBFS_std.c ****                 break;
 217:.\Generated_Source\PSoC5/USBFS_std.c ****         }
 218:.\Generated_Source\PSoC5/USBFS_std.c ****     }
 219:.\Generated_Source\PSoC5/USBFS_std.c ****     else {
 220:.\Generated_Source\PSoC5/USBFS_std.c ****         /* Control Write */
 221:.\Generated_Source\PSoC5/USBFS_std.c ****         switch (CY_GET_REG8(USBFS_bRequest))
 222:.\Generated_Source\PSoC5/USBFS_std.c ****         {
 223:.\Generated_Source\PSoC5/USBFS_std.c ****             case USBFS_SET_ADDRESS:
 224:.\Generated_Source\PSoC5/USBFS_std.c ****                 USBFS_deviceAddress = CY_GET_REG8(USBFS_wValueLo);
 225:.\Generated_Source\PSoC5/USBFS_std.c ****                 requestHandled = USBFS_InitNoDataControlTransfer();
 226:.\Generated_Source\PSoC5/USBFS_std.c ****                 break;
 227:.\Generated_Source\PSoC5/USBFS_std.c ****             case USBFS_SET_CONFIGURATION:
 228:.\Generated_Source\PSoC5/USBFS_std.c ****                 USBFS_configuration = CY_GET_REG8(USBFS_wValueLo);
 229:.\Generated_Source\PSoC5/USBFS_std.c ****                 USBFS_configurationChanged = USBFS_TRUE;
 230:.\Generated_Source\PSoC5/USBFS_std.c ****                 USBFS_Config(USBFS_TRUE);
 231:.\Generated_Source\PSoC5/USBFS_std.c ****                 requestHandled = USBFS_InitNoDataControlTransfer();
 232:.\Generated_Source\PSoC5/USBFS_std.c ****                 break;
 233:.\Generated_Source\PSoC5/USBFS_std.c ****             case USBFS_SET_INTERFACE:
 234:.\Generated_Source\PSoC5/USBFS_std.c ****                 if (USBFS_ValidateAlternateSetting() != 0u)
 235:.\Generated_Source\PSoC5/USBFS_std.c ****                 {
 236:.\Generated_Source\PSoC5/USBFS_std.c ****                     interfaceNumber = CY_GET_REG8(USBFS_wIndexLo);
 237:.\Generated_Source\PSoC5/USBFS_std.c ****                     USBFS_interfaceNumber = interfaceNumber;
 238:.\Generated_Source\PSoC5/USBFS_std.c ****                     USBFS_configurationChanged = USBFS_TRUE;
 239:.\Generated_Source\PSoC5/USBFS_std.c ****                     #if ((USBFS_EP_MA == USBFS__MA_DYNAMIC) && \
 240:.\Generated_Source\PSoC5/USBFS_std.c ****                          (USBFS_EP_MM == USBFS__EP_MANUAL) )
 241:.\Generated_Source\PSoC5/USBFS_std.c ****                         USBFS_Config(USBFS_FALSE);
 242:.\Generated_Source\PSoC5/USBFS_std.c ****                     #else
 243:.\Generated_Source\PSoC5/USBFS_std.c ****                         USBFS_ConfigAltChanged();
 244:.\Generated_Source\PSoC5/USBFS_std.c ****                     #endif /* End (USBFS_EP_MA == USBFS__MA_DYNAMIC) */
 245:.\Generated_Source\PSoC5/USBFS_std.c ****                     /* Update handled Alt setting changes status */
 246:.\Generated_Source\PSoC5/USBFS_std.c ****                     USBFS_interfaceSetting_last[interfaceNumber] =
 247:.\Generated_Source\PSoC5/USBFS_std.c ****                          USBFS_interfaceSetting[interfaceNumber];
 248:.\Generated_Source\PSoC5/USBFS_std.c ****                     requestHandled = USBFS_InitNoDataControlTransfer();
 249:.\Generated_Source\PSoC5/USBFS_std.c ****                 }
 250:.\Generated_Source\PSoC5/USBFS_std.c ****                 break;
 251:.\Generated_Source\PSoC5/USBFS_std.c ****             case USBFS_CLEAR_FEATURE:
 252:.\Generated_Source\PSoC5/USBFS_std.c ****                 switch (CY_GET_REG8(USBFS_bmRequestType) & USBFS_RQST_RCPT_MASK)
 253:.\Generated_Source\PSoC5/USBFS_std.c ****                 {
 254:.\Generated_Source\PSoC5/USBFS_std.c ****                     case USBFS_RQST_RCPT_EP:
 255:.\Generated_Source\PSoC5/USBFS_std.c ****                         if (CY_GET_REG8(USBFS_wValueLo) == USBFS_ENDPOINT_HALT)
 256:.\Generated_Source\PSoC5/USBFS_std.c ****                         {
 257:.\Generated_Source\PSoC5/USBFS_std.c ****                             requestHandled = USBFS_ClearEndpointHalt();
 258:.\Generated_Source\PSoC5/USBFS_std.c ****                         }
 259:.\Generated_Source\PSoC5/USBFS_std.c ****                         break;
ARM GAS  C:\Users\MICHA_~1\AppData\Local\Temp\ccm5Lblu.s 			page 6


 260:.\Generated_Source\PSoC5/USBFS_std.c ****                     case USBFS_RQST_RCPT_DEV:
 261:.\Generated_Source\PSoC5/USBFS_std.c ****                         /* Clear device REMOTE_WAKEUP */
 262:.\Generated_Source\PSoC5/USBFS_std.c ****                         if (CY_GET_REG8(USBFS_wValueLo) == USBFS_DEVICE_REMOTE_WAKEUP)
 263:.\Generated_Source\PSoC5/USBFS_std.c ****                         {
 264:.\Generated_Source\PSoC5/USBFS_std.c ****                             USBFS_deviceStatus &= (uint8)~USBFS_DEVICE_STATUS_REMOTE_WAKEUP;
 265:.\Generated_Source\PSoC5/USBFS_std.c ****                             requestHandled = USBFS_InitNoDataControlTransfer();
 266:.\Generated_Source\PSoC5/USBFS_std.c ****                         }
 267:.\Generated_Source\PSoC5/USBFS_std.c ****                         break;
 268:.\Generated_Source\PSoC5/USBFS_std.c ****                     case USBFS_RQST_RCPT_IFC:
 269:.\Generated_Source\PSoC5/USBFS_std.c ****                         /* Validate interfaceNumber */
 270:.\Generated_Source\PSoC5/USBFS_std.c ****                         if (CY_GET_REG8(USBFS_wIndexLo) < USBFS_MAX_INTERFACES_NUMBER)
 271:.\Generated_Source\PSoC5/USBFS_std.c ****                         {
 272:.\Generated_Source\PSoC5/USBFS_std.c ****                             USBFS_interfaceStatus[CY_GET_REG8(USBFS_wIndexLo)] &=
 273:.\Generated_Source\PSoC5/USBFS_std.c ****                                                                 (uint8)~(CY_GET_REG8(USBFS_wValueLo
 274:.\Generated_Source\PSoC5/USBFS_std.c ****                             requestHandled = USBFS_InitNoDataControlTransfer();
 275:.\Generated_Source\PSoC5/USBFS_std.c ****                         }
 276:.\Generated_Source\PSoC5/USBFS_std.c ****                         break;
 277:.\Generated_Source\PSoC5/USBFS_std.c ****                     default:    /* requestHandled is initialized as FALSE by default */
 278:.\Generated_Source\PSoC5/USBFS_std.c ****                         break;
 279:.\Generated_Source\PSoC5/USBFS_std.c ****                 }
 280:.\Generated_Source\PSoC5/USBFS_std.c ****                 break;
 281:.\Generated_Source\PSoC5/USBFS_std.c ****             case USBFS_SET_FEATURE:
 282:.\Generated_Source\PSoC5/USBFS_std.c ****                 switch (CY_GET_REG8(USBFS_bmRequestType) & USBFS_RQST_RCPT_MASK)
 283:.\Generated_Source\PSoC5/USBFS_std.c ****                 {
 284:.\Generated_Source\PSoC5/USBFS_std.c ****                     case USBFS_RQST_RCPT_EP:
 285:.\Generated_Source\PSoC5/USBFS_std.c ****                         if (CY_GET_REG8(USBFS_wValueLo) == USBFS_ENDPOINT_HALT)
 286:.\Generated_Source\PSoC5/USBFS_std.c ****                         {
 287:.\Generated_Source\PSoC5/USBFS_std.c ****                             requestHandled = USBFS_SetEndpointHalt();
 288:.\Generated_Source\PSoC5/USBFS_std.c ****                         }
 289:.\Generated_Source\PSoC5/USBFS_std.c ****                         break;
 290:.\Generated_Source\PSoC5/USBFS_std.c ****                     case USBFS_RQST_RCPT_DEV:
 291:.\Generated_Source\PSoC5/USBFS_std.c ****                         /* Set device REMOTE_WAKEUP */
 292:.\Generated_Source\PSoC5/USBFS_std.c ****                         if (CY_GET_REG8(USBFS_wValueLo) == USBFS_DEVICE_REMOTE_WAKEUP)
 293:.\Generated_Source\PSoC5/USBFS_std.c ****                         {
 294:.\Generated_Source\PSoC5/USBFS_std.c ****                             USBFS_deviceStatus |= USBFS_DEVICE_STATUS_REMOTE_WAKEUP;
 295:.\Generated_Source\PSoC5/USBFS_std.c ****                             requestHandled = USBFS_InitNoDataControlTransfer();
 296:.\Generated_Source\PSoC5/USBFS_std.c ****                         }
 297:.\Generated_Source\PSoC5/USBFS_std.c ****                         break;
 298:.\Generated_Source\PSoC5/USBFS_std.c ****                     case USBFS_RQST_RCPT_IFC:
 299:.\Generated_Source\PSoC5/USBFS_std.c ****                         /* Validate interfaceNumber */
 300:.\Generated_Source\PSoC5/USBFS_std.c ****                         if (CY_GET_REG8(USBFS_wIndexLo) < USBFS_MAX_INTERFACES_NUMBER)
 301:.\Generated_Source\PSoC5/USBFS_std.c ****                         {
 302:.\Generated_Source\PSoC5/USBFS_std.c ****                             USBFS_interfaceStatus[CY_GET_REG8(USBFS_wIndexLo)] &=
 303:.\Generated_Source\PSoC5/USBFS_std.c ****                                                                 (uint8)~(CY_GET_REG8(USBFS_wValueLo
 304:.\Generated_Source\PSoC5/USBFS_std.c ****                             requestHandled = USBFS_InitNoDataControlTransfer();
 305:.\Generated_Source\PSoC5/USBFS_std.c ****                         }
 306:.\Generated_Source\PSoC5/USBFS_std.c ****                         break;
 307:.\Generated_Source\PSoC5/USBFS_std.c ****                     default:    /* requestHandled is initialized as FALSE by default */
 308:.\Generated_Source\PSoC5/USBFS_std.c ****                         break;
 309:.\Generated_Source\PSoC5/USBFS_std.c ****                 }
 310:.\Generated_Source\PSoC5/USBFS_std.c ****                 break;
 311:.\Generated_Source\PSoC5/USBFS_std.c ****             default:    /* requestHandled is initialized as FALSE by default */
 312:.\Generated_Source\PSoC5/USBFS_std.c ****                 break;
 313:.\Generated_Source\PSoC5/USBFS_std.c ****         }
 314:.\Generated_Source\PSoC5/USBFS_std.c ****     }
 315:.\Generated_Source\PSoC5/USBFS_std.c ****     return(requestHandled);
 316:.\Generated_Source\PSoC5/USBFS_std.c **** }
ARM GAS  C:\Users\MICHA_~1\AppData\Local\Temp\ccm5Lblu.s 			page 7


 317:.\Generated_Source\PSoC5/USBFS_std.c **** 
 318:.\Generated_Source\PSoC5/USBFS_std.c **** 
 319:.\Generated_Source\PSoC5/USBFS_std.c **** #if defined(USBFS_ENABLE_IDSN_STRING)
 320:.\Generated_Source\PSoC5/USBFS_std.c **** 
 321:.\Generated_Source\PSoC5/USBFS_std.c ****     /***************************************************************************
 322:.\Generated_Source\PSoC5/USBFS_std.c ****     * Function Name: USBFS_ReadDieID
 323:.\Generated_Source\PSoC5/USBFS_std.c ****     ****************************************************************************
 324:.\Generated_Source\PSoC5/USBFS_std.c ****     *
 325:.\Generated_Source\PSoC5/USBFS_std.c ****     * Summary:
 326:.\Generated_Source\PSoC5/USBFS_std.c ****     *  This routine read Die ID and generate Serial Number string descriptor.
 327:.\Generated_Source\PSoC5/USBFS_std.c ****     *
 328:.\Generated_Source\PSoC5/USBFS_std.c ****     * Parameters:
 329:.\Generated_Source\PSoC5/USBFS_std.c ****     *  descr:  pointer on string descriptor.
 330:.\Generated_Source\PSoC5/USBFS_std.c ****     *
 331:.\Generated_Source\PSoC5/USBFS_std.c ****     * Return:
 332:.\Generated_Source\PSoC5/USBFS_std.c ****     *  None.
 333:.\Generated_Source\PSoC5/USBFS_std.c ****     *
 334:.\Generated_Source\PSoC5/USBFS_std.c ****     * Reentrant:
 335:.\Generated_Source\PSoC5/USBFS_std.c ****     *  No.
 336:.\Generated_Source\PSoC5/USBFS_std.c ****     *
 337:.\Generated_Source\PSoC5/USBFS_std.c ****     ***************************************************************************/
 338:.\Generated_Source\PSoC5/USBFS_std.c ****     void USBFS_ReadDieID(uint8 descr[]) 
 339:.\Generated_Source\PSoC5/USBFS_std.c ****     {
 340:.\Generated_Source\PSoC5/USBFS_std.c ****         uint8 i;
 341:.\Generated_Source\PSoC5/USBFS_std.c ****         uint8 j = 0u;
 342:.\Generated_Source\PSoC5/USBFS_std.c ****         uint8 value;
 343:.\Generated_Source\PSoC5/USBFS_std.c ****         const char8 CYCODE hex[16u] = "0123456789ABCDEF";
 344:.\Generated_Source\PSoC5/USBFS_std.c **** 
 345:.\Generated_Source\PSoC5/USBFS_std.c **** 
 346:.\Generated_Source\PSoC5/USBFS_std.c ****         /* Check descriptor validation */
 347:.\Generated_Source\PSoC5/USBFS_std.c ****         if( descr != NULL)
 348:.\Generated_Source\PSoC5/USBFS_std.c ****         {
 349:.\Generated_Source\PSoC5/USBFS_std.c ****             descr[0u] = USBFS_IDSN_DESCR_LENGTH;
 350:.\Generated_Source\PSoC5/USBFS_std.c ****             descr[1u] = USBFS_DESCR_STRING;
 351:.\Generated_Source\PSoC5/USBFS_std.c **** 
 352:.\Generated_Source\PSoC5/USBFS_std.c ****             /* fill descriptor */
 353:.\Generated_Source\PSoC5/USBFS_std.c ****             for(i = 2u; i < USBFS_IDSN_DESCR_LENGTH; i += 4u)
 354:.\Generated_Source\PSoC5/USBFS_std.c ****             {
 355:.\Generated_Source\PSoC5/USBFS_std.c ****                 value = CY_GET_XTND_REG8((void CYFAR *)(USBFS_DIE_ID + j));
 356:.\Generated_Source\PSoC5/USBFS_std.c ****                 j++;
 357:.\Generated_Source\PSoC5/USBFS_std.c ****                 descr[i] = (uint8)hex[value >> 4u];
 358:.\Generated_Source\PSoC5/USBFS_std.c ****                 descr[i + 2u] = (uint8)hex[value & 0x0Fu];
 359:.\Generated_Source\PSoC5/USBFS_std.c ****             }
 360:.\Generated_Source\PSoC5/USBFS_std.c ****         }
 361:.\Generated_Source\PSoC5/USBFS_std.c ****     }
 362:.\Generated_Source\PSoC5/USBFS_std.c **** 
 363:.\Generated_Source\PSoC5/USBFS_std.c **** #endif /* End USBFS_ENABLE_IDSN_STRING */
 364:.\Generated_Source\PSoC5/USBFS_std.c **** 
 365:.\Generated_Source\PSoC5/USBFS_std.c **** 
 366:.\Generated_Source\PSoC5/USBFS_std.c **** /*******************************************************************************
 367:.\Generated_Source\PSoC5/USBFS_std.c **** * Function Name: USBFS_ConfigReg
 368:.\Generated_Source\PSoC5/USBFS_std.c **** ********************************************************************************
 369:.\Generated_Source\PSoC5/USBFS_std.c **** *
 370:.\Generated_Source\PSoC5/USBFS_std.c **** * Summary:
 371:.\Generated_Source\PSoC5/USBFS_std.c **** *  This routine configures hardware registers from the variables.
 372:.\Generated_Source\PSoC5/USBFS_std.c **** *  It is called from USBFS_Config() function and from RestoreConfig
 373:.\Generated_Source\PSoC5/USBFS_std.c **** *  after Wakeup.
ARM GAS  C:\Users\MICHA_~1\AppData\Local\Temp\ccm5Lblu.s 			page 8


 374:.\Generated_Source\PSoC5/USBFS_std.c **** *
 375:.\Generated_Source\PSoC5/USBFS_std.c **** * Parameters:
 376:.\Generated_Source\PSoC5/USBFS_std.c **** *  None.
 377:.\Generated_Source\PSoC5/USBFS_std.c **** *
 378:.\Generated_Source\PSoC5/USBFS_std.c **** * Return:
 379:.\Generated_Source\PSoC5/USBFS_std.c **** *  None.
 380:.\Generated_Source\PSoC5/USBFS_std.c **** *
 381:.\Generated_Source\PSoC5/USBFS_std.c **** *******************************************************************************/
 382:.\Generated_Source\PSoC5/USBFS_std.c **** void USBFS_ConfigReg(void) 
 383:.\Generated_Source\PSoC5/USBFS_std.c **** {
  27              		.loc 1 383 0
  28              		.cfi_startproc
  29              		@ args = 0, pretend = 0, frame = 0
  30              		@ frame_needed = 0, uses_anonymous_args = 0
  31              	.LVL0:
  32 0000 30B5     		push	{r4, r5, lr}
  33              	.LCFI0:
  34              		.cfi_def_cfa_offset 12
  35              		.cfi_offset 4, -12
  36              		.cfi_offset 5, -8
  37              		.cfi_offset 14, -4
 384:.\Generated_Source\PSoC5/USBFS_std.c ****     uint8 ep;
 385:.\Generated_Source\PSoC5/USBFS_std.c ****     uint8 i;
 386:.\Generated_Source\PSoC5/USBFS_std.c ****     #if(USBFS_EP_MM == USBFS__EP_DMAAUTO)
 387:.\Generated_Source\PSoC5/USBFS_std.c ****         uint8 ep_type = 0u;
 388:.\Generated_Source\PSoC5/USBFS_std.c ****     #endif /* End USBFS_EP_MM == USBFS__EP_DMAAUTO */
 389:.\Generated_Source\PSoC5/USBFS_std.c **** 
 390:.\Generated_Source\PSoC5/USBFS_std.c ****     /* Set the endpoint buffer addresses */
 391:.\Generated_Source\PSoC5/USBFS_std.c ****     ep = USBFS_EP1;
  38              		.loc 1 391 0
  39 0002 0122     		movs	r2, #1
  40              	.LVL1:
  41              	.L2:
 382:.\Generated_Source\PSoC5/USBFS_std.c **** void USBFS_ConfigReg(void) 
  42              		.loc 1 382 0 discriminator 1
  43 0004 02F10F03 		add	r3, r2, #15
  44 0008 1801     		lsls	r0, r3, #4
 392:.\Generated_Source\PSoC5/USBFS_std.c ****     for (i = 0u; i < 0x80u; i+= 0x10u)
  45              		.loc 1 392 0 discriminator 1
  46 000a 092A     		cmp	r2, #9
 382:.\Generated_Source\PSoC5/USBFS_std.c **** void USBFS_ConfigReg(void) 
  47              		.loc 1 382 0 discriminator 1
  48 000c C3B2     		uxtb	r3, r0
  49              	.LVL2:
  50              		.loc 1 392 0 discriminator 1
  51 000e 3BD0     		beq	.L9
  52              	.L6:
 393:.\Generated_Source\PSoC5/USBFS_std.c ****     {
 394:.\Generated_Source\PSoC5/USBFS_std.c ****         CY_SET_REG8((reg8 *)(USBFS_ARB_EP1_CFG_IND + i), USBFS_ARB_EPX_CFG_CRC_BYPASS |
 395:.\Generated_Source\PSoC5/USBFS_std.c ****                                                           USBFS_ARB_EPX_CFG_RESET);
 396:.\Generated_Source\PSoC5/USBFS_std.c **** 
 397:.\Generated_Source\PSoC5/USBFS_std.c ****         #if(USBFS_EP_MM != USBFS__EP_MANUAL)
 398:.\Generated_Source\PSoC5/USBFS_std.c ****             /* Enable all Arbiter EP Interrupts : err, buf under, buf over, dma gnt(mode2 only), in
 399:.\Generated_Source\PSoC5/USBFS_std.c ****             CY_SET_REG8((reg8 *)(USBFS_ARB_EP1_INT_EN_IND + i), USBFS_ARB_EPX_INT_MASK);
 400:.\Generated_Source\PSoC5/USBFS_std.c ****         #endif   /* End USBFS_EP_MM != USBFS__EP_MANUAL */
 401:.\Generated_Source\PSoC5/USBFS_std.c **** 
 402:.\Generated_Source\PSoC5/USBFS_std.c ****         if(USBFS_EP[ep].epMode != USBFS_MODE_DISABLE)
ARM GAS  C:\Users\MICHA_~1\AppData\Local\Temp\ccm5Lblu.s 			page 9


  53              		.loc 1 402 0
  54 0010 1F49     		ldr	r1, .L10
 394:.\Generated_Source\PSoC5/USBFS_std.c ****         CY_SET_REG8((reg8 *)(USBFS_ARB_EP1_CFG_IND + i), USBFS_ARB_EPX_CFG_CRC_BYPASS |
  55              		.loc 1 394 0
  56 0012 03F18044 		add	r4, r3, #1073741824
  57 0016 0C20     		movs	r0, #12
  58              	.LVL3:
  59 0018 04F5C145 		add	r5, r4, #24704
  60              		.loc 1 402 0
  61 001c 00FB0214 		mla	r4, r0, r2, r1
 394:.\Generated_Source\PSoC5/USBFS_std.c ****         CY_SET_REG8((reg8 *)(USBFS_ARB_EP1_CFG_IND + i), USBFS_ARB_EPX_CFG_CRC_BYPASS |
  62              		.loc 1 394 0
  63 0020 2870     		strb	r0, [r5, #0]
  64 0022 1C49     		ldr	r1, .L10+4
  65              		.loc 1 402 0
  66 0024 6579     		ldrb	r5, [r4, #5]	@ zero_extendqisi2
  67 0026 5918     		adds	r1, r3, r1
  68 0028 25B1     		cbz	r5, .L3
 403:.\Generated_Source\PSoC5/USBFS_std.c ****         {
 404:.\Generated_Source\PSoC5/USBFS_std.c ****             if((USBFS_EP[ep].addr & USBFS_DIR_IN) != 0u )
  69              		.loc 1 404 0
  70 002a 2479     		ldrb	r4, [r4, #4]	@ zero_extendqisi2
  71 002c 2406     		lsls	r4, r4, #24
 405:.\Generated_Source\PSoC5/USBFS_std.c ****             {
 406:.\Generated_Source\PSoC5/USBFS_std.c ****                 CY_SET_REG8((reg8 *)(USBFS_SIE_EP1_CR0_IND + i), USBFS_MODE_NAK_IN);
 407:.\Generated_Source\PSoC5/USBFS_std.c ****             }
 408:.\Generated_Source\PSoC5/USBFS_std.c ****             else
 409:.\Generated_Source\PSoC5/USBFS_std.c ****             {
 410:.\Generated_Source\PSoC5/USBFS_std.c ****                 CY_SET_REG8((reg8 *)(USBFS_SIE_EP1_CR0_IND + i), USBFS_MODE_NAK_OUT);
  72              		.loc 1 410 0
  73 002e 58BF     		it	pl
  74 0030 0820     		movpl	r0, #8
  75 0032 00E0     		b	.L7
  76              	.L3:
 411:.\Generated_Source\PSoC5/USBFS_std.c ****                 /* Prepare EP type mask for automatic memory allocation */
 412:.\Generated_Source\PSoC5/USBFS_std.c ****                 #if(USBFS_EP_MM == USBFS__EP_DMAAUTO)
 413:.\Generated_Source\PSoC5/USBFS_std.c ****                     ep_type |= (uint8)(0x01u << (ep - USBFS_EP1));
 414:.\Generated_Source\PSoC5/USBFS_std.c ****                 #endif /* End USBFS_EP_MM == USBFS__EP_DMAAUTO */
 415:.\Generated_Source\PSoC5/USBFS_std.c ****             }
 416:.\Generated_Source\PSoC5/USBFS_std.c ****         }
 417:.\Generated_Source\PSoC5/USBFS_std.c ****         else
 418:.\Generated_Source\PSoC5/USBFS_std.c ****         {
 419:.\Generated_Source\PSoC5/USBFS_std.c ****             CY_SET_REG8((reg8 *)(USBFS_SIE_EP1_CR0_IND + i), USBFS_MODE_STALL_DATA_EP);
  77              		.loc 1 419 0
  78 0034 8020     		movs	r0, #128
  79              	.L7:
  80 0036 0870     		strb	r0, [r1, #0]
 420:.\Generated_Source\PSoC5/USBFS_std.c ****         }
 421:.\Generated_Source\PSoC5/USBFS_std.c **** 
 422:.\Generated_Source\PSoC5/USBFS_std.c ****         #if(USBFS_EP_MM != USBFS__EP_DMAAUTO)
 423:.\Generated_Source\PSoC5/USBFS_std.c ****             CY_SET_REG8((reg8 *)(USBFS_SIE_EP1_CNT0_IND + i),   USBFS_EP[ep].bufferSize >> 8u);
  81              		.loc 1 423 0
  82 0038 1749     		ldr	r1, .L10+8
  83 003a 0C24     		movs	r4, #12
  84 003c 5818     		adds	r0, r3, r1
  85 003e 1449     		ldr	r1, .L10
  86 0040 04FB0211 		mla	r1, r4, r2, r1
ARM GAS  C:\Users\MICHA_~1\AppData\Local\Temp\ccm5Lblu.s 			page 10


  87 0044 0C89     		ldrh	r4, [r1, #8]
 424:.\Generated_Source\PSoC5/USBFS_std.c ****             CY_SET_REG8((reg8 *)(USBFS_SIE_EP1_CNT1_IND + i),   USBFS_EP[ep].bufferSize & 0xFFu);
 425:.\Generated_Source\PSoC5/USBFS_std.c **** 
 426:.\Generated_Source\PSoC5/USBFS_std.c ****             CY_SET_REG8((reg8 *)(USBFS_ARB_RW1_RA_IND + i),     USBFS_EP[ep].buffOffset & 0xFFu);
 427:.\Generated_Source\PSoC5/USBFS_std.c ****             CY_SET_REG8((reg8 *)(USBFS_ARB_RW1_RA_MSB_IND + i), USBFS_EP[ep].buffOffset >> 8u);
 428:.\Generated_Source\PSoC5/USBFS_std.c ****             CY_SET_REG8((reg8 *)(USBFS_ARB_RW1_WA_IND + i),     USBFS_EP[ep].buffOffset & 0xFFu);
 429:.\Generated_Source\PSoC5/USBFS_std.c ****             CY_SET_REG8((reg8 *)(USBFS_ARB_RW1_WA_MSB_IND + i), USBFS_EP[ep].buffOffset >> 8u);
 430:.\Generated_Source\PSoC5/USBFS_std.c ****         #endif /* End USBFS_EP_MM != USBFS__EP_DMAAUTO */
 431:.\Generated_Source\PSoC5/USBFS_std.c **** 
 432:.\Generated_Source\PSoC5/USBFS_std.c ****         ep++;
  88              		.loc 1 432 0
  89 0046 0132     		adds	r2, r2, #1
  90              	.LVL4:
 423:.\Generated_Source\PSoC5/USBFS_std.c ****             CY_SET_REG8((reg8 *)(USBFS_SIE_EP1_CNT0_IND + i),   USBFS_EP[ep].bufferSize >> 8u);
  91              		.loc 1 423 0
  92 0048 C4F30724 		ubfx	r4, r4, #8, #8
  93 004c 0470     		strb	r4, [r0, #0]
 424:.\Generated_Source\PSoC5/USBFS_std.c ****             CY_SET_REG8((reg8 *)(USBFS_SIE_EP1_CNT1_IND + i),   USBFS_EP[ep].bufferSize & 0xFFu);
  94              		.loc 1 424 0
  95 004e 0C89     		ldrh	r4, [r1, #8]
  96 0050 1248     		ldr	r0, .L10+12
  97 0052 E4B2     		uxtb	r4, r4
  98 0054 1818     		adds	r0, r3, r0
  99 0056 0470     		strb	r4, [r0, #0]
 426:.\Generated_Source\PSoC5/USBFS_std.c ****             CY_SET_REG8((reg8 *)(USBFS_ARB_RW1_RA_IND + i),     USBFS_EP[ep].buffOffset & 0xFFu);
 100              		.loc 1 426 0
 101 0058 CC88     		ldrh	r4, [r1, #6]
 102 005a 1148     		ldr	r0, .L10+16
 103 005c E4B2     		uxtb	r4, r4
 104 005e 1818     		adds	r0, r3, r0
 105 0060 0470     		strb	r4, [r0, #0]
 427:.\Generated_Source\PSoC5/USBFS_std.c ****             CY_SET_REG8((reg8 *)(USBFS_ARB_RW1_RA_MSB_IND + i), USBFS_EP[ep].buffOffset >> 8u);
 106              		.loc 1 427 0
 107 0062 CC88     		ldrh	r4, [r1, #6]
 108 0064 0F48     		ldr	r0, .L10+20
 109 0066 C4F30724 		ubfx	r4, r4, #8, #8
 110 006a 1818     		adds	r0, r3, r0
 111 006c 0470     		strb	r4, [r0, #0]
 428:.\Generated_Source\PSoC5/USBFS_std.c ****             CY_SET_REG8((reg8 *)(USBFS_ARB_RW1_WA_IND + i),     USBFS_EP[ep].buffOffset & 0xFFu);
 112              		.loc 1 428 0
 113 006e CC88     		ldrh	r4, [r1, #6]
 114 0070 0D48     		ldr	r0, .L10+24
 115 0072 E4B2     		uxtb	r4, r4
 116 0074 1818     		adds	r0, r3, r0
 117 0076 0470     		strb	r4, [r0, #0]
 429:.\Generated_Source\PSoC5/USBFS_std.c ****             CY_SET_REG8((reg8 *)(USBFS_ARB_RW1_WA_MSB_IND + i), USBFS_EP[ep].buffOffset >> 8u);
 118              		.loc 1 429 0
 119 0078 0C48     		ldr	r0, .L10+28
 120              		.loc 1 432 0
 121 007a D2B2     		uxtb	r2, r2
 122              	.LVL5:
 429:.\Generated_Source\PSoC5/USBFS_std.c ****             CY_SET_REG8((reg8 *)(USBFS_ARB_RW1_WA_MSB_IND + i), USBFS_EP[ep].buffOffset >> 8u);
 123              		.loc 1 429 0
 124 007c 1818     		adds	r0, r3, r0
 125 007e CB88     		ldrh	r3, [r1, #6]
 126 0080 C3F30721 		ubfx	r1, r3, #8, #8
 127 0084 0170     		strb	r1, [r0, #0]
ARM GAS  C:\Users\MICHA_~1\AppData\Local\Temp\ccm5Lblu.s 			page 11


 128 0086 BDE7     		b	.L2
 129              	.LVL6:
 130              	.L9:
 433:.\Generated_Source\PSoC5/USBFS_std.c ****     }
 434:.\Generated_Source\PSoC5/USBFS_std.c **** 
 435:.\Generated_Source\PSoC5/USBFS_std.c ****     #if(USBFS_EP_MM == USBFS__EP_DMAAUTO)
 436:.\Generated_Source\PSoC5/USBFS_std.c ****          /* BUF_SIZE depend on DMA_THRESS value: 55-32 bytes  44-16 bytes 33-8 bytes 22-4 bytes 11-
 437:.\Generated_Source\PSoC5/USBFS_std.c ****         USBFS_BUF_SIZE_REG = USBFS_DMA_BUF_SIZE;
 438:.\Generated_Source\PSoC5/USBFS_std.c ****         USBFS_DMA_THRES_REG = USBFS_DMA_BYTES_PER_BURST;   /* DMA burst threshold */
 439:.\Generated_Source\PSoC5/USBFS_std.c ****         USBFS_DMA_THRES_MSB_REG = 0u;
 440:.\Generated_Source\PSoC5/USBFS_std.c ****         USBFS_EP_ACTIVE_REG = USBFS_ARB_INT_MASK;
 441:.\Generated_Source\PSoC5/USBFS_std.c ****         USBFS_EP_TYPE_REG = ep_type;
 442:.\Generated_Source\PSoC5/USBFS_std.c ****         /* Cfg_cmp bit set to 1 once configuration is complete. */
 443:.\Generated_Source\PSoC5/USBFS_std.c ****         USBFS_ARB_CFG_REG = USBFS_ARB_CFG_AUTO_DMA | USBFS_ARB_CFG_AUTO_MEM |
 444:.\Generated_Source\PSoC5/USBFS_std.c ****                                        USBFS_ARB_CFG_CFG_CPM;
 445:.\Generated_Source\PSoC5/USBFS_std.c ****         /* Cfg_cmp bit set to 0 during configuration of PFSUSB Registers. */
 446:.\Generated_Source\PSoC5/USBFS_std.c ****         USBFS_ARB_CFG_REG = USBFS_ARB_CFG_AUTO_DMA | USBFS_ARB_CFG_AUTO_MEM;
 447:.\Generated_Source\PSoC5/USBFS_std.c ****     #endif /* End USBFS_EP_MM == USBFS__EP_DMAAUTO */
 448:.\Generated_Source\PSoC5/USBFS_std.c **** 
 449:.\Generated_Source\PSoC5/USBFS_std.c ****     CY_SET_REG8(USBFS_SIE_EP_INT_EN_PTR, 0xFFu);
 131              		.loc 1 449 0
 132 0088 0949     		ldr	r1, .L10+32
 133 008a FF22     		movs	r2, #255
 134              	.LVL7:
 135 008c 0A70     		strb	r2, [r1, #0]
 136 008e 30BD     		pop	{r4, r5, pc}
 137              	.L11:
 138              		.align	2
 139              	.L10:
 140 0090 00000000 		.word	USBFS_EP
 141 0094 0E600040 		.word	1073766414
 142 0098 0C600040 		.word	1073766412
 143 009c 0D600040 		.word	1073766413
 144 00a0 86600040 		.word	1073766534
 145 00a4 87600040 		.word	1073766535
 146 00a8 84600040 		.word	1073766532
 147 00ac 85600040 		.word	1073766533
 148 00b0 0A600040 		.word	1073766410
 149              		.cfi_endproc
 150              	.LFE1:
 151              		.size	USBFS_ConfigReg, .-USBFS_ConfigReg
 152              		.section	.text.USBFS_GetConfigTablePtr,"ax",%progbits
 153              		.align	1
 154              		.global	USBFS_GetConfigTablePtr
 155              		.thumb
 156              		.thumb_func
 157              		.type	USBFS_GetConfigTablePtr, %function
 158              	USBFS_GetConfigTablePtr:
 159              	.LFB4:
 450:.\Generated_Source\PSoC5/USBFS_std.c **** }
 451:.\Generated_Source\PSoC5/USBFS_std.c **** 
 452:.\Generated_Source\PSoC5/USBFS_std.c **** 
 453:.\Generated_Source\PSoC5/USBFS_std.c **** /*******************************************************************************
 454:.\Generated_Source\PSoC5/USBFS_std.c **** * Function Name: USBFS_Config
 455:.\Generated_Source\PSoC5/USBFS_std.c **** ********************************************************************************
 456:.\Generated_Source\PSoC5/USBFS_std.c **** *
 457:.\Generated_Source\PSoC5/USBFS_std.c **** * Summary:
ARM GAS  C:\Users\MICHA_~1\AppData\Local\Temp\ccm5Lblu.s 			page 12


 458:.\Generated_Source\PSoC5/USBFS_std.c **** *  This routine configures endpoints for the entire configuration by scanning
 459:.\Generated_Source\PSoC5/USBFS_std.c **** *  the configuration descriptor.
 460:.\Generated_Source\PSoC5/USBFS_std.c **** *
 461:.\Generated_Source\PSoC5/USBFS_std.c **** * Parameters:
 462:.\Generated_Source\PSoC5/USBFS_std.c **** *  clearAltSetting: It configures the bAlternateSetting 0 for each interface.
 463:.\Generated_Source\PSoC5/USBFS_std.c **** *
 464:.\Generated_Source\PSoC5/USBFS_std.c **** * Return:
 465:.\Generated_Source\PSoC5/USBFS_std.c **** *  None.
 466:.\Generated_Source\PSoC5/USBFS_std.c **** *
 467:.\Generated_Source\PSoC5/USBFS_std.c **** * USBFS_interfaceClass - Initialized class array for each interface.
 468:.\Generated_Source\PSoC5/USBFS_std.c **** *   It is used for handling Class specific requests depend on interface class.
 469:.\Generated_Source\PSoC5/USBFS_std.c **** *   Different classes in multiple Alternate settings does not supported.
 470:.\Generated_Source\PSoC5/USBFS_std.c **** *
 471:.\Generated_Source\PSoC5/USBFS_std.c **** * Reentrant:
 472:.\Generated_Source\PSoC5/USBFS_std.c **** *  No.
 473:.\Generated_Source\PSoC5/USBFS_std.c **** *
 474:.\Generated_Source\PSoC5/USBFS_std.c **** *******************************************************************************/
 475:.\Generated_Source\PSoC5/USBFS_std.c **** void USBFS_Config(uint8 clearAltSetting) 
 476:.\Generated_Source\PSoC5/USBFS_std.c **** {
 477:.\Generated_Source\PSoC5/USBFS_std.c ****     uint8 ep;
 478:.\Generated_Source\PSoC5/USBFS_std.c ****     uint8 cur_ep;
 479:.\Generated_Source\PSoC5/USBFS_std.c ****     uint8 i;
 480:.\Generated_Source\PSoC5/USBFS_std.c ****     uint8 ep_type;
 481:.\Generated_Source\PSoC5/USBFS_std.c ****     const uint8 *pDescr;
 482:.\Generated_Source\PSoC5/USBFS_std.c ****     #if(USBFS_EP_MM != USBFS__EP_DMAAUTO)
 483:.\Generated_Source\PSoC5/USBFS_std.c ****         uint16 buffCount = 0u;
 484:.\Generated_Source\PSoC5/USBFS_std.c ****     #endif /* End USBFS_EP_MM != USBFS__EP_DMAAUTO */
 485:.\Generated_Source\PSoC5/USBFS_std.c **** 
 486:.\Generated_Source\PSoC5/USBFS_std.c ****     const T_USBFS_LUT CYCODE *pTmp;
 487:.\Generated_Source\PSoC5/USBFS_std.c ****     const T_USBFS_EP_SETTINGS_BLOCK CYCODE *pEP;
 488:.\Generated_Source\PSoC5/USBFS_std.c **** 
 489:.\Generated_Source\PSoC5/USBFS_std.c ****     /* Clear all of the endpoints */
 490:.\Generated_Source\PSoC5/USBFS_std.c ****     for (ep = 0u; ep < USBFS_MAX_EP; ep++)
 491:.\Generated_Source\PSoC5/USBFS_std.c ****     {
 492:.\Generated_Source\PSoC5/USBFS_std.c ****         USBFS_EP[ep].attrib = 0u;
 493:.\Generated_Source\PSoC5/USBFS_std.c ****         USBFS_EP[ep].hwEpState = 0u;
 494:.\Generated_Source\PSoC5/USBFS_std.c ****         USBFS_EP[ep].apiEpState = USBFS_NO_EVENT_PENDING;
 495:.\Generated_Source\PSoC5/USBFS_std.c ****         USBFS_EP[ep].epToggle = 0u;
 496:.\Generated_Source\PSoC5/USBFS_std.c ****         USBFS_EP[ep].epMode = USBFS_MODE_DISABLE;
 497:.\Generated_Source\PSoC5/USBFS_std.c ****         USBFS_EP[ep].bufferSize = 0u;
 498:.\Generated_Source\PSoC5/USBFS_std.c ****         USBFS_EP[ep].interface = 0u;
 499:.\Generated_Source\PSoC5/USBFS_std.c **** 
 500:.\Generated_Source\PSoC5/USBFS_std.c ****     }
 501:.\Generated_Source\PSoC5/USBFS_std.c **** 
 502:.\Generated_Source\PSoC5/USBFS_std.c ****     /* Clear Alternate settings for all interfaces */
 503:.\Generated_Source\PSoC5/USBFS_std.c ****     if(clearAltSetting != 0u)
 504:.\Generated_Source\PSoC5/USBFS_std.c ****     {
 505:.\Generated_Source\PSoC5/USBFS_std.c ****         for (i = 0u; i < USBFS_MAX_INTERFACES_NUMBER; i++)
 506:.\Generated_Source\PSoC5/USBFS_std.c ****         {
 507:.\Generated_Source\PSoC5/USBFS_std.c ****             USBFS_interfaceSetting[i] = 0x00u;
 508:.\Generated_Source\PSoC5/USBFS_std.c ****             USBFS_interfaceSetting_last[i] = 0x00u;
 509:.\Generated_Source\PSoC5/USBFS_std.c ****         }
 510:.\Generated_Source\PSoC5/USBFS_std.c ****     }
 511:.\Generated_Source\PSoC5/USBFS_std.c **** 
 512:.\Generated_Source\PSoC5/USBFS_std.c ****     /* Init Endpoints and Device Status if configured */
 513:.\Generated_Source\PSoC5/USBFS_std.c ****     if(USBFS_configuration > 0u)
 514:.\Generated_Source\PSoC5/USBFS_std.c ****     {
ARM GAS  C:\Users\MICHA_~1\AppData\Local\Temp\ccm5Lblu.s 			page 13


 515:.\Generated_Source\PSoC5/USBFS_std.c ****         pTmp = USBFS_GetConfigTablePtr(USBFS_configuration - 1u);
 516:.\Generated_Source\PSoC5/USBFS_std.c ****         /* Set Power status for current configuration */
 517:.\Generated_Source\PSoC5/USBFS_std.c ****         pDescr = (const uint8 *)pTmp->p_list;
 518:.\Generated_Source\PSoC5/USBFS_std.c ****         if((pDescr[USBFS_CONFIG_DESCR_ATTRIB] & USBFS_CONFIG_DESCR_ATTRIB_SELF_POWERED) != 0u)
 519:.\Generated_Source\PSoC5/USBFS_std.c ****         {
 520:.\Generated_Source\PSoC5/USBFS_std.c ****             USBFS_deviceStatus |=  USBFS_DEVICE_STATUS_SELF_POWERED;
 521:.\Generated_Source\PSoC5/USBFS_std.c ****         }
 522:.\Generated_Source\PSoC5/USBFS_std.c ****         else
 523:.\Generated_Source\PSoC5/USBFS_std.c ****         {
 524:.\Generated_Source\PSoC5/USBFS_std.c ****             USBFS_deviceStatus &=  (uint8)~USBFS_DEVICE_STATUS_SELF_POWERED;
 525:.\Generated_Source\PSoC5/USBFS_std.c ****         }
 526:.\Generated_Source\PSoC5/USBFS_std.c ****         /* Move to next element */
 527:.\Generated_Source\PSoC5/USBFS_std.c ****         pTmp = &pTmp[1u];
 528:.\Generated_Source\PSoC5/USBFS_std.c ****         ep = pTmp->c;  /* For this table, c is the number of endpoints configurations  */
 529:.\Generated_Source\PSoC5/USBFS_std.c **** 
 530:.\Generated_Source\PSoC5/USBFS_std.c ****         #if ((USBFS_EP_MA == USBFS__MA_DYNAMIC) && \
 531:.\Generated_Source\PSoC5/USBFS_std.c ****              (USBFS_EP_MM == USBFS__EP_MANUAL) )
 532:.\Generated_Source\PSoC5/USBFS_std.c ****             /* Configure for dynamic EP memory allocation */
 533:.\Generated_Source\PSoC5/USBFS_std.c ****             /* p_list points the endpoint setting table. */
 534:.\Generated_Source\PSoC5/USBFS_std.c ****             pEP = (T_USBFS_EP_SETTINGS_BLOCK *) pTmp->p_list;
 535:.\Generated_Source\PSoC5/USBFS_std.c ****             for (i = 0u; i < ep; i++)
 536:.\Generated_Source\PSoC5/USBFS_std.c ****             {
 537:.\Generated_Source\PSoC5/USBFS_std.c ****                 /* Compare current Alternate setting with EP Alt*/
 538:.\Generated_Source\PSoC5/USBFS_std.c ****                 if(USBFS_interfaceSetting[pEP->interface] == pEP->altSetting)
 539:.\Generated_Source\PSoC5/USBFS_std.c ****                 {
 540:.\Generated_Source\PSoC5/USBFS_std.c ****                     cur_ep = pEP->addr & USBFS_DIR_UNUSED;
 541:.\Generated_Source\PSoC5/USBFS_std.c ****                     ep_type = pEP->attributes & USBFS_EP_TYPE_MASK;
 542:.\Generated_Source\PSoC5/USBFS_std.c ****                     if (pEP->addr & USBFS_DIR_IN)
 543:.\Generated_Source\PSoC5/USBFS_std.c ****                     {
 544:.\Generated_Source\PSoC5/USBFS_std.c ****                         /* IN Endpoint */
 545:.\Generated_Source\PSoC5/USBFS_std.c ****                         USBFS_EP[cur_ep].apiEpState = USBFS_EVENT_PENDING;
 546:.\Generated_Source\PSoC5/USBFS_std.c ****                         USBFS_EP[cur_ep].epMode = (ep_type == USBFS_EP_TYPE_ISOC) ?
 547:.\Generated_Source\PSoC5/USBFS_std.c ****                                                         USBFS_MODE_ISO_IN : USBFS_MODE_ACK_IN;
 548:.\Generated_Source\PSoC5/USBFS_std.c ****                         #if defined(USBFS_ENABLE_CDC_CLASS)
 549:.\Generated_Source\PSoC5/USBFS_std.c ****                             if(((pEP->bMisc == USBFS_CLASS_CDC_DATA) ||
 550:.\Generated_Source\PSoC5/USBFS_std.c ****                                 (pEP->bMisc == USBFS_CLASS_CDC)) &&
 551:.\Generated_Source\PSoC5/USBFS_std.c ****                                 (ep_type != USBFS_EP_TYPE_INT))
 552:.\Generated_Source\PSoC5/USBFS_std.c ****                             {
 553:.\Generated_Source\PSoC5/USBFS_std.c ****                                 USBFS_cdc_data_in_ep = cur_ep;
 554:.\Generated_Source\PSoC5/USBFS_std.c ****                             }
 555:.\Generated_Source\PSoC5/USBFS_std.c ****                         #endif  /* End USBFS_ENABLE_CDC_CLASS*/
 556:.\Generated_Source\PSoC5/USBFS_std.c ****                         #if ( defined(USBFS_ENABLE_MIDI_STREAMING) && \
 557:.\Generated_Source\PSoC5/USBFS_std.c ****                                              (USBFS_MIDI_IN_BUFF_SIZE > 0) )
 558:.\Generated_Source\PSoC5/USBFS_std.c ****                             if((pEP->bMisc == USBFS_CLASS_AUDIO) &&
 559:.\Generated_Source\PSoC5/USBFS_std.c ****                                (ep_type == USBFS_EP_TYPE_BULK))
 560:.\Generated_Source\PSoC5/USBFS_std.c ****                             {
 561:.\Generated_Source\PSoC5/USBFS_std.c ****                                 USBFS_midi_in_ep = cur_ep;
 562:.\Generated_Source\PSoC5/USBFS_std.c ****                             }
 563:.\Generated_Source\PSoC5/USBFS_std.c ****                         #endif  /* End USBFS_ENABLE_MIDI_STREAMING*/
 564:.\Generated_Source\PSoC5/USBFS_std.c ****                     }
 565:.\Generated_Source\PSoC5/USBFS_std.c ****                     else
 566:.\Generated_Source\PSoC5/USBFS_std.c ****                     {
 567:.\Generated_Source\PSoC5/USBFS_std.c ****                         /* OUT Endpoint */
 568:.\Generated_Source\PSoC5/USBFS_std.c ****                         USBFS_EP[cur_ep].apiEpState = USBFS_NO_EVENT_PENDING;
 569:.\Generated_Source\PSoC5/USBFS_std.c ****                         USBFS_EP[cur_ep].epMode = (ep_type == USBFS_EP_TYPE_ISOC) ?
 570:.\Generated_Source\PSoC5/USBFS_std.c ****                                                     USBFS_MODE_ISO_OUT : USBFS_MODE_ACK_OUT;
 571:.\Generated_Source\PSoC5/USBFS_std.c ****                         #if defined(USBFS_ENABLE_CDC_CLASS)
ARM GAS  C:\Users\MICHA_~1\AppData\Local\Temp\ccm5Lblu.s 			page 14


 572:.\Generated_Source\PSoC5/USBFS_std.c ****                             if(((pEP->bMisc == USBFS_CLASS_CDC_DATA) ||
 573:.\Generated_Source\PSoC5/USBFS_std.c ****                                 (pEP->bMisc == USBFS_CLASS_CDC)) &&
 574:.\Generated_Source\PSoC5/USBFS_std.c ****                                 (ep_type != USBFS_EP_TYPE_INT))
 575:.\Generated_Source\PSoC5/USBFS_std.c ****                             {
 576:.\Generated_Source\PSoC5/USBFS_std.c ****                                 USBFS_cdc_data_out_ep = cur_ep;
 577:.\Generated_Source\PSoC5/USBFS_std.c ****                             }
 578:.\Generated_Source\PSoC5/USBFS_std.c ****                         #endif  /* End USBFS_ENABLE_CDC_CLASS*/
 579:.\Generated_Source\PSoC5/USBFS_std.c ****                         #if ( defined(USBFS_ENABLE_MIDI_STREAMING) && \
 580:.\Generated_Source\PSoC5/USBFS_std.c ****                                      (USBFS_MIDI_OUT_BUFF_SIZE > 0) )
 581:.\Generated_Source\PSoC5/USBFS_std.c ****                             if((pEP->bMisc == USBFS_CLASS_AUDIO) &&
 582:.\Generated_Source\PSoC5/USBFS_std.c ****                                (ep_type == USBFS_EP_TYPE_BULK))
 583:.\Generated_Source\PSoC5/USBFS_std.c ****                             {
 584:.\Generated_Source\PSoC5/USBFS_std.c ****                                 USBFS_midi_out_ep = cur_ep;
 585:.\Generated_Source\PSoC5/USBFS_std.c ****                             }
 586:.\Generated_Source\PSoC5/USBFS_std.c ****                         #endif  /* End USBFS_ENABLE_MIDI_STREAMING*/
 587:.\Generated_Source\PSoC5/USBFS_std.c ****                     }
 588:.\Generated_Source\PSoC5/USBFS_std.c ****                     USBFS_EP[cur_ep].bufferSize = pEP->bufferSize;
 589:.\Generated_Source\PSoC5/USBFS_std.c ****                     USBFS_EP[cur_ep].addr = pEP->addr;
 590:.\Generated_Source\PSoC5/USBFS_std.c ****                     USBFS_EP[cur_ep].attrib = pEP->attributes;
 591:.\Generated_Source\PSoC5/USBFS_std.c ****                 }
 592:.\Generated_Source\PSoC5/USBFS_std.c ****                 pEP = &pEP[1u];
 593:.\Generated_Source\PSoC5/USBFS_std.c ****             }
 594:.\Generated_Source\PSoC5/USBFS_std.c ****         #else /* Config for static EP memory allocation  */
 595:.\Generated_Source\PSoC5/USBFS_std.c ****             for (i = USBFS_EP1; i < USBFS_MAX_EP; i++)
 596:.\Generated_Source\PSoC5/USBFS_std.c ****             {
 597:.\Generated_Source\PSoC5/USBFS_std.c ****                 /* p_list points the endpoint setting table. */
 598:.\Generated_Source\PSoC5/USBFS_std.c ****                 pEP = (const T_USBFS_EP_SETTINGS_BLOCK CYCODE *) pTmp->p_list;
 599:.\Generated_Source\PSoC5/USBFS_std.c ****                 /* Find max length for each EP and select it (length could be different in differen
 600:.\Generated_Source\PSoC5/USBFS_std.c ****                 /* but other settings should be correct with regards to Interface alt Setting */
 601:.\Generated_Source\PSoC5/USBFS_std.c ****                 for (cur_ep = 0u; cur_ep < ep; cur_ep++)
 602:.\Generated_Source\PSoC5/USBFS_std.c ****                 {
 603:.\Generated_Source\PSoC5/USBFS_std.c ****                     /* EP count is equal to EP # in table and we found larger EP length than have b
 604:.\Generated_Source\PSoC5/USBFS_std.c ****                     if(i == (pEP->addr & USBFS_DIR_UNUSED))
 605:.\Generated_Source\PSoC5/USBFS_std.c ****                     {
 606:.\Generated_Source\PSoC5/USBFS_std.c ****                         if(USBFS_EP[i].bufferSize < pEP->bufferSize)
 607:.\Generated_Source\PSoC5/USBFS_std.c ****                         {
 608:.\Generated_Source\PSoC5/USBFS_std.c ****                             USBFS_EP[i].bufferSize = pEP->bufferSize;
 609:.\Generated_Source\PSoC5/USBFS_std.c ****                         }
 610:.\Generated_Source\PSoC5/USBFS_std.c ****                         /* Compare current Alternate setting with EP Alt*/
 611:.\Generated_Source\PSoC5/USBFS_std.c ****                         if(USBFS_interfaceSetting[pEP->interface] == pEP->altSetting)
 612:.\Generated_Source\PSoC5/USBFS_std.c ****                         {
 613:.\Generated_Source\PSoC5/USBFS_std.c ****                             ep_type = pEP->attributes & USBFS_EP_TYPE_MASK;
 614:.\Generated_Source\PSoC5/USBFS_std.c ****                             if ((pEP->addr & USBFS_DIR_IN) != 0u)
 615:.\Generated_Source\PSoC5/USBFS_std.c ****                             {
 616:.\Generated_Source\PSoC5/USBFS_std.c ****                                 /* IN Endpoint */
 617:.\Generated_Source\PSoC5/USBFS_std.c ****                                 USBFS_EP[i].apiEpState = USBFS_EVENT_PENDING;
 618:.\Generated_Source\PSoC5/USBFS_std.c ****                                 USBFS_EP[i].epMode = (ep_type == USBFS_EP_TYPE_ISOC) ?
 619:.\Generated_Source\PSoC5/USBFS_std.c ****                                                         USBFS_MODE_ISO_IN : USBFS_MODE_ACK_IN;
 620:.\Generated_Source\PSoC5/USBFS_std.c ****                                 /* Find and init CDC IN endpoint number */
 621:.\Generated_Source\PSoC5/USBFS_std.c ****                                 #if defined(USBFS_ENABLE_CDC_CLASS)
 622:.\Generated_Source\PSoC5/USBFS_std.c ****                                     if(((pEP->bMisc == USBFS_CLASS_CDC_DATA) ||
 623:.\Generated_Source\PSoC5/USBFS_std.c ****                                         (pEP->bMisc == USBFS_CLASS_CDC)) &&
 624:.\Generated_Source\PSoC5/USBFS_std.c ****                                         (ep_type != USBFS_EP_TYPE_INT))
 625:.\Generated_Source\PSoC5/USBFS_std.c ****                                     {
 626:.\Generated_Source\PSoC5/USBFS_std.c ****                                         USBFS_cdc_data_in_ep = i;
 627:.\Generated_Source\PSoC5/USBFS_std.c ****                                     }
 628:.\Generated_Source\PSoC5/USBFS_std.c ****                                 #endif  /* End USBFS_ENABLE_CDC_CLASS*/
ARM GAS  C:\Users\MICHA_~1\AppData\Local\Temp\ccm5Lblu.s 			page 15


 629:.\Generated_Source\PSoC5/USBFS_std.c ****                                 #if ( defined(USBFS_ENABLE_MIDI_STREAMING) && \
 630:.\Generated_Source\PSoC5/USBFS_std.c ****                                              (USBFS_MIDI_IN_BUFF_SIZE > 0) )
 631:.\Generated_Source\PSoC5/USBFS_std.c ****                                     if((pEP->bMisc == USBFS_CLASS_AUDIO) &&
 632:.\Generated_Source\PSoC5/USBFS_std.c ****                                        (ep_type == USBFS_EP_TYPE_BULK))
 633:.\Generated_Source\PSoC5/USBFS_std.c ****                                     {
 634:.\Generated_Source\PSoC5/USBFS_std.c ****                                         USBFS_midi_in_ep = i;
 635:.\Generated_Source\PSoC5/USBFS_std.c ****                                     }
 636:.\Generated_Source\PSoC5/USBFS_std.c ****                                 #endif  /* End USBFS_ENABLE_MIDI_STREAMING*/
 637:.\Generated_Source\PSoC5/USBFS_std.c ****                             }
 638:.\Generated_Source\PSoC5/USBFS_std.c ****                             else
 639:.\Generated_Source\PSoC5/USBFS_std.c ****                             {
 640:.\Generated_Source\PSoC5/USBFS_std.c ****                                 /* OUT Endpoint */
 641:.\Generated_Source\PSoC5/USBFS_std.c ****                                 USBFS_EP[i].apiEpState = USBFS_NO_EVENT_PENDING;
 642:.\Generated_Source\PSoC5/USBFS_std.c ****                                 USBFS_EP[i].epMode = (ep_type == USBFS_EP_TYPE_ISOC) ?
 643:.\Generated_Source\PSoC5/USBFS_std.c ****                                                     USBFS_MODE_ISO_OUT : USBFS_MODE_ACK_OUT;
 644:.\Generated_Source\PSoC5/USBFS_std.c ****                                 /* Find and init CDC IN endpoint number */
 645:.\Generated_Source\PSoC5/USBFS_std.c ****                                 #if defined(USBFS_ENABLE_CDC_CLASS)
 646:.\Generated_Source\PSoC5/USBFS_std.c ****                                     if(((pEP->bMisc == USBFS_CLASS_CDC_DATA) ||
 647:.\Generated_Source\PSoC5/USBFS_std.c ****                                         (pEP->bMisc == USBFS_CLASS_CDC)) &&
 648:.\Generated_Source\PSoC5/USBFS_std.c ****                                         (ep_type != USBFS_EP_TYPE_INT))
 649:.\Generated_Source\PSoC5/USBFS_std.c ****                                     {
 650:.\Generated_Source\PSoC5/USBFS_std.c ****                                         USBFS_cdc_data_out_ep = i;
 651:.\Generated_Source\PSoC5/USBFS_std.c ****                                     }
 652:.\Generated_Source\PSoC5/USBFS_std.c ****                                 #endif  /* End USBFS_ENABLE_CDC_CLASS*/
 653:.\Generated_Source\PSoC5/USBFS_std.c ****                                 #if ( defined(USBFS_ENABLE_MIDI_STREAMING) && \
 654:.\Generated_Source\PSoC5/USBFS_std.c ****                                              (USBFS_MIDI_OUT_BUFF_SIZE > 0) )
 655:.\Generated_Source\PSoC5/USBFS_std.c ****                                     if((pEP->bMisc == USBFS_CLASS_AUDIO) &&
 656:.\Generated_Source\PSoC5/USBFS_std.c ****                                        (ep_type == USBFS_EP_TYPE_BULK))
 657:.\Generated_Source\PSoC5/USBFS_std.c ****                                     {
 658:.\Generated_Source\PSoC5/USBFS_std.c ****                                         USBFS_midi_out_ep = i;
 659:.\Generated_Source\PSoC5/USBFS_std.c ****                                     }
 660:.\Generated_Source\PSoC5/USBFS_std.c ****                                 #endif  /* End USBFS_ENABLE_MIDI_STREAMING*/
 661:.\Generated_Source\PSoC5/USBFS_std.c ****                             }
 662:.\Generated_Source\PSoC5/USBFS_std.c ****                             USBFS_EP[i].addr = pEP->addr;
 663:.\Generated_Source\PSoC5/USBFS_std.c ****                             USBFS_EP[i].attrib = pEP->attributes;
 664:.\Generated_Source\PSoC5/USBFS_std.c **** 
 665:.\Generated_Source\PSoC5/USBFS_std.c ****                             #if(USBFS_EP_MM == USBFS__EP_DMAAUTO)
 666:.\Generated_Source\PSoC5/USBFS_std.c ****                                 break;      /* use first EP setting in Auto memory managment */
 667:.\Generated_Source\PSoC5/USBFS_std.c ****                             #endif /* End USBFS_EP_MM == USBFS__EP_DMAAUTO */
 668:.\Generated_Source\PSoC5/USBFS_std.c ****                         }
 669:.\Generated_Source\PSoC5/USBFS_std.c ****                     }
 670:.\Generated_Source\PSoC5/USBFS_std.c ****                     pEP = &pEP[1u];
 671:.\Generated_Source\PSoC5/USBFS_std.c ****                 }
 672:.\Generated_Source\PSoC5/USBFS_std.c ****             }
 673:.\Generated_Source\PSoC5/USBFS_std.c ****         #endif /* End (USBFS_EP_MA == USBFS__MA_DYNAMIC) */
 674:.\Generated_Source\PSoC5/USBFS_std.c **** 
 675:.\Generated_Source\PSoC5/USBFS_std.c ****         /* Init class array for each interface and interface number for each EP.
 676:.\Generated_Source\PSoC5/USBFS_std.c ****         *  It is used for handling Class specific requests directed to either an
 677:.\Generated_Source\PSoC5/USBFS_std.c ****         *  interface or the endpoint.
 678:.\Generated_Source\PSoC5/USBFS_std.c ****         */
 679:.\Generated_Source\PSoC5/USBFS_std.c ****         /* p_list points the endpoint setting table. */
 680:.\Generated_Source\PSoC5/USBFS_std.c ****         pEP = (const T_USBFS_EP_SETTINGS_BLOCK CYCODE *) pTmp->p_list;
 681:.\Generated_Source\PSoC5/USBFS_std.c ****         for (i = 0u; i < ep; i++)
 682:.\Generated_Source\PSoC5/USBFS_std.c ****         {
 683:.\Generated_Source\PSoC5/USBFS_std.c ****             /* Configure interface number for each EP*/
 684:.\Generated_Source\PSoC5/USBFS_std.c ****             USBFS_EP[pEP->addr & USBFS_DIR_UNUSED].interface = pEP->interface;
 685:.\Generated_Source\PSoC5/USBFS_std.c ****             pEP = &pEP[1u];
ARM GAS  C:\Users\MICHA_~1\AppData\Local\Temp\ccm5Lblu.s 			page 16


 686:.\Generated_Source\PSoC5/USBFS_std.c ****         }
 687:.\Generated_Source\PSoC5/USBFS_std.c ****         /* Init pointer on interface class table*/
 688:.\Generated_Source\PSoC5/USBFS_std.c ****         USBFS_interfaceClass = USBFS_GetInterfaceClassTablePtr();
 689:.\Generated_Source\PSoC5/USBFS_std.c ****         /* Set the endpoint buffer addresses */
 690:.\Generated_Source\PSoC5/USBFS_std.c **** 
 691:.\Generated_Source\PSoC5/USBFS_std.c ****         #if(USBFS_EP_MM != USBFS__EP_DMAAUTO)
 692:.\Generated_Source\PSoC5/USBFS_std.c ****             for (ep = USBFS_EP1; ep < USBFS_MAX_EP; ep++)
 693:.\Generated_Source\PSoC5/USBFS_std.c ****             {
 694:.\Generated_Source\PSoC5/USBFS_std.c ****                 USBFS_EP[ep].buffOffset = buffCount;
 695:.\Generated_Source\PSoC5/USBFS_std.c ****                  buffCount += USBFS_EP[ep].bufferSize;
 696:.\Generated_Source\PSoC5/USBFS_std.c ****             }
 697:.\Generated_Source\PSoC5/USBFS_std.c ****         #endif /* End USBFS_EP_MM != USBFS__EP_DMAAUTO */
 698:.\Generated_Source\PSoC5/USBFS_std.c **** 
 699:.\Generated_Source\PSoC5/USBFS_std.c ****         /* Configure hardware registers */
 700:.\Generated_Source\PSoC5/USBFS_std.c ****         USBFS_ConfigReg();
 701:.\Generated_Source\PSoC5/USBFS_std.c ****     } /* USBFS_configuration > 0 */
 702:.\Generated_Source\PSoC5/USBFS_std.c **** }
 703:.\Generated_Source\PSoC5/USBFS_std.c **** 
 704:.\Generated_Source\PSoC5/USBFS_std.c **** 
 705:.\Generated_Source\PSoC5/USBFS_std.c **** /*******************************************************************************
 706:.\Generated_Source\PSoC5/USBFS_std.c **** * Function Name: USBFS_ConfigAltChanged
 707:.\Generated_Source\PSoC5/USBFS_std.c **** ********************************************************************************
 708:.\Generated_Source\PSoC5/USBFS_std.c **** *
 709:.\Generated_Source\PSoC5/USBFS_std.c **** * Summary:
 710:.\Generated_Source\PSoC5/USBFS_std.c **** *  This routine update configuration for the required endpoints only.
 711:.\Generated_Source\PSoC5/USBFS_std.c **** *  It is called after SET_INTERFACE request when Static memory allocation used.
 712:.\Generated_Source\PSoC5/USBFS_std.c **** *
 713:.\Generated_Source\PSoC5/USBFS_std.c **** * Parameters:
 714:.\Generated_Source\PSoC5/USBFS_std.c **** *  None.
 715:.\Generated_Source\PSoC5/USBFS_std.c **** *
 716:.\Generated_Source\PSoC5/USBFS_std.c **** * Return:
 717:.\Generated_Source\PSoC5/USBFS_std.c **** *  None.
 718:.\Generated_Source\PSoC5/USBFS_std.c **** *
 719:.\Generated_Source\PSoC5/USBFS_std.c **** * Reentrant:
 720:.\Generated_Source\PSoC5/USBFS_std.c **** *  No.
 721:.\Generated_Source\PSoC5/USBFS_std.c **** *
 722:.\Generated_Source\PSoC5/USBFS_std.c **** *******************************************************************************/
 723:.\Generated_Source\PSoC5/USBFS_std.c **** void USBFS_ConfigAltChanged(void) 
 724:.\Generated_Source\PSoC5/USBFS_std.c **** {
 725:.\Generated_Source\PSoC5/USBFS_std.c ****     uint8 ep;
 726:.\Generated_Source\PSoC5/USBFS_std.c ****     uint8 cur_ep;
 727:.\Generated_Source\PSoC5/USBFS_std.c ****     uint8 i;
 728:.\Generated_Source\PSoC5/USBFS_std.c ****     uint8 ep_type;
 729:.\Generated_Source\PSoC5/USBFS_std.c ****     uint8 ri;
 730:.\Generated_Source\PSoC5/USBFS_std.c **** 
 731:.\Generated_Source\PSoC5/USBFS_std.c ****     const T_USBFS_LUT CYCODE *pTmp;
 732:.\Generated_Source\PSoC5/USBFS_std.c ****     const T_USBFS_EP_SETTINGS_BLOCK CYCODE *pEP;
 733:.\Generated_Source\PSoC5/USBFS_std.c **** 
 734:.\Generated_Source\PSoC5/USBFS_std.c **** 
 735:.\Generated_Source\PSoC5/USBFS_std.c ****     /* Init Endpoints and Device Status if configured */
 736:.\Generated_Source\PSoC5/USBFS_std.c ****     if(USBFS_configuration > 0u)
 737:.\Generated_Source\PSoC5/USBFS_std.c ****     {
 738:.\Generated_Source\PSoC5/USBFS_std.c ****         pTmp = USBFS_GetConfigTablePtr(USBFS_configuration - 1u);
 739:.\Generated_Source\PSoC5/USBFS_std.c ****         pTmp = &pTmp[1u];
 740:.\Generated_Source\PSoC5/USBFS_std.c ****         ep = pTmp->c;  /* For this table, c is the number of endpoints configurations  */
 741:.\Generated_Source\PSoC5/USBFS_std.c **** 
 742:.\Generated_Source\PSoC5/USBFS_std.c ****         /* Do not touch EP which doesn't need reconfiguration */
ARM GAS  C:\Users\MICHA_~1\AppData\Local\Temp\ccm5Lblu.s 			page 17


 743:.\Generated_Source\PSoC5/USBFS_std.c ****         /* When Alt setting changed, the only required endpoints need to be reconfigured */
 744:.\Generated_Source\PSoC5/USBFS_std.c ****         /* p_list points the endpoint setting table. */
 745:.\Generated_Source\PSoC5/USBFS_std.c ****         pEP = (const T_USBFS_EP_SETTINGS_BLOCK CYCODE *) pTmp->p_list;
 746:.\Generated_Source\PSoC5/USBFS_std.c ****         for (i = 0u; i < ep; i++)
 747:.\Generated_Source\PSoC5/USBFS_std.c ****         {
 748:.\Generated_Source\PSoC5/USBFS_std.c ****             /*If Alt setting changed and new is same with EP Alt */
 749:.\Generated_Source\PSoC5/USBFS_std.c ****             if((USBFS_interfaceSetting[pEP->interface] !=
 750:.\Generated_Source\PSoC5/USBFS_std.c ****                 USBFS_interfaceSetting_last[pEP->interface] ) &&
 751:.\Generated_Source\PSoC5/USBFS_std.c ****                (USBFS_interfaceSetting[pEP->interface] == pEP->altSetting) &&
 752:.\Generated_Source\PSoC5/USBFS_std.c ****                (pEP->interface == CY_GET_REG8(USBFS_wIndexLo)))
 753:.\Generated_Source\PSoC5/USBFS_std.c ****             {
 754:.\Generated_Source\PSoC5/USBFS_std.c ****                 cur_ep = pEP->addr & USBFS_DIR_UNUSED;
 755:.\Generated_Source\PSoC5/USBFS_std.c ****                 ri = ((cur_ep - USBFS_EP1) << USBFS_EPX_CNTX_ADDR_SHIFT);
 756:.\Generated_Source\PSoC5/USBFS_std.c ****                 ep_type = pEP->attributes & USBFS_EP_TYPE_MASK;
 757:.\Generated_Source\PSoC5/USBFS_std.c ****                 if ((pEP->addr & USBFS_DIR_IN) != 0u)
 758:.\Generated_Source\PSoC5/USBFS_std.c ****                 {
 759:.\Generated_Source\PSoC5/USBFS_std.c ****                     /* IN Endpoint */
 760:.\Generated_Source\PSoC5/USBFS_std.c ****                     USBFS_EP[cur_ep].apiEpState = USBFS_EVENT_PENDING;
 761:.\Generated_Source\PSoC5/USBFS_std.c ****                     USBFS_EP[cur_ep].epMode = (ep_type == USBFS_EP_TYPE_ISOC) ?
 762:.\Generated_Source\PSoC5/USBFS_std.c ****                                                 USBFS_MODE_ISO_IN : USBFS_MODE_ACK_IN;
 763:.\Generated_Source\PSoC5/USBFS_std.c ****                 }
 764:.\Generated_Source\PSoC5/USBFS_std.c ****                 else
 765:.\Generated_Source\PSoC5/USBFS_std.c ****                 {
 766:.\Generated_Source\PSoC5/USBFS_std.c ****                     /* OUT Endpoint */
 767:.\Generated_Source\PSoC5/USBFS_std.c ****                     USBFS_EP[cur_ep].apiEpState = USBFS_NO_EVENT_PENDING;
 768:.\Generated_Source\PSoC5/USBFS_std.c ****                     USBFS_EP[cur_ep].epMode = (ep_type == USBFS_EP_TYPE_ISOC) ?
 769:.\Generated_Source\PSoC5/USBFS_std.c ****                                                 USBFS_MODE_ISO_OUT : USBFS_MODE_ACK_OUT;
 770:.\Generated_Source\PSoC5/USBFS_std.c ****                 }
 771:.\Generated_Source\PSoC5/USBFS_std.c ****                  /* Change the SIE mode for the selected EP to NAK ALL */
 772:.\Generated_Source\PSoC5/USBFS_std.c ****                  CY_SET_REG8((reg8 *)(USBFS_SIE_EP1_CR0_IND + ri), USBFS_MODE_NAK_IN_OUT);
 773:.\Generated_Source\PSoC5/USBFS_std.c ****                 USBFS_EP[cur_ep].bufferSize = pEP->bufferSize;
 774:.\Generated_Source\PSoC5/USBFS_std.c ****                 USBFS_EP[cur_ep].addr = pEP->addr;
 775:.\Generated_Source\PSoC5/USBFS_std.c ****                 USBFS_EP[cur_ep].attrib = pEP->attributes;
 776:.\Generated_Source\PSoC5/USBFS_std.c **** 
 777:.\Generated_Source\PSoC5/USBFS_std.c ****                 /* Clear the data toggle */
 778:.\Generated_Source\PSoC5/USBFS_std.c ****                 USBFS_EP[cur_ep].epToggle = 0u;
 779:.\Generated_Source\PSoC5/USBFS_std.c **** 
 780:.\Generated_Source\PSoC5/USBFS_std.c ****                 /* Dynamic reconfiguration for mode 3 transfer */
 781:.\Generated_Source\PSoC5/USBFS_std.c ****             #if(USBFS_EP_MM == USBFS__EP_DMAAUTO)
 782:.\Generated_Source\PSoC5/USBFS_std.c ****                 /* In_data_rdy for selected EP should be set to 0 */
 783:.\Generated_Source\PSoC5/USBFS_std.c ****                 * (reg8 *)(USBFS_ARB_EP1_CFG_IND + ri) &= (uint8)~USBFS_ARB_EPX_CFG_IN_DATA_RDY;
 784:.\Generated_Source\PSoC5/USBFS_std.c **** 
 785:.\Generated_Source\PSoC5/USBFS_std.c ****                 /* write the EP number for which reconfiguration is required */
 786:.\Generated_Source\PSoC5/USBFS_std.c ****                 USBFS_DYN_RECONFIG_REG = (cur_ep - USBFS_EP1) <<
 787:.\Generated_Source\PSoC5/USBFS_std.c ****                                                     USBFS_DYN_RECONFIG_EP_SHIFT;
 788:.\Generated_Source\PSoC5/USBFS_std.c ****                 /* Set the dyn_config_en bit in dynamic reconfiguration register */
 789:.\Generated_Source\PSoC5/USBFS_std.c ****                 USBFS_DYN_RECONFIG_REG |= USBFS_DYN_RECONFIG_ENABLE;
 790:.\Generated_Source\PSoC5/USBFS_std.c ****                 /* wait for the dyn_config_rdy bit to set by the block,
 791:.\Generated_Source\PSoC5/USBFS_std.c ****                 *  this bit will be set to 1 when block is ready for reconfiguration.
 792:.\Generated_Source\PSoC5/USBFS_std.c ****                 */
 793:.\Generated_Source\PSoC5/USBFS_std.c ****                 while((USBFS_DYN_RECONFIG_REG & USBFS_DYN_RECONFIG_RDY_STS) == 0u)
 794:.\Generated_Source\PSoC5/USBFS_std.c ****                 {
 795:.\Generated_Source\PSoC5/USBFS_std.c ****                     ;
 796:.\Generated_Source\PSoC5/USBFS_std.c ****                 }
 797:.\Generated_Source\PSoC5/USBFS_std.c ****                 /* Once dyn_config_rdy bit is set, FW can change the EP configuration. */
 798:.\Generated_Source\PSoC5/USBFS_std.c ****                 /* Change EP Type with new direction */
 799:.\Generated_Source\PSoC5/USBFS_std.c ****                 if((pEP->addr & USBFS_DIR_IN) == 0u)
ARM GAS  C:\Users\MICHA_~1\AppData\Local\Temp\ccm5Lblu.s 			page 18


 800:.\Generated_Source\PSoC5/USBFS_std.c ****                 {
 801:.\Generated_Source\PSoC5/USBFS_std.c ****                     USBFS_EP_TYPE_REG |= (uint8)(0x01u << (cur_ep - USBFS_EP1));
 802:.\Generated_Source\PSoC5/USBFS_std.c ****                 }
 803:.\Generated_Source\PSoC5/USBFS_std.c ****                 else
 804:.\Generated_Source\PSoC5/USBFS_std.c ****                 {
 805:.\Generated_Source\PSoC5/USBFS_std.c ****                     USBFS_EP_TYPE_REG &= (uint8)~(uint8)(0x01u << (cur_ep - USBFS_EP1));
 806:.\Generated_Source\PSoC5/USBFS_std.c ****                 }
 807:.\Generated_Source\PSoC5/USBFS_std.c ****                 /* dynamic reconfiguration enable bit cleared, pointers and control/status
 808:.\Generated_Source\PSoC5/USBFS_std.c ****                 *  signals for the selected EP is cleared/re-initialized on negative edge
 809:.\Generated_Source\PSoC5/USBFS_std.c ****                 *  of dynamic reconfiguration enable bit).
 810:.\Generated_Source\PSoC5/USBFS_std.c ****                 */
 811:.\Generated_Source\PSoC5/USBFS_std.c ****                 USBFS_DYN_RECONFIG_REG &= (uint8)~USBFS_DYN_RECONFIG_ENABLE;
 812:.\Generated_Source\PSoC5/USBFS_std.c ****                 /* The main loop has to re-enable DMA and OUT endpoint*/
 813:.\Generated_Source\PSoC5/USBFS_std.c ****             #else
 814:.\Generated_Source\PSoC5/USBFS_std.c ****                 CY_SET_REG8((reg8 *)(USBFS_SIE_EP1_CNT0_IND + ri),
 815:.\Generated_Source\PSoC5/USBFS_std.c ****                                                                 USBFS_EP[cur_ep].bufferSize >> 8u);
 816:.\Generated_Source\PSoC5/USBFS_std.c ****                 CY_SET_REG8((reg8 *)(USBFS_SIE_EP1_CNT1_IND + ri),
 817:.\Generated_Source\PSoC5/USBFS_std.c ****                                                                 USBFS_EP[cur_ep].bufferSize & 0xFFu
 818:.\Generated_Source\PSoC5/USBFS_std.c ****                 CY_SET_REG8((reg8 *)(USBFS_ARB_RW1_RA_IND + ri),
 819:.\Generated_Source\PSoC5/USBFS_std.c ****                                                                 USBFS_EP[cur_ep].buffOffset & 0xFFu
 820:.\Generated_Source\PSoC5/USBFS_std.c ****                 CY_SET_REG8((reg8 *)(USBFS_ARB_RW1_RA_MSB_IND + ri),
 821:.\Generated_Source\PSoC5/USBFS_std.c ****                                                                 USBFS_EP[cur_ep].buffOffset >> 8u);
 822:.\Generated_Source\PSoC5/USBFS_std.c ****                 CY_SET_REG8((reg8 *)(USBFS_ARB_RW1_WA_IND + ri),
 823:.\Generated_Source\PSoC5/USBFS_std.c ****                                                                 USBFS_EP[cur_ep].buffOffset & 0xFFu
 824:.\Generated_Source\PSoC5/USBFS_std.c ****                 CY_SET_REG8((reg8 *)(USBFS_ARB_RW1_WA_MSB_IND + ri),
 825:.\Generated_Source\PSoC5/USBFS_std.c ****                                                                 USBFS_EP[cur_ep].buffOffset >> 8u);
 826:.\Generated_Source\PSoC5/USBFS_std.c ****             #endif /* End USBFS_EP_MM == USBFS__EP_DMAAUTO */
 827:.\Generated_Source\PSoC5/USBFS_std.c ****             }
 828:.\Generated_Source\PSoC5/USBFS_std.c ****             /* Get next EP element */
 829:.\Generated_Source\PSoC5/USBFS_std.c ****             pEP = &pEP[1u];
 830:.\Generated_Source\PSoC5/USBFS_std.c ****         }
 831:.\Generated_Source\PSoC5/USBFS_std.c ****     }   /* USBFS_configuration > 0 */
 832:.\Generated_Source\PSoC5/USBFS_std.c **** }
 833:.\Generated_Source\PSoC5/USBFS_std.c **** 
 834:.\Generated_Source\PSoC5/USBFS_std.c **** 
 835:.\Generated_Source\PSoC5/USBFS_std.c **** /*******************************************************************************
 836:.\Generated_Source\PSoC5/USBFS_std.c **** * Function Name: USBFS_GetConfigTablePtr
 837:.\Generated_Source\PSoC5/USBFS_std.c **** ********************************************************************************
 838:.\Generated_Source\PSoC5/USBFS_std.c **** *
 839:.\Generated_Source\PSoC5/USBFS_std.c **** * Summary:
 840:.\Generated_Source\PSoC5/USBFS_std.c **** *  This routine returns a pointer a configuration table entry
 841:.\Generated_Source\PSoC5/USBFS_std.c **** *
 842:.\Generated_Source\PSoC5/USBFS_std.c **** * Parameters:
 843:.\Generated_Source\PSoC5/USBFS_std.c **** *  c:  Configuration Index
 844:.\Generated_Source\PSoC5/USBFS_std.c **** *
 845:.\Generated_Source\PSoC5/USBFS_std.c **** * Return:
 846:.\Generated_Source\PSoC5/USBFS_std.c **** *  Device Descriptor pointer.
 847:.\Generated_Source\PSoC5/USBFS_std.c **** *
 848:.\Generated_Source\PSoC5/USBFS_std.c **** *******************************************************************************/
 849:.\Generated_Source\PSoC5/USBFS_std.c **** const T_USBFS_LUT CYCODE *USBFS_GetConfigTablePtr(uint8 c)
 850:.\Generated_Source\PSoC5/USBFS_std.c ****                                                         
 851:.\Generated_Source\PSoC5/USBFS_std.c **** {
 160              		.loc 1 851 0
 161              		.cfi_startproc
 162              		@ args = 0, pretend = 0, frame = 0
 163              		@ frame_needed = 0, uses_anonymous_args = 0
 164              		@ link register save eliminated.
ARM GAS  C:\Users\MICHA_~1\AppData\Local\Temp\ccm5Lblu.s 			page 19


 165              	.LVL8:
 852:.\Generated_Source\PSoC5/USBFS_std.c ****     /* Device Table */
 853:.\Generated_Source\PSoC5/USBFS_std.c ****     const T_USBFS_LUT CYCODE *pTmp;
 854:.\Generated_Source\PSoC5/USBFS_std.c **** 
 855:.\Generated_Source\PSoC5/USBFS_std.c ****     pTmp = (const T_USBFS_LUT CYCODE *) USBFS_TABLE[USBFS_device].p_list;
 166              		.loc 1 855 0
 167 0000 044B     		ldr	r3, .L13
 168 0002 0549     		ldr	r1, .L13+4
 169 0004 1A78     		ldrb	r2, [r3, #0]	@ zero_extendqisi2
 170              	.LVL9:
 171 0006 01EBC203 		add	r3, r1, r2, lsl #3
 856:.\Generated_Source\PSoC5/USBFS_std.c **** 
 857:.\Generated_Source\PSoC5/USBFS_std.c ****     /* The first entry points to the Device Descriptor,
 858:.\Generated_Source\PSoC5/USBFS_std.c ****     *  the rest configuration entries.
 859:.\Generated_Source\PSoC5/USBFS_std.c **** 	*/
 860:.\Generated_Source\PSoC5/USBFS_std.c ****     return( (const T_USBFS_LUT CYCODE *) pTmp[c + 1u].p_list );
 172              		.loc 1 860 0
 173 000a 5A68     		ldr	r2, [r3, #4]
 174              	.LVL10:
 175 000c 02EBC000 		add	r0, r2, r0, lsl #3
 176              	.LVL11:
 861:.\Generated_Source\PSoC5/USBFS_std.c **** }
 177              		.loc 1 861 0
 178 0010 C068     		ldr	r0, [r0, #12]
 179 0012 7047     		bx	lr
 180              	.L14:
 181              		.align	2
 182              	.L13:
 183 0014 00000000 		.word	USBFS_device
 184 0018 00000000 		.word	USBFS_TABLE
 185              		.cfi_endproc
 186              	.LFE4:
 187              		.size	USBFS_GetConfigTablePtr, .-USBFS_GetConfigTablePtr
 188              		.section	.text.USBFS_ConfigAltChanged,"ax",%progbits
 189              		.align	1
 190              		.global	USBFS_ConfigAltChanged
 191              		.thumb
 192              		.thumb_func
 193              		.type	USBFS_ConfigAltChanged, %function
 194              	USBFS_ConfigAltChanged:
 195              	.LFB3:
 724:.\Generated_Source\PSoC5/USBFS_std.c **** {
 196              		.loc 1 724 0
 197              		.cfi_startproc
 198              		@ args = 0, pretend = 0, frame = 0
 199              		@ frame_needed = 0, uses_anonymous_args = 0
 200 0000 F8B5     		push	{r3, r4, r5, r6, r7, lr}
 201              	.LCFI1:
 202              		.cfi_def_cfa_offset 24
 203              		.cfi_offset 3, -24
 204              		.cfi_offset 4, -20
 205              		.cfi_offset 5, -16
 206              		.cfi_offset 6, -12
 207              		.cfi_offset 7, -8
 208              		.cfi_offset 14, -4
 736:.\Generated_Source\PSoC5/USBFS_std.c ****     if(USBFS_configuration > 0u)
 209              		.loc 1 736 0
ARM GAS  C:\Users\MICHA_~1\AppData\Local\Temp\ccm5Lblu.s 			page 20


 210 0002 3D4B     		ldr	r3, .L28
 211 0004 1A78     		ldrb	r2, [r3, #0]	@ zero_extendqisi2
 212 0006 002A     		cmp	r2, #0
 213 0008 74D0     		beq	.L15
 738:.\Generated_Source\PSoC5/USBFS_std.c ****         pTmp = USBFS_GetConfigTablePtr(USBFS_configuration - 1u);
 214              		.loc 1 738 0
 215 000a 1878     		ldrb	r0, [r3, #0]	@ zero_extendqisi2
 216 000c 411E     		subs	r1, r0, #1
 217 000e C8B2     		uxtb	r0, r1
 218 0010 FFF7FEFF 		bl	USBFS_GetConfigTablePtr
 219              	.LVL12:
 723:.\Generated_Source\PSoC5/USBFS_std.c **** void USBFS_ConfigAltChanged(void) 
 220              		.loc 1 723 0
 221 0014 C368     		ldr	r3, [r0, #12]
 740:.\Generated_Source\PSoC5/USBFS_std.c ****         ep = pTmp->c;  /* For this table, c is the number of endpoints configurations  */
 222              		.loc 1 740 0
 223 0016 057A     		ldrb	r5, [r0, #8]	@ zero_extendqisi2
 224              	.LVL13:
 723:.\Generated_Source\PSoC5/USBFS_std.c **** void USBFS_ConfigAltChanged(void) 
 225              		.loc 1 723 0
 226 0018 0833     		adds	r3, r3, #8
 227              	.LVL14:
 746:.\Generated_Source\PSoC5/USBFS_std.c ****         for (i = 0u; i < ep; i++)
 228              		.loc 1 746 0
 229 001a 0020     		movs	r0, #0
 230              	.LVL15:
 231              	.L17:
 746:.\Generated_Source\PSoC5/USBFS_std.c ****         for (i = 0u; i < ep; i++)
 232              		.loc 1 746 0 is_stmt 0 discriminator 1
 233 001c A842     		cmp	r0, r5
 234 001e 69D0     		beq	.L15
 235              	.L23:
 749:.\Generated_Source\PSoC5/USBFS_std.c ****             if((USBFS_interfaceSetting[pEP->interface] !=
 236              		.loc 1 749 0 is_stmt 1
 237 0020 13F8082C 		ldrb	r2, [r3, #-8]	@ zero_extendqisi2
 238 0024 3549     		ldr	r1, .L28+4
 750:.\Generated_Source\PSoC5/USBFS_std.c ****                 USBFS_interfaceSetting_last[pEP->interface] ) &&
 239              		.loc 1 750 0
 240 0026 364C     		ldr	r4, .L28+8
 749:.\Generated_Source\PSoC5/USBFS_std.c ****             if((USBFS_interfaceSetting[pEP->interface] !=
 241              		.loc 1 749 0
 242 0028 8E5C     		ldrb	r6, [r1, r2]	@ zero_extendqisi2
 750:.\Generated_Source\PSoC5/USBFS_std.c ****                 USBFS_interfaceSetting_last[pEP->interface] ) &&
 243              		.loc 1 750 0
 244 002a A45C     		ldrb	r4, [r4, r2]	@ zero_extendqisi2
 749:.\Generated_Source\PSoC5/USBFS_std.c ****             if((USBFS_interfaceSetting[pEP->interface] !=
 245              		.loc 1 749 0
 246 002c A642     		cmp	r6, r4
 247 002e 5DD0     		beq	.L18
 751:.\Generated_Source\PSoC5/USBFS_std.c ****                (USBFS_interfaceSetting[pEP->interface] == pEP->altSetting) &&
 248              		.loc 1 751 0
 249 0030 895C     		ldrb	r1, [r1, r2]	@ zero_extendqisi2
 750:.\Generated_Source\PSoC5/USBFS_std.c ****                 USBFS_interfaceSetting_last[pEP->interface] ) &&
 250              		.loc 1 750 0
 251 0032 13F8074C 		ldrb	r4, [r3, #-7]	@ zero_extendqisi2
 252 0036 8C42     		cmp	r4, r1
 253 0038 58D1     		bne	.L18
ARM GAS  C:\Users\MICHA_~1\AppData\Local\Temp\ccm5Lblu.s 			page 21


 752:.\Generated_Source\PSoC5/USBFS_std.c ****                (pEP->interface == CY_GET_REG8(USBFS_wIndexLo)))
 254              		.loc 1 752 0
 255 003a 3249     		ldr	r1, .L28+12
 256 003c 0978     		ldrb	r1, [r1, #0]	@ zero_extendqisi2
 751:.\Generated_Source\PSoC5/USBFS_std.c ****                (USBFS_interfaceSetting[pEP->interface] == pEP->altSetting) &&
 257              		.loc 1 751 0
 258 003e 8A42     		cmp	r2, r1
 259 0040 54D1     		bne	.L18
 754:.\Generated_Source\PSoC5/USBFS_std.c ****                 cur_ep = pEP->addr & USBFS_DIR_UNUSED;
 260              		.loc 1 754 0
 261 0042 13F8067C 		ldrb	r7, [r3, #-6]	@ zero_extendqisi2
 262 0046 07F07F02 		and	r2, r7, #127
 263              	.LVL16:
 755:.\Generated_Source\PSoC5/USBFS_std.c ****                 ri = ((cur_ep - USBFS_EP1) << USBFS_EPX_CNTX_ADDR_SHIFT);
 264              		.loc 1 755 0
 265 004a 561E     		subs	r6, r2, #1
 266 004c 3401     		lsls	r4, r6, #4
 267 004e E1B2     		uxtb	r1, r4
 268              	.LVL17:
 756:.\Generated_Source\PSoC5/USBFS_std.c ****                 ep_type = pEP->attributes & USBFS_EP_TYPE_MASK;
 269              		.loc 1 756 0
 270 0050 13F8056C 		ldrb	r6, [r3, #-5]	@ zero_extendqisi2
 271 0054 2C4C     		ldr	r4, .L28+16
 272              	.LVL18:
 757:.\Generated_Source\PSoC5/USBFS_std.c ****                 if ((pEP->addr & USBFS_DIR_IN) != 0u)
 273              		.loc 1 757 0
 274 0056 17F0800F 		tst	r7, #128
 275 005a 4FF00C07 		mov	r7, #12
 756:.\Generated_Source\PSoC5/USBFS_std.c ****                 ep_type = pEP->attributes & USBFS_EP_TYPE_MASK;
 276              		.loc 1 756 0
 277 005e 06F00306 		and	r6, r6, #3
 278              	.LVL19:
 760:.\Generated_Source\PSoC5/USBFS_std.c ****                     USBFS_EP[cur_ep].apiEpState = USBFS_EVENT_PENDING;
 279              		.loc 1 760 0
 280 0062 07FB0244 		mla	r4, r7, r2, r4
 757:.\Generated_Source\PSoC5/USBFS_std.c ****                 if ((pEP->addr & USBFS_DIR_IN) != 0u)
 281              		.loc 1 757 0
 282 0066 06D0     		beq	.L19
 760:.\Generated_Source\PSoC5/USBFS_std.c ****                     USBFS_EP[cur_ep].apiEpState = USBFS_EVENT_PENDING;
 283              		.loc 1 760 0
 284 0068 0127     		movs	r7, #1
 285 006a 6770     		strb	r7, [r4, #1]
 761:.\Generated_Source\PSoC5/USBFS_std.c ****                     USBFS_EP[cur_ep].epMode = (ep_type == USBFS_EP_TYPE_ISOC) ?
 286              		.loc 1 761 0
 287 006c BE42     		cmp	r6, r7
 288 006e 14BF     		ite	ne
 289 0070 0D26     		movne	r6, #13
 290 0072 0726     		moveq	r6, #7
 291              	.LVL20:
 292 0074 05E0     		b	.L27
 293              	.LVL21:
 294              	.L19:
 767:.\Generated_Source\PSoC5/USBFS_std.c ****                     USBFS_EP[cur_ep].apiEpState = USBFS_NO_EVENT_PENDING;
 295              		.loc 1 767 0
 296 0076 0027     		movs	r7, #0
 297 0078 6770     		strb	r7, [r4, #1]
 768:.\Generated_Source\PSoC5/USBFS_std.c ****                     USBFS_EP[cur_ep].epMode = (ep_type == USBFS_EP_TYPE_ISOC) ?
ARM GAS  C:\Users\MICHA_~1\AppData\Local\Temp\ccm5Lblu.s 			page 22


 298              		.loc 1 768 0
 299 007a 012E     		cmp	r6, #1
 300 007c 14BF     		ite	ne
 301 007e 0926     		movne	r6, #9
 302 0080 0526     		moveq	r6, #5
 303              	.LVL22:
 304              	.L27:
 305 0082 6671     		strb	r6, [r4, #5]
 772:.\Generated_Source\PSoC5/USBFS_std.c ****                  CY_SET_REG8((reg8 *)(USBFS_SIE_EP1_CR0_IND + ri), USBFS_MODE_NAK_IN_OUT);
 306              		.loc 1 772 0
 307 0084 214C     		ldr	r4, .L28+20
 308 0086 0126     		movs	r6, #1
 309 0088 0F19     		adds	r7, r1, r4
 773:.\Generated_Source\PSoC5/USBFS_std.c ****                 USBFS_EP[cur_ep].bufferSize = pEP->bufferSize;
 310              		.loc 1 773 0
 311 008a 0C24     		movs	r4, #12
 312 008c 5443     		muls	r4, r2, r4
 772:.\Generated_Source\PSoC5/USBFS_std.c ****                  CY_SET_REG8((reg8 *)(USBFS_SIE_EP1_CR0_IND + ri), USBFS_MODE_NAK_IN_OUT);
 313              		.loc 1 772 0
 314 008e 3E70     		strb	r6, [r7, #0]
 773:.\Generated_Source\PSoC5/USBFS_std.c ****                 USBFS_EP[cur_ep].bufferSize = pEP->bufferSize;
 315              		.loc 1 773 0
 316 0090 1D4E     		ldr	r6, .L28+16
 317 0092 33F8047C 		ldrh	r7, [r3, #-4]
 318 0096 3219     		adds	r2, r6, r4
 319              	.LVL23:
 320 0098 1781     		strh	r7, [r2, #8]	@ movhi
 774:.\Generated_Source\PSoC5/USBFS_std.c ****                 USBFS_EP[cur_ep].addr = pEP->addr;
 321              		.loc 1 774 0
 322 009a 13F8067C 		ldrb	r7, [r3, #-6]	@ zero_extendqisi2
 323 009e 1771     		strb	r7, [r2, #4]
 775:.\Generated_Source\PSoC5/USBFS_std.c ****                 USBFS_EP[cur_ep].attrib = pEP->attributes;
 324              		.loc 1 775 0
 325 00a0 13F8057C 		ldrb	r7, [r3, #-5]	@ zero_extendqisi2
 326 00a4 3755     		strb	r7, [r6, r4]
 778:.\Generated_Source\PSoC5/USBFS_std.c ****                 USBFS_EP[cur_ep].epToggle = 0u;
 327              		.loc 1 778 0
 328 00a6 0026     		movs	r6, #0
 329 00a8 D670     		strb	r6, [r2, #3]
 814:.\Generated_Source\PSoC5/USBFS_std.c ****                 CY_SET_REG8((reg8 *)(USBFS_SIE_EP1_CNT0_IND + ri),
 330              		.loc 1 814 0
 331 00aa 1689     		ldrh	r6, [r2, #8]
 332 00ac 184C     		ldr	r4, .L28+24
 333 00ae C6F30726 		ubfx	r6, r6, #8, #8
 334 00b2 0C19     		adds	r4, r1, r4
 335 00b4 2670     		strb	r6, [r4, #0]
 816:.\Generated_Source\PSoC5/USBFS_std.c ****                 CY_SET_REG8((reg8 *)(USBFS_SIE_EP1_CNT1_IND + ri),
 336              		.loc 1 816 0
 337 00b6 1689     		ldrh	r6, [r2, #8]
 338 00b8 164C     		ldr	r4, .L28+28
 339 00ba F6B2     		uxtb	r6, r6
 340 00bc 0C19     		adds	r4, r1, r4
 341 00be 2670     		strb	r6, [r4, #0]
 818:.\Generated_Source\PSoC5/USBFS_std.c ****                 CY_SET_REG8((reg8 *)(USBFS_ARB_RW1_RA_IND + ri),
 342              		.loc 1 818 0
 343 00c0 D688     		ldrh	r6, [r2, #6]
 344 00c2 154C     		ldr	r4, .L28+32
ARM GAS  C:\Users\MICHA_~1\AppData\Local\Temp\ccm5Lblu.s 			page 23


 345 00c4 F6B2     		uxtb	r6, r6
 346 00c6 0C19     		adds	r4, r1, r4
 347 00c8 2670     		strb	r6, [r4, #0]
 820:.\Generated_Source\PSoC5/USBFS_std.c ****                 CY_SET_REG8((reg8 *)(USBFS_ARB_RW1_RA_MSB_IND + ri),
 348              		.loc 1 820 0
 349 00ca D688     		ldrh	r6, [r2, #6]
 350 00cc 134C     		ldr	r4, .L28+36
 351 00ce C6F30726 		ubfx	r6, r6, #8, #8
 352 00d2 0C19     		adds	r4, r1, r4
 353 00d4 2670     		strb	r6, [r4, #0]
 822:.\Generated_Source\PSoC5/USBFS_std.c ****                 CY_SET_REG8((reg8 *)(USBFS_ARB_RW1_WA_IND + ri),
 354              		.loc 1 822 0
 355 00d6 D688     		ldrh	r6, [r2, #6]
 356 00d8 114C     		ldr	r4, .L28+40
 357 00da F6B2     		uxtb	r6, r6
 358 00dc 0C19     		adds	r4, r1, r4
 359 00de 2670     		strb	r6, [r4, #0]
 824:.\Generated_Source\PSoC5/USBFS_std.c ****                 CY_SET_REG8((reg8 *)(USBFS_ARB_RW1_WA_MSB_IND + ri),
 360              		.loc 1 824 0
 361 00e0 104C     		ldr	r4, .L28+44
 362 00e2 0C19     		adds	r4, r1, r4
 363 00e4 D188     		ldrh	r1, [r2, #6]
 364              	.LVL24:
 365 00e6 C1F30722 		ubfx	r2, r1, #8, #8
 366 00ea 2270     		strb	r2, [r4, #0]
 367              	.LVL25:
 368              	.L18:
 746:.\Generated_Source\PSoC5/USBFS_std.c ****         for (i = 0u; i < ep; i++)
 369              		.loc 1 746 0
 370 00ec 0130     		adds	r0, r0, #1
 371              	.LVL26:
 372 00ee C0B2     		uxtb	r0, r0
 373              	.LVL27:
 374 00f0 0833     		adds	r3, r3, #8
 375 00f2 93E7     		b	.L17
 376              	.LVL28:
 377              	.L15:
 378 00f4 F8BD     		pop	{r3, r4, r5, r6, r7, pc}
 379              	.L29:
 380 00f6 00BF     		.align	2
 381              	.L28:
 382 00f8 00000000 		.word	USBFS_configuration
 383 00fc 00000000 		.word	USBFS_interfaceSetting
 384 0100 00000000 		.word	USBFS_interfaceSetting_last
 385 0104 04600040 		.word	1073766404
 386 0108 00000000 		.word	USBFS_EP
 387 010c 0E600040 		.word	1073766414
 388 0110 0C600040 		.word	1073766412
 389 0114 0D600040 		.word	1073766413
 390 0118 86600040 		.word	1073766534
 391 011c 87600040 		.word	1073766535
 392 0120 84600040 		.word	1073766532
 393 0124 85600040 		.word	1073766533
 394              		.cfi_endproc
 395              	.LFE3:
 396              		.size	USBFS_ConfigAltChanged, .-USBFS_ConfigAltChanged
 397              		.section	.text.USBFS_GetDeviceTablePtr,"ax",%progbits
ARM GAS  C:\Users\MICHA_~1\AppData\Local\Temp\ccm5Lblu.s 			page 24


 398              		.align	1
 399              		.global	USBFS_GetDeviceTablePtr
 400              		.thumb
 401              		.thumb_func
 402              		.type	USBFS_GetDeviceTablePtr, %function
 403              	USBFS_GetDeviceTablePtr:
 404              	.LFB5:
 862:.\Generated_Source\PSoC5/USBFS_std.c **** 
 863:.\Generated_Source\PSoC5/USBFS_std.c **** 
 864:.\Generated_Source\PSoC5/USBFS_std.c **** /*******************************************************************************
 865:.\Generated_Source\PSoC5/USBFS_std.c **** * Function Name: USBFS_GetDeviceTablePtr
 866:.\Generated_Source\PSoC5/USBFS_std.c **** ********************************************************************************
 867:.\Generated_Source\PSoC5/USBFS_std.c **** *
 868:.\Generated_Source\PSoC5/USBFS_std.c **** * Summary:
 869:.\Generated_Source\PSoC5/USBFS_std.c **** *  This routine returns a pointer to the Device table
 870:.\Generated_Source\PSoC5/USBFS_std.c **** *
 871:.\Generated_Source\PSoC5/USBFS_std.c **** * Parameters:
 872:.\Generated_Source\PSoC5/USBFS_std.c **** *  None.
 873:.\Generated_Source\PSoC5/USBFS_std.c **** *
 874:.\Generated_Source\PSoC5/USBFS_std.c **** * Return:
 875:.\Generated_Source\PSoC5/USBFS_std.c **** *  Device Table pointer
 876:.\Generated_Source\PSoC5/USBFS_std.c **** *
 877:.\Generated_Source\PSoC5/USBFS_std.c **** *******************************************************************************/
 878:.\Generated_Source\PSoC5/USBFS_std.c **** const T_USBFS_LUT CYCODE *USBFS_GetDeviceTablePtr(void)
 879:.\Generated_Source\PSoC5/USBFS_std.c ****                                                             
 880:.\Generated_Source\PSoC5/USBFS_std.c **** {
 405              		.loc 1 880 0
 406              		.cfi_startproc
 407              		@ args = 0, pretend = 0, frame = 0
 408              		@ frame_needed = 0, uses_anonymous_args = 0
 409              		@ link register save eliminated.
 881:.\Generated_Source\PSoC5/USBFS_std.c ****     /* Device Table */
 882:.\Generated_Source\PSoC5/USBFS_std.c ****     return( (const T_USBFS_LUT CYCODE *) USBFS_TABLE[USBFS_device].p_list );
 410              		.loc 1 882 0
 411 0000 034B     		ldr	r3, .L31
 412 0002 0448     		ldr	r0, .L31+4
 413 0004 1A78     		ldrb	r2, [r3, #0]	@ zero_extendqisi2
 414 0006 00EBC201 		add	r1, r0, r2, lsl #3
 883:.\Generated_Source\PSoC5/USBFS_std.c **** }
 415              		.loc 1 883 0
 416 000a 4868     		ldr	r0, [r1, #4]
 417 000c 7047     		bx	lr
 418              	.L32:
 419 000e 00BF     		.align	2
 420              	.L31:
 421 0010 00000000 		.word	USBFS_device
 422 0014 00000000 		.word	USBFS_TABLE
 423              		.cfi_endproc
 424              	.LFE5:
 425              		.size	USBFS_GetDeviceTablePtr, .-USBFS_GetDeviceTablePtr
 426              		.section	.text.USBFS_GetInterfaceClassTablePtr,"ax",%progbits
 427              		.align	1
 428              		.global	USBFS_GetInterfaceClassTablePtr
 429              		.thumb
 430              		.thumb_func
 431              		.type	USBFS_GetInterfaceClassTablePtr, %function
 432              	USBFS_GetInterfaceClassTablePtr:
ARM GAS  C:\Users\MICHA_~1\AppData\Local\Temp\ccm5Lblu.s 			page 25


 433              	.LFB6:
 884:.\Generated_Source\PSoC5/USBFS_std.c **** 
 885:.\Generated_Source\PSoC5/USBFS_std.c **** 
 886:.\Generated_Source\PSoC5/USBFS_std.c **** /*******************************************************************************
 887:.\Generated_Source\PSoC5/USBFS_std.c **** * Function Name: USB_GetInterfaceClassTablePtr
 888:.\Generated_Source\PSoC5/USBFS_std.c **** ********************************************************************************
 889:.\Generated_Source\PSoC5/USBFS_std.c **** *
 890:.\Generated_Source\PSoC5/USBFS_std.c **** * Summary:
 891:.\Generated_Source\PSoC5/USBFS_std.c **** *  This routine returns Interface Class table pointer, which contains
 892:.\Generated_Source\PSoC5/USBFS_std.c **** *  the relation between interface number and interface class.
 893:.\Generated_Source\PSoC5/USBFS_std.c **** *
 894:.\Generated_Source\PSoC5/USBFS_std.c **** * Parameters:
 895:.\Generated_Source\PSoC5/USBFS_std.c **** *  None.
 896:.\Generated_Source\PSoC5/USBFS_std.c **** *
 897:.\Generated_Source\PSoC5/USBFS_std.c **** * Return:
 898:.\Generated_Source\PSoC5/USBFS_std.c **** *  Interface Class table pointer.
 899:.\Generated_Source\PSoC5/USBFS_std.c **** *
 900:.\Generated_Source\PSoC5/USBFS_std.c **** *******************************************************************************/
 901:.\Generated_Source\PSoC5/USBFS_std.c **** const uint8 CYCODE *USBFS_GetInterfaceClassTablePtr(void)
 902:.\Generated_Source\PSoC5/USBFS_std.c ****                                                         
 903:.\Generated_Source\PSoC5/USBFS_std.c **** {
 434              		.loc 1 903 0
 435              		.cfi_startproc
 436              		@ args = 0, pretend = 0, frame = 0
 437              		@ frame_needed = 0, uses_anonymous_args = 0
 438 0000 08B5     		push	{r3, lr}
 439              	.LCFI2:
 440              		.cfi_def_cfa_offset 8
 441              		.cfi_offset 3, -8
 442              		.cfi_offset 14, -4
 904:.\Generated_Source\PSoC5/USBFS_std.c ****     const T_USBFS_LUT CYCODE *pTmp;
 905:.\Generated_Source\PSoC5/USBFS_std.c ****     uint8 currentInterfacesNum;
 906:.\Generated_Source\PSoC5/USBFS_std.c **** 
 907:.\Generated_Source\PSoC5/USBFS_std.c ****     pTmp = USBFS_GetConfigTablePtr(USBFS_configuration - 1u);
 443              		.loc 1 907 0
 444 0002 064B     		ldr	r3, .L34
 445 0004 1878     		ldrb	r0, [r3, #0]	@ zero_extendqisi2
 446 0006 411E     		subs	r1, r0, #1
 447 0008 C8B2     		uxtb	r0, r1
 448 000a FFF7FEFF 		bl	USBFS_GetConfigTablePtr
 449              	.LVL29:
 908:.\Generated_Source\PSoC5/USBFS_std.c ****     currentInterfacesNum  = ((const uint8 *) pTmp->p_list)[USBFS_CONFIG_DESCR_NUM_INTERFACES];
 450              		.loc 1 908 0
 451 000e 4268     		ldr	r2, [r0, #4]
 909:.\Generated_Source\PSoC5/USBFS_std.c ****     /* Third entry in the LUT starts the Interface Table pointers */
 910:.\Generated_Source\PSoC5/USBFS_std.c ****     /* The INTERFACE_CLASS table is located after all interfaces */
 911:.\Generated_Source\PSoC5/USBFS_std.c ****     pTmp = &pTmp[currentInterfacesNum + 2u];
 452              		.loc 1 911 0
 453 0010 1379     		ldrb	r3, [r2, #4]	@ zero_extendqisi2
 454              	.LVL30:
 912:.\Generated_Source\PSoC5/USBFS_std.c ****     return( (const uint8 CYCODE *) pTmp->p_list );
 455              		.loc 1 912 0
 456 0012 00EBC300 		add	r0, r0, r3, lsl #3
 457              	.LVL31:
 913:.\Generated_Source\PSoC5/USBFS_std.c **** }
 458              		.loc 1 913 0
 459 0016 4069     		ldr	r0, [r0, #20]
ARM GAS  C:\Users\MICHA_~1\AppData\Local\Temp\ccm5Lblu.s 			page 26


 460 0018 08BD     		pop	{r3, pc}
 461              	.L35:
 462 001a 00BF     		.align	2
 463              	.L34:
 464 001c 00000000 		.word	USBFS_configuration
 465              		.cfi_endproc
 466              	.LFE6:
 467              		.size	USBFS_GetInterfaceClassTablePtr, .-USBFS_GetInterfaceClassTablePtr
 468              		.section	.text.USBFS_Config,"ax",%progbits
 469              		.align	1
 470              		.global	USBFS_Config
 471              		.thumb
 472              		.thumb_func
 473              		.type	USBFS_Config, %function
 474              	USBFS_Config:
 475              	.LFB2:
 476:.\Generated_Source\PSoC5/USBFS_std.c **** {
 476              		.loc 1 476 0
 477              		.cfi_startproc
 478              		@ args = 0, pretend = 0, frame = 0
 479              		@ frame_needed = 0, uses_anonymous_args = 0
 480              	.LVL32:
 481 0000 F8B5     		push	{r3, r4, r5, r6, r7, lr}
 482              	.LCFI3:
 483              		.cfi_def_cfa_offset 24
 484              		.cfi_offset 3, -24
 485              		.cfi_offset 4, -20
 486              		.cfi_offset 5, -16
 487              		.cfi_offset 6, -12
 488              		.cfi_offset 7, -8
 489              		.cfi_offset 14, -4
 476:.\Generated_Source\PSoC5/USBFS_std.c **** {
 490              		.loc 1 476 0
 491 0002 0021     		movs	r1, #0
 492              	.LVL33:
 493              	.L37:
 492:.\Generated_Source\PSoC5/USBFS_std.c ****         USBFS_EP[ep].attrib = 0u;
 494              		.loc 1 492 0 discriminator 2
 495 0004 0C24     		movs	r4, #12
 496 0006 4C43     		muls	r4, r1, r4
 497 0008 514D     		ldr	r5, .L68
 498 000a 0131     		adds	r1, r1, #1
 499 000c 0023     		movs	r3, #0
 500 000e 2A19     		adds	r2, r5, r4
 490:.\Generated_Source\PSoC5/USBFS_std.c ****     for (ep = 0u; ep < USBFS_MAX_EP; ep++)
 501              		.loc 1 490 0 discriminator 2
 502 0010 0929     		cmp	r1, #9
 492:.\Generated_Source\PSoC5/USBFS_std.c ****         USBFS_EP[ep].attrib = 0u;
 503              		.loc 1 492 0 discriminator 2
 504 0012 2B55     		strb	r3, [r5, r4]
 493:.\Generated_Source\PSoC5/USBFS_std.c ****         USBFS_EP[ep].hwEpState = 0u;
 505              		.loc 1 493 0 discriminator 2
 506 0014 9370     		strb	r3, [r2, #2]
 497:.\Generated_Source\PSoC5/USBFS_std.c ****         USBFS_EP[ep].bufferSize = 0u;
 507              		.loc 1 497 0 discriminator 2
 508 0016 02F10804 		add	r4, r2, #8
 494:.\Generated_Source\PSoC5/USBFS_std.c ****         USBFS_EP[ep].apiEpState = USBFS_NO_EVENT_PENDING;
ARM GAS  C:\Users\MICHA_~1\AppData\Local\Temp\ccm5Lblu.s 			page 27


 509              		.loc 1 494 0 discriminator 2
 510 001a 5370     		strb	r3, [r2, #1]
 495:.\Generated_Source\PSoC5/USBFS_std.c ****         USBFS_EP[ep].epToggle = 0u;
 511              		.loc 1 495 0 discriminator 2
 512 001c D370     		strb	r3, [r2, #3]
 496:.\Generated_Source\PSoC5/USBFS_std.c ****         USBFS_EP[ep].epMode = USBFS_MODE_DISABLE;
 513              		.loc 1 496 0 discriminator 2
 514 001e 5371     		strb	r3, [r2, #5]
 497:.\Generated_Source\PSoC5/USBFS_std.c ****         USBFS_EP[ep].bufferSize = 0u;
 515              		.loc 1 497 0 discriminator 2
 516 0020 1381     		strh	r3, [r2, #8]	@ movhi
 498:.\Generated_Source\PSoC5/USBFS_std.c ****         USBFS_EP[ep].interface = 0u;
 517              		.loc 1 498 0 discriminator 2
 518 0022 9372     		strb	r3, [r2, #10]
 490:.\Generated_Source\PSoC5/USBFS_std.c ****     for (ep = 0u; ep < USBFS_MAX_EP; ep++)
 519              		.loc 1 490 0 discriminator 2
 520 0024 EED1     		bne	.L37
 503:.\Generated_Source\PSoC5/USBFS_std.c ****     if(clearAltSetting != 0u)
 521              		.loc 1 503 0
 522 0026 18B1     		cbz	r0, .L38
 507:.\Generated_Source\PSoC5/USBFS_std.c ****             USBFS_interfaceSetting[i] = 0x00u;
 523              		.loc 1 507 0 discriminator 2
 524 0028 4A48     		ldr	r0, .L68+4
 525              	.LVL34:
 508:.\Generated_Source\PSoC5/USBFS_std.c ****             USBFS_interfaceSetting_last[i] = 0x00u;
 526              		.loc 1 508 0 discriminator 2
 527 002a 4B4A     		ldr	r2, .L68+8
 507:.\Generated_Source\PSoC5/USBFS_std.c ****             USBFS_interfaceSetting[i] = 0x00u;
 528              		.loc 1 507 0 discriminator 2
 529 002c 0370     		strb	r3, [r0, #0]
 508:.\Generated_Source\PSoC5/USBFS_std.c ****             USBFS_interfaceSetting_last[i] = 0x00u;
 530              		.loc 1 508 0 discriminator 2
 531 002e 1370     		strb	r3, [r2, #0]
 532              	.LVL35:
 533              	.L38:
 513:.\Generated_Source\PSoC5/USBFS_std.c ****     if(USBFS_configuration > 0u)
 534              		.loc 1 513 0
 535 0030 4A4B     		ldr	r3, .L68+12
 536 0032 1978     		ldrb	r1, [r3, #0]	@ zero_extendqisi2
 537 0034 0029     		cmp	r1, #0
 538 0036 00F08A80 		beq	.L36
 515:.\Generated_Source\PSoC5/USBFS_std.c ****         pTmp = USBFS_GetConfigTablePtr(USBFS_configuration - 1u);
 539              		.loc 1 515 0
 540 003a 1C78     		ldrb	r4, [r3, #0]	@ zero_extendqisi2
 541 003c 601E     		subs	r0, r4, #1
 542 003e C0B2     		uxtb	r0, r0
 543 0040 FFF7FEFF 		bl	USBFS_GetConfigTablePtr
 544              	.LVL36:
 518:.\Generated_Source\PSoC5/USBFS_std.c ****         if((pDescr[USBFS_CONFIG_DESCR_ATTRIB] & USBFS_CONFIG_DESCR_ATTRIB_SELF_POWERED) != 0u)
 545              		.loc 1 518 0
 546 0044 4268     		ldr	r2, [r0, #4]
 547 0046 D379     		ldrb	r3, [r2, #7]	@ zero_extendqisi2
 548 0048 03F04001 		and	r1, r3, #64
 549 004c CCB2     		uxtb	r4, r1
 550 004e 444B     		ldr	r3, .L68+16
 551 0050 1CB1     		cbz	r4, .L40
 520:.\Generated_Source\PSoC5/USBFS_std.c ****             USBFS_deviceStatus |=  USBFS_DEVICE_STATUS_SELF_POWERED;
ARM GAS  C:\Users\MICHA_~1\AppData\Local\Temp\ccm5Lblu.s 			page 28


 552              		.loc 1 520 0
 553 0052 1C78     		ldrb	r4, [r3, #0]	@ zero_extendqisi2
 554 0054 44F00101 		orr	r1, r4, #1
 555              	.LVL37:
 556 0058 02E0     		b	.L64
 557              	.L40:
 524:.\Generated_Source\PSoC5/USBFS_std.c ****             USBFS_deviceStatus &=  (uint8)~USBFS_DEVICE_STATUS_SELF_POWERED;
 558              		.loc 1 524 0
 559 005a 1A78     		ldrb	r2, [r3, #0]	@ zero_extendqisi2
 560 005c 02F0FE01 		and	r1, r2, #254
 561              	.L64:
 528:.\Generated_Source\PSoC5/USBFS_std.c ****         ep = pTmp->c;  /* For this table, c is the number of endpoints configurations  */
 562              		.loc 1 528 0
 563 0060 047A     		ldrb	r4, [r0, #8]	@ zero_extendqisi2
 564              	.LVL38:
 524:.\Generated_Source\PSoC5/USBFS_std.c ****             USBFS_deviceStatus &=  (uint8)~USBFS_DEVICE_STATUS_SELF_POWERED;
 565              		.loc 1 524 0
 566 0062 1970     		strb	r1, [r3, #0]
 567              	.LVL39:
 528:.\Generated_Source\PSoC5/USBFS_std.c ****         ep = pTmp->c;  /* For this table, c is the number of endpoints configurations  */
 568              		.loc 1 528 0
 569 0064 0122     		movs	r2, #1
 570              	.LVL40:
 571              	.L52:
 475:.\Generated_Source\PSoC5/USBFS_std.c **** void USBFS_Config(uint8 clearAltSetting) 
 572              		.loc 1 475 0
 573 0066 C368     		ldr	r3, [r0, #12]
 601:.\Generated_Source\PSoC5/USBFS_std.c ****                 for (cur_ep = 0u; cur_ep < ep; cur_ep++)
 574              		.loc 1 601 0
 575 0068 0021     		movs	r1, #0
 576              	.LVL41:
 475:.\Generated_Source\PSoC5/USBFS_std.c **** void USBFS_Config(uint8 clearAltSetting) 
 577              		.loc 1 475 0
 578 006a 0833     		adds	r3, r3, #8
 579              	.LVL42:
 580              	.L42:
 601:.\Generated_Source\PSoC5/USBFS_std.c ****                 for (cur_ep = 0u; cur_ep < ep; cur_ep++)
 581              		.loc 1 601 0 discriminator 1
 582 006c A142     		cmp	r1, r4
 583 006e 43D0     		beq	.L66
 584              	.L51:
 604:.\Generated_Source\PSoC5/USBFS_std.c ****                     if(i == (pEP->addr & USBFS_DIR_UNUSED))
 585              		.loc 1 604 0
 586 0070 13F8065C 		ldrb	r5, [r3, #-6]	@ zero_extendqisi2
 587 0074 05F07F06 		and	r6, r5, #127
 588 0078 B242     		cmp	r2, r6
 589 007a 39D1     		bne	.L44
 606:.\Generated_Source\PSoC5/USBFS_std.c ****                         if(USBFS_EP[i].bufferSize < pEP->bufferSize)
 590              		.loc 1 606 0
 591 007c 344E     		ldr	r6, .L68
 592 007e 0C27     		movs	r7, #12
 593 0080 07FB0266 		mla	r6, r7, r2, r6
 594 0084 B6F808E0 		ldrh	lr, [r6, #8]
 595 0088 33F8047C 		ldrh	r7, [r3, #-4]
 596 008c 1FFA8EFC 		uxth	ip, lr
 597 0090 BC45     		cmp	ip, r7
 608:.\Generated_Source\PSoC5/USBFS_std.c ****                             USBFS_EP[i].bufferSize = pEP->bufferSize;
ARM GAS  C:\Users\MICHA_~1\AppData\Local\Temp\ccm5Lblu.s 			page 29


 598              		.loc 1 608 0
 599 0092 38BF     		it	cc
 600 0094 3781     		strhcc	r7, [r6, #8]	@ movhi
 611:.\Generated_Source\PSoC5/USBFS_std.c ****                         if(USBFS_interfaceSetting[pEP->interface] == pEP->altSetting)
 601              		.loc 1 611 0
 602 0096 13F8086C 		ldrb	r6, [r3, #-8]	@ zero_extendqisi2
 603 009a 2E4F     		ldr	r7, .L68+4
 604 009c BE5D     		ldrb	r6, [r7, r6]	@ zero_extendqisi2
 605 009e 13F8077C 		ldrb	r7, [r3, #-7]	@ zero_extendqisi2
 606 00a2 B742     		cmp	r7, r6
 607 00a4 24D1     		bne	.L44
 613:.\Generated_Source\PSoC5/USBFS_std.c ****                             ep_type = pEP->attributes & USBFS_EP_TYPE_MASK;
 608              		.loc 1 613 0
 609 00a6 13F8056C 		ldrb	r6, [r3, #-5]	@ zero_extendqisi2
 614:.\Generated_Source\PSoC5/USBFS_std.c ****                             if ((pEP->addr & USBFS_DIR_IN) != 0u)
 610              		.loc 1 614 0
 611 00aa 15F0800F 		tst	r5, #128
 612 00ae 284D     		ldr	r5, .L68
 613 00b0 4FF00C07 		mov	r7, #12
 613:.\Generated_Source\PSoC5/USBFS_std.c ****                             ep_type = pEP->attributes & USBFS_EP_TYPE_MASK;
 614              		.loc 1 613 0
 615 00b4 06F00306 		and	r6, r6, #3
 616              	.LVL43:
 617:.\Generated_Source\PSoC5/USBFS_std.c ****                                 USBFS_EP[i].apiEpState = USBFS_EVENT_PENDING;
 617              		.loc 1 617 0
 618 00b8 07FB0255 		mla	r5, r7, r2, r5
 614:.\Generated_Source\PSoC5/USBFS_std.c ****                             if ((pEP->addr & USBFS_DIR_IN) != 0u)
 619              		.loc 1 614 0
 620 00bc 06D0     		beq	.L47
 617:.\Generated_Source\PSoC5/USBFS_std.c ****                                 USBFS_EP[i].apiEpState = USBFS_EVENT_PENDING;
 621              		.loc 1 617 0
 622 00be 0127     		movs	r7, #1
 623 00c0 6F70     		strb	r7, [r5, #1]
 618:.\Generated_Source\PSoC5/USBFS_std.c ****                                 USBFS_EP[i].epMode = (ep_type == USBFS_EP_TYPE_ISOC) ?
 624              		.loc 1 618 0
 625 00c2 BE42     		cmp	r6, r7
 626 00c4 14BF     		ite	ne
 627 00c6 0D26     		movne	r6, #13
 628 00c8 0726     		moveq	r6, #7
 629              	.LVL44:
 630 00ca 05E0     		b	.L65
 631              	.LVL45:
 632              	.L47:
 641:.\Generated_Source\PSoC5/USBFS_std.c ****                                 USBFS_EP[i].apiEpState = USBFS_NO_EVENT_PENDING;
 633              		.loc 1 641 0
 634 00cc 0027     		movs	r7, #0
 635 00ce 6F70     		strb	r7, [r5, #1]
 642:.\Generated_Source\PSoC5/USBFS_std.c ****                                 USBFS_EP[i].epMode = (ep_type == USBFS_EP_TYPE_ISOC) ?
 636              		.loc 1 642 0
 637 00d0 012E     		cmp	r6, #1
 638 00d2 14BF     		ite	ne
 639 00d4 0926     		movne	r6, #9
 640 00d6 0526     		moveq	r6, #5
 641              	.LVL46:
 642              	.L65:
 643 00d8 6E71     		strb	r6, [r5, #5]
 662:.\Generated_Source\PSoC5/USBFS_std.c ****                             USBFS_EP[i].addr = pEP->addr;
ARM GAS  C:\Users\MICHA_~1\AppData\Local\Temp\ccm5Lblu.s 			page 30


 644              		.loc 1 662 0
 645 00da 0C25     		movs	r5, #12
 646 00dc 5543     		muls	r5, r2, r5
 647 00de 1C4E     		ldr	r6, .L68
 648 00e0 13F806EC 		ldrb	lr, [r3, #-6]	@ zero_extendqisi2
 649 00e4 7719     		adds	r7, r6, r5
 650 00e6 87F804E0 		strb	lr, [r7, #4]
 663:.\Generated_Source\PSoC5/USBFS_std.c ****                             USBFS_EP[i].attrib = pEP->attributes;
 651              		.loc 1 663 0
 652 00ea 13F8057C 		ldrb	r7, [r3, #-5]	@ zero_extendqisi2
 653 00ee 7755     		strb	r7, [r6, r5]
 654              	.LVL47:
 655              	.L44:
 601:.\Generated_Source\PSoC5/USBFS_std.c ****                 for (cur_ep = 0u; cur_ep < ep; cur_ep++)
 656              		.loc 1 601 0
 657 00f0 0131     		adds	r1, r1, #1
 658              	.LVL48:
 659 00f2 C9B2     		uxtb	r1, r1
 660              	.LVL49:
 661 00f4 0833     		adds	r3, r3, #8
 662 00f6 B9E7     		b	.L42
 663              	.L66:
 664 00f8 0132     		adds	r2, r2, #1
 595:.\Generated_Source\PSoC5/USBFS_std.c ****             for (i = USBFS_EP1; i < USBFS_MAX_EP; i++)
 665              		.loc 1 595 0
 666 00fa 092A     		cmp	r2, #9
 667 00fc B3D1     		bne	.L52
 668              	.LVL50:
 669 00fe C368     		ldr	r3, [r0, #12]
 681:.\Generated_Source\PSoC5/USBFS_std.c ****         for (i = 0u; i < ep; i++)
 670              		.loc 1 681 0
 671 0100 0022     		movs	r2, #0
 672              	.LVL51:
 673              	.L53:
 674 0102 0833     		adds	r3, r3, #8
 681:.\Generated_Source\PSoC5/USBFS_std.c ****         for (i = 0u; i < ep; i++)
 675              		.loc 1 681 0 is_stmt 0 discriminator 1
 676 0104 A242     		cmp	r2, r4
 677 0106 0DD0     		beq	.L67
 678              	.L54:
 684:.\Generated_Source\PSoC5/USBFS_std.c ****             USBFS_EP[pEP->addr & USBFS_DIR_UNUSED].interface = pEP->interface;
 679              		.loc 1 684 0 is_stmt 1 discriminator 2
 680 0108 13F8065C 		ldrb	r5, [r3, #-6]	@ zero_extendqisi2
 681 010c 0C26     		movs	r6, #12
 682 010e 05F07F01 		and	r1, r5, #127
 683 0112 0F4D     		ldr	r5, .L68
 684 0114 13F8080C 		ldrb	r0, [r3, #-8]	@ zero_extendqisi2
 685 0118 06FB0151 		mla	r1, r6, r1, r5
 681:.\Generated_Source\PSoC5/USBFS_std.c ****         for (i = 0u; i < ep; i++)
 686              		.loc 1 681 0 discriminator 2
 687 011c 0132     		adds	r2, r2, #1
 688              	.LVL52:
 684:.\Generated_Source\PSoC5/USBFS_std.c ****             USBFS_EP[pEP->addr & USBFS_DIR_UNUSED].interface = pEP->interface;
 689              		.loc 1 684 0 discriminator 2
 690 011e 8872     		strb	r0, [r1, #10]
 681:.\Generated_Source\PSoC5/USBFS_std.c ****         for (i = 0u; i < ep; i++)
 691              		.loc 1 681 0 discriminator 2
ARM GAS  C:\Users\MICHA_~1\AppData\Local\Temp\ccm5Lblu.s 			page 31


 692 0120 D2B2     		uxtb	r2, r2
 693              	.LVL53:
 694 0122 EEE7     		b	.L53
 695              	.L67:
 688:.\Generated_Source\PSoC5/USBFS_std.c ****         USBFS_interfaceClass = USBFS_GetInterfaceClassTablePtr();
 696              		.loc 1 688 0
 697 0124 FFF7FEFF 		bl	USBFS_GetInterfaceClassTablePtr
 698              	.LVL54:
 699 0128 0E4B     		ldr	r3, .L68+20
 483:.\Generated_Source\PSoC5/USBFS_std.c ****         uint16 buffCount = 0u;
 700              		.loc 1 483 0
 701 012a 0022     		movs	r2, #0
 688:.\Generated_Source\PSoC5/USBFS_std.c ****         USBFS_interfaceClass = USBFS_GetInterfaceClassTablePtr();
 702              		.loc 1 688 0
 703 012c 1860     		str	r0, [r3, #0]
 704              	.LVL55:
 705 012e 0123     		movs	r3, #1
 706              	.LVL56:
 707              	.L55:
 694:.\Generated_Source\PSoC5/USBFS_std.c ****                 USBFS_EP[ep].buffOffset = buffCount;
 708              		.loc 1 694 0 discriminator 2
 709 0130 0749     		ldr	r1, .L68
 710 0132 0C20     		movs	r0, #12
 711 0134 00FB0310 		mla	r0, r0, r3, r1
 712 0138 C280     		strh	r2, [r0, #6]	@ movhi
 695:.\Generated_Source\PSoC5/USBFS_std.c ****                  buffCount += USBFS_EP[ep].bufferSize;
 713              		.loc 1 695 0 discriminator 2
 714 013a 0189     		ldrh	r1, [r0, #8]
 715 013c 0133     		adds	r3, r3, #1
 716 013e 5218     		adds	r2, r2, r1
 692:.\Generated_Source\PSoC5/USBFS_std.c ****             for (ep = USBFS_EP1; ep < USBFS_MAX_EP; ep++)
 717              		.loc 1 692 0 discriminator 2
 718 0140 092B     		cmp	r3, #9
 695:.\Generated_Source\PSoC5/USBFS_std.c ****                  buffCount += USBFS_EP[ep].bufferSize;
 719              		.loc 1 695 0 discriminator 2
 720 0142 92B2     		uxth	r2, r2
 721              	.LVL57:
 692:.\Generated_Source\PSoC5/USBFS_std.c ****             for (ep = USBFS_EP1; ep < USBFS_MAX_EP; ep++)
 722              		.loc 1 692 0 discriminator 2
 723 0144 F4D1     		bne	.L55
 702:.\Generated_Source\PSoC5/USBFS_std.c **** }
 724              		.loc 1 702 0
 725 0146 BDE8F840 		pop	{r3, r4, r5, r6, r7, lr}
 700:.\Generated_Source\PSoC5/USBFS_std.c ****         USBFS_ConfigReg();
 726              		.loc 1 700 0
 727 014a FFF7FEBF 		b	USBFS_ConfigReg
 728              	.LVL58:
 729              	.L36:
 730 014e F8BD     		pop	{r3, r4, r5, r6, r7, pc}
 731              	.L69:
 732              		.align	2
 733              	.L68:
 734 0150 00000000 		.word	USBFS_EP
 735 0154 00000000 		.word	USBFS_interfaceSetting
 736 0158 00000000 		.word	USBFS_interfaceSetting_last
 737 015c 00000000 		.word	USBFS_configuration
 738 0160 00000000 		.word	USBFS_deviceStatus
ARM GAS  C:\Users\MICHA_~1\AppData\Local\Temp\ccm5Lblu.s 			page 32


 739 0164 00000000 		.word	USBFS_interfaceClass
 740              		.cfi_endproc
 741              	.LFE2:
 742              		.size	USBFS_Config, .-USBFS_Config
 743              		.section	.text.USBFS_TerminateEP,"ax",%progbits
 744              		.align	1
 745              		.global	USBFS_TerminateEP
 746              		.thumb
 747              		.thumb_func
 748              		.type	USBFS_TerminateEP, %function
 749              	USBFS_TerminateEP:
 750              	.LFB7:
 914:.\Generated_Source\PSoC5/USBFS_std.c **** 
 915:.\Generated_Source\PSoC5/USBFS_std.c **** 
 916:.\Generated_Source\PSoC5/USBFS_std.c **** /*******************************************************************************
 917:.\Generated_Source\PSoC5/USBFS_std.c **** * Function Name: USBFS_TerminateEP
 918:.\Generated_Source\PSoC5/USBFS_std.c **** ********************************************************************************
 919:.\Generated_Source\PSoC5/USBFS_std.c **** *
 920:.\Generated_Source\PSoC5/USBFS_std.c **** * Summary:
 921:.\Generated_Source\PSoC5/USBFS_std.c **** *  This function terminates the specified USBFS endpoint.
 922:.\Generated_Source\PSoC5/USBFS_std.c **** *  This function should be used before endpoint reconfiguration.
 923:.\Generated_Source\PSoC5/USBFS_std.c **** *
 924:.\Generated_Source\PSoC5/USBFS_std.c **** * Parameters:
 925:.\Generated_Source\PSoC5/USBFS_std.c **** *  Endpoint number.
 926:.\Generated_Source\PSoC5/USBFS_std.c **** *
 927:.\Generated_Source\PSoC5/USBFS_std.c **** * Return:
 928:.\Generated_Source\PSoC5/USBFS_std.c **** *  None.
 929:.\Generated_Source\PSoC5/USBFS_std.c **** *
 930:.\Generated_Source\PSoC5/USBFS_std.c **** * Reentrant:
 931:.\Generated_Source\PSoC5/USBFS_std.c **** *  No.
 932:.\Generated_Source\PSoC5/USBFS_std.c **** *
 933:.\Generated_Source\PSoC5/USBFS_std.c **** *******************************************************************************/
 934:.\Generated_Source\PSoC5/USBFS_std.c **** void USBFS_TerminateEP(uint8 ep) 
 935:.\Generated_Source\PSoC5/USBFS_std.c **** {
 751              		.loc 1 935 0
 752              		.cfi_startproc
 753              		@ args = 0, pretend = 0, frame = 0
 754              		@ frame_needed = 0, uses_anonymous_args = 0
 755              		@ link register save eliminated.
 756              	.LVL59:
 936:.\Generated_Source\PSoC5/USBFS_std.c ****     uint8 ri;
 937:.\Generated_Source\PSoC5/USBFS_std.c **** 
 938:.\Generated_Source\PSoC5/USBFS_std.c ****     ep &= USBFS_DIR_UNUSED;
 757              		.loc 1 938 0
 758 0000 00F07F00 		and	r0, r0, #127
 759              	.LVL60:
 939:.\Generated_Source\PSoC5/USBFS_std.c ****     ri = ((ep - USBFS_EP1) << USBFS_EPX_CNTX_ADDR_SHIFT);
 760              		.loc 1 939 0
 761 0004 421E     		subs	r2, r0, #1
 762 0006 D1B2     		uxtb	r1, r2
 763              	.LVL61:
 940:.\Generated_Source\PSoC5/USBFS_std.c **** 
 941:.\Generated_Source\PSoC5/USBFS_std.c ****     if ((ep > USBFS_EP0) && (ep < USBFS_MAX_EP))
 764              		.loc 1 941 0
 765 0008 0729     		cmp	r1, #7
 766 000a 14D8     		bhi	.L70
 939:.\Generated_Source\PSoC5/USBFS_std.c ****     ri = ((ep - USBFS_EP1) << USBFS_EPX_CNTX_ADDR_SHIFT);
ARM GAS  C:\Users\MICHA_~1\AppData\Local\Temp\ccm5Lblu.s 			page 33


 767              		.loc 1 939 0
 768 000c 0B01     		lsls	r3, r1, #4
 769 000e DAB2     		uxtb	r2, r3
 942:.\Generated_Source\PSoC5/USBFS_std.c ****     {
 943:.\Generated_Source\PSoC5/USBFS_std.c ****         /* Set the endpoint Halt */
 944:.\Generated_Source\PSoC5/USBFS_std.c ****         USBFS_EP[ep].hwEpState |= (USBFS_ENDPOINT_STATUS_HALT);
 770              		.loc 1 944 0
 771 0010 094B     		ldr	r3, .L74
 772 0012 0C21     		movs	r1, #12
 773              	.LVL62:
 774 0014 01FB0030 		mla	r0, r1, r0, r3
 775              	.LVL63:
 776 0018 8378     		ldrb	r3, [r0, #2]	@ zero_extendqisi2
 777 001a 43F00103 		orr	r3, r3, #1
 778 001e 8370     		strb	r3, [r0, #2]
 945:.\Generated_Source\PSoC5/USBFS_std.c **** 
 946:.\Generated_Source\PSoC5/USBFS_std.c ****         /* Clear the data toggle */
 947:.\Generated_Source\PSoC5/USBFS_std.c ****         USBFS_EP[ep].epToggle = 0u;
 779              		.loc 1 947 0
 780 0020 0023     		movs	r3, #0
 781 0022 C370     		strb	r3, [r0, #3]
 948:.\Generated_Source\PSoC5/USBFS_std.c ****         USBFS_EP[ep].apiEpState = USBFS_NO_EVENT_ALLOWED;
 782              		.loc 1 948 0
 783 0024 0223     		movs	r3, #2
 784 0026 4370     		strb	r3, [r0, #1]
 949:.\Generated_Source\PSoC5/USBFS_std.c **** 
 950:.\Generated_Source\PSoC5/USBFS_std.c ****         if ((USBFS_EP[ep].addr & USBFS_DIR_IN) != 0u)
 785              		.loc 1 950 0
 786 0028 0079     		ldrb	r0, [r0, #4]	@ zero_extendqisi2
 787 002a 044B     		ldr	r3, .L74+4
 788 002c 10F0800F 		tst	r0, #128
 951:.\Generated_Source\PSoC5/USBFS_std.c ****         {
 952:.\Generated_Source\PSoC5/USBFS_std.c ****             /* IN Endpoint */
 953:.\Generated_Source\PSoC5/USBFS_std.c ****             CY_SET_REG8((reg8 *)(USBFS_SIE_EP1_CR0_IND + ri), USBFS_MODE_NAK_IN);
 954:.\Generated_Source\PSoC5/USBFS_std.c ****         }
 955:.\Generated_Source\PSoC5/USBFS_std.c ****         else
 956:.\Generated_Source\PSoC5/USBFS_std.c ****         {
 957:.\Generated_Source\PSoC5/USBFS_std.c ****             /* OUT Endpoint */
 958:.\Generated_Source\PSoC5/USBFS_std.c ****             CY_SET_REG8((reg8 *)(USBFS_SIE_EP1_CR0_IND + ri), USBFS_MODE_NAK_OUT);
 789              		.loc 1 958 0
 790 0030 08BF     		it	eq
 791 0032 0821     		moveq	r1, #8
 792 0034 D154     		strb	r1, [r2, r3]
 793              	.L70:
 794 0036 7047     		bx	lr
 795              	.L75:
 796              		.align	2
 797              	.L74:
 798 0038 00000000 		.word	USBFS_EP
 799 003c 0E600040 		.word	1073766414
 800              		.cfi_endproc
 801              	.LFE7:
 802              		.size	USBFS_TerminateEP, .-USBFS_TerminateEP
 803              		.section	.text.USBFS_SetEndpointHalt,"ax",%progbits
 804              		.align	1
 805              		.global	USBFS_SetEndpointHalt
 806              		.thumb
ARM GAS  C:\Users\MICHA_~1\AppData\Local\Temp\ccm5Lblu.s 			page 34


 807              		.thumb_func
 808              		.type	USBFS_SetEndpointHalt, %function
 809              	USBFS_SetEndpointHalt:
 810              	.LFB8:
 959:.\Generated_Source\PSoC5/USBFS_std.c ****         }
 960:.\Generated_Source\PSoC5/USBFS_std.c ****     }
 961:.\Generated_Source\PSoC5/USBFS_std.c **** }
 962:.\Generated_Source\PSoC5/USBFS_std.c **** 
 963:.\Generated_Source\PSoC5/USBFS_std.c **** 
 964:.\Generated_Source\PSoC5/USBFS_std.c **** /*******************************************************************************
 965:.\Generated_Source\PSoC5/USBFS_std.c **** * Function Name: USBFS_SetEndpointHalt
 966:.\Generated_Source\PSoC5/USBFS_std.c **** ********************************************************************************
 967:.\Generated_Source\PSoC5/USBFS_std.c **** *
 968:.\Generated_Source\PSoC5/USBFS_std.c **** * Summary:
 969:.\Generated_Source\PSoC5/USBFS_std.c **** *  This routine handles set endpoint halt.
 970:.\Generated_Source\PSoC5/USBFS_std.c **** *
 971:.\Generated_Source\PSoC5/USBFS_std.c **** * Parameters:
 972:.\Generated_Source\PSoC5/USBFS_std.c **** *  None.
 973:.\Generated_Source\PSoC5/USBFS_std.c **** *
 974:.\Generated_Source\PSoC5/USBFS_std.c **** * Return:
 975:.\Generated_Source\PSoC5/USBFS_std.c **** *  requestHandled.
 976:.\Generated_Source\PSoC5/USBFS_std.c **** *
 977:.\Generated_Source\PSoC5/USBFS_std.c **** * Reentrant:
 978:.\Generated_Source\PSoC5/USBFS_std.c **** *  No.
 979:.\Generated_Source\PSoC5/USBFS_std.c **** *
 980:.\Generated_Source\PSoC5/USBFS_std.c **** *******************************************************************************/
 981:.\Generated_Source\PSoC5/USBFS_std.c **** uint8 USBFS_SetEndpointHalt(void) 
 982:.\Generated_Source\PSoC5/USBFS_std.c **** {
 811              		.loc 1 982 0
 812              		.cfi_startproc
 813              		@ args = 0, pretend = 0, frame = 0
 814              		@ frame_needed = 0, uses_anonymous_args = 0
 815              		@ link register save eliminated.
 816              	.LVL64:
 983:.\Generated_Source\PSoC5/USBFS_std.c ****     uint8 ep;
 984:.\Generated_Source\PSoC5/USBFS_std.c ****     uint8 ri;
 985:.\Generated_Source\PSoC5/USBFS_std.c ****     uint8 requestHandled = USBFS_FALSE;
 986:.\Generated_Source\PSoC5/USBFS_std.c **** 
 987:.\Generated_Source\PSoC5/USBFS_std.c ****     /* Set endpoint halt */
 988:.\Generated_Source\PSoC5/USBFS_std.c ****     ep = CY_GET_REG8(USBFS_wIndexLo) & USBFS_DIR_UNUSED;
 817              		.loc 1 988 0
 818 0000 124B     		ldr	r3, .L81
 819 0002 1978     		ldrb	r1, [r3, #0]	@ zero_extendqisi2
 820 0004 01F07F01 		and	r1, r1, #127
 821              	.LVL65:
 989:.\Generated_Source\PSoC5/USBFS_std.c ****     ri = ((ep - USBFS_EP1) << USBFS_EPX_CNTX_ADDR_SHIFT);
 822              		.loc 1 989 0
 823 0008 4A1E     		subs	r2, r1, #1
 824 000a D0B2     		uxtb	r0, r2
 825              	.LVL66:
 990:.\Generated_Source\PSoC5/USBFS_std.c **** 
 991:.\Generated_Source\PSoC5/USBFS_std.c ****     if ((ep > USBFS_EP0) && (ep < USBFS_MAX_EP))
 826              		.loc 1 991 0
 827 000c 0728     		cmp	r0, #7
 828 000e 1AD8     		bhi	.L77
 989:.\Generated_Source\PSoC5/USBFS_std.c ****     ri = ((ep - USBFS_EP1) << USBFS_EPX_CNTX_ADDR_SHIFT);
 829              		.loc 1 989 0
ARM GAS  C:\Users\MICHA_~1\AppData\Local\Temp\ccm5Lblu.s 			page 35


 830 0010 0301     		lsls	r3, r0, #4
 831 0012 DAB2     		uxtb	r2, r3
 992:.\Generated_Source\PSoC5/USBFS_std.c ****     {
 993:.\Generated_Source\PSoC5/USBFS_std.c ****         /* Set the endpoint Halt */
 994:.\Generated_Source\PSoC5/USBFS_std.c ****         USBFS_EP[ep].hwEpState |= (USBFS_ENDPOINT_STATUS_HALT);
 832              		.loc 1 994 0
 833 0014 0E4B     		ldr	r3, .L81+4
 834 0016 0C20     		movs	r0, #12
 835              	.LVL67:
 836 0018 00FB0130 		mla	r0, r0, r1, r3
 837 001c 8178     		ldrb	r1, [r0, #2]	@ zero_extendqisi2
 838              	.LVL68:
 839 001e 41F00103 		orr	r3, r1, #1
 995:.\Generated_Source\PSoC5/USBFS_std.c **** 
 996:.\Generated_Source\PSoC5/USBFS_std.c ****         /* Clear the data toggle */
 997:.\Generated_Source\PSoC5/USBFS_std.c ****         USBFS_EP[ep].epToggle = 0u;
 840              		.loc 1 997 0
 841 0022 0021     		movs	r1, #0
 994:.\Generated_Source\PSoC5/USBFS_std.c ****         USBFS_EP[ep].hwEpState |= (USBFS_ENDPOINT_STATUS_HALT);
 842              		.loc 1 994 0
 843 0024 8370     		strb	r3, [r0, #2]
 844              		.loc 1 997 0
 845 0026 C170     		strb	r1, [r0, #3]
 998:.\Generated_Source\PSoC5/USBFS_std.c ****         USBFS_EP[ep].apiEpState |= USBFS_NO_EVENT_ALLOWED;
 846              		.loc 1 998 0
 847 0028 4378     		ldrb	r3, [r0, #1]	@ zero_extendqisi2
 848 002a 43F00201 		orr	r1, r3, #2
 849 002e 4170     		strb	r1, [r0, #1]
 999:.\Generated_Source\PSoC5/USBFS_std.c **** 
1000:.\Generated_Source\PSoC5/USBFS_std.c ****         if ((USBFS_EP[ep].addr & USBFS_DIR_IN) != 0u)
 850              		.loc 1 1000 0
 851 0030 0079     		ldrb	r0, [r0, #4]	@ zero_extendqisi2
 852 0032 084B     		ldr	r3, .L81+8
 853 0034 10F0800F 		tst	r0, #128
 854 0038 01D0     		beq	.L78
1001:.\Generated_Source\PSoC5/USBFS_std.c ****         {
1002:.\Generated_Source\PSoC5/USBFS_std.c ****             /* IN Endpoint */
1003:.\Generated_Source\PSoC5/USBFS_std.c ****             CY_SET_REG8((reg8 *)(USBFS_SIE_EP1_CR0_IND + ri), USBFS_MODE_STALL_DATA_EP |
 855              		.loc 1 1003 0
 856 003a 8D21     		movs	r1, #141
 857 003c 00E0     		b	.L80
 858              	.L78:
1004:.\Generated_Source\PSoC5/USBFS_std.c ****                                                                USBFS_MODE_ACK_IN);
1005:.\Generated_Source\PSoC5/USBFS_std.c ****         }
1006:.\Generated_Source\PSoC5/USBFS_std.c ****         else
1007:.\Generated_Source\PSoC5/USBFS_std.c ****         {
1008:.\Generated_Source\PSoC5/USBFS_std.c ****             /* OUT Endpoint */
1009:.\Generated_Source\PSoC5/USBFS_std.c ****             CY_SET_REG8((reg8 *)(USBFS_SIE_EP1_CR0_IND + ri), USBFS_MODE_STALL_DATA_EP |
 859              		.loc 1 1009 0
 860 003e 8921     		movs	r1, #137
 861              	.L80:
 862 0040 D154     		strb	r1, [r2, r3]
1010:.\Generated_Source\PSoC5/USBFS_std.c ****                                                                USBFS_MODE_ACK_OUT);
1011:.\Generated_Source\PSoC5/USBFS_std.c ****         }
1012:.\Generated_Source\PSoC5/USBFS_std.c ****         requestHandled = USBFS_InitNoDataControlTransfer();
1013:.\Generated_Source\PSoC5/USBFS_std.c ****     }
1014:.\Generated_Source\PSoC5/USBFS_std.c **** 
ARM GAS  C:\Users\MICHA_~1\AppData\Local\Temp\ccm5Lblu.s 			page 36


1015:.\Generated_Source\PSoC5/USBFS_std.c ****     return(requestHandled);
1016:.\Generated_Source\PSoC5/USBFS_std.c **** }
 863              		.loc 1 1016 0
1012:.\Generated_Source\PSoC5/USBFS_std.c ****         requestHandled = USBFS_InitNoDataControlTransfer();
 864              		.loc 1 1012 0
 865 0042 FFF7FEBF 		b	USBFS_InitNoDataControlTransfer
 866              	.LVL69:
 867              	.L77:
 868              		.loc 1 1016 0
 869 0046 0020     		movs	r0, #0
 870              	.LVL70:
 871 0048 7047     		bx	lr
 872              	.L82:
 873 004a 00BF     		.align	2
 874              	.L81:
 875 004c 04600040 		.word	1073766404
 876 0050 00000000 		.word	USBFS_EP
 877 0054 0E600040 		.word	1073766414
 878              		.cfi_endproc
 879              	.LFE8:
 880              		.size	USBFS_SetEndpointHalt, .-USBFS_SetEndpointHalt
 881              		.section	.text.USBFS_ClearEndpointHalt,"ax",%progbits
 882              		.align	1
 883              		.global	USBFS_ClearEndpointHalt
 884              		.thumb
 885              		.thumb_func
 886              		.type	USBFS_ClearEndpointHalt, %function
 887              	USBFS_ClearEndpointHalt:
 888              	.LFB9:
1017:.\Generated_Source\PSoC5/USBFS_std.c **** 
1018:.\Generated_Source\PSoC5/USBFS_std.c **** 
1019:.\Generated_Source\PSoC5/USBFS_std.c **** /*******************************************************************************
1020:.\Generated_Source\PSoC5/USBFS_std.c **** * Function Name: USBFS_ClearEndpointHalt
1021:.\Generated_Source\PSoC5/USBFS_std.c **** ********************************************************************************
1022:.\Generated_Source\PSoC5/USBFS_std.c **** *
1023:.\Generated_Source\PSoC5/USBFS_std.c **** * Summary:
1024:.\Generated_Source\PSoC5/USBFS_std.c **** *  This routine handles clear endpoint halt.
1025:.\Generated_Source\PSoC5/USBFS_std.c **** *
1026:.\Generated_Source\PSoC5/USBFS_std.c **** * Parameters:
1027:.\Generated_Source\PSoC5/USBFS_std.c **** *  None.
1028:.\Generated_Source\PSoC5/USBFS_std.c **** *
1029:.\Generated_Source\PSoC5/USBFS_std.c **** * Return:
1030:.\Generated_Source\PSoC5/USBFS_std.c **** *  requestHandled.
1031:.\Generated_Source\PSoC5/USBFS_std.c **** *
1032:.\Generated_Source\PSoC5/USBFS_std.c **** * Reentrant:
1033:.\Generated_Source\PSoC5/USBFS_std.c **** *  No.
1034:.\Generated_Source\PSoC5/USBFS_std.c **** *
1035:.\Generated_Source\PSoC5/USBFS_std.c **** *******************************************************************************/
1036:.\Generated_Source\PSoC5/USBFS_std.c **** uint8 USBFS_ClearEndpointHalt(void) 
1037:.\Generated_Source\PSoC5/USBFS_std.c **** {
 889              		.loc 1 1037 0
 890              		.cfi_startproc
 891              		@ args = 0, pretend = 0, frame = 0
 892              		@ frame_needed = 0, uses_anonymous_args = 0
 893              	.LVL71:
 894 0000 10B5     		push	{r4, lr}
 895              	.LCFI4:
ARM GAS  C:\Users\MICHA_~1\AppData\Local\Temp\ccm5Lblu.s 			page 37


 896              		.cfi_def_cfa_offset 8
 897              		.cfi_offset 4, -8
 898              		.cfi_offset 14, -4
1038:.\Generated_Source\PSoC5/USBFS_std.c ****     uint8 ep;
1039:.\Generated_Source\PSoC5/USBFS_std.c ****     uint8 ri;
1040:.\Generated_Source\PSoC5/USBFS_std.c ****     uint8 requestHandled = USBFS_FALSE;
1041:.\Generated_Source\PSoC5/USBFS_std.c **** 
1042:.\Generated_Source\PSoC5/USBFS_std.c ****     /* Clear endpoint halt */
1043:.\Generated_Source\PSoC5/USBFS_std.c ****     ep = CY_GET_REG8(USBFS_wIndexLo) & USBFS_DIR_UNUSED;
 899              		.loc 1 1043 0
 900 0002 1A4B     		ldr	r3, .L90
 901 0004 1878     		ldrb	r0, [r3, #0]	@ zero_extendqisi2
 902 0006 00F07F03 		and	r3, r0, #127
 903              	.LVL72:
1044:.\Generated_Source\PSoC5/USBFS_std.c ****     ri = ((ep - USBFS_EP1) << USBFS_EPX_CNTX_ADDR_SHIFT);
 904              		.loc 1 1044 0
 905 000a 5A1E     		subs	r2, r3, #1
 906 000c D2B2     		uxtb	r2, r2
 907              	.LVL73:
1045:.\Generated_Source\PSoC5/USBFS_std.c **** 
1046:.\Generated_Source\PSoC5/USBFS_std.c ****     if ((ep > USBFS_EP0) && (ep < USBFS_MAX_EP))
 908              		.loc 1 1046 0
 909 000e 072A     		cmp	r2, #7
 910 0010 2AD8     		bhi	.L84
1047:.\Generated_Source\PSoC5/USBFS_std.c ****     {
1048:.\Generated_Source\PSoC5/USBFS_std.c ****         /* Clear the endpoint Halt */
1049:.\Generated_Source\PSoC5/USBFS_std.c ****         USBFS_EP[ep].hwEpState &= (uint8)~(USBFS_ENDPOINT_STATUS_HALT);
 911              		.loc 1 1049 0
 912 0012 1749     		ldr	r1, .L90+4
 913 0014 0C20     		movs	r0, #12
 914 0016 00FB0313 		mla	r3, r0, r3, r1
 915              	.LVL74:
 916 001a 9C78     		ldrb	r4, [r3, #2]	@ zero_extendqisi2
1044:.\Generated_Source\PSoC5/USBFS_std.c ****     ri = ((ep - USBFS_EP1) << USBFS_EPX_CNTX_ADDR_SHIFT);
 917              		.loc 1 1044 0
 918 001c 1201     		lsls	r2, r2, #4
 919              	.LVL75:
 920              		.loc 1 1049 0
 921 001e 04F0FE01 		and	r1, r4, #254
 922 0022 9970     		strb	r1, [r3, #2]
1050:.\Generated_Source\PSoC5/USBFS_std.c **** 
1051:.\Generated_Source\PSoC5/USBFS_std.c ****         /* Clear the data toggle */
1052:.\Generated_Source\PSoC5/USBFS_std.c ****         USBFS_EP[ep].epToggle = 0u;
 923              		.loc 1 1052 0
 924 0024 0024     		movs	r4, #0
1053:.\Generated_Source\PSoC5/USBFS_std.c ****         /* Clear toggle bit for already armed packet */
1054:.\Generated_Source\PSoC5/USBFS_std.c ****         CY_SET_REG8((reg8 *)(USBFS_SIE_EP1_CNT0_IND + ri), CY_GET_REG8(
 925              		.loc 1 1054 0
 926 0026 1349     		ldr	r1, .L90+8
1052:.\Generated_Source\PSoC5/USBFS_std.c ****         USBFS_EP[ep].epToggle = 0u;
 927              		.loc 1 1052 0
 928 0028 DC70     		strb	r4, [r3, #3]
 929              		.loc 1 1054 0
 930 002a D2B2     		uxtb	r2, r2
 931 002c 545C     		ldrb	r4, [r2, r1]	@ zero_extendqisi2
 932 002e 04F07F04 		and	r4, r4, #127
 933 0032 5454     		strb	r4, [r2, r1]
ARM GAS  C:\Users\MICHA_~1\AppData\Local\Temp\ccm5Lblu.s 			page 38


1055:.\Generated_Source\PSoC5/USBFS_std.c ****                     (reg8 *)(USBFS_SIE_EP1_CNT0_IND + ri)) & (uint8)~USBFS_EPX_CNT_DATA_TOGGLE);
1056:.\Generated_Source\PSoC5/USBFS_std.c ****         /* Return API State as it was defined before */
1057:.\Generated_Source\PSoC5/USBFS_std.c ****         USBFS_EP[ep].apiEpState &= (uint8)~USBFS_NO_EVENT_ALLOWED;
 934              		.loc 1 1057 0
 935 0034 5978     		ldrb	r1, [r3, #1]	@ zero_extendqisi2
 936 0036 01F0FD01 		and	r1, r1, #253
 937 003a 5970     		strb	r1, [r3, #1]
1058:.\Generated_Source\PSoC5/USBFS_std.c **** 
1059:.\Generated_Source\PSoC5/USBFS_std.c ****         if ((USBFS_EP[ep].addr & USBFS_DIR_IN) != 0u)
 938              		.loc 1 1059 0
 939 003c 1979     		ldrb	r1, [r3, #4]	@ zero_extendqisi2
1060:.\Generated_Source\PSoC5/USBFS_std.c ****         {
1061:.\Generated_Source\PSoC5/USBFS_std.c ****             /* IN Endpoint */
1062:.\Generated_Source\PSoC5/USBFS_std.c ****             if(USBFS_EP[ep].apiEpState == USBFS_IN_BUFFER_EMPTY)
 940              		.loc 1 1062 0
 941 003e 5B78     		ldrb	r3, [r3, #1]	@ zero_extendqisi2
1059:.\Generated_Source\PSoC5/USBFS_std.c ****         if ((USBFS_EP[ep].addr & USBFS_DIR_IN) != 0u)
 942              		.loc 1 1059 0
 943 0040 11F0800F 		tst	r1, #128
 944 0044 0C49     		ldr	r1, .L90+12
 945 0046 05D0     		beq	.L85
 946              		.loc 1 1062 0
 947 0048 012B     		cmp	r3, #1
 948 004a 01D1     		bne	.L86
1063:.\Generated_Source\PSoC5/USBFS_std.c ****             {       /* Wait for next packet from application */
1064:.\Generated_Source\PSoC5/USBFS_std.c ****                 CY_SET_REG8((reg8 *)(USBFS_SIE_EP1_CR0_IND + ri), USBFS_MODE_NAK_IN);
 949              		.loc 1 1064 0
 950 004c 5054     		strb	r0, [r2, r1]
 951 004e 07E0     		b	.L87
 952              	.L86:
1065:.\Generated_Source\PSoC5/USBFS_std.c ****             }
1066:.\Generated_Source\PSoC5/USBFS_std.c ****             else    /* Continue armed transfer */
1067:.\Generated_Source\PSoC5/USBFS_std.c ****             {
1068:.\Generated_Source\PSoC5/USBFS_std.c ****                 CY_SET_REG8((reg8 *)(USBFS_SIE_EP1_CR0_IND + ri), USBFS_MODE_ACK_IN);
 953              		.loc 1 1068 0
 954 0050 0D20     		movs	r0, #13
 955 0052 04E0     		b	.L89
 956              	.L85:
1069:.\Generated_Source\PSoC5/USBFS_std.c ****             }
1070:.\Generated_Source\PSoC5/USBFS_std.c ****         }
1071:.\Generated_Source\PSoC5/USBFS_std.c ****         else
1072:.\Generated_Source\PSoC5/USBFS_std.c ****         {
1073:.\Generated_Source\PSoC5/USBFS_std.c ****             /* OUT Endpoint */
1074:.\Generated_Source\PSoC5/USBFS_std.c ****             if(USBFS_EP[ep].apiEpState == USBFS_OUT_BUFFER_FULL)
 957              		.loc 1 1074 0
 958 0054 012B     		cmp	r3, #1
 959 0056 01D1     		bne	.L88
1075:.\Generated_Source\PSoC5/USBFS_std.c ****             {       /* Allow application to read full buffer */
1076:.\Generated_Source\PSoC5/USBFS_std.c ****                 CY_SET_REG8((reg8 *)(USBFS_SIE_EP1_CR0_IND + ri), USBFS_MODE_NAK_OUT);
 960              		.loc 1 1076 0
 961 0058 0820     		movs	r0, #8
 962 005a 00E0     		b	.L89
 963              	.L88:
1077:.\Generated_Source\PSoC5/USBFS_std.c ****             }
1078:.\Generated_Source\PSoC5/USBFS_std.c ****             else    /* Mark endpoint as empty, so it will be reloaded */
1079:.\Generated_Source\PSoC5/USBFS_std.c ****             {
1080:.\Generated_Source\PSoC5/USBFS_std.c ****                 CY_SET_REG8((reg8 *)(USBFS_SIE_EP1_CR0_IND + ri), USBFS_MODE_ACK_OUT);
ARM GAS  C:\Users\MICHA_~1\AppData\Local\Temp\ccm5Lblu.s 			page 39


 964              		.loc 1 1080 0
 965 005c 0920     		movs	r0, #9
 966              	.L89:
 967 005e 5054     		strb	r0, [r2, r1]
 968              	.L87:
1081:.\Generated_Source\PSoC5/USBFS_std.c ****             }
1082:.\Generated_Source\PSoC5/USBFS_std.c ****         }
1083:.\Generated_Source\PSoC5/USBFS_std.c ****         requestHandled = USBFS_InitNoDataControlTransfer();
1084:.\Generated_Source\PSoC5/USBFS_std.c ****     }
1085:.\Generated_Source\PSoC5/USBFS_std.c **** 
1086:.\Generated_Source\PSoC5/USBFS_std.c ****     return(requestHandled);
1087:.\Generated_Source\PSoC5/USBFS_std.c **** }
 969              		.loc 1 1087 0
 970 0060 BDE81040 		pop	{r4, lr}
1083:.\Generated_Source\PSoC5/USBFS_std.c ****         requestHandled = USBFS_InitNoDataControlTransfer();
 971              		.loc 1 1083 0
 972 0064 FFF7FEBF 		b	USBFS_InitNoDataControlTransfer
 973              	.LVL76:
 974              	.L84:
 975              		.loc 1 1087 0
 976 0068 0020     		movs	r0, #0
 977 006a 10BD     		pop	{r4, pc}
 978              	.L91:
 979              		.align	2
 980              	.L90:
 981 006c 04600040 		.word	1073766404
 982 0070 00000000 		.word	USBFS_EP
 983 0074 0C600040 		.word	1073766412
 984 0078 0E600040 		.word	1073766414
 985              		.cfi_endproc
 986              	.LFE9:
 987              		.size	USBFS_ClearEndpointHalt, .-USBFS_ClearEndpointHalt
 988              		.section	.text.USBFS_ValidateAlternateSetting,"ax",%progbits
 989              		.align	1
 990              		.global	USBFS_ValidateAlternateSetting
 991              		.thumb
 992              		.thumb_func
 993              		.type	USBFS_ValidateAlternateSetting, %function
 994              	USBFS_ValidateAlternateSetting:
 995              	.LFB10:
1088:.\Generated_Source\PSoC5/USBFS_std.c **** 
1089:.\Generated_Source\PSoC5/USBFS_std.c **** 
1090:.\Generated_Source\PSoC5/USBFS_std.c **** /*******************************************************************************
1091:.\Generated_Source\PSoC5/USBFS_std.c **** * Function Name: USBFS_ValidateAlternateSetting
1092:.\Generated_Source\PSoC5/USBFS_std.c **** ********************************************************************************
1093:.\Generated_Source\PSoC5/USBFS_std.c **** *
1094:.\Generated_Source\PSoC5/USBFS_std.c **** * Summary:
1095:.\Generated_Source\PSoC5/USBFS_std.c **** *  Validates (and records) a SET INTERFACE request.
1096:.\Generated_Source\PSoC5/USBFS_std.c **** *
1097:.\Generated_Source\PSoC5/USBFS_std.c **** * Parameters:
1098:.\Generated_Source\PSoC5/USBFS_std.c **** *  None.
1099:.\Generated_Source\PSoC5/USBFS_std.c **** *
1100:.\Generated_Source\PSoC5/USBFS_std.c **** * Return:
1101:.\Generated_Source\PSoC5/USBFS_std.c **** *  requestHandled.
1102:.\Generated_Source\PSoC5/USBFS_std.c **** *
1103:.\Generated_Source\PSoC5/USBFS_std.c **** * Reentrant:
1104:.\Generated_Source\PSoC5/USBFS_std.c **** *  No.
ARM GAS  C:\Users\MICHA_~1\AppData\Local\Temp\ccm5Lblu.s 			page 40


1105:.\Generated_Source\PSoC5/USBFS_std.c **** *
1106:.\Generated_Source\PSoC5/USBFS_std.c **** *******************************************************************************/
1107:.\Generated_Source\PSoC5/USBFS_std.c **** uint8 USBFS_ValidateAlternateSetting(void) 
1108:.\Generated_Source\PSoC5/USBFS_std.c **** {
 996              		.loc 1 1108 0
 997              		.cfi_startproc
 998              		@ args = 0, pretend = 0, frame = 0
 999              		@ frame_needed = 0, uses_anonymous_args = 0
 1000              	.LVL77:
 1001 0000 10B5     		push	{r4, lr}
 1002              	.LCFI5:
 1003              		.cfi_def_cfa_offset 8
 1004              		.cfi_offset 4, -8
 1005              		.cfi_offset 14, -4
1109:.\Generated_Source\PSoC5/USBFS_std.c ****     uint8 requestHandled = USBFS_TRUE;
1110:.\Generated_Source\PSoC5/USBFS_std.c ****     uint8 interfaceNum;
1111:.\Generated_Source\PSoC5/USBFS_std.c ****     const T_USBFS_LUT CYCODE *pTmp;
1112:.\Generated_Source\PSoC5/USBFS_std.c ****     uint8 currentInterfacesNum;
1113:.\Generated_Source\PSoC5/USBFS_std.c **** 
1114:.\Generated_Source\PSoC5/USBFS_std.c ****     interfaceNum = CY_GET_REG8(USBFS_wIndexLo);
 1006              		.loc 1 1114 0
 1007 0002 0C4B     		ldr	r3, .L96
1115:.\Generated_Source\PSoC5/USBFS_std.c ****     /* Validate interface setting, stall if invalid. */
1116:.\Generated_Source\PSoC5/USBFS_std.c ****     pTmp = USBFS_GetConfigTablePtr(USBFS_configuration - 1u);
 1008              		.loc 1 1116 0
 1009 0004 0C48     		ldr	r0, .L96+4
1114:.\Generated_Source\PSoC5/USBFS_std.c ****     interfaceNum = CY_GET_REG8(USBFS_wIndexLo);
 1010              		.loc 1 1114 0
 1011 0006 1C78     		ldrb	r4, [r3, #0]	@ zero_extendqisi2
 1012              	.LVL78:
 1013              		.loc 1 1116 0
 1014 0008 0178     		ldrb	r1, [r0, #0]	@ zero_extendqisi2
 1015 000a 4A1E     		subs	r2, r1, #1
 1016 000c D0B2     		uxtb	r0, r2
 1017 000e FFF7FEFF 		bl	USBFS_GetConfigTablePtr
 1018              	.LVL79:
1117:.\Generated_Source\PSoC5/USBFS_std.c ****     currentInterfacesNum  = ((const uint8 *) pTmp->p_list)[USBFS_CONFIG_DESCR_NUM_INTERFACES];
 1019              		.loc 1 1117 0
 1020 0012 4368     		ldr	r3, [r0, #4]
1118:.\Generated_Source\PSoC5/USBFS_std.c **** 
1119:.\Generated_Source\PSoC5/USBFS_std.c ****     if((interfaceNum >= currentInterfacesNum) || (interfaceNum >= USBFS_MAX_INTERFACES_NUMBER))
 1021              		.loc 1 1119 0
 1022 0014 1879     		ldrb	r0, [r3, #4]	@ zero_extendqisi2
 1023              	.LVL80:
 1024 0016 A042     		cmp	r0, r4
 1025 0018 09D9     		bls	.L95
 1026              		.loc 1 1119 0 is_stmt 0 discriminator 1
 1027 001a 44B9     		cbnz	r4, .L95
1120:.\Generated_Source\PSoC5/USBFS_std.c ****     {   /* Wrong interface number */
1121:.\Generated_Source\PSoC5/USBFS_std.c ****         requestHandled = USBFS_FALSE;
1122:.\Generated_Source\PSoC5/USBFS_std.c ****     }
1123:.\Generated_Source\PSoC5/USBFS_std.c ****     else
1124:.\Generated_Source\PSoC5/USBFS_std.c ****     {
1125:.\Generated_Source\PSoC5/USBFS_std.c ****         /* Save current Alt setting to find out the difference in Config() function */
1126:.\Generated_Source\PSoC5/USBFS_std.c ****         USBFS_interfaceSetting_last[interfaceNum] = USBFS_interfaceSetting[interfaceNum];
 1028              		.loc 1 1126 0 is_stmt 1
 1029 001c 074B     		ldr	r3, .L96+8
ARM GAS  C:\Users\MICHA_~1\AppData\Local\Temp\ccm5Lblu.s 			page 41


 1030              	.LVL81:
 1031 001e 084A     		ldr	r2, .L96+12
 1032 0020 1978     		ldrb	r1, [r3, #0]	@ zero_extendqisi2
1127:.\Generated_Source\PSoC5/USBFS_std.c ****         USBFS_interfaceSetting[interfaceNum] = CY_GET_REG8(USBFS_wValueLo);
 1033              		.loc 1 1127 0
 1034 0022 0848     		ldr	r0, .L96+16
 1035              	.LVL82:
1126:.\Generated_Source\PSoC5/USBFS_std.c ****         USBFS_interfaceSetting_last[interfaceNum] = USBFS_interfaceSetting[interfaceNum];
 1036              		.loc 1 1126 0
 1037 0024 1170     		strb	r1, [r2, #0]
 1038              		.loc 1 1127 0
 1039 0026 0178     		ldrb	r1, [r0, #0]	@ zero_extendqisi2
1109:.\Generated_Source\PSoC5/USBFS_std.c ****     uint8 requestHandled = USBFS_TRUE;
 1040              		.loc 1 1109 0
 1041 0028 0120     		movs	r0, #1
 1042              		.loc 1 1127 0
 1043 002a 1970     		strb	r1, [r3, #0]
 1044 002c 10BD     		pop	{r4, pc}
 1045              	.LVL83:
 1046              	.L95:
1121:.\Generated_Source\PSoC5/USBFS_std.c ****         requestHandled = USBFS_FALSE;
 1047              		.loc 1 1121 0
 1048 002e 0020     		movs	r0, #0
 1049              	.LVL84:
1128:.\Generated_Source\PSoC5/USBFS_std.c ****     }
1129:.\Generated_Source\PSoC5/USBFS_std.c **** 
1130:.\Generated_Source\PSoC5/USBFS_std.c ****     return (requestHandled);
1131:.\Generated_Source\PSoC5/USBFS_std.c **** }
 1050              		.loc 1 1131 0
 1051 0030 10BD     		pop	{r4, pc}
 1052              	.L97:
 1053 0032 00BF     		.align	2
 1054              	.L96:
 1055 0034 04600040 		.word	1073766404
 1056 0038 00000000 		.word	USBFS_configuration
 1057 003c 00000000 		.word	USBFS_interfaceSetting
 1058 0040 00000000 		.word	USBFS_interfaceSetting_last
 1059 0044 02600040 		.word	1073766402
 1060              		.cfi_endproc
 1061              	.LFE10:
 1062              		.size	USBFS_ValidateAlternateSetting, .-USBFS_ValidateAlternateSetting
 1063              		.section	.text.USBFS_HandleStandardRqst,"ax",%progbits
 1064              		.align	1
 1065              		.global	USBFS_HandleStandardRqst
 1066              		.thumb
 1067              		.thumb_func
 1068              		.type	USBFS_HandleStandardRqst, %function
 1069              	USBFS_HandleStandardRqst:
 1070              	.LFB0:
  90:.\Generated_Source\PSoC5/USBFS_std.c **** {
 1071              		.loc 1 90 0
 1072              		.cfi_startproc
 1073              		@ args = 0, pretend = 0, frame = 0
 1074              		@ frame_needed = 0, uses_anonymous_args = 0
 1075              	.LVL85:
 1076 0000 10B5     		push	{r4, lr}
 1077              	.LCFI6:
ARM GAS  C:\Users\MICHA_~1\AppData\Local\Temp\ccm5Lblu.s 			page 42


 1078              		.cfi_def_cfa_offset 8
 1079              		.cfi_offset 4, -8
 1080              		.cfi_offset 14, -4
 102:.\Generated_Source\PSoC5/USBFS_std.c ****     USBFS_currentTD.count = 0u;
 1081              		.loc 1 102 0
 1082 0002 7C4B     		ldr	r3, .L151
 1083 0004 0022     		movs	r2, #0
 1084 0006 1A80     		strh	r2, [r3, #0]	@ movhi
 104:.\Generated_Source\PSoC5/USBFS_std.c ****     if ((CY_GET_REG8(USBFS_bmRequestType) & USBFS_RQST_DIR_MASK) == USBFS_RQST_DIR_D2H)
 1085              		.loc 1 104 0
 1086 0008 7B4A     		ldr	r2, .L151+4
 1087 000a 7C48     		ldr	r0, .L151+8
 1088 000c 1178     		ldrb	r1, [r2, #0]	@ zero_extendqisi2
 1089 000e 11F0800F 		tst	r1, #128
 1090 0012 00F08A80 		beq	.L99
 107:.\Generated_Source\PSoC5/USBFS_std.c ****         switch (CY_GET_REG8(USBFS_bRequest))
 1091              		.loc 1 107 0
 1092 0016 0178     		ldrb	r1, [r0, #0]	@ zero_extendqisi2
 1093 0018 0A29     		cmp	r1, #10
 1094 001a 00F22281 		bhi	.L100
 1095 001e DFE811F0 		tbh	[pc, r1, lsl #1]
 1096              	.L105:
 1097 0022 5800     		.2byte	(.L101-.L105)/2
 1098 0024 2001     		.2byte	(.L100-.L105)/2
 1099 0026 2001     		.2byte	(.L100-.L105)/2
 1100 0028 2001     		.2byte	(.L100-.L105)/2
 1101 002a 2001     		.2byte	(.L100-.L105)/2
 1102 002c 2001     		.2byte	(.L100-.L105)/2
 1103 002e 0B00     		.2byte	(.L102-.L105)/2
 1104 0030 2001     		.2byte	(.L100-.L105)/2
 1105 0032 7800     		.2byte	(.L103-.L105)/2
 1106 0034 2001     		.2byte	(.L100-.L105)/2
 1107 0036 7C00     		.2byte	(.L104-.L105)/2
 1108              	.L102:
 110:.\Generated_Source\PSoC5/USBFS_std.c ****                 if (CY_GET_REG8(USBFS_wValueHi) == USBFS_DESCR_DEVICE)
 1109              		.loc 1 110 0
 1110 0038 714B     		ldr	r3, .L151+12
 1111 003a 1978     		ldrb	r1, [r3, #0]	@ zero_extendqisi2
 1112 003c 0129     		cmp	r1, #1
 1113 003e 0AD1     		bne	.L106
 1114              	.LBB4:
 1115              	.LBB5:
 882:.\Generated_Source\PSoC5/USBFS_std.c ****     return( (const T_USBFS_LUT CYCODE *) USBFS_TABLE[USBFS_device].p_list );
 1116              		.loc 1 882 0
 1117 0040 7048     		ldr	r0, .L151+16
 1118 0042 7149     		ldr	r1, .L151+20
 1119 0044 0278     		ldrb	r2, [r0, #0]	@ zero_extendqisi2
 1120 0046 01EBC203 		add	r3, r1, r2, lsl #3
 1121              	.LBE5:
 1122              	.LBE4:
 113:.\Generated_Source\PSoC5/USBFS_std.c ****                     USBFS_currentTD.pData = (volatile uint8 *)pTmp->p_list;
 1123              		.loc 1 113 0
 1124 004a 5868     		ldr	r0, [r3, #4]
 114:.\Generated_Source\PSoC5/USBFS_std.c ****                     USBFS_currentTD.count = USBFS_DEVICE_DESCR_LENGTH;
 1125              		.loc 1 114 0
 1126 004c 1223     		movs	r3, #18
 113:.\Generated_Source\PSoC5/USBFS_std.c ****                     USBFS_currentTD.pData = (volatile uint8 *)pTmp->p_list;
ARM GAS  C:\Users\MICHA_~1\AppData\Local\Temp\ccm5Lblu.s 			page 43


 1127              		.loc 1 113 0
 1128 004e 4268     		ldr	r2, [r0, #4]
 1129 0050 6848     		ldr	r0, .L151
 1130 0052 4260     		str	r2, [r0, #4]
 1131 0054 0FE0     		b	.L142
 1132              	.L106:
 117:.\Generated_Source\PSoC5/USBFS_std.c ****                 else if (CY_GET_REG8(USBFS_wValueHi) == USBFS_DESCR_CONFIG)
 1133              		.loc 1 117 0
 1134 0056 1878     		ldrb	r0, [r3, #0]	@ zero_extendqisi2
 1135 0058 0228     		cmp	r0, #2
 1136 005a 11D1     		bne	.L107
 119:.\Generated_Source\PSoC5/USBFS_std.c ****                     pTmp = USBFS_GetConfigTablePtr(CY_GET_REG8(USBFS_wValueLo));
 1137              		.loc 1 119 0
 1138 005c 6B4B     		ldr	r3, .L151+24
 1139 005e 1878     		ldrb	r0, [r3, #0]	@ zero_extendqisi2
 1140 0060 FFF7FEFF 		bl	USBFS_GetConfigTablePtr
 1141              	.LVL86:
 120:.\Generated_Source\PSoC5/USBFS_std.c ****                     USBFS_currentTD.pData = (volatile uint8 *)pTmp->p_list;
 1142              		.loc 1 120 0
 1143 0064 4268     		ldr	r2, [r0, #4]
 1144 0066 6348     		ldr	r0, .L151
 1145              	.LVL87:
 1146 0068 4260     		str	r2, [r0, #4]
 121:.\Generated_Source\PSoC5/USBFS_std.c ****                     USBFS_currentTD.count = ((uint16)(USBFS_currentTD.pData)[ \
 1147              		.loc 1 121 0
 1148 006a 4168     		ldr	r1, [r0, #4]
 1149 006c CB78     		ldrb	r3, [r1, #3]	@ zero_extendqisi2
 123:.\Generated_Source\PSoC5/USBFS_std.c ****                                      (USBFS_currentTD.pData)[USBFS_CONFIG_DESCR_TOTAL_LENGTH_LOW];
 1150              		.loc 1 123 0
 1151 006e 4268     		ldr	r2, [r0, #4]
 1152 0070 9178     		ldrb	r1, [r2, #2]	@ zero_extendqisi2
 121:.\Generated_Source\PSoC5/USBFS_std.c ****                     USBFS_currentTD.count = ((uint16)(USBFS_currentTD.pData)[ \
 1153              		.loc 1 121 0
 1154 0072 41EA0323 		orr	r3, r1, r3, lsl #8
 1155              	.L142:
 1156 0076 0380     		strh	r3, [r0, #0]	@ movhi
 1157              	.LVL88:
 1158              	.L143:
 316:.\Generated_Source\PSoC5/USBFS_std.c **** }
 1159              		.loc 1 316 0
 1160 0078 BDE81040 		pop	{r4, lr}
 124:.\Generated_Source\PSoC5/USBFS_std.c ****                     requestHandled  = USBFS_InitControlRead();
 1161              		.loc 1 124 0
 1162 007c FFF7FEBF 		b	USBFS_InitControlRead
 1163              	.LVL89:
 1164              	.L107:
 127:.\Generated_Source\PSoC5/USBFS_std.c ****                 else if (CY_GET_REG8(USBFS_wValueHi) == USBFS_DESCR_STRING)
 1165              		.loc 1 127 0
 1166 0080 1A78     		ldrb	r2, [r3, #0]	@ zero_extendqisi2
 1167 0082 032A     		cmp	r2, #3
 1168 0084 21D1     		bne	.L150
 1169              	.L132:
 1170 0086 624B     		ldr	r3, .L151+28
 1171 0088 0022     		movs	r2, #0
 1172              	.LVL90:
 1173              	.L108:
 133:.\Generated_Source\PSoC5/USBFS_std.c ****                         while ( (CY_GET_REG8(USBFS_wValueLo) > nStr) && (*pStr != 0u) )
ARM GAS  C:\Users\MICHA_~1\AppData\Local\Temp\ccm5Lblu.s 			page 44


 1174              		.loc 1 133 0 discriminator 1
 1175 008a 6049     		ldr	r1, .L151+24
 1176 008c 0878     		ldrb	r0, [r1, #0]	@ zero_extendqisi2
 1177 008e 9042     		cmp	r0, r2
 1178 0090 0AD8     		bhi	.L110
 1179              	.L114:
 151:.\Generated_Source\PSoC5/USBFS_std.c ****                         if( (CY_GET_REG8(USBFS_wValueLo) != 0u) &&
 1180              		.loc 1 151 0
 1181 0092 0A78     		ldrb	r2, [r1, #0]	@ zero_extendqisi2
 1182              	.LVL91:
 1183 0094 82B1     		cbz	r2, .L112
 1184              	.L111:
 152:.\Generated_Source\PSoC5/USBFS_std.c ****                             (CY_GET_REG8(USBFS_wValueLo) ==
 1185              		.loc 1 152 0 discriminator 1
 1186 0096 5D49     		ldr	r1, .L151+24
 155:.\Generated_Source\PSoC5/USBFS_std.c ****                             pStr = (volatile uint8 *)&USBFS_SN_STRING_DESCRIPTOR[0u];
 1187              		.loc 1 155 0 discriminator 1
 1188 0098 5E48     		ldr	r0, .L151+32
 152:.\Generated_Source\PSoC5/USBFS_std.c ****                             (CY_GET_REG8(USBFS_wValueLo) ==
 1189              		.loc 1 152 0 discriminator 1
 1190 009a 0978     		ldrb	r1, [r1, #0]	@ zero_extendqisi2
 155:.\Generated_Source\PSoC5/USBFS_std.c ****                             pStr = (volatile uint8 *)&USBFS_SN_STRING_DESCRIPTOR[0u];
 1191              		.loc 1 155 0 discriminator 1
 1192 009c 5E4A     		ldr	r2, .L151+36
 1193 009e 007C     		ldrb	r0, [r0, #16]	@ zero_extendqisi2
 1194 00a0 8842     		cmp	r0, r1
 1195 00a2 08BF     		it	eq
 1196 00a4 1346     		moveq	r3, r2
 1197              	.LVL92:
 1198 00a6 07E0     		b	.L112
 1199              	.LVL93:
 1200              	.L110:
 133:.\Generated_Source\PSoC5/USBFS_std.c ****                         while ( (CY_GET_REG8(USBFS_wValueLo) > nStr) && (*pStr != 0u) )
 1201              		.loc 1 133 0 discriminator 2
 1202 00a8 1878     		ldrb	r0, [r3, #0]	@ zero_extendqisi2
 1203 00aa 0028     		cmp	r0, #0
 1204 00ac F1D0     		beq	.L114
 1205              	.L113:
 136:.\Generated_Source\PSoC5/USBFS_std.c ****                             descrLength = *pStr;
 1206              		.loc 1 136 0
 1207 00ae 1978     		ldrb	r1, [r3, #0]	@ zero_extendqisi2
 1208              	.LVL94:
 139:.\Generated_Source\PSoC5/USBFS_std.c ****                             nStr++;
 1209              		.loc 1 139 0
 1210 00b0 501C     		adds	r0, r2, #1
 138:.\Generated_Source\PSoC5/USBFS_std.c ****                             pStr = &pStr[descrLength];
 1211              		.loc 1 138 0
 1212 00b2 5B18     		adds	r3, r3, r1
 1213              	.LVL95:
 139:.\Generated_Source\PSoC5/USBFS_std.c ****                             nStr++;
 1214              		.loc 1 139 0
 1215 00b4 C2B2     		uxtb	r2, r0
 1216              	.LVL96:
 1217 00b6 E8E7     		b	.L108
 1218              	.LVL97:
 1219              	.L112:
 169:.\Generated_Source\PSoC5/USBFS_std.c ****                     if (*pStr != 0u)
ARM GAS  C:\Users\MICHA_~1\AppData\Local\Temp\ccm5Lblu.s 			page 45


 1220              		.loc 1 169 0
 1221 00b8 1978     		ldrb	r1, [r3, #0]	@ zero_extendqisi2
 1222 00ba 0029     		cmp	r1, #0
 1223 00bc 00F0D180 		beq	.L100
 171:.\Generated_Source\PSoC5/USBFS_std.c ****                         USBFS_currentTD.count = *pStr;
 1224              		.loc 1 171 0
 1225 00c0 1878     		ldrb	r0, [r3, #0]	@ zero_extendqisi2
 1226 00c2 4C4A     		ldr	r2, .L151
 1227 00c4 1080     		strh	r0, [r2, #0]	@ movhi
 172:.\Generated_Source\PSoC5/USBFS_std.c ****                         USBFS_currentTD.pData = pStr;
 1228              		.loc 1 172 0
 1229 00c6 5360     		str	r3, [r2, #4]
 1230 00c8 D6E7     		b	.L143
 1231              	.LVL98:
 1232              	.L150:
 316:.\Generated_Source\PSoC5/USBFS_std.c **** }
 1233              		.loc 1 316 0
 1234 00ca BDE81040 		pop	{r4, lr}
 179:.\Generated_Source\PSoC5/USBFS_std.c ****                     requestHandled = USBFS_DispatchClassRqst();
 1235              		.loc 1 179 0
 1236 00ce FFF7FEBF 		b	USBFS_DispatchClassRqst
 1237              	.LVL99:
 1238              	.L101:
 183:.\Generated_Source\PSoC5/USBFS_std.c ****                 switch ((CY_GET_REG8(USBFS_bmRequestType) & USBFS_RQST_RCPT_MASK))
 1239              		.loc 1 183 0
 1240 00d2 1178     		ldrb	r1, [r2, #0]	@ zero_extendqisi2
 1241 00d4 11F00302 		ands	r2, r1, #3
 1242 00d8 11D0     		beq	.L116
 1243 00da 022A     		cmp	r2, #2
 1244 00dc 40F0C180 		bne	.L100
 186:.\Generated_Source\PSoC5/USBFS_std.c ****                         USBFS_currentTD.count = USBFS_EP_STATUS_LENGTH;
 1245              		.loc 1 186 0
 1246 00e0 4449     		ldr	r1, .L151
 188:.\Generated_Source\PSoC5/USBFS_std.c ****                                         CY_GET_REG8(USBFS_wIndexLo) & USBFS_DIR_UNUSED].hwEpState;
 1247              		.loc 1 188 0
 1248 00e2 4E4B     		ldr	r3, .L151+40
 186:.\Generated_Source\PSoC5/USBFS_std.c ****                         USBFS_currentTD.count = USBFS_EP_STATUS_LENGTH;
 1249              		.loc 1 186 0
 1250 00e4 0A80     		strh	r2, [r1, #0]	@ movhi
 188:.\Generated_Source\PSoC5/USBFS_std.c ****                                         CY_GET_REG8(USBFS_wIndexLo) & USBFS_DIR_UNUSED].hwEpState;
 1251              		.loc 1 188 0
 1252 00e6 1878     		ldrb	r0, [r3, #0]	@ zero_extendqisi2
 1253 00e8 4D4A     		ldr	r2, .L151+44
 1254 00ea 00F07F03 		and	r3, r0, #127
 1255 00ee 0C20     		movs	r0, #12
 1256 00f0 00FB0323 		mla	r3, r0, r3, r2
 1257 00f4 9878     		ldrb	r0, [r3, #2]	@ zero_extendqisi2
 187:.\Generated_Source\PSoC5/USBFS_std.c ****                         USBFS_tBuffer[0u] = USBFS_EP[ \
 1258              		.loc 1 187 0
 1259 00f6 4B4B     		ldr	r3, .L151+48
 189:.\Generated_Source\PSoC5/USBFS_std.c ****                         USBFS_tBuffer[1u] = 0u;
 1260              		.loc 1 189 0
 1261 00f8 0022     		movs	r2, #0
 187:.\Generated_Source\PSoC5/USBFS_std.c ****                         USBFS_tBuffer[0u] = USBFS_EP[ \
 1262              		.loc 1 187 0
 1263 00fa 1870     		strb	r0, [r3, #0]
 1264 00fc 06E0     		b	.L146
ARM GAS  C:\Users\MICHA_~1\AppData\Local\Temp\ccm5Lblu.s 			page 46


 1265              	.L116:
 194:.\Generated_Source\PSoC5/USBFS_std.c ****                         USBFS_currentTD.count = USBFS_DEVICE_STATUS_LENGTH;
 1266              		.loc 1 194 0
 1267 00fe 3D49     		ldr	r1, .L151
 1268 0100 0223     		movs	r3, #2
 195:.\Generated_Source\PSoC5/USBFS_std.c ****                         USBFS_tBuffer[0u] = USBFS_deviceStatus;
 1269              		.loc 1 195 0
 1270 0102 4948     		ldr	r0, .L151+52
 194:.\Generated_Source\PSoC5/USBFS_std.c ****                         USBFS_currentTD.count = USBFS_DEVICE_STATUS_LENGTH;
 1271              		.loc 1 194 0
 1272 0104 0B80     		strh	r3, [r1, #0]	@ movhi
 195:.\Generated_Source\PSoC5/USBFS_std.c ****                         USBFS_tBuffer[0u] = USBFS_deviceStatus;
 1273              		.loc 1 195 0
 1274 0106 0078     		ldrb	r0, [r0, #0]	@ zero_extendqisi2
 1275 0108 464B     		ldr	r3, .L151+48
 1276 010a 1870     		strb	r0, [r3, #0]
 1277              	.L146:
 196:.\Generated_Source\PSoC5/USBFS_std.c ****                         USBFS_tBuffer[1u] = 0u;
 1278              		.loc 1 196 0
 1279 010c 5A70     		strb	r2, [r3, #1]
 197:.\Generated_Source\PSoC5/USBFS_std.c ****                         USBFS_currentTD.pData = &USBFS_tBuffer[0u];
 1280              		.loc 1 197 0
 1281 010e 4B60     		str	r3, [r1, #4]
 1282 0110 B2E7     		b	.L143
 1283              	.L103:
 205:.\Generated_Source\PSoC5/USBFS_std.c ****                 USBFS_currentTD.count = 1u;
 1284              		.loc 1 205 0
 1285 0112 0122     		movs	r2, #1
 1286 0114 1A80     		strh	r2, [r3, #0]	@ movhi
 206:.\Generated_Source\PSoC5/USBFS_std.c ****                 USBFS_currentTD.pData = (volatile uint8 *)&USBFS_configuration;
 1287              		.loc 1 206 0
 1288 0116 4548     		ldr	r0, .L151+56
 1289 0118 05E0     		b	.L147
 1290              	.L104:
 210:.\Generated_Source\PSoC5/USBFS_std.c ****                 USBFS_currentTD.count = 1u;
 1291              		.loc 1 210 0
 1292 011a 0122     		movs	r2, #1
 212:.\Generated_Source\PSoC5/USBFS_std.c ****                                                                             CY_GET_REG8(USBFS_wInde
 1293              		.loc 1 212 0
 1294 011c 3F48     		ldr	r0, .L151+40
 210:.\Generated_Source\PSoC5/USBFS_std.c ****                 USBFS_currentTD.count = 1u;
 1295              		.loc 1 210 0
 1296 011e 1A80     		strh	r2, [r3, #0]	@ movhi
 212:.\Generated_Source\PSoC5/USBFS_std.c ****                                                                             CY_GET_REG8(USBFS_wInde
 1297              		.loc 1 212 0
 1298 0120 0278     		ldrb	r2, [r0, #0]	@ zero_extendqisi2
 211:.\Generated_Source\PSoC5/USBFS_std.c ****                 USBFS_currentTD.pData = (volatile uint8 *)&USBFS_interfaceSetting[ \
 1299              		.loc 1 211 0
 1300 0122 4349     		ldr	r1, .L151+60
 1301 0124 8818     		adds	r0, r1, r2
 1302              	.L147:
 1303 0126 5860     		str	r0, [r3, #4]
 1304 0128 A6E7     		b	.L143
 1305              	.L99:
 221:.\Generated_Source\PSoC5/USBFS_std.c ****         switch (CY_GET_REG8(USBFS_bRequest))
 1306              		.loc 1 221 0
 1307 012a 0378     		ldrb	r3, [r0, #0]	@ zero_extendqisi2
ARM GAS  C:\Users\MICHA_~1\AppData\Local\Temp\ccm5Lblu.s 			page 47


 1308 012c 581E     		subs	r0, r3, #1
 1309 012e 0A28     		cmp	r0, #10
 1310 0130 00F29780 		bhi	.L100
 1311 0134 DFE810F0 		tbh	[pc, r0, lsl #1]
 1312              	.L123:
 1313 0138 2B00     		.2byte	(.L118-.L123)/2
 1314 013a 9500     		.2byte	(.L100-.L123)/2
 1315 013c 4400     		.2byte	(.L119-.L123)/2
 1316 013e 9500     		.2byte	(.L100-.L123)/2
 1317 0140 0B00     		.2byte	(.L120-.L123)/2
 1318 0142 9500     		.2byte	(.L100-.L123)/2
 1319 0144 9500     		.2byte	(.L100-.L123)/2
 1320 0146 9500     		.2byte	(.L100-.L123)/2
 1321 0148 0F00     		.2byte	(.L121-.L123)/2
 1322 014a 9500     		.2byte	(.L100-.L123)/2
 1323 014c 1900     		.2byte	(.L122-.L123)/2
 1324              	.L120:
 224:.\Generated_Source\PSoC5/USBFS_std.c ****                 USBFS_deviceAddress = CY_GET_REG8(USBFS_wValueLo);
 1325              		.loc 1 224 0
 1326 014e 2F4B     		ldr	r3, .L151+24
 1327 0150 3849     		ldr	r1, .L151+64
 1328 0152 1878     		ldrb	r0, [r3, #0]	@ zero_extendqisi2
 1329 0154 4CE0     		b	.L149
 1330              	.L121:
 228:.\Generated_Source\PSoC5/USBFS_std.c ****                 USBFS_configuration = CY_GET_REG8(USBFS_wValueLo);
 1331              		.loc 1 228 0
 1332 0156 2D4B     		ldr	r3, .L151+24
 1333 0158 344A     		ldr	r2, .L151+56
 1334 015a 1878     		ldrb	r0, [r3, #0]	@ zero_extendqisi2
 229:.\Generated_Source\PSoC5/USBFS_std.c ****                 USBFS_configurationChanged = USBFS_TRUE;
 1335              		.loc 1 229 0
 1336 015c 3649     		ldr	r1, .L151+68
 228:.\Generated_Source\PSoC5/USBFS_std.c ****                 USBFS_configuration = CY_GET_REG8(USBFS_wValueLo);
 1337              		.loc 1 228 0
 1338 015e 1070     		strb	r0, [r2, #0]
 229:.\Generated_Source\PSoC5/USBFS_std.c ****                 USBFS_configurationChanged = USBFS_TRUE;
 1339              		.loc 1 229 0
 1340 0160 0120     		movs	r0, #1
 1341 0162 0870     		strb	r0, [r1, #0]
 230:.\Generated_Source\PSoC5/USBFS_std.c ****                 USBFS_Config(USBFS_TRUE);
 1342              		.loc 1 230 0
 1343 0164 FFF7FEFF 		bl	USBFS_Config
 1344              	.LVL100:
 1345 0168 77E0     		b	.L144
 1346              	.L122:
 234:.\Generated_Source\PSoC5/USBFS_std.c ****                 if (USBFS_ValidateAlternateSetting() != 0u)
 1347              		.loc 1 234 0
 1348 016a FFF7FEFF 		bl	USBFS_ValidateAlternateSetting
 1349              	.LVL101:
 1350 016e 0028     		cmp	r0, #0
 1351 0170 77D0     		beq	.L100
 236:.\Generated_Source\PSoC5/USBFS_std.c ****                     interfaceNumber = CY_GET_REG8(USBFS_wIndexLo);
 1352              		.loc 1 236 0
 1353 0172 2A4C     		ldr	r4, .L151+40
 237:.\Generated_Source\PSoC5/USBFS_std.c ****                     USBFS_interfaceNumber = interfaceNumber;
 1354              		.loc 1 237 0
 1355 0174 314A     		ldr	r2, .L151+72
ARM GAS  C:\Users\MICHA_~1\AppData\Local\Temp\ccm5Lblu.s 			page 48


 236:.\Generated_Source\PSoC5/USBFS_std.c ****                     interfaceNumber = CY_GET_REG8(USBFS_wIndexLo);
 1356              		.loc 1 236 0
 1357 0176 2478     		ldrb	r4, [r4, #0]	@ zero_extendqisi2
 1358              	.LVL102:
 238:.\Generated_Source\PSoC5/USBFS_std.c ****                     USBFS_configurationChanged = USBFS_TRUE;
 1359              		.loc 1 238 0
 1360 0178 2F4B     		ldr	r3, .L151+68
 1361 017a 0121     		movs	r1, #1
 237:.\Generated_Source\PSoC5/USBFS_std.c ****                     USBFS_interfaceNumber = interfaceNumber;
 1362              		.loc 1 237 0
 1363 017c 1470     		strb	r4, [r2, #0]
 238:.\Generated_Source\PSoC5/USBFS_std.c ****                     USBFS_configurationChanged = USBFS_TRUE;
 1364              		.loc 1 238 0
 1365 017e 1970     		strb	r1, [r3, #0]
 243:.\Generated_Source\PSoC5/USBFS_std.c ****                         USBFS_ConfigAltChanged();
 1366              		.loc 1 243 0
 1367 0180 FFF7FEFF 		bl	USBFS_ConfigAltChanged
 1368              	.LVL103:
 247:.\Generated_Source\PSoC5/USBFS_std.c ****                          USBFS_interfaceSetting[interfaceNumber];
 1369              		.loc 1 247 0
 1370 0184 2A48     		ldr	r0, .L151+60
 246:.\Generated_Source\PSoC5/USBFS_std.c ****                     USBFS_interfaceSetting_last[interfaceNumber] =
 1371              		.loc 1 246 0
 1372 0186 2E49     		ldr	r1, .L151+76
 247:.\Generated_Source\PSoC5/USBFS_std.c ****                          USBFS_interfaceSetting[interfaceNumber];
 1373              		.loc 1 247 0
 1374 0188 025D     		ldrb	r2, [r0, r4]	@ zero_extendqisi2
 246:.\Generated_Source\PSoC5/USBFS_std.c ****                     USBFS_interfaceSetting_last[interfaceNumber] =
 1375              		.loc 1 246 0
 1376 018a 0A55     		strb	r2, [r1, r4]
 1377 018c 65E0     		b	.L144
 1378              	.LVL104:
 1379              	.L118:
 252:.\Generated_Source\PSoC5/USBFS_std.c ****                 switch (CY_GET_REG8(USBFS_bmRequestType) & USBFS_RQST_RCPT_MASK)
 1380              		.loc 1 252 0
 1381 018e 1278     		ldrb	r2, [r2, #0]	@ zero_extendqisi2
 1382 0190 02F00301 		and	r1, r2, #3
 1383 0194 0129     		cmp	r1, #1
 1384 0196 55D0     		beq	.L129
 1385 0198 09D3     		bcc	.L125
 1386 019a 0229     		cmp	r1, #2
 1387 019c 61D1     		bne	.L100
 255:.\Generated_Source\PSoC5/USBFS_std.c ****                         if (CY_GET_REG8(USBFS_wValueLo) == USBFS_ENDPOINT_HALT)
 1388              		.loc 1 255 0
 1389 019e 1B4B     		ldr	r3, .L151+24
 1390 01a0 1878     		ldrb	r0, [r3, #0]	@ zero_extendqisi2
 1391 01a2 0028     		cmp	r0, #0
 1392 01a4 5DD1     		bne	.L100
 316:.\Generated_Source\PSoC5/USBFS_std.c **** }
 1393              		.loc 1 316 0
 1394 01a6 BDE81040 		pop	{r4, lr}
 257:.\Generated_Source\PSoC5/USBFS_std.c ****                             requestHandled = USBFS_ClearEndpointHalt();
 1395              		.loc 1 257 0
 1396 01aa FFF7FEBF 		b	USBFS_ClearEndpointHalt
 1397              	.LVL105:
 1398              	.L125:
 262:.\Generated_Source\PSoC5/USBFS_std.c ****                         if (CY_GET_REG8(USBFS_wValueLo) == USBFS_DEVICE_REMOTE_WAKEUP)
ARM GAS  C:\Users\MICHA_~1\AppData\Local\Temp\ccm5Lblu.s 			page 49


 1399              		.loc 1 262 0
 1400 01ae 174A     		ldr	r2, .L151+24
 1401 01b0 1178     		ldrb	r1, [r2, #0]	@ zero_extendqisi2
 1402 01b2 0129     		cmp	r1, #1
 1403 01b4 55D1     		bne	.L100
 264:.\Generated_Source\PSoC5/USBFS_std.c ****                             USBFS_deviceStatus &= (uint8)~USBFS_DEVICE_STATUS_REMOTE_WAKEUP;
 1404              		.loc 1 264 0
 1405 01b6 1C49     		ldr	r1, .L151+52
 1406 01b8 0B78     		ldrb	r3, [r1, #0]	@ zero_extendqisi2
 1407 01ba 03F0FD00 		and	r0, r3, #253
 1408              	.LVL106:
 1409 01be 17E0     		b	.L149
 1410              	.L119:
 282:.\Generated_Source\PSoC5/USBFS_std.c ****                 switch (CY_GET_REG8(USBFS_bmRequestType) & USBFS_RQST_RCPT_MASK)
 1411              		.loc 1 282 0
 1412 01c0 1078     		ldrb	r0, [r2, #0]	@ zero_extendqisi2
 1413 01c2 00F00302 		and	r2, r0, #3
 1414 01c6 012A     		cmp	r2, #1
 1415 01c8 3CD0     		beq	.L129
 1416 01ca 09D3     		bcc	.L128
 1417 01cc 022A     		cmp	r2, #2
 1418 01ce 48D1     		bne	.L100
 285:.\Generated_Source\PSoC5/USBFS_std.c ****                         if (CY_GET_REG8(USBFS_wValueLo) == USBFS_ENDPOINT_HALT)
 1419              		.loc 1 285 0
 1420 01d0 0E49     		ldr	r1, .L151+24
 1421 01d2 0B78     		ldrb	r3, [r1, #0]	@ zero_extendqisi2
 1422 01d4 002B     		cmp	r3, #0
 1423 01d6 44D1     		bne	.L100
 316:.\Generated_Source\PSoC5/USBFS_std.c **** }
 1424              		.loc 1 316 0
 1425 01d8 BDE81040 		pop	{r4, lr}
 287:.\Generated_Source\PSoC5/USBFS_std.c ****                             requestHandled = USBFS_SetEndpointHalt();
 1426              		.loc 1 287 0
 1427 01dc FFF7FEBF 		b	USBFS_SetEndpointHalt
 1428              	.LVL107:
 1429              	.L128:
 292:.\Generated_Source\PSoC5/USBFS_std.c ****                         if (CY_GET_REG8(USBFS_wValueLo) == USBFS_DEVICE_REMOTE_WAKEUP)
 1430              		.loc 1 292 0
 1431 01e0 0A48     		ldr	r0, .L151+24
 1432 01e2 0278     		ldrb	r2, [r0, #0]	@ zero_extendqisi2
 1433 01e4 012A     		cmp	r2, #1
 1434 01e6 3CD1     		bne	.L100
 294:.\Generated_Source\PSoC5/USBFS_std.c ****                             USBFS_deviceStatus |= USBFS_DEVICE_STATUS_REMOTE_WAKEUP;
 1435              		.loc 1 294 0
 1436 01e8 0F49     		ldr	r1, .L151+52
 1437 01ea 0B78     		ldrb	r3, [r1, #0]	@ zero_extendqisi2
 1438 01ec 43F00200 		orr	r0, r3, #2
 1439              	.L149:
 1440              	.LVL108:
 1441 01f0 0870     		strb	r0, [r1, #0]
 1442 01f2 32E0     		b	.L144
 1443              	.L152:
 1444              		.align	2
 1445              	.L151:
 1446 01f4 00000000 		.word	USBFS_currentTD
 1447 01f8 00600040 		.word	1073766400
 1448 01fc 01600040 		.word	1073766401
ARM GAS  C:\Users\MICHA_~1\AppData\Local\Temp\ccm5Lblu.s 			page 50


 1449 0200 03600040 		.word	1073766403
 1450 0204 00000000 		.word	USBFS_device
 1451 0208 00000000 		.word	USBFS_TABLE
 1452 020c 02600040 		.word	1073766402
 1453 0210 00000000 		.word	USBFS_STRING_DESCRIPTORS
 1454 0214 00000000 		.word	USBFS_DEVICE0_DESCR
 1455 0218 00000000 		.word	USBFS_SN_STRING_DESCRIPTOR
 1456 021c 04600040 		.word	1073766404
 1457 0220 00000000 		.word	USBFS_EP
 1458 0224 00000000 		.word	.LANCHOR0
 1459 0228 00000000 		.word	USBFS_deviceStatus
 1460 022c 00000000 		.word	USBFS_configuration
 1461 0230 00000000 		.word	USBFS_interfaceSetting
 1462 0234 00000000 		.word	USBFS_deviceAddress
 1463 0238 00000000 		.word	USBFS_configurationChanged
 1464 023c 00000000 		.word	USBFS_interfaceNumber
 1465 0240 00000000 		.word	USBFS_interfaceSetting_last
 1466              	.LVL109:
 1467              	.L129:
 300:.\Generated_Source\PSoC5/USBFS_std.c ****                         if (CY_GET_REG8(USBFS_wIndexLo) < USBFS_MAX_INTERFACES_NUMBER)
 1468              		.loc 1 300 0
 1469 0244 0848     		ldr	r0, .L153
 1470 0246 0278     		ldrb	r2, [r0, #0]	@ zero_extendqisi2
 1471 0248 5AB9     		cbnz	r2, .L100
 302:.\Generated_Source\PSoC5/USBFS_std.c ****                             USBFS_interfaceStatus[CY_GET_REG8(USBFS_wIndexLo)] &=
 1472              		.loc 1 302 0
 1473 024a 0378     		ldrb	r3, [r0, #0]	@ zero_extendqisi2
 1474 024c 074A     		ldr	r2, .L153+4
 303:.\Generated_Source\PSoC5/USBFS_std.c ****                                                                 (uint8)~(CY_GET_REG8(USBFS_wValueLo
 1475              		.loc 1 303 0
 1476 024e 0848     		ldr	r0, .L153+8
 302:.\Generated_Source\PSoC5/USBFS_std.c ****                             USBFS_interfaceStatus[CY_GET_REG8(USBFS_wIndexLo)] &=
 1477              		.loc 1 302 0
 1478 0250 D15C     		ldrb	r1, [r2, r3]	@ zero_extendqisi2
 303:.\Generated_Source\PSoC5/USBFS_std.c ****                                                                 (uint8)~(CY_GET_REG8(USBFS_wValueLo
 1479              		.loc 1 303 0
 1480 0252 0078     		ldrb	r0, [r0, #0]	@ zero_extendqisi2
 302:.\Generated_Source\PSoC5/USBFS_std.c ****                             USBFS_interfaceStatus[CY_GET_REG8(USBFS_wIndexLo)] &=
 1481              		.loc 1 302 0
 1482 0254 21EA0001 		bic	r1, r1, r0
 1483 0258 D154     		strb	r1, [r2, r3]
 1484              	.LVL110:
 1485              	.L144:
 316:.\Generated_Source\PSoC5/USBFS_std.c **** }
 1486              		.loc 1 316 0
 1487 025a BDE81040 		pop	{r4, lr}
 304:.\Generated_Source\PSoC5/USBFS_std.c ****                             requestHandled = USBFS_InitNoDataControlTransfer();
 1488              		.loc 1 304 0
 1489 025e FFF7FEBF 		b	USBFS_InitNoDataControlTransfer
 1490              	.LVL111:
 1491              	.L100:
 316:.\Generated_Source\PSoC5/USBFS_std.c **** }
 1492              		.loc 1 316 0
 1493 0262 0020     		movs	r0, #0
 1494 0264 10BD     		pop	{r4, pc}
 1495              	.L154:
 1496 0266 00BF     		.align	2
ARM GAS  C:\Users\MICHA_~1\AppData\Local\Temp\ccm5Lblu.s 			page 51


 1497              	.L153:
 1498 0268 04600040 		.word	1073766404
 1499 026c 00000000 		.word	USBFS_interfaceStatus
 1500 0270 02600040 		.word	1073766402
 1501              		.cfi_endproc
 1502              	.LFE0:
 1503              		.size	USBFS_HandleStandardRqst, .-USBFS_HandleStandardRqst
 1504              		.bss
 1505              		.set	.LANCHOR0,. + 0
 1506              		.type	USBFS_tBuffer.5008, %object
 1507              		.size	USBFS_tBuffer.5008, 2
 1508              	USBFS_tBuffer.5008:
 1509 0000 0000     		.space	2
 1510              		.text
 1511              	.Letext0:
 1512              		.file 2 ".\\Generated_Source\\PSoC5\\cytypes.h"
 1513              		.file 3 ".\\Generated_Source\\PSoC5\\USBFS.h"
 1514              		.file 4 ".\\Generated_Source\\PSoC5\\USBFS_pvt.h"