ARM GAS  C:\Users\MICHA_~1\AppData\Local\Temp\ccbOK9oc.s 			page 1


   1              		.syntax unified
   2              		.cpu cortex-m3
   3              		.fpu softvfp
   4              		.eabi_attribute 20, 1
   5              		.eabi_attribute 21, 1
   6              		.eabi_attribute 23, 3
   7              		.eabi_attribute 24, 1
   8              		.eabi_attribute 25, 1
   9              		.eabi_attribute 26, 1
  10              		.eabi_attribute 30, 4
  11              		.eabi_attribute 34, 1
  12              		.eabi_attribute 18, 4
  13              		.thumb
  14              		.file	"USBFS.c"
  15              		.text
  16              	.Ltext0:
  17              		.cfi_sections	.debug_frame
  18              		.section	.text.USBFS_Init,"ax",%progbits
  19              		.align	1
  20              		.global	USBFS_Init
  21              		.thumb
  22              		.thumb_func
  23              		.type	USBFS_Init, %function
  24              	USBFS_Init:
  25              	.LFB1:
  26              		.file 1 ".\\Generated_Source\\PSoC5\\USBFS.c"
   1:.\Generated_Source\PSoC5/USBFS.c **** /*******************************************************************************
   2:.\Generated_Source\PSoC5/USBFS.c **** * File Name: USBFS.c
   3:.\Generated_Source\PSoC5/USBFS.c **** * Version 2.60
   4:.\Generated_Source\PSoC5/USBFS.c **** *
   5:.\Generated_Source\PSoC5/USBFS.c **** * Description:
   6:.\Generated_Source\PSoC5/USBFS.c **** *  API for USBFS Component.
   7:.\Generated_Source\PSoC5/USBFS.c **** *
   8:.\Generated_Source\PSoC5/USBFS.c **** * Note:
   9:.\Generated_Source\PSoC5/USBFS.c **** *  Many of the functions use endpoint number.  RAM arrays are sized with 9
  10:.\Generated_Source\PSoC5/USBFS.c **** *  elements so they are indexed directly by epNumber.  The SIE and ARB
  11:.\Generated_Source\PSoC5/USBFS.c **** *  registers are indexed by variations of epNumber - 1.
  12:.\Generated_Source\PSoC5/USBFS.c **** *
  13:.\Generated_Source\PSoC5/USBFS.c **** ********************************************************************************
  14:.\Generated_Source\PSoC5/USBFS.c **** * Copyright 2008-2013, Cypress Semiconductor Corporation.  All rights reserved.
  15:.\Generated_Source\PSoC5/USBFS.c **** * You may use this file only in accordance with the license, terms, conditions,
  16:.\Generated_Source\PSoC5/USBFS.c **** * disclaimers, and limitations in the end user license agreement accompanying
  17:.\Generated_Source\PSoC5/USBFS.c **** * the software package with which this file was provided.
  18:.\Generated_Source\PSoC5/USBFS.c **** *******************************************************************************/
  19:.\Generated_Source\PSoC5/USBFS.c **** 
  20:.\Generated_Source\PSoC5/USBFS.c **** #include <CyDmac.h>
  21:.\Generated_Source\PSoC5/USBFS.c **** #include "USBFS.h"
  22:.\Generated_Source\PSoC5/USBFS.c **** #include "USBFS_pvt.h"
  23:.\Generated_Source\PSoC5/USBFS.c **** #include "USBFS_hid.h"
  24:.\Generated_Source\PSoC5/USBFS.c **** #if(USBFS_DMA1_REMOVE == 0u)
  25:.\Generated_Source\PSoC5/USBFS.c ****     #include "USBFS_ep1_dma.h"
  26:.\Generated_Source\PSoC5/USBFS.c **** #endif   /* End USBFS_DMA1_REMOVE */
  27:.\Generated_Source\PSoC5/USBFS.c **** #if(USBFS_DMA2_REMOVE == 0u)
  28:.\Generated_Source\PSoC5/USBFS.c ****     #include "USBFS_ep2_dma.h"
  29:.\Generated_Source\PSoC5/USBFS.c **** #endif   /* End USBFS_DMA2_REMOVE */
  30:.\Generated_Source\PSoC5/USBFS.c **** #if(USBFS_DMA3_REMOVE == 0u)
  31:.\Generated_Source\PSoC5/USBFS.c ****     #include "USBFS_ep3_dma.h"
ARM GAS  C:\Users\MICHA_~1\AppData\Local\Temp\ccbOK9oc.s 			page 2


  32:.\Generated_Source\PSoC5/USBFS.c **** #endif   /* End USBFS_DMA3_REMOVE */
  33:.\Generated_Source\PSoC5/USBFS.c **** #if(USBFS_DMA4_REMOVE == 0u)
  34:.\Generated_Source\PSoC5/USBFS.c ****     #include "USBFS_ep4_dma.h"
  35:.\Generated_Source\PSoC5/USBFS.c **** #endif   /* End USBFS_DMA4_REMOVE */
  36:.\Generated_Source\PSoC5/USBFS.c **** #if(USBFS_DMA5_REMOVE == 0u)
  37:.\Generated_Source\PSoC5/USBFS.c ****     #include "USBFS_ep5_dma.h"
  38:.\Generated_Source\PSoC5/USBFS.c **** #endif   /* End USBFS_DMA5_REMOVE */
  39:.\Generated_Source\PSoC5/USBFS.c **** #if(USBFS_DMA6_REMOVE == 0u)
  40:.\Generated_Source\PSoC5/USBFS.c ****     #include "USBFS_ep6_dma.h"
  41:.\Generated_Source\PSoC5/USBFS.c **** #endif   /* End USBFS_DMA6_REMOVE */
  42:.\Generated_Source\PSoC5/USBFS.c **** #if(USBFS_DMA7_REMOVE == 0u)
  43:.\Generated_Source\PSoC5/USBFS.c ****     #include "USBFS_ep7_dma.h"
  44:.\Generated_Source\PSoC5/USBFS.c **** #endif   /* End USBFS_DMA7_REMOVE */
  45:.\Generated_Source\PSoC5/USBFS.c **** #if(USBFS_DMA8_REMOVE == 0u)
  46:.\Generated_Source\PSoC5/USBFS.c ****     #include "USBFS_ep8_dma.h"
  47:.\Generated_Source\PSoC5/USBFS.c **** #endif   /* End USBFS_DMA8_REMOVE */
  48:.\Generated_Source\PSoC5/USBFS.c **** 
  49:.\Generated_Source\PSoC5/USBFS.c **** 
  50:.\Generated_Source\PSoC5/USBFS.c **** /***************************************
  51:.\Generated_Source\PSoC5/USBFS.c **** * Global data allocation
  52:.\Generated_Source\PSoC5/USBFS.c **** ***************************************/
  53:.\Generated_Source\PSoC5/USBFS.c **** 
  54:.\Generated_Source\PSoC5/USBFS.c **** uint8 USBFS_initVar = 0u;
  55:.\Generated_Source\PSoC5/USBFS.c **** #if(USBFS_EP_MM != USBFS__EP_MANUAL)
  56:.\Generated_Source\PSoC5/USBFS.c ****     uint8 USBFS_DmaChan[USBFS_MAX_EP];
  57:.\Generated_Source\PSoC5/USBFS.c ****     uint8 USBFS_DmaTd[USBFS_MAX_EP];
  58:.\Generated_Source\PSoC5/USBFS.c **** #endif /* End USBFS_EP_MM */
  59:.\Generated_Source\PSoC5/USBFS.c **** 
  60:.\Generated_Source\PSoC5/USBFS.c **** 
  61:.\Generated_Source\PSoC5/USBFS.c **** /*******************************************************************************
  62:.\Generated_Source\PSoC5/USBFS.c **** * Function Name: USBFS_Start
  63:.\Generated_Source\PSoC5/USBFS.c **** ********************************************************************************
  64:.\Generated_Source\PSoC5/USBFS.c **** *
  65:.\Generated_Source\PSoC5/USBFS.c **** * Summary:
  66:.\Generated_Source\PSoC5/USBFS.c **** *  This function initialize the USB SIE, arbiter and the
  67:.\Generated_Source\PSoC5/USBFS.c **** *  endpoint APIs, including setting the D+ Pullup
  68:.\Generated_Source\PSoC5/USBFS.c **** *
  69:.\Generated_Source\PSoC5/USBFS.c **** * Parameters:
  70:.\Generated_Source\PSoC5/USBFS.c **** *  device: Contains the device number of the desired device descriptor.
  71:.\Generated_Source\PSoC5/USBFS.c **** *          The device number can be found in the Device Descriptor Tab of
  72:.\Generated_Source\PSoC5/USBFS.c **** *          "Configure" dialog, under the settings of desired Device Descriptor,
  73:.\Generated_Source\PSoC5/USBFS.c **** *          in the "Device Number" field.
  74:.\Generated_Source\PSoC5/USBFS.c **** *  mode: The operating voltage. This determines whether the voltage regulator
  75:.\Generated_Source\PSoC5/USBFS.c **** *        is enabled for 5V operation or if pass through mode is used for 3.3V
  76:.\Generated_Source\PSoC5/USBFS.c **** *        operation. Symbolic names and their associated values are given in the
  77:.\Generated_Source\PSoC5/USBFS.c **** *        following table.
  78:.\Generated_Source\PSoC5/USBFS.c **** *       USBFS_3V_OPERATION - Disable voltage regulator and pass-thru
  79:.\Generated_Source\PSoC5/USBFS.c **** *                                       Vcc for pull-up
  80:.\Generated_Source\PSoC5/USBFS.c **** *       USBFS_5V_OPERATION - Enable voltage regulator and use
  81:.\Generated_Source\PSoC5/USBFS.c **** *                                       regulator for pull-up
  82:.\Generated_Source\PSoC5/USBFS.c **** *       USBFS_DWR_VDDD_OPERATION - Enable or Disable voltage
  83:.\Generated_Source\PSoC5/USBFS.c **** *                         regulator depend on Vddd Voltage configuration in DWR.
  84:.\Generated_Source\PSoC5/USBFS.c **** *
  85:.\Generated_Source\PSoC5/USBFS.c **** * Return:
  86:.\Generated_Source\PSoC5/USBFS.c **** *   None.
  87:.\Generated_Source\PSoC5/USBFS.c **** *
  88:.\Generated_Source\PSoC5/USBFS.c **** * Global variables:
ARM GAS  C:\Users\MICHA_~1\AppData\Local\Temp\ccbOK9oc.s 			page 3


  89:.\Generated_Source\PSoC5/USBFS.c **** *  The USBFS_intiVar variable is used to indicate initial
  90:.\Generated_Source\PSoC5/USBFS.c **** *  configuration of this component. The variable is initialized to zero (0u)
  91:.\Generated_Source\PSoC5/USBFS.c **** *  and set to one (1u) the first time USBFS_Start() is called.
  92:.\Generated_Source\PSoC5/USBFS.c **** *  This allows for component Re-Start without unnecessary re-initialization
  93:.\Generated_Source\PSoC5/USBFS.c **** *  in all subsequent calls to the USBFS_Start() routine.
  94:.\Generated_Source\PSoC5/USBFS.c **** *  If re-initialization of the component is required the variable should be set
  95:.\Generated_Source\PSoC5/USBFS.c **** *  to zero before call of UART_Start() routine, or the user may call
  96:.\Generated_Source\PSoC5/USBFS.c **** *  USBFS_Init() and USBFS_InitComponent() as done
  97:.\Generated_Source\PSoC5/USBFS.c **** *  in the USBFS_Start() routine.
  98:.\Generated_Source\PSoC5/USBFS.c **** *
  99:.\Generated_Source\PSoC5/USBFS.c **** * Side Effects:
 100:.\Generated_Source\PSoC5/USBFS.c **** *   This function will reset all communication states to default.
 101:.\Generated_Source\PSoC5/USBFS.c **** *
 102:.\Generated_Source\PSoC5/USBFS.c **** * Reentrant:
 103:.\Generated_Source\PSoC5/USBFS.c **** *  No.
 104:.\Generated_Source\PSoC5/USBFS.c **** *
 105:.\Generated_Source\PSoC5/USBFS.c **** *******************************************************************************/
 106:.\Generated_Source\PSoC5/USBFS.c **** void USBFS_Start(uint8 device, uint8 mode) 
 107:.\Generated_Source\PSoC5/USBFS.c **** {
 108:.\Generated_Source\PSoC5/USBFS.c ****     /* If not Initialized then initialize all required hardware and software */
 109:.\Generated_Source\PSoC5/USBFS.c ****     if(USBFS_initVar == 0u)
 110:.\Generated_Source\PSoC5/USBFS.c ****     {
 111:.\Generated_Source\PSoC5/USBFS.c ****         USBFS_Init();
 112:.\Generated_Source\PSoC5/USBFS.c ****         USBFS_initVar = 1u;
 113:.\Generated_Source\PSoC5/USBFS.c ****     }
 114:.\Generated_Source\PSoC5/USBFS.c ****     USBFS_InitComponent(device, mode);
 115:.\Generated_Source\PSoC5/USBFS.c **** }
 116:.\Generated_Source\PSoC5/USBFS.c **** 
 117:.\Generated_Source\PSoC5/USBFS.c **** 
 118:.\Generated_Source\PSoC5/USBFS.c **** /*******************************************************************************
 119:.\Generated_Source\PSoC5/USBFS.c **** * Function Name: USBFS_Init
 120:.\Generated_Source\PSoC5/USBFS.c **** ********************************************************************************
 121:.\Generated_Source\PSoC5/USBFS.c **** *
 122:.\Generated_Source\PSoC5/USBFS.c **** * Summary:
 123:.\Generated_Source\PSoC5/USBFS.c **** *  Initialize component's hardware. Usually called in USBFS_Start().
 124:.\Generated_Source\PSoC5/USBFS.c **** *
 125:.\Generated_Source\PSoC5/USBFS.c **** * Parameters:
 126:.\Generated_Source\PSoC5/USBFS.c **** *  None.
 127:.\Generated_Source\PSoC5/USBFS.c **** *
 128:.\Generated_Source\PSoC5/USBFS.c **** * Return:
 129:.\Generated_Source\PSoC5/USBFS.c **** *  None.
 130:.\Generated_Source\PSoC5/USBFS.c **** *
 131:.\Generated_Source\PSoC5/USBFS.c **** * Reentrant:
 132:.\Generated_Source\PSoC5/USBFS.c **** *  No.
 133:.\Generated_Source\PSoC5/USBFS.c **** *
 134:.\Generated_Source\PSoC5/USBFS.c **** *******************************************************************************/
 135:.\Generated_Source\PSoC5/USBFS.c **** void USBFS_Init(void) 
 136:.\Generated_Source\PSoC5/USBFS.c **** {
  27              		.loc 1 136 0
  28              		.cfi_startproc
  29              		@ args = 0, pretend = 0, frame = 0
  30              		@ frame_needed = 0, uses_anonymous_args = 0
  31 0000 F8B5     		push	{r3, r4, r5, r6, r7, lr}
  32              	.LCFI0:
  33              		.cfi_def_cfa_offset 24
  34              		.cfi_offset 3, -24
  35              		.cfi_offset 4, -20
ARM GAS  C:\Users\MICHA_~1\AppData\Local\Temp\ccbOK9oc.s 			page 4


  36              		.cfi_offset 5, -16
  37              		.cfi_offset 6, -12
  38              		.cfi_offset 7, -8
  39              		.cfi_offset 14, -4
 137:.\Generated_Source\PSoC5/USBFS.c ****     uint8 enableInterrupts;
 138:.\Generated_Source\PSoC5/USBFS.c ****     #if(USBFS_EP_MM != USBFS__EP_MANUAL)
 139:.\Generated_Source\PSoC5/USBFS.c ****         uint16 i;
 140:.\Generated_Source\PSoC5/USBFS.c ****     #endif   /* End USBFS_EP_MM != USBFS__EP_MANUAL */
 141:.\Generated_Source\PSoC5/USBFS.c **** 
 142:.\Generated_Source\PSoC5/USBFS.c ****     enableInterrupts = CyEnterCriticalSection();
  40              		.loc 1 142 0
  41 0002 FFF7FEFF 		bl	CyEnterCriticalSection
  42              	.LVL0:
 143:.\Generated_Source\PSoC5/USBFS.c **** 
 144:.\Generated_Source\PSoC5/USBFS.c ****     /* Enable USB block  */
 145:.\Generated_Source\PSoC5/USBFS.c ****     USBFS_PM_ACT_CFG_REG |= USBFS_PM_ACT_EN_FSUSB;
  43              		.loc 1 145 0
  44 0006 384B     		ldr	r3, .L2
 142:.\Generated_Source\PSoC5/USBFS.c ****     enableInterrupts = CyEnterCriticalSection();
  45              		.loc 1 142 0
  46 0008 0746     		mov	r7, r0
  47              	.LVL1:
  48              		.loc 1 145 0
  49 000a 1A78     		ldrb	r2, [r3, #0]	@ zero_extendqisi2
 146:.\Generated_Source\PSoC5/USBFS.c ****     /* Enable USB block for Standby Power Mode */
 147:.\Generated_Source\PSoC5/USBFS.c ****     USBFS_PM_STBY_CFG_REG |= USBFS_PM_STBY_EN_FSUSB;
 148:.\Generated_Source\PSoC5/USBFS.c **** 
 149:.\Generated_Source\PSoC5/USBFS.c ****     /* Enable core clock */
 150:.\Generated_Source\PSoC5/USBFS.c ****     USBFS_USB_CLK_EN_REG = USBFS_USB_CLK_ENABLE;
  50              		.loc 1 150 0
  51 000c 0125     		movs	r5, #1
 145:.\Generated_Source\PSoC5/USBFS.c ****     USBFS_PM_ACT_CFG_REG |= USBFS_PM_ACT_EN_FSUSB;
  52              		.loc 1 145 0
  53 000e 42F00100 		orr	r0, r2, #1
  54              	.LVL2:
  55 0012 1870     		strb	r0, [r3, #0]
 147:.\Generated_Source\PSoC5/USBFS.c ****     USBFS_PM_STBY_CFG_REG |= USBFS_PM_STBY_EN_FSUSB;
  56              		.loc 1 147 0
  57 0014 197C     		ldrb	r1, [r3, #16]	@ zero_extendqisi2
 151:.\Generated_Source\PSoC5/USBFS.c **** 
 152:.\Generated_Source\PSoC5/USBFS.c ****     USBFS_CR1_REG = USBFS_CR1_ENABLE_LOCK;
  58              		.loc 1 152 0
  59 0016 0226     		movs	r6, #2
 147:.\Generated_Source\PSoC5/USBFS.c ****     USBFS_PM_STBY_CFG_REG |= USBFS_PM_STBY_EN_FSUSB;
  60              		.loc 1 147 0
  61 0018 41F00104 		orr	r4, r1, #1
  62 001c 1C74     		strb	r4, [r3, #16]
 150:.\Generated_Source\PSoC5/USBFS.c ****     USBFS_USB_CLK_EN_REG = USBFS_USB_CLK_ENABLE;
  63              		.loc 1 150 0
  64 001e 334B     		ldr	r3, .L2+4
 153:.\Generated_Source\PSoC5/USBFS.c **** 
 154:.\Generated_Source\PSoC5/USBFS.c ****     /* ENABLING USBIO PADS IN USB MODE FROM I/O MODE */
 155:.\Generated_Source\PSoC5/USBFS.c ****     /* Ensure USB transmit enable is low (USB_USBIO_CR0.ten). - Manual Transmission - Disabled */
 156:.\Generated_Source\PSoC5/USBFS.c ****     USBFS_USBIO_CR0_REG &= ((uint8)(~USBFS_USBIO_CR0_TEN));
 157:.\Generated_Source\PSoC5/USBFS.c ****     CyDelayUs(0u);  /*~50ns delay */
 158:.\Generated_Source\PSoC5/USBFS.c ****     /* Disable the USBIO by asserting PM.USB_CR0.fsusbio_pd_n(Inverted)
 159:.\Generated_Source\PSoC5/USBFS.c ****     *  high. This will have been set low by the power manger out of reset.
ARM GAS  C:\Users\MICHA_~1\AppData\Local\Temp\ccbOK9oc.s 			page 5


 160:.\Generated_Source\PSoC5/USBFS.c ****     *  Also confirm USBIO pull-up disabled
 161:.\Generated_Source\PSoC5/USBFS.c ****     */
 162:.\Generated_Source\PSoC5/USBFS.c ****     USBFS_PM_USB_CR0_REG &= ((uint8)(~(USBFS_PM_USB_CR0_PD_N |
  65              		.loc 1 162 0
  66 0020 334C     		ldr	r4, .L2+8
 150:.\Generated_Source\PSoC5/USBFS.c ****     USBFS_USB_CLK_EN_REG = USBFS_USB_CLK_ENABLE;
  67              		.loc 1 150 0
  68 0022 1D70     		strb	r5, [r3, #0]
 152:.\Generated_Source\PSoC5/USBFS.c ****     USBFS_CR1_REG = USBFS_CR1_ENABLE_LOCK;
  69              		.loc 1 152 0
  70 0024 03F8946C 		strb	r6, [r3, #-148]
 156:.\Generated_Source\PSoC5/USBFS.c ****     USBFS_USBIO_CR0_REG &= ((uint8)(~USBFS_USBIO_CR0_TEN));
  71              		.loc 1 156 0
  72 0028 13F88D2C 		ldrb	r2, [r3, #-141]	@ zero_extendqisi2
  73 002c 02F07F00 		and	r0, r2, #127
  74 0030 03F88D0C 		strb	r0, [r3, #-141]
 157:.\Generated_Source\PSoC5/USBFS.c ****     CyDelayUs(0u);  /*~50ns delay */
  75              		.loc 1 157 0
  76 0034 0020     		movs	r0, #0
  77 0036 FFF7FEFF 		bl	CyDelayUs
  78              	.LVL3:
  79              		.loc 1 162 0
  80 003a 2178     		ldrb	r1, [r4, #0]	@ zero_extendqisi2
 163:.\Generated_Source\PSoC5/USBFS.c ****                                                   USBFS_PM_USB_CR0_PD_PULLUP_N)));
 164:.\Generated_Source\PSoC5/USBFS.c **** 
 165:.\Generated_Source\PSoC5/USBFS.c ****     /* Select iomode to USB mode*/
 166:.\Generated_Source\PSoC5/USBFS.c ****     USBFS_USBIO_CR1_REG &= ((uint8)(~USBFS_USBIO_CR1_IOMODE));
  81              		.loc 1 166 0
  82 003c 2D48     		ldr	r0, .L2+12
 162:.\Generated_Source\PSoC5/USBFS.c ****     USBFS_PM_USB_CR0_REG &= ((uint8)(~(USBFS_PM_USB_CR0_PD_N |
  83              		.loc 1 162 0
  84 003e 01F0F903 		and	r3, r1, #249
  85 0042 2370     		strb	r3, [r4, #0]
  86              		.loc 1 166 0
  87 0044 0278     		ldrb	r2, [r0, #0]	@ zero_extendqisi2
  88 0046 02F0DF01 		and	r1, r2, #223
  89 004a 0170     		strb	r1, [r0, #0]
 167:.\Generated_Source\PSoC5/USBFS.c **** 
 168:.\Generated_Source\PSoC5/USBFS.c ****     /* Enable the USBIO reference by setting PM.USB_CR0.fsusbio_ref_en.*/
 169:.\Generated_Source\PSoC5/USBFS.c ****     USBFS_PM_USB_CR0_REG |= USBFS_PM_USB_CR0_REF_EN;
  90              		.loc 1 169 0
  91 004c 2378     		ldrb	r3, [r4, #0]	@ zero_extendqisi2
 170:.\Generated_Source\PSoC5/USBFS.c ****     /* The reference will be available 1 us after the regulator is enabled */
 171:.\Generated_Source\PSoC5/USBFS.c ****     CyDelayUs(1u);
  92              		.loc 1 171 0
  93 004e 2846     		mov	r0, r5
 169:.\Generated_Source\PSoC5/USBFS.c ****     USBFS_PM_USB_CR0_REG |= USBFS_PM_USB_CR0_REF_EN;
  94              		.loc 1 169 0
  95 0050 2B43     		orrs	r3, r3, r5
  96 0052 2370     		strb	r3, [r4, #0]
  97              		.loc 1 171 0
  98 0054 FFF7FEFF 		bl	CyDelayUs
  99              	.LVL4:
 172:.\Generated_Source\PSoC5/USBFS.c ****     /* OR 40us after power restored */
 173:.\Generated_Source\PSoC5/USBFS.c ****     CyDelayUs(40u);
 100              		.loc 1 173 0
 101 0058 2820     		movs	r0, #40
ARM GAS  C:\Users\MICHA_~1\AppData\Local\Temp\ccbOK9oc.s 			page 6


 102 005a FFF7FEFF 		bl	CyDelayUs
 103              	.LVL5:
 174:.\Generated_Source\PSoC5/USBFS.c ****     /* Ensure the single ended disable bits are low (PRT15.INP_DIS[7:6])(input receiver enabled). *
 175:.\Generated_Source\PSoC5/USBFS.c ****     USBFS_DM_INP_DIS_REG &= ((uint8)(~USBFS_DM_MASK));
 104              		.loc 1 175 0
 105 005e 2648     		ldr	r0, .L2+16
 106 0060 0278     		ldrb	r2, [r0, #0]	@ zero_extendqisi2
 107 0062 02F07F01 		and	r1, r2, #127
 108 0066 0170     		strb	r1, [r0, #0]
 176:.\Generated_Source\PSoC5/USBFS.c ****     USBFS_DP_INP_DIS_REG &= ((uint8)(~USBFS_DP_MASK));
 109              		.loc 1 176 0
 110 0068 0378     		ldrb	r3, [r0, #0]	@ zero_extendqisi2
 111 006a 03F0BF02 		and	r2, r3, #191
 112 006e 0270     		strb	r2, [r0, #0]
 177:.\Generated_Source\PSoC5/USBFS.c **** 
 178:.\Generated_Source\PSoC5/USBFS.c ****     /* Enable USBIO */
 179:.\Generated_Source\PSoC5/USBFS.c ****     USBFS_PM_USB_CR0_REG |= USBFS_PM_USB_CR0_PD_N;
 113              		.loc 1 179 0
 114 0070 2078     		ldrb	r0, [r4, #0]	@ zero_extendqisi2
 115 0072 3043     		orrs	r0, r0, r6
 116 0074 2070     		strb	r0, [r4, #0]
 180:.\Generated_Source\PSoC5/USBFS.c ****     CyDelayUs(2u);
 117              		.loc 1 180 0
 118 0076 3046     		mov	r0, r6
 119 0078 FFF7FEFF 		bl	CyDelayUs
 120              	.LVL6:
 181:.\Generated_Source\PSoC5/USBFS.c ****     /* Set the USBIO pull-up enable */
 182:.\Generated_Source\PSoC5/USBFS.c ****     USBFS_PM_USB_CR0_REG |= USBFS_PM_USB_CR0_PD_PULLUP_N;
 121              		.loc 1 182 0
 122 007c 2178     		ldrb	r1, [r4, #0]	@ zero_extendqisi2
 183:.\Generated_Source\PSoC5/USBFS.c **** 
 184:.\Generated_Source\PSoC5/USBFS.c ****     /* Write WAx */
 185:.\Generated_Source\PSoC5/USBFS.c ****     CY_SET_REG8(USBFS_ARB_RW1_WA_PTR,     0u);
 123              		.loc 1 185 0
 124 007e 1F4A     		ldr	r2, .L2+20
 182:.\Generated_Source\PSoC5/USBFS.c ****     USBFS_PM_USB_CR0_REG |= USBFS_PM_USB_CR0_PD_PULLUP_N;
 125              		.loc 1 182 0
 126 0080 41F00403 		orr	r3, r1, #4
 127 0084 2370     		strb	r3, [r4, #0]
 128              		.loc 1 185 0
 129 0086 0024     		movs	r4, #0
 130 0088 1470     		strb	r4, [r2, #0]
 186:.\Generated_Source\PSoC5/USBFS.c ****     CY_SET_REG8(USBFS_ARB_RW1_WA_MSB_PTR, 0u);
 187:.\Generated_Source\PSoC5/USBFS.c **** 
 188:.\Generated_Source\PSoC5/USBFS.c ****     #if(USBFS_EP_MM != USBFS__EP_MANUAL)
 189:.\Generated_Source\PSoC5/USBFS.c ****         /* Init transfer descriptor. This will be used to detect the DMA state - initialized or not
 190:.\Generated_Source\PSoC5/USBFS.c ****         for (i = 0u; i < USBFS_MAX_EP; i++)
 191:.\Generated_Source\PSoC5/USBFS.c ****         {
 192:.\Generated_Source\PSoC5/USBFS.c ****             USBFS_DmaTd[i] = DMA_INVALID_TD;
 193:.\Generated_Source\PSoC5/USBFS.c ****         }
 194:.\Generated_Source\PSoC5/USBFS.c ****     #endif   /* End USBFS_EP_MM != USBFS__EP_MANUAL */
 195:.\Generated_Source\PSoC5/USBFS.c **** 
 196:.\Generated_Source\PSoC5/USBFS.c ****     CyExitCriticalSection(enableInterrupts);
 131              		.loc 1 196 0
 132 008a 3846     		mov	r0, r7
 186:.\Generated_Source\PSoC5/USBFS.c ****     CY_SET_REG8(USBFS_ARB_RW1_WA_MSB_PTR, 0u);
 133              		.loc 1 186 0
ARM GAS  C:\Users\MICHA_~1\AppData\Local\Temp\ccbOK9oc.s 			page 7


 134 008c 5470     		strb	r4, [r2, #1]
 135              		.loc 1 196 0
 136 008e FFF7FEFF 		bl	CyExitCriticalSection
 137              	.LVL7:
 197:.\Generated_Source\PSoC5/USBFS.c **** 
 198:.\Generated_Source\PSoC5/USBFS.c **** 
 199:.\Generated_Source\PSoC5/USBFS.c ****     /* Set the bus reset Interrupt. */
 200:.\Generated_Source\PSoC5/USBFS.c ****     (void) CyIntSetVector(USBFS_BUS_RESET_VECT_NUM,   &USBFS_BUS_RESET_ISR);
 138              		.loc 1 200 0
 139 0092 1720     		movs	r0, #23
 140 0094 1A49     		ldr	r1, .L2+24
 141 0096 FFF7FEFF 		bl	CyIntSetVector
 142              	.LVL8:
 201:.\Generated_Source\PSoC5/USBFS.c ****     CyIntSetPriority(USBFS_BUS_RESET_VECT_NUM, USBFS_BUS_RESET_PRIOR);
 143              		.loc 1 201 0
 144 009a 1720     		movs	r0, #23
 145 009c 0721     		movs	r1, #7
 146 009e FFF7FEFF 		bl	CyIntSetPriority
 147              	.LVL9:
 202:.\Generated_Source\PSoC5/USBFS.c **** 
 203:.\Generated_Source\PSoC5/USBFS.c ****     /* Set the SOF Interrupt. */
 204:.\Generated_Source\PSoC5/USBFS.c ****     #if(USBFS_SOF_ISR_REMOVE == 0u)
 205:.\Generated_Source\PSoC5/USBFS.c ****         (void) CyIntSetVector(USBFS_SOF_VECT_NUM,   &USBFS_SOF_ISR);
 148              		.loc 1 205 0
 149 00a2 1520     		movs	r0, #21
 150 00a4 1749     		ldr	r1, .L2+28
 151 00a6 FFF7FEFF 		bl	CyIntSetVector
 152              	.LVL10:
 206:.\Generated_Source\PSoC5/USBFS.c ****         CyIntSetPriority(USBFS_SOF_VECT_NUM, USBFS_SOF_PRIOR);
 153              		.loc 1 206 0
 154 00aa 1520     		movs	r0, #21
 155 00ac 0721     		movs	r1, #7
 156 00ae FFF7FEFF 		bl	CyIntSetPriority
 157              	.LVL11:
 207:.\Generated_Source\PSoC5/USBFS.c ****     #endif   /* End USBFS_SOF_ISR_REMOVE */
 208:.\Generated_Source\PSoC5/USBFS.c **** 
 209:.\Generated_Source\PSoC5/USBFS.c ****     /* Set the Control Endpoint Interrupt. */
 210:.\Generated_Source\PSoC5/USBFS.c ****     (void) CyIntSetVector(USBFS_EP_0_VECT_NUM,   &USBFS_EP_0_ISR);
 158              		.loc 1 210 0
 159 00b2 1820     		movs	r0, #24
 160 00b4 1449     		ldr	r1, .L2+32
 161 00b6 FFF7FEFF 		bl	CyIntSetVector
 162              	.LVL12:
 211:.\Generated_Source\PSoC5/USBFS.c ****     CyIntSetPriority(USBFS_EP_0_VECT_NUM, USBFS_EP_0_PRIOR);
 163              		.loc 1 211 0
 164 00ba 1820     		movs	r0, #24
 165 00bc 0721     		movs	r1, #7
 166 00be FFF7FEFF 		bl	CyIntSetPriority
 167              	.LVL13:
 212:.\Generated_Source\PSoC5/USBFS.c **** 
 213:.\Generated_Source\PSoC5/USBFS.c ****     /* Set the Data Endpoint 1 Interrupt. */
 214:.\Generated_Source\PSoC5/USBFS.c ****     #if(USBFS_EP1_ISR_REMOVE == 0u)
 215:.\Generated_Source\PSoC5/USBFS.c ****         (void) CyIntSetVector(USBFS_EP_1_VECT_NUM,   &USBFS_EP_1_ISR);
 168              		.loc 1 215 0
 169 00c2 2046     		mov	r0, r4
 170 00c4 1149     		ldr	r1, .L2+36
 171 00c6 FFF7FEFF 		bl	CyIntSetVector
ARM GAS  C:\Users\MICHA_~1\AppData\Local\Temp\ccbOK9oc.s 			page 8


 172              	.LVL14:
 216:.\Generated_Source\PSoC5/USBFS.c ****         CyIntSetPriority(USBFS_EP_1_VECT_NUM, USBFS_EP_1_PRIOR);
 173              		.loc 1 216 0
 174 00ca 2046     		mov	r0, r4
 175 00cc 0721     		movs	r1, #7
 176 00ce FFF7FEFF 		bl	CyIntSetPriority
 177              	.LVL15:
 217:.\Generated_Source\PSoC5/USBFS.c ****     #endif   /* End USBFS_EP1_ISR_REMOVE */
 218:.\Generated_Source\PSoC5/USBFS.c **** 
 219:.\Generated_Source\PSoC5/USBFS.c ****     /* Set the Data Endpoint 2 Interrupt. */
 220:.\Generated_Source\PSoC5/USBFS.c ****     #if(USBFS_EP2_ISR_REMOVE == 0u)
 221:.\Generated_Source\PSoC5/USBFS.c ****         (void) CyIntSetVector(USBFS_EP_2_VECT_NUM,   &USBFS_EP_2_ISR);
 178              		.loc 1 221 0
 179 00d2 2846     		mov	r0, r5
 180 00d4 0E49     		ldr	r1, .L2+40
 181 00d6 FFF7FEFF 		bl	CyIntSetVector
 182              	.LVL16:
 222:.\Generated_Source\PSoC5/USBFS.c ****         CyIntSetPriority(USBFS_EP_2_VECT_NUM, USBFS_EP_2_PRIOR);
 183              		.loc 1 222 0
 184 00da 2846     		mov	r0, r5
 185 00dc 0721     		movs	r1, #7
 223:.\Generated_Source\PSoC5/USBFS.c ****     #endif   /* End USBFS_EP2_ISR_REMOVE */
 224:.\Generated_Source\PSoC5/USBFS.c **** 
 225:.\Generated_Source\PSoC5/USBFS.c ****     /* Set the Data Endpoint 3 Interrupt. */
 226:.\Generated_Source\PSoC5/USBFS.c ****     #if(USBFS_EP3_ISR_REMOVE == 0u)
 227:.\Generated_Source\PSoC5/USBFS.c ****         (void) CyIntSetVector(USBFS_EP_3_VECT_NUM,   &USBFS_EP_3_ISR);
 228:.\Generated_Source\PSoC5/USBFS.c ****         CyIntSetPriority(USBFS_EP_3_VECT_NUM, USBFS_EP_3_PRIOR);
 229:.\Generated_Source\PSoC5/USBFS.c ****     #endif   /* End USBFS_EP3_ISR_REMOVE */
 230:.\Generated_Source\PSoC5/USBFS.c **** 
 231:.\Generated_Source\PSoC5/USBFS.c ****     /* Set the Data Endpoint 4 Interrupt. */
 232:.\Generated_Source\PSoC5/USBFS.c ****     #if(USBFS_EP4_ISR_REMOVE == 0u)
 233:.\Generated_Source\PSoC5/USBFS.c ****         (void) CyIntSetVector(USBFS_EP_4_VECT_NUM,   &USBFS_EP_4_ISR);
 234:.\Generated_Source\PSoC5/USBFS.c ****         CyIntSetPriority(USBFS_EP_4_VECT_NUM, USBFS_EP_4_PRIOR);
 235:.\Generated_Source\PSoC5/USBFS.c ****     #endif   /* End USBFS_EP4_ISR_REMOVE */
 236:.\Generated_Source\PSoC5/USBFS.c **** 
 237:.\Generated_Source\PSoC5/USBFS.c ****     /* Set the Data Endpoint 5 Interrupt. */
 238:.\Generated_Source\PSoC5/USBFS.c ****     #if(USBFS_EP5_ISR_REMOVE == 0u)
 239:.\Generated_Source\PSoC5/USBFS.c ****         (void) CyIntSetVector(USBFS_EP_5_VECT_NUM,   &USBFS_EP_5_ISR);
 240:.\Generated_Source\PSoC5/USBFS.c ****         CyIntSetPriority(USBFS_EP_5_VECT_NUM, USBFS_EP_5_PRIOR);
 241:.\Generated_Source\PSoC5/USBFS.c ****     #endif   /* End USBFS_EP5_ISR_REMOVE */
 242:.\Generated_Source\PSoC5/USBFS.c **** 
 243:.\Generated_Source\PSoC5/USBFS.c ****     /* Set the Data Endpoint 6 Interrupt. */
 244:.\Generated_Source\PSoC5/USBFS.c ****     #if(USBFS_EP6_ISR_REMOVE == 0u)
 245:.\Generated_Source\PSoC5/USBFS.c ****         (void) CyIntSetVector(USBFS_EP_6_VECT_NUM,   &USBFS_EP_6_ISR);
 246:.\Generated_Source\PSoC5/USBFS.c ****         CyIntSetPriority(USBFS_EP_6_VECT_NUM, USBFS_EP_6_PRIOR);
 247:.\Generated_Source\PSoC5/USBFS.c ****     #endif   /* End USBFS_EP6_ISR_REMOVE */
 248:.\Generated_Source\PSoC5/USBFS.c **** 
 249:.\Generated_Source\PSoC5/USBFS.c ****      /* Set the Data Endpoint 7 Interrupt. */
 250:.\Generated_Source\PSoC5/USBFS.c ****     #if(USBFS_EP7_ISR_REMOVE == 0u)
 251:.\Generated_Source\PSoC5/USBFS.c ****         (void) CyIntSetVector(USBFS_EP_7_VECT_NUM,   &USBFS_EP_7_ISR);
 252:.\Generated_Source\PSoC5/USBFS.c ****         CyIntSetPriority(USBFS_EP_7_VECT_NUM, USBFS_EP_7_PRIOR);
 253:.\Generated_Source\PSoC5/USBFS.c ****     #endif   /* End USBFS_EP7_ISR_REMOVE */
 254:.\Generated_Source\PSoC5/USBFS.c **** 
 255:.\Generated_Source\PSoC5/USBFS.c ****     /* Set the Data Endpoint 8 Interrupt. */
 256:.\Generated_Source\PSoC5/USBFS.c ****     #if(USBFS_EP8_ISR_REMOVE == 0u)
 257:.\Generated_Source\PSoC5/USBFS.c ****         (void) CyIntSetVector(USBFS_EP_8_VECT_NUM,   &USBFS_EP_8_ISR);
 258:.\Generated_Source\PSoC5/USBFS.c ****         CyIntSetPriority(USBFS_EP_8_VECT_NUM, USBFS_EP_8_PRIOR);
ARM GAS  C:\Users\MICHA_~1\AppData\Local\Temp\ccbOK9oc.s 			page 9


 259:.\Generated_Source\PSoC5/USBFS.c ****     #endif   /* End USBFS_EP8_ISR_REMOVE */
 260:.\Generated_Source\PSoC5/USBFS.c **** 
 261:.\Generated_Source\PSoC5/USBFS.c ****     #if((USBFS_EP_MM != USBFS__EP_MANUAL) && (USBFS_ARB_ISR_REMOVE == 0u))
 262:.\Generated_Source\PSoC5/USBFS.c ****         /* Set the ARB Interrupt. */
 263:.\Generated_Source\PSoC5/USBFS.c ****         (void) CyIntSetVector(USBFS_ARB_VECT_NUM,   &USBFS_ARB_ISR);
 264:.\Generated_Source\PSoC5/USBFS.c ****         CyIntSetPriority(USBFS_ARB_VECT_NUM, USBFS_ARB_PRIOR);
 265:.\Generated_Source\PSoC5/USBFS.c ****     #endif   /* End USBFS_EP_MM != USBFS__EP_MANUAL */
 266:.\Generated_Source\PSoC5/USBFS.c **** 
 267:.\Generated_Source\PSoC5/USBFS.c **** }
 186              		.loc 1 267 0
 187 00de BDE8F840 		pop	{r3, r4, r5, r6, r7, lr}
 222:.\Generated_Source\PSoC5/USBFS.c ****         CyIntSetPriority(USBFS_EP_2_VECT_NUM, USBFS_EP_2_PRIOR);
 188              		.loc 1 222 0
 189 00e2 FFF7FEBF 		b	CyIntSetPriority
 190              	.LVL17:
 191              	.L3:
 192 00e6 00BF     		.align	2
 193              	.L2:
 194 00e8 A5430040 		.word	1073759141
 195 00ec 9D600040 		.word	1073766557
 196 00f0 94430040 		.word	1073759124
 197 00f4 12600040 		.word	1073766418
 198 00f8 F8510040 		.word	1073762808
 199 00fc 84600040 		.word	1073766532
 200 0100 00000000 		.word	USBFS_BUS_RESET_ISR
 201 0104 00000000 		.word	USBFS_SOF_ISR
 202 0108 00000000 		.word	USBFS_EP_0_ISR
 203 010c 00000000 		.word	USBFS_EP_1_ISR
 204 0110 00000000 		.word	USBFS_EP_2_ISR
 205              		.cfi_endproc
 206              	.LFE1:
 207              		.size	USBFS_Init, .-USBFS_Init
 208              		.section	.text.USBFS_InitComponent,"ax",%progbits
 209              		.align	1
 210              		.global	USBFS_InitComponent
 211              		.thumb
 212              		.thumb_func
 213              		.type	USBFS_InitComponent, %function
 214              	USBFS_InitComponent:
 215              	.LFB2:
 268:.\Generated_Source\PSoC5/USBFS.c **** 
 269:.\Generated_Source\PSoC5/USBFS.c **** 
 270:.\Generated_Source\PSoC5/USBFS.c **** /*******************************************************************************
 271:.\Generated_Source\PSoC5/USBFS.c **** * Function Name: USBFS_InitComponent
 272:.\Generated_Source\PSoC5/USBFS.c **** ********************************************************************************
 273:.\Generated_Source\PSoC5/USBFS.c **** *
 274:.\Generated_Source\PSoC5/USBFS.c **** * Summary:
 275:.\Generated_Source\PSoC5/USBFS.c **** *  Initialize the component, except for the HW which is done one time in
 276:.\Generated_Source\PSoC5/USBFS.c **** *  the Start function.  This function pulls up D+.
 277:.\Generated_Source\PSoC5/USBFS.c **** *
 278:.\Generated_Source\PSoC5/USBFS.c **** * Parameters:
 279:.\Generated_Source\PSoC5/USBFS.c **** *  device: Contains the device number of the desired device descriptor.
 280:.\Generated_Source\PSoC5/USBFS.c **** *          The device number can be found in the Device Descriptor Tab of
 281:.\Generated_Source\PSoC5/USBFS.c **** *          "Configure" dialog, under the settings of desired Device Descriptor,
 282:.\Generated_Source\PSoC5/USBFS.c **** *          in the "Device Number" field.
 283:.\Generated_Source\PSoC5/USBFS.c **** *  mode: The operating voltage. This determines whether the voltage regulator
 284:.\Generated_Source\PSoC5/USBFS.c **** *        is enabled for 5V operation or if pass through mode is used for 3.3V
ARM GAS  C:\Users\MICHA_~1\AppData\Local\Temp\ccbOK9oc.s 			page 10


 285:.\Generated_Source\PSoC5/USBFS.c **** *        operation. Symbolic names and their associated values are given in the
 286:.\Generated_Source\PSoC5/USBFS.c **** *        following table.
 287:.\Generated_Source\PSoC5/USBFS.c **** *       USBFS_3V_OPERATION - Disable voltage regulator and pass-thru
 288:.\Generated_Source\PSoC5/USBFS.c **** *                                       Vcc for pull-up
 289:.\Generated_Source\PSoC5/USBFS.c **** *       USBFS_5V_OPERATION - Enable voltage regulator and use
 290:.\Generated_Source\PSoC5/USBFS.c **** *                                       regulator for pull-up
 291:.\Generated_Source\PSoC5/USBFS.c **** *       USBFS_DWR_VDDD_OPERATION - Enable or Disable voltage
 292:.\Generated_Source\PSoC5/USBFS.c **** *                         regulator depend on Vddd Voltage configuration in DWR.
 293:.\Generated_Source\PSoC5/USBFS.c **** *
 294:.\Generated_Source\PSoC5/USBFS.c **** * Return:
 295:.\Generated_Source\PSoC5/USBFS.c **** *   None.
 296:.\Generated_Source\PSoC5/USBFS.c **** *
 297:.\Generated_Source\PSoC5/USBFS.c **** * Global variables:
 298:.\Generated_Source\PSoC5/USBFS.c **** *   USBFS_device: Contains the device number of the desired device
 299:.\Generated_Source\PSoC5/USBFS.c **** *       descriptor. The device number can be found in the Device Descriptor Tab
 300:.\Generated_Source\PSoC5/USBFS.c **** *       of "Configure" dialog, under the settings of desired Device Descriptor,
 301:.\Generated_Source\PSoC5/USBFS.c **** *       in the "Device Number" field.
 302:.\Generated_Source\PSoC5/USBFS.c **** *   USBFS_transferState: This variable used by the communication
 303:.\Generated_Source\PSoC5/USBFS.c **** *       functions to handle current transfer state. Initialized to
 304:.\Generated_Source\PSoC5/USBFS.c **** *       TRANS_STATE_IDLE in this API.
 305:.\Generated_Source\PSoC5/USBFS.c **** *   USBFS_configuration: Contains current configuration number
 306:.\Generated_Source\PSoC5/USBFS.c **** *       which is set by the Host using SET_CONFIGURATION request.
 307:.\Generated_Source\PSoC5/USBFS.c **** *       Initialized to zero in this API.
 308:.\Generated_Source\PSoC5/USBFS.c **** *   USBFS_deviceAddress: Contains current device address. This
 309:.\Generated_Source\PSoC5/USBFS.c **** *       variable is initialized to zero in this API. Host starts to communicate
 310:.\Generated_Source\PSoC5/USBFS.c **** *      to device with address 0 and then set it to whatever value using
 311:.\Generated_Source\PSoC5/USBFS.c **** *      SET_ADDRESS request.
 312:.\Generated_Source\PSoC5/USBFS.c **** *   USBFS_deviceStatus: initialized to 0.
 313:.\Generated_Source\PSoC5/USBFS.c **** *       This is two bit variable which contain power status in first bit
 314:.\Generated_Source\PSoC5/USBFS.c **** *       (DEVICE_STATUS_BUS_POWERED or DEVICE_STATUS_SELF_POWERED) and remote
 315:.\Generated_Source\PSoC5/USBFS.c **** *       wakeup status (DEVICE_STATUS_REMOTE_WAKEUP) in second bit.
 316:.\Generated_Source\PSoC5/USBFS.c **** *   USBFS_lastPacketSize initialized to 0;
 317:.\Generated_Source\PSoC5/USBFS.c **** *
 318:.\Generated_Source\PSoC5/USBFS.c **** * Reentrant:
 319:.\Generated_Source\PSoC5/USBFS.c **** *  No.
 320:.\Generated_Source\PSoC5/USBFS.c **** *
 321:.\Generated_Source\PSoC5/USBFS.c **** *******************************************************************************/
 322:.\Generated_Source\PSoC5/USBFS.c **** void USBFS_InitComponent(uint8 device, uint8 mode) 
 323:.\Generated_Source\PSoC5/USBFS.c **** {
 216              		.loc 1 323 0
 217              		.cfi_startproc
 218              		@ args = 0, pretend = 0, frame = 0
 219              		@ frame_needed = 0, uses_anonymous_args = 0
 220              	.LVL18:
 324:.\Generated_Source\PSoC5/USBFS.c ****     /* Initialize _hidProtocol variable to comply with
 325:.\Generated_Source\PSoC5/USBFS.c ****     *  HID 7.2.6 Set_Protocol Request:
 326:.\Generated_Source\PSoC5/USBFS.c ****     *  "When initialized, all devices default to report protocol."
 327:.\Generated_Source\PSoC5/USBFS.c ****     */
 328:.\Generated_Source\PSoC5/USBFS.c ****     #if defined(USBFS_ENABLE_HID_CLASS)
 329:.\Generated_Source\PSoC5/USBFS.c ****         uint8 i;
 330:.\Generated_Source\PSoC5/USBFS.c **** 
 331:.\Generated_Source\PSoC5/USBFS.c ****         for (i = 0u; i < USBFS_MAX_INTERFACES_NUMBER; i++)
 332:.\Generated_Source\PSoC5/USBFS.c ****         {
 333:.\Generated_Source\PSoC5/USBFS.c ****             USBFS_hidProtocol[i] = USBFS_PROTOCOL_REPORT;
 221              		.loc 1 333 0
 222 0000 184B     		ldr	r3, .L11
 223 0002 0122     		movs	r2, #1
ARM GAS  C:\Users\MICHA_~1\AppData\Local\Temp\ccbOK9oc.s 			page 11


 323:.\Generated_Source\PSoC5/USBFS.c **** {
 224              		.loc 1 323 0
 225 0004 10B5     		push	{r4, lr}
 226              	.LCFI1:
 227              		.cfi_def_cfa_offset 8
 228              		.cfi_offset 4, -8
 229              		.cfi_offset 14, -4
 230              		.loc 1 333 0
 231 0006 1A70     		strb	r2, [r3, #0]
 232              	.LVL19:
 334:.\Generated_Source\PSoC5/USBFS.c ****         }
 335:.\Generated_Source\PSoC5/USBFS.c ****     #endif /* USBFS_ENABLE_HID_CLASS */
 336:.\Generated_Source\PSoC5/USBFS.c **** 
 337:.\Generated_Source\PSoC5/USBFS.c ****     /* Enable Interrupts. */
 338:.\Generated_Source\PSoC5/USBFS.c ****     CyIntEnable(USBFS_BUS_RESET_VECT_NUM);
 233              		.loc 1 338 0
 234 0008 174B     		ldr	r3, .L11+4
 235 000a 4FF40004 		mov	r4, #8388608
 236 000e 1C60     		str	r4, [r3, #0]
 339:.\Generated_Source\PSoC5/USBFS.c ****     CyIntEnable(USBFS_EP_0_VECT_NUM);
 237              		.loc 1 339 0
 238 0010 4FF08074 		mov	r4, #16777216
 239 0014 1C60     		str	r4, [r3, #0]
 340:.\Generated_Source\PSoC5/USBFS.c ****     #if(USBFS_EP1_ISR_REMOVE == 0u)
 341:.\Generated_Source\PSoC5/USBFS.c ****         CyIntEnable(USBFS_EP_1_VECT_NUM);
 240              		.loc 1 341 0
 241 0016 1A60     		str	r2, [r3, #0]
 342:.\Generated_Source\PSoC5/USBFS.c ****     #endif   /* End USBFS_EP1_ISR_REMOVE */
 343:.\Generated_Source\PSoC5/USBFS.c ****     #if(USBFS_EP2_ISR_REMOVE == 0u)
 344:.\Generated_Source\PSoC5/USBFS.c ****         CyIntEnable(USBFS_EP_2_VECT_NUM);
 242              		.loc 1 344 0
 243 0018 0222     		movs	r2, #2
 244 001a 1A60     		str	r2, [r3, #0]
 345:.\Generated_Source\PSoC5/USBFS.c ****     #endif   /* End USBFS_EP2_ISR_REMOVE */
 346:.\Generated_Source\PSoC5/USBFS.c ****     #if(USBFS_EP3_ISR_REMOVE == 0u)
 347:.\Generated_Source\PSoC5/USBFS.c ****         CyIntEnable(USBFS_EP_3_VECT_NUM);
 348:.\Generated_Source\PSoC5/USBFS.c ****     #endif   /* End USBFS_EP3_ISR_REMOVE */
 349:.\Generated_Source\PSoC5/USBFS.c ****     #if(USBFS_EP4_ISR_REMOVE == 0u)
 350:.\Generated_Source\PSoC5/USBFS.c ****         CyIntEnable(USBFS_EP_4_VECT_NUM);
 351:.\Generated_Source\PSoC5/USBFS.c ****     #endif   /* End USBFS_EP4_ISR_REMOVE */
 352:.\Generated_Source\PSoC5/USBFS.c ****     #if(USBFS_EP5_ISR_REMOVE == 0u)
 353:.\Generated_Source\PSoC5/USBFS.c ****         CyIntEnable(USBFS_EP_5_VECT_NUM);
 354:.\Generated_Source\PSoC5/USBFS.c ****     #endif   /* End USBFS_EP5_ISR_REMOVE */
 355:.\Generated_Source\PSoC5/USBFS.c ****     #if(USBFS_EP6_ISR_REMOVE == 0u)
 356:.\Generated_Source\PSoC5/USBFS.c ****         CyIntEnable(USBFS_EP_6_VECT_NUM);
 357:.\Generated_Source\PSoC5/USBFS.c ****     #endif   /* End USBFS_EP6_ISR_REMOVE */
 358:.\Generated_Source\PSoC5/USBFS.c ****     #if(USBFS_EP7_ISR_REMOVE == 0u)
 359:.\Generated_Source\PSoC5/USBFS.c ****         CyIntEnable(USBFS_EP_7_VECT_NUM);
 360:.\Generated_Source\PSoC5/USBFS.c ****     #endif   /* End USBFS_EP7_ISR_REMOVE */
 361:.\Generated_Source\PSoC5/USBFS.c ****     #if(USBFS_EP8_ISR_REMOVE == 0u)
 362:.\Generated_Source\PSoC5/USBFS.c ****         CyIntEnable(USBFS_EP_8_VECT_NUM);
 363:.\Generated_Source\PSoC5/USBFS.c ****     #endif   /* End USBFS_EP8_ISR_REMOVE */
 364:.\Generated_Source\PSoC5/USBFS.c ****     #if((USBFS_EP_MM != USBFS__EP_MANUAL) && (USBFS_ARB_ISR_REMOVE == 0u))
 365:.\Generated_Source\PSoC5/USBFS.c ****         /* usb arb interrupt enable */
 366:.\Generated_Source\PSoC5/USBFS.c ****         USBFS_ARB_INT_EN_REG = USBFS_ARB_INT_MASK;
 367:.\Generated_Source\PSoC5/USBFS.c ****         CyIntEnable(USBFS_ARB_VECT_NUM);
 368:.\Generated_Source\PSoC5/USBFS.c ****     #endif   /* End USBFS_EP_MM != USBFS__EP_MANUAL */
ARM GAS  C:\Users\MICHA_~1\AppData\Local\Temp\ccbOK9oc.s 			page 12


 369:.\Generated_Source\PSoC5/USBFS.c **** 
 370:.\Generated_Source\PSoC5/USBFS.c ****     /* Arbiter configuration for DMA transfers */
 371:.\Generated_Source\PSoC5/USBFS.c ****     #if(USBFS_EP_MM != USBFS__EP_MANUAL)
 372:.\Generated_Source\PSoC5/USBFS.c **** 
 373:.\Generated_Source\PSoC5/USBFS.c ****         #if(USBFS_EP_MM == USBFS__EP_DMAMANUAL)
 374:.\Generated_Source\PSoC5/USBFS.c ****             USBFS_ARB_CFG_REG = USBFS_ARB_CFG_MANUAL_DMA;
 375:.\Generated_Source\PSoC5/USBFS.c ****         #endif   /* End USBFS_EP_MM == USBFS__EP_DMAMANUAL */
 376:.\Generated_Source\PSoC5/USBFS.c ****         #if(USBFS_EP_MM == USBFS__EP_DMAAUTO)
 377:.\Generated_Source\PSoC5/USBFS.c ****             /*Set cfg cmplt this rises DMA request when the full configuration is done */
 378:.\Generated_Source\PSoC5/USBFS.c ****             USBFS_ARB_CFG_REG = USBFS_ARB_CFG_AUTO_DMA | USBFS_ARB_CFG_AUTO_MEM;
 379:.\Generated_Source\PSoC5/USBFS.c ****         #endif   /* End USBFS_EP_MM == USBFS__EP_DMAAUTO */
 380:.\Generated_Source\PSoC5/USBFS.c ****     #endif   /* End USBFS_EP_MM != USBFS__EP_MANUAL */
 381:.\Generated_Source\PSoC5/USBFS.c **** 
 382:.\Generated_Source\PSoC5/USBFS.c ****     USBFS_transferState = USBFS_TRANS_STATE_IDLE;
 245              		.loc 1 382 0
 246 001c 134B     		ldr	r3, .L11+8
 247 001e 0024     		movs	r4, #0
 248 0020 1C70     		strb	r4, [r3, #0]
 249 0022 134B     		ldr	r3, .L11+12
 383:.\Generated_Source\PSoC5/USBFS.c **** 
 384:.\Generated_Source\PSoC5/USBFS.c ****     /* USB Locking: Enabled, VRegulator: depend on mode or DWR Voltage configuration*/
 385:.\Generated_Source\PSoC5/USBFS.c ****     switch(mode)
 250              		.loc 1 385 0
 251 0024 01B1     		cbz	r1, .L9
 252 0026 0322     		movs	r2, #3
 253              	.L9:
 386:.\Generated_Source\PSoC5/USBFS.c ****     {
 387:.\Generated_Source\PSoC5/USBFS.c ****         case USBFS_3V_OPERATION:
 388:.\Generated_Source\PSoC5/USBFS.c ****             USBFS_CR1_REG = USBFS_CR1_ENABLE_LOCK;
 389:.\Generated_Source\PSoC5/USBFS.c ****             break;
 390:.\Generated_Source\PSoC5/USBFS.c ****         case USBFS_5V_OPERATION:
 391:.\Generated_Source\PSoC5/USBFS.c ****             USBFS_CR1_REG = USBFS_CR1_ENABLE_LOCK | USBFS_CR1_REG_ENABLE;
 392:.\Generated_Source\PSoC5/USBFS.c ****             break;
 393:.\Generated_Source\PSoC5/USBFS.c ****         default:   /*USBFS_DWR_VDDD_OPERATION */
 394:.\Generated_Source\PSoC5/USBFS.c ****             #if(USBFS_VDDD_MV < USBFS_3500MV)
 395:.\Generated_Source\PSoC5/USBFS.c ****                 USBFS_CR1_REG = USBFS_CR1_ENABLE_LOCK;
 396:.\Generated_Source\PSoC5/USBFS.c ****             #else
 397:.\Generated_Source\PSoC5/USBFS.c ****                 USBFS_CR1_REG = USBFS_CR1_ENABLE_LOCK | USBFS_CR1_REG_ENABLE;
 398:.\Generated_Source\PSoC5/USBFS.c ****             #endif /* End USBFS_VDDD_MV < USBFS_3500MV */
 399:.\Generated_Source\PSoC5/USBFS.c ****             break;
 400:.\Generated_Source\PSoC5/USBFS.c ****     }
 401:.\Generated_Source\PSoC5/USBFS.c **** 
 402:.\Generated_Source\PSoC5/USBFS.c ****     /* Record the descriptor selection */
 403:.\Generated_Source\PSoC5/USBFS.c ****     USBFS_device = device;
 254              		.loc 1 403 0
 255 0028 1249     		ldr	r1, .L11+16
 256              	.LVL20:
 397:.\Generated_Source\PSoC5/USBFS.c ****                 USBFS_CR1_REG = USBFS_CR1_ENABLE_LOCK | USBFS_CR1_REG_ENABLE;
 257              		.loc 1 397 0
 258 002a 1A70     		strb	r2, [r3, #0]
 404:.\Generated_Source\PSoC5/USBFS.c **** 
 405:.\Generated_Source\PSoC5/USBFS.c ****     /* Clear all of the component data */
 406:.\Generated_Source\PSoC5/USBFS.c ****     USBFS_configuration = 0u;
 259              		.loc 1 406 0
 260 002c 124B     		ldr	r3, .L11+20
 403:.\Generated_Source\PSoC5/USBFS.c ****     USBFS_device = device;
 261              		.loc 1 403 0
ARM GAS  C:\Users\MICHA_~1\AppData\Local\Temp\ccbOK9oc.s 			page 13


 262 002e 0870     		strb	r0, [r1, #0]
 407:.\Generated_Source\PSoC5/USBFS.c ****     USBFS_interfaceNumber = 0u;
 263              		.loc 1 407 0
 264 0030 124A     		ldr	r2, .L11+24
 406:.\Generated_Source\PSoC5/USBFS.c ****     USBFS_configuration = 0u;
 265              		.loc 1 406 0
 266 0032 0020     		movs	r0, #0
 267              	.LVL21:
 408:.\Generated_Source\PSoC5/USBFS.c ****     USBFS_configurationChanged = 0u;
 268              		.loc 1 408 0
 269 0034 1249     		ldr	r1, .L11+28
 270              	.LVL22:
 406:.\Generated_Source\PSoC5/USBFS.c ****     USBFS_configuration = 0u;
 271              		.loc 1 406 0
 272 0036 1870     		strb	r0, [r3, #0]
 409:.\Generated_Source\PSoC5/USBFS.c ****     USBFS_deviceAddress  = 0u;
 273              		.loc 1 409 0
 274 0038 124B     		ldr	r3, .L11+32
 407:.\Generated_Source\PSoC5/USBFS.c ****     USBFS_interfaceNumber = 0u;
 275              		.loc 1 407 0
 276 003a 1070     		strb	r0, [r2, #0]
 408:.\Generated_Source\PSoC5/USBFS.c ****     USBFS_configurationChanged = 0u;
 277              		.loc 1 408 0
 278 003c 0870     		strb	r0, [r1, #0]
 410:.\Generated_Source\PSoC5/USBFS.c ****     USBFS_deviceStatus = 0u;
 279              		.loc 1 410 0
 280 003e 124A     		ldr	r2, .L11+36
 411:.\Generated_Source\PSoC5/USBFS.c **** 
 412:.\Generated_Source\PSoC5/USBFS.c ****     USBFS_lastPacketSize = 0u;
 281              		.loc 1 412 0
 282 0040 1249     		ldr	r1, .L11+40
 409:.\Generated_Source\PSoC5/USBFS.c ****     USBFS_deviceAddress  = 0u;
 283              		.loc 1 409 0
 284 0042 1870     		strb	r0, [r3, #0]
 413:.\Generated_Source\PSoC5/USBFS.c **** 
 414:.\Generated_Source\PSoC5/USBFS.c ****     /*  ACK Setup, Stall IN/OUT */
 415:.\Generated_Source\PSoC5/USBFS.c ****     CY_SET_REG8(USBFS_EP0_CR_PTR, USBFS_MODE_STALL_IN_OUT);
 285              		.loc 1 415 0
 286 0044 124B     		ldr	r3, .L11+44
 410:.\Generated_Source\PSoC5/USBFS.c ****     USBFS_deviceStatus = 0u;
 287              		.loc 1 410 0
 288 0046 1070     		strb	r0, [r2, #0]
 412:.\Generated_Source\PSoC5/USBFS.c ****     USBFS_lastPacketSize = 0u;
 289              		.loc 1 412 0
 290 0048 0870     		strb	r0, [r1, #0]
 416:.\Generated_Source\PSoC5/USBFS.c **** 
 417:.\Generated_Source\PSoC5/USBFS.c ****     /* Enable the SIE with an address 0 */
 418:.\Generated_Source\PSoC5/USBFS.c ****     CY_SET_REG8(USBFS_CR0_PTR, USBFS_CR0_ENABLE);
 291              		.loc 1 418 0
 292 004a 8022     		movs	r2, #128
 415:.\Generated_Source\PSoC5/USBFS.c ****     CY_SET_REG8(USBFS_EP0_CR_PTR, USBFS_MODE_STALL_IN_OUT);
 293              		.loc 1 415 0
 294 004c 0320     		movs	r0, #3
 295 004e 1870     		strb	r0, [r3, #0]
 419:.\Generated_Source\PSoC5/USBFS.c **** 
 420:.\Generated_Source\PSoC5/USBFS.c ****     /* Workaround for PSOC5LP */
 421:.\Generated_Source\PSoC5/USBFS.c ****     CyDelayCycles(1u);
ARM GAS  C:\Users\MICHA_~1\AppData\Local\Temp\ccbOK9oc.s 			page 14


 296              		.loc 1 421 0
 297 0050 0120     		movs	r0, #1
 418:.\Generated_Source\PSoC5/USBFS.c ****     CY_SET_REG8(USBFS_CR0_PTR, USBFS_CR0_ENABLE);
 298              		.loc 1 418 0
 299 0052 03F8202C 		strb	r2, [r3, #-32]
 300              		.loc 1 421 0
 301 0056 FFF7FEFF 		bl	CyDelayCycles
 302              	.LVL23:
 422:.\Generated_Source\PSoC5/USBFS.c **** 
 423:.\Generated_Source\PSoC5/USBFS.c ****     /* Finally, Enable d+ pullup and select iomode to USB mode*/
 424:.\Generated_Source\PSoC5/USBFS.c ****     CY_SET_REG8(USBFS_USBIO_CR1_PTR, USBFS_USBIO_CR1_USBPUEN);
 303              		.loc 1 424 0
 304 005a 0E48     		ldr	r0, .L11+48
 305 005c 0421     		movs	r1, #4
 306 005e 0170     		strb	r1, [r0, #0]
 307 0060 10BD     		pop	{r4, pc}
 308              	.L12:
 309 0062 00BF     		.align	2
 310              	.L11:
 311 0064 00000000 		.word	USBFS_hidProtocol
 312 0068 00E100E0 		.word	-536813312
 313 006c 00000000 		.word	USBFS_transferState
 314 0070 09600040 		.word	1073766409
 315 0074 00000000 		.word	USBFS_device
 316 0078 00000000 		.word	USBFS_configuration
 317 007c 00000000 		.word	USBFS_interfaceNumber
 318 0080 00000000 		.word	USBFS_configurationChanged
 319 0084 00000000 		.word	USBFS_deviceAddress
 320 0088 00000000 		.word	USBFS_deviceStatus
 321 008c 00000000 		.word	USBFS_lastPacketSize
 322 0090 28600040 		.word	1073766440
 323 0094 12600040 		.word	1073766418
 324              		.cfi_endproc
 325              	.LFE2:
 326              		.size	USBFS_InitComponent, .-USBFS_InitComponent
 327              		.section	.text.USBFS_Start,"ax",%progbits
 328              		.align	1
 329              		.global	USBFS_Start
 330              		.thumb
 331              		.thumb_func
 332              		.type	USBFS_Start, %function
 333              	USBFS_Start:
 334              	.LFB0:
 107:.\Generated_Source\PSoC5/USBFS.c **** {
 335              		.loc 1 107 0
 336              		.cfi_startproc
 337              		@ args = 0, pretend = 0, frame = 0
 338              		@ frame_needed = 0, uses_anonymous_args = 0
 339              	.LVL24:
 340 0000 70B5     		push	{r4, r5, r6, lr}
 341              	.LCFI2:
 342              		.cfi_def_cfa_offset 16
 343              		.cfi_offset 4, -16
 344              		.cfi_offset 5, -12
 345              		.cfi_offset 6, -8
 346              		.cfi_offset 14, -4
 109:.\Generated_Source\PSoC5/USBFS.c ****     if(USBFS_initVar == 0u)
ARM GAS  C:\Users\MICHA_~1\AppData\Local\Temp\ccbOK9oc.s 			page 15


 347              		.loc 1 109 0
 348 0002 074C     		ldr	r4, .L15
 107:.\Generated_Source\PSoC5/USBFS.c **** {
 349              		.loc 1 107 0
 350 0004 0646     		mov	r6, r0
 109:.\Generated_Source\PSoC5/USBFS.c ****     if(USBFS_initVar == 0u)
 351              		.loc 1 109 0
 352 0006 2378     		ldrb	r3, [r4, #0]	@ zero_extendqisi2
 107:.\Generated_Source\PSoC5/USBFS.c **** {
 353              		.loc 1 107 0
 354 0008 0D46     		mov	r5, r1
 109:.\Generated_Source\PSoC5/USBFS.c ****     if(USBFS_initVar == 0u)
 355              		.loc 1 109 0
 356 000a 1BB9     		cbnz	r3, .L14
 111:.\Generated_Source\PSoC5/USBFS.c ****         USBFS_Init();
 357              		.loc 1 111 0
 358 000c FFF7FEFF 		bl	USBFS_Init
 359              	.LVL25:
 112:.\Generated_Source\PSoC5/USBFS.c ****         USBFS_initVar = 1u;
 360              		.loc 1 112 0
 361 0010 0120     		movs	r0, #1
 362 0012 2070     		strb	r0, [r4, #0]
 363              	.L14:
 114:.\Generated_Source\PSoC5/USBFS.c ****     USBFS_InitComponent(device, mode);
 364              		.loc 1 114 0
 365 0014 3046     		mov	r0, r6
 366 0016 2946     		mov	r1, r5
 115:.\Generated_Source\PSoC5/USBFS.c **** }
 367              		.loc 1 115 0
 368 0018 BDE87040 		pop	{r4, r5, r6, lr}
 114:.\Generated_Source\PSoC5/USBFS.c ****     USBFS_InitComponent(device, mode);
 369              		.loc 1 114 0
 370 001c FFF7FEBF 		b	USBFS_InitComponent
 371              	.LVL26:
 372              	.L16:
 373              		.align	2
 374              	.L15:
 375 0020 00000000 		.word	.LANCHOR0
 376              		.cfi_endproc
 377              	.LFE0:
 378              		.size	USBFS_Start, .-USBFS_Start
 379              		.section	.text.USBFS_ReInitComponent,"ax",%progbits
 380              		.align	1
 381              		.global	USBFS_ReInitComponent
 382              		.thumb
 383              		.thumb_func
 384              		.type	USBFS_ReInitComponent, %function
 385              	USBFS_ReInitComponent:
 386              	.LFB3:
 425:.\Generated_Source\PSoC5/USBFS.c **** }
 426:.\Generated_Source\PSoC5/USBFS.c **** 
 427:.\Generated_Source\PSoC5/USBFS.c **** 
 428:.\Generated_Source\PSoC5/USBFS.c **** /*******************************************************************************
 429:.\Generated_Source\PSoC5/USBFS.c **** * Function Name: USBFS_ReInitComponent
 430:.\Generated_Source\PSoC5/USBFS.c **** ********************************************************************************
 431:.\Generated_Source\PSoC5/USBFS.c **** *
 432:.\Generated_Source\PSoC5/USBFS.c **** * Summary:
ARM GAS  C:\Users\MICHA_~1\AppData\Local\Temp\ccbOK9oc.s 			page 16


 433:.\Generated_Source\PSoC5/USBFS.c **** *  This function reinitialize the component configuration and is
 434:.\Generated_Source\PSoC5/USBFS.c **** *  intend to be called from the Reset interrupt.
 435:.\Generated_Source\PSoC5/USBFS.c **** *
 436:.\Generated_Source\PSoC5/USBFS.c **** * Parameters:
 437:.\Generated_Source\PSoC5/USBFS.c **** *  None.
 438:.\Generated_Source\PSoC5/USBFS.c **** *
 439:.\Generated_Source\PSoC5/USBFS.c **** * Return:
 440:.\Generated_Source\PSoC5/USBFS.c **** *   None.
 441:.\Generated_Source\PSoC5/USBFS.c **** *
 442:.\Generated_Source\PSoC5/USBFS.c **** * Global variables:
 443:.\Generated_Source\PSoC5/USBFS.c **** *   USBFS_device: Contains the device number of the desired device
 444:.\Generated_Source\PSoC5/USBFS.c **** *        descriptor. The device number can be found in the Device Descriptor Tab
 445:.\Generated_Source\PSoC5/USBFS.c **** *       of "Configure" dialog, under the settings of desired Device Descriptor,
 446:.\Generated_Source\PSoC5/USBFS.c **** *       in the "Device Number" field.
 447:.\Generated_Source\PSoC5/USBFS.c **** *   USBFS_transferState: This variable used by the communication
 448:.\Generated_Source\PSoC5/USBFS.c **** *       functions to handle current transfer state. Initialized to
 449:.\Generated_Source\PSoC5/USBFS.c **** *       TRANS_STATE_IDLE in this API.
 450:.\Generated_Source\PSoC5/USBFS.c **** *   USBFS_configuration: Contains current configuration number
 451:.\Generated_Source\PSoC5/USBFS.c **** *       which is set by the Host using SET_CONFIGURATION request.
 452:.\Generated_Source\PSoC5/USBFS.c **** *       Initialized to zero in this API.
 453:.\Generated_Source\PSoC5/USBFS.c **** *   USBFS_deviceAddress: Contains current device address. This
 454:.\Generated_Source\PSoC5/USBFS.c **** *       variable is initialized to zero in this API. Host starts to communicate
 455:.\Generated_Source\PSoC5/USBFS.c **** *      to device with address 0 and then set it to whatever value using
 456:.\Generated_Source\PSoC5/USBFS.c **** *      SET_ADDRESS request.
 457:.\Generated_Source\PSoC5/USBFS.c **** *   USBFS_deviceStatus: initialized to 0.
 458:.\Generated_Source\PSoC5/USBFS.c **** *       This is two bit variable which contain power status in first bit
 459:.\Generated_Source\PSoC5/USBFS.c **** *       (DEVICE_STATUS_BUS_POWERED or DEVICE_STATUS_SELF_POWERED) and remote
 460:.\Generated_Source\PSoC5/USBFS.c **** *       wakeup status (DEVICE_STATUS_REMOTE_WAKEUP) in second bit.
 461:.\Generated_Source\PSoC5/USBFS.c **** *   USBFS_lastPacketSize initialized to 0;
 462:.\Generated_Source\PSoC5/USBFS.c **** *
 463:.\Generated_Source\PSoC5/USBFS.c **** * Reentrant:
 464:.\Generated_Source\PSoC5/USBFS.c **** *  No.
 465:.\Generated_Source\PSoC5/USBFS.c **** *
 466:.\Generated_Source\PSoC5/USBFS.c **** *******************************************************************************/
 467:.\Generated_Source\PSoC5/USBFS.c **** void USBFS_ReInitComponent(void) 
 468:.\Generated_Source\PSoC5/USBFS.c **** {
 387              		.loc 1 468 0
 388              		.cfi_startproc
 389              		@ args = 0, pretend = 0, frame = 0
 390              		@ frame_needed = 0, uses_anonymous_args = 0
 391              		@ link register save eliminated.
 392              	.LVL27:
 469:.\Generated_Source\PSoC5/USBFS.c ****     /* Initialize _hidProtocol variable to comply with HID 7.2.6 Set_Protocol
 470:.\Generated_Source\PSoC5/USBFS.c ****     *  Request: "When initialized, all devices default to report protocol."
 471:.\Generated_Source\PSoC5/USBFS.c ****     */
 472:.\Generated_Source\PSoC5/USBFS.c ****     #if defined(USBFS_ENABLE_HID_CLASS)
 473:.\Generated_Source\PSoC5/USBFS.c ****         uint8 i;
 474:.\Generated_Source\PSoC5/USBFS.c **** 
 475:.\Generated_Source\PSoC5/USBFS.c ****         for (i = 0u; i < USBFS_MAX_INTERFACES_NUMBER; i++)
 476:.\Generated_Source\PSoC5/USBFS.c ****         {
 477:.\Generated_Source\PSoC5/USBFS.c ****             USBFS_hidProtocol[i] = USBFS_PROTOCOL_REPORT;
 393              		.loc 1 477 0
 394 0000 0C4B     		ldr	r3, .L18
 395 0002 0122     		movs	r2, #1
 478:.\Generated_Source\PSoC5/USBFS.c ****         }
 479:.\Generated_Source\PSoC5/USBFS.c ****     #endif /* USBFS_ENABLE_HID_CLASS */
 480:.\Generated_Source\PSoC5/USBFS.c **** 
ARM GAS  C:\Users\MICHA_~1\AppData\Local\Temp\ccbOK9oc.s 			page 17


 481:.\Generated_Source\PSoC5/USBFS.c ****     USBFS_transferState = USBFS_TRANS_STATE_IDLE;
 396              		.loc 1 481 0
 397 0004 0C49     		ldr	r1, .L18+4
 477:.\Generated_Source\PSoC5/USBFS.c ****             USBFS_hidProtocol[i] = USBFS_PROTOCOL_REPORT;
 398              		.loc 1 477 0
 399 0006 1A70     		strb	r2, [r3, #0]
 400              	.LVL28:
 401              		.loc 1 481 0
 402 0008 0020     		movs	r0, #0
 482:.\Generated_Source\PSoC5/USBFS.c **** 
 483:.\Generated_Source\PSoC5/USBFS.c ****     /* Clear all of the component data */
 484:.\Generated_Source\PSoC5/USBFS.c ****     USBFS_configuration = 0u;
 403              		.loc 1 484 0
 404 000a 0C4A     		ldr	r2, .L18+8
 485:.\Generated_Source\PSoC5/USBFS.c ****     USBFS_interfaceNumber = 0u;
 405              		.loc 1 485 0
 406 000c 0C4B     		ldr	r3, .L18+12
 481:.\Generated_Source\PSoC5/USBFS.c ****     USBFS_transferState = USBFS_TRANS_STATE_IDLE;
 407              		.loc 1 481 0
 408 000e 0870     		strb	r0, [r1, #0]
 486:.\Generated_Source\PSoC5/USBFS.c ****     USBFS_configurationChanged = 0u;
 409              		.loc 1 486 0
 410 0010 0C49     		ldr	r1, .L18+16
 484:.\Generated_Source\PSoC5/USBFS.c ****     USBFS_configuration = 0u;
 411              		.loc 1 484 0
 412 0012 1070     		strb	r0, [r2, #0]
 485:.\Generated_Source\PSoC5/USBFS.c ****     USBFS_interfaceNumber = 0u;
 413              		.loc 1 485 0
 414 0014 1870     		strb	r0, [r3, #0]
 487:.\Generated_Source\PSoC5/USBFS.c ****     USBFS_deviceAddress  = 0u;
 415              		.loc 1 487 0
 416 0016 0C4A     		ldr	r2, .L18+20
 488:.\Generated_Source\PSoC5/USBFS.c ****     USBFS_deviceStatus = 0u;
 417              		.loc 1 488 0
 418 0018 0C4B     		ldr	r3, .L18+24
 486:.\Generated_Source\PSoC5/USBFS.c ****     USBFS_configurationChanged = 0u;
 419              		.loc 1 486 0
 420 001a 0870     		strb	r0, [r1, #0]
 489:.\Generated_Source\PSoC5/USBFS.c **** 
 490:.\Generated_Source\PSoC5/USBFS.c ****     USBFS_lastPacketSize = 0u;
 421              		.loc 1 490 0
 422 001c 0C49     		ldr	r1, .L18+28
 487:.\Generated_Source\PSoC5/USBFS.c ****     USBFS_deviceAddress  = 0u;
 423              		.loc 1 487 0
 424 001e 1070     		strb	r0, [r2, #0]
 488:.\Generated_Source\PSoC5/USBFS.c ****     USBFS_deviceStatus = 0u;
 425              		.loc 1 488 0
 426 0020 1870     		strb	r0, [r3, #0]
 491:.\Generated_Source\PSoC5/USBFS.c **** 
 492:.\Generated_Source\PSoC5/USBFS.c **** 
 493:.\Generated_Source\PSoC5/USBFS.c ****     /*  ACK Setup, Stall IN/OUT */
 494:.\Generated_Source\PSoC5/USBFS.c ****     CY_SET_REG8(USBFS_EP0_CR_PTR, USBFS_MODE_STALL_IN_OUT);
 427              		.loc 1 494 0
 428 0022 0C4B     		ldr	r3, .L18+32
 490:.\Generated_Source\PSoC5/USBFS.c ****     USBFS_lastPacketSize = 0u;
 429              		.loc 1 490 0
 430 0024 0870     		strb	r0, [r1, #0]
ARM GAS  C:\Users\MICHA_~1\AppData\Local\Temp\ccbOK9oc.s 			page 18


 495:.\Generated_Source\PSoC5/USBFS.c **** 
 496:.\Generated_Source\PSoC5/USBFS.c ****     /* Enable the SIE with an address 0 */
 497:.\Generated_Source\PSoC5/USBFS.c ****     CY_SET_REG8(USBFS_CR0_PTR, USBFS_CR0_ENABLE);
 431              		.loc 1 497 0
 432 0026 8022     		movs	r2, #128
 494:.\Generated_Source\PSoC5/USBFS.c ****     CY_SET_REG8(USBFS_EP0_CR_PTR, USBFS_MODE_STALL_IN_OUT);
 433              		.loc 1 494 0
 434 0028 0320     		movs	r0, #3
 435 002a 1870     		strb	r0, [r3, #0]
 436              		.loc 1 497 0
 437 002c 03F8202C 		strb	r2, [r3, #-32]
 438 0030 7047     		bx	lr
 439              	.L19:
 440 0032 00BF     		.align	2
 441              	.L18:
 442 0034 00000000 		.word	USBFS_hidProtocol
 443 0038 00000000 		.word	USBFS_transferState
 444 003c 00000000 		.word	USBFS_configuration
 445 0040 00000000 		.word	USBFS_interfaceNumber
 446 0044 00000000 		.word	USBFS_configurationChanged
 447 0048 00000000 		.word	USBFS_deviceAddress
 448 004c 00000000 		.word	USBFS_deviceStatus
 449 0050 00000000 		.word	USBFS_lastPacketSize
 450 0054 28600040 		.word	1073766440
 451              		.cfi_endproc
 452              	.LFE3:
 453              		.size	USBFS_ReInitComponent, .-USBFS_ReInitComponent
 454              		.section	.text.USBFS_Stop,"ax",%progbits
 455              		.align	1
 456              		.global	USBFS_Stop
 457              		.thumb
 458              		.thumb_func
 459              		.type	USBFS_Stop, %function
 460              	USBFS_Stop:
 461              	.LFB4:
 498:.\Generated_Source\PSoC5/USBFS.c **** 
 499:.\Generated_Source\PSoC5/USBFS.c **** }
 500:.\Generated_Source\PSoC5/USBFS.c **** 
 501:.\Generated_Source\PSoC5/USBFS.c **** 
 502:.\Generated_Source\PSoC5/USBFS.c **** /*******************************************************************************
 503:.\Generated_Source\PSoC5/USBFS.c **** * Function Name: USBFS_Stop
 504:.\Generated_Source\PSoC5/USBFS.c **** ********************************************************************************
 505:.\Generated_Source\PSoC5/USBFS.c **** *
 506:.\Generated_Source\PSoC5/USBFS.c **** * Summary:
 507:.\Generated_Source\PSoC5/USBFS.c **** *  This function shuts down the USB function including to release
 508:.\Generated_Source\PSoC5/USBFS.c **** *  the D+ Pullup and disabling the SIE.
 509:.\Generated_Source\PSoC5/USBFS.c **** *
 510:.\Generated_Source\PSoC5/USBFS.c **** * Parameters:
 511:.\Generated_Source\PSoC5/USBFS.c **** *  None.
 512:.\Generated_Source\PSoC5/USBFS.c **** *
 513:.\Generated_Source\PSoC5/USBFS.c **** * Return:
 514:.\Generated_Source\PSoC5/USBFS.c **** *  None.
 515:.\Generated_Source\PSoC5/USBFS.c **** *
 516:.\Generated_Source\PSoC5/USBFS.c **** * Global variables:
 517:.\Generated_Source\PSoC5/USBFS.c **** *   USBFS_configuration: Contains current configuration number
 518:.\Generated_Source\PSoC5/USBFS.c **** *       which is set by the Host using SET_CONFIGURATION request.
 519:.\Generated_Source\PSoC5/USBFS.c **** *       Initialized to zero in this API.
ARM GAS  C:\Users\MICHA_~1\AppData\Local\Temp\ccbOK9oc.s 			page 19


 520:.\Generated_Source\PSoC5/USBFS.c **** *   USBFS_deviceAddress: Contains current device address. This
 521:.\Generated_Source\PSoC5/USBFS.c **** *       variable is initialized to zero in this API. Host starts to communicate
 522:.\Generated_Source\PSoC5/USBFS.c **** *      to device with address 0 and then set it to whatever value using
 523:.\Generated_Source\PSoC5/USBFS.c **** *      SET_ADDRESS request.
 524:.\Generated_Source\PSoC5/USBFS.c **** *   USBFS_deviceStatus: initialized to 0.
 525:.\Generated_Source\PSoC5/USBFS.c **** *       This is two bit variable which contain power status in first bit
 526:.\Generated_Source\PSoC5/USBFS.c **** *       (DEVICE_STATUS_BUS_POWERED or DEVICE_STATUS_SELF_POWERED) and remote
 527:.\Generated_Source\PSoC5/USBFS.c **** *       wakeup status (DEVICE_STATUS_REMOTE_WAKEUP) in second bit.
 528:.\Generated_Source\PSoC5/USBFS.c **** *   USBFS_configurationChanged: This variable is set to one after
 529:.\Generated_Source\PSoC5/USBFS.c **** *       SET_CONFIGURATION request and cleared in this function.
 530:.\Generated_Source\PSoC5/USBFS.c **** *   USBFS_intiVar variable is set to zero
 531:.\Generated_Source\PSoC5/USBFS.c **** *
 532:.\Generated_Source\PSoC5/USBFS.c **** *******************************************************************************/
 533:.\Generated_Source\PSoC5/USBFS.c **** void USBFS_Stop(void) 
 534:.\Generated_Source\PSoC5/USBFS.c **** {
 462              		.loc 1 534 0
 463              		.cfi_startproc
 464              		@ args = 0, pretend = 0, frame = 0
 465              		@ frame_needed = 0, uses_anonymous_args = 0
 466              		@ link register save eliminated.
 535:.\Generated_Source\PSoC5/USBFS.c **** 
 536:.\Generated_Source\PSoC5/USBFS.c ****     #if(USBFS_EP_MM != USBFS__EP_MANUAL)
 537:.\Generated_Source\PSoC5/USBFS.c ****         USBFS_Stop_DMA(USBFS_MAX_EP);     /* Stop all DMAs */
 538:.\Generated_Source\PSoC5/USBFS.c ****     #endif   /* End USBFS_EP_MM != USBFS__EP_MANUAL */
 539:.\Generated_Source\PSoC5/USBFS.c **** 
 540:.\Generated_Source\PSoC5/USBFS.c ****     /* Disable the SIE */
 541:.\Generated_Source\PSoC5/USBFS.c ****     USBFS_CR0_REG &= (uint8)(~USBFS_CR0_ENABLE);
 467              		.loc 1 541 0
 468 0000 154B     		ldr	r3, .L21
 469 0002 1A78     		ldrb	r2, [r3, #0]	@ zero_extendqisi2
 470 0004 02F07F00 		and	r0, r2, #127
 471 0008 1870     		strb	r0, [r3, #0]
 542:.\Generated_Source\PSoC5/USBFS.c ****     /* Disable the d+ pullup */
 543:.\Generated_Source\PSoC5/USBFS.c ****     USBFS_USBIO_CR1_REG &= (uint8)(~USBFS_USBIO_CR1_USBPUEN);
 472              		.loc 1 543 0
 473 000a 997A     		ldrb	r1, [r3, #10]	@ zero_extendqisi2
 474 000c 01F0FB02 		and	r2, r1, #251
 475 0010 9A72     		strb	r2, [r3, #10]
 544:.\Generated_Source\PSoC5/USBFS.c ****     /* Disable USB in ACT PM */
 545:.\Generated_Source\PSoC5/USBFS.c ****     USBFS_PM_ACT_CFG_REG &= (uint8)(~USBFS_PM_ACT_EN_FSUSB);
 476              		.loc 1 545 0
 477 0012 124B     		ldr	r3, .L21+4
 478 0014 1878     		ldrb	r0, [r3, #0]	@ zero_extendqisi2
 479 0016 00F0FE01 		and	r1, r0, #254
 480 001a 1970     		strb	r1, [r3, #0]
 546:.\Generated_Source\PSoC5/USBFS.c ****     /* Disable USB block for Standby Power Mode */
 547:.\Generated_Source\PSoC5/USBFS.c ****     USBFS_PM_STBY_CFG_REG &= (uint8)(~USBFS_PM_STBY_EN_FSUSB);
 481              		.loc 1 547 0
 482 001c 1A7C     		ldrb	r2, [r3, #16]	@ zero_extendqisi2
 548:.\Generated_Source\PSoC5/USBFS.c **** 
 549:.\Generated_Source\PSoC5/USBFS.c ****     /* Disable the reset and EP interrupts */
 550:.\Generated_Source\PSoC5/USBFS.c ****     CyIntDisable(USBFS_BUS_RESET_VECT_NUM);
 483              		.loc 1 550 0
 484 001e 4FF40001 		mov	r1, #8388608
 547:.\Generated_Source\PSoC5/USBFS.c ****     USBFS_PM_STBY_CFG_REG &= (uint8)(~USBFS_PM_STBY_EN_FSUSB);
 485              		.loc 1 547 0
 486 0022 02F0FE00 		and	r0, r2, #254
ARM GAS  C:\Users\MICHA_~1\AppData\Local\Temp\ccbOK9oc.s 			page 20


 487 0026 1874     		strb	r0, [r3, #16]
 488              		.loc 1 550 0
 489 0028 0D4B     		ldr	r3, .L21+8
 551:.\Generated_Source\PSoC5/USBFS.c ****     CyIntDisable(USBFS_EP_0_VECT_NUM);
 490              		.loc 1 551 0
 491 002a 4FF08072 		mov	r2, #16777216
 550:.\Generated_Source\PSoC5/USBFS.c ****     CyIntDisable(USBFS_BUS_RESET_VECT_NUM);
 492              		.loc 1 550 0
 493 002e 1960     		str	r1, [r3, #0]
 552:.\Generated_Source\PSoC5/USBFS.c ****     #if(USBFS_EP1_ISR_REMOVE == 0u)
 553:.\Generated_Source\PSoC5/USBFS.c ****         CyIntDisable(USBFS_EP_1_VECT_NUM);
 494              		.loc 1 553 0
 495 0030 0120     		movs	r0, #1
 554:.\Generated_Source\PSoC5/USBFS.c ****     #endif   /* End USBFS_EP1_ISR_REMOVE */
 555:.\Generated_Source\PSoC5/USBFS.c ****     #if(USBFS_EP2_ISR_REMOVE == 0u)
 556:.\Generated_Source\PSoC5/USBFS.c ****         CyIntDisable(USBFS_EP_2_VECT_NUM);
 496              		.loc 1 556 0
 497 0032 0221     		movs	r1, #2
 551:.\Generated_Source\PSoC5/USBFS.c ****     CyIntDisable(USBFS_EP_0_VECT_NUM);
 498              		.loc 1 551 0
 499 0034 1A60     		str	r2, [r3, #0]
 553:.\Generated_Source\PSoC5/USBFS.c ****         CyIntDisable(USBFS_EP_1_VECT_NUM);
 500              		.loc 1 553 0
 501 0036 1860     		str	r0, [r3, #0]
 557:.\Generated_Source\PSoC5/USBFS.c ****     #endif   /* End USBFS_EP2_ISR_REMOVE */
 558:.\Generated_Source\PSoC5/USBFS.c ****     #if(USBFS_EP3_ISR_REMOVE == 0u)
 559:.\Generated_Source\PSoC5/USBFS.c ****         CyIntDisable(USBFS_EP_3_VECT_NUM);
 560:.\Generated_Source\PSoC5/USBFS.c ****     #endif   /* End USBFS_EP3_ISR_REMOVE */
 561:.\Generated_Source\PSoC5/USBFS.c ****     #if(USBFS_EP4_ISR_REMOVE == 0u)
 562:.\Generated_Source\PSoC5/USBFS.c ****         CyIntDisable(USBFS_EP_4_VECT_NUM);
 563:.\Generated_Source\PSoC5/USBFS.c ****     #endif   /* End USBFS_EP4_ISR_REMOVE */
 564:.\Generated_Source\PSoC5/USBFS.c ****     #if(USBFS_EP5_ISR_REMOVE == 0u)
 565:.\Generated_Source\PSoC5/USBFS.c ****         CyIntDisable(USBFS_EP_5_VECT_NUM);
 566:.\Generated_Source\PSoC5/USBFS.c ****     #endif   /* End USBFS_EP5_ISR_REMOVE */
 567:.\Generated_Source\PSoC5/USBFS.c ****     #if(USBFS_EP6_ISR_REMOVE == 0u)
 568:.\Generated_Source\PSoC5/USBFS.c ****         CyIntDisable(USBFS_EP_6_VECT_NUM);
 569:.\Generated_Source\PSoC5/USBFS.c ****     #endif   /* End USBFS_EP6_ISR_REMOVE */
 570:.\Generated_Source\PSoC5/USBFS.c ****     #if(USBFS_EP7_ISR_REMOVE == 0u)
 571:.\Generated_Source\PSoC5/USBFS.c ****         CyIntDisable(USBFS_EP_7_VECT_NUM);
 572:.\Generated_Source\PSoC5/USBFS.c ****     #endif   /* End USBFS_EP7_ISR_REMOVE */
 573:.\Generated_Source\PSoC5/USBFS.c ****     #if(USBFS_EP8_ISR_REMOVE == 0u)
 574:.\Generated_Source\PSoC5/USBFS.c ****         CyIntDisable(USBFS_EP_8_VECT_NUM);
 575:.\Generated_Source\PSoC5/USBFS.c ****     #endif   /* End USBFS_EP8_ISR_REMOVE */
 576:.\Generated_Source\PSoC5/USBFS.c **** 
 577:.\Generated_Source\PSoC5/USBFS.c ****     /* Clear all of the component data */
 578:.\Generated_Source\PSoC5/USBFS.c ****     USBFS_configuration = 0u;
 502              		.loc 1 578 0
 503 0038 0A4A     		ldr	r2, .L21+12
 556:.\Generated_Source\PSoC5/USBFS.c ****         CyIntDisable(USBFS_EP_2_VECT_NUM);
 504              		.loc 1 556 0
 505 003a 1960     		str	r1, [r3, #0]
 579:.\Generated_Source\PSoC5/USBFS.c ****     USBFS_interfaceNumber = 0u;
 506              		.loc 1 579 0
 507 003c 0A48     		ldr	r0, .L21+16
 580:.\Generated_Source\PSoC5/USBFS.c ****     USBFS_configurationChanged = 0u;
 508              		.loc 1 580 0
 509 003e 0B49     		ldr	r1, .L21+20
ARM GAS  C:\Users\MICHA_~1\AppData\Local\Temp\ccbOK9oc.s 			page 21


 578:.\Generated_Source\PSoC5/USBFS.c ****     USBFS_configuration = 0u;
 510              		.loc 1 578 0
 511 0040 0023     		movs	r3, #0
 512 0042 1370     		strb	r3, [r2, #0]
 579:.\Generated_Source\PSoC5/USBFS.c ****     USBFS_interfaceNumber = 0u;
 513              		.loc 1 579 0
 514 0044 0370     		strb	r3, [r0, #0]
 581:.\Generated_Source\PSoC5/USBFS.c ****     USBFS_deviceAddress  = 0u;
 515              		.loc 1 581 0
 516 0046 0A4A     		ldr	r2, .L21+24
 580:.\Generated_Source\PSoC5/USBFS.c ****     USBFS_configurationChanged = 0u;
 517              		.loc 1 580 0
 518 0048 0B70     		strb	r3, [r1, #0]
 582:.\Generated_Source\PSoC5/USBFS.c ****     USBFS_deviceStatus = 0u;
 519              		.loc 1 582 0
 520 004a 0A48     		ldr	r0, .L21+28
 583:.\Generated_Source\PSoC5/USBFS.c ****     USBFS_initVar = 0u;
 521              		.loc 1 583 0
 522 004c 0A49     		ldr	r1, .L21+32
 581:.\Generated_Source\PSoC5/USBFS.c ****     USBFS_deviceAddress  = 0u;
 523              		.loc 1 581 0
 524 004e 1370     		strb	r3, [r2, #0]
 525              		.loc 1 583 0
 526 0050 0B70     		strb	r3, [r1, #0]
 582:.\Generated_Source\PSoC5/USBFS.c ****     USBFS_deviceStatus = 0u;
 527              		.loc 1 582 0
 528 0052 0370     		strb	r3, [r0, #0]
 529              		.loc 1 583 0
 530 0054 7047     		bx	lr
 531              	.L22:
 532 0056 00BF     		.align	2
 533              	.L21:
 534 0058 08600040 		.word	1073766408
 535 005c A5430040 		.word	1073759141
 536 0060 80E100E0 		.word	-536813184
 537 0064 00000000 		.word	USBFS_configuration
 538 0068 00000000 		.word	USBFS_interfaceNumber
 539 006c 00000000 		.word	USBFS_configurationChanged
 540 0070 00000000 		.word	USBFS_deviceAddress
 541 0074 00000000 		.word	USBFS_deviceStatus
 542 0078 00000000 		.word	.LANCHOR0
 543              		.cfi_endproc
 544              	.LFE4:
 545              		.size	USBFS_Stop, .-USBFS_Stop
 546              		.section	.text.USBFS_CheckActivity,"ax",%progbits
 547              		.align	1
 548              		.global	USBFS_CheckActivity
 549              		.thumb
 550              		.thumb_func
 551              		.type	USBFS_CheckActivity, %function
 552              	USBFS_CheckActivity:
 553              	.LFB5:
 584:.\Generated_Source\PSoC5/USBFS.c **** 
 585:.\Generated_Source\PSoC5/USBFS.c **** }
 586:.\Generated_Source\PSoC5/USBFS.c **** 
 587:.\Generated_Source\PSoC5/USBFS.c **** 
 588:.\Generated_Source\PSoC5/USBFS.c **** /*******************************************************************************
ARM GAS  C:\Users\MICHA_~1\AppData\Local\Temp\ccbOK9oc.s 			page 22


 589:.\Generated_Source\PSoC5/USBFS.c **** * Function Name: USBFS_CheckActivity
 590:.\Generated_Source\PSoC5/USBFS.c **** ********************************************************************************
 591:.\Generated_Source\PSoC5/USBFS.c **** *
 592:.\Generated_Source\PSoC5/USBFS.c **** * Summary:
 593:.\Generated_Source\PSoC5/USBFS.c **** *  Returns the activity status of the bus.  Clears the status hardware to
 594:.\Generated_Source\PSoC5/USBFS.c **** *  provide fresh activity status on the next call of this routine.
 595:.\Generated_Source\PSoC5/USBFS.c **** *
 596:.\Generated_Source\PSoC5/USBFS.c **** * Parameters:
 597:.\Generated_Source\PSoC5/USBFS.c **** *  None.
 598:.\Generated_Source\PSoC5/USBFS.c **** *
 599:.\Generated_Source\PSoC5/USBFS.c **** * Return:
 600:.\Generated_Source\PSoC5/USBFS.c **** *  1 - If bus activity was detected since the last call to this function
 601:.\Generated_Source\PSoC5/USBFS.c **** *  0 - If bus activity not was detected since the last call to this function
 602:.\Generated_Source\PSoC5/USBFS.c **** *
 603:.\Generated_Source\PSoC5/USBFS.c **** *******************************************************************************/
 604:.\Generated_Source\PSoC5/USBFS.c **** uint8 USBFS_CheckActivity(void) 
 605:.\Generated_Source\PSoC5/USBFS.c **** {
 554              		.loc 1 605 0
 555              		.cfi_startproc
 556              		@ args = 0, pretend = 0, frame = 0
 557              		@ frame_needed = 0, uses_anonymous_args = 0
 558              		@ link register save eliminated.
 606:.\Generated_Source\PSoC5/USBFS.c ****     uint8 r;
 607:.\Generated_Source\PSoC5/USBFS.c **** 
 608:.\Generated_Source\PSoC5/USBFS.c ****     r = CY_GET_REG8(USBFS_CR1_PTR);
 559              		.loc 1 608 0
 560 0000 034B     		ldr	r3, .L24
 561 0002 1878     		ldrb	r0, [r3, #0]	@ zero_extendqisi2
 562              	.LVL29:
 609:.\Generated_Source\PSoC5/USBFS.c ****     CY_SET_REG8(USBFS_CR1_PTR, (r & ((uint8)(~USBFS_CR1_BUS_ACTIVITY))));
 563              		.loc 1 609 0
 564 0004 00F0FB02 		and	r2, r0, #251
 565 0008 1A70     		strb	r2, [r3, #0]
 610:.\Generated_Source\PSoC5/USBFS.c **** 
 611:.\Generated_Source\PSoC5/USBFS.c ****     return((r & USBFS_CR1_BUS_ACTIVITY) >> USBFS_CR1_BUS_ACTIVITY_SHIFT);
 612:.\Generated_Source\PSoC5/USBFS.c **** }
 566              		.loc 1 612 0
 567 000a C0F38000 		ubfx	r0, r0, #2, #1
 568              	.LVL30:
 569 000e 7047     		bx	lr
 570              	.L25:
 571              		.align	2
 572              	.L24:
 573 0010 09600040 		.word	1073766409
 574              		.cfi_endproc
 575              	.LFE5:
 576              		.size	USBFS_CheckActivity, .-USBFS_CheckActivity
 577              		.section	.text.USBFS_GetConfiguration,"ax",%progbits
 578              		.align	1
 579              		.global	USBFS_GetConfiguration
 580              		.thumb
 581              		.thumb_func
 582              		.type	USBFS_GetConfiguration, %function
 583              	USBFS_GetConfiguration:
 584              	.LFB6:
 613:.\Generated_Source\PSoC5/USBFS.c **** 
 614:.\Generated_Source\PSoC5/USBFS.c **** 
ARM GAS  C:\Users\MICHA_~1\AppData\Local\Temp\ccbOK9oc.s 			page 23


 615:.\Generated_Source\PSoC5/USBFS.c **** /*******************************************************************************
 616:.\Generated_Source\PSoC5/USBFS.c **** * Function Name: USBFS_GetConfiguration
 617:.\Generated_Source\PSoC5/USBFS.c **** ********************************************************************************
 618:.\Generated_Source\PSoC5/USBFS.c **** *
 619:.\Generated_Source\PSoC5/USBFS.c **** * Summary:
 620:.\Generated_Source\PSoC5/USBFS.c **** *  Returns the current configuration setting
 621:.\Generated_Source\PSoC5/USBFS.c **** *
 622:.\Generated_Source\PSoC5/USBFS.c **** * Parameters:
 623:.\Generated_Source\PSoC5/USBFS.c **** *  None.
 624:.\Generated_Source\PSoC5/USBFS.c **** *
 625:.\Generated_Source\PSoC5/USBFS.c **** * Return:
 626:.\Generated_Source\PSoC5/USBFS.c **** *  configuration.
 627:.\Generated_Source\PSoC5/USBFS.c **** *
 628:.\Generated_Source\PSoC5/USBFS.c **** *******************************************************************************/
 629:.\Generated_Source\PSoC5/USBFS.c **** uint8 USBFS_GetConfiguration(void) 
 630:.\Generated_Source\PSoC5/USBFS.c **** {
 585              		.loc 1 630 0
 586              		.cfi_startproc
 587              		@ args = 0, pretend = 0, frame = 0
 588              		@ frame_needed = 0, uses_anonymous_args = 0
 589              		@ link register save eliminated.
 631:.\Generated_Source\PSoC5/USBFS.c ****     return(USBFS_configuration);
 590              		.loc 1 631 0
 591 0000 014B     		ldr	r3, .L27
 592 0002 1878     		ldrb	r0, [r3, #0]	@ zero_extendqisi2
 632:.\Generated_Source\PSoC5/USBFS.c **** }
 593              		.loc 1 632 0
 594 0004 7047     		bx	lr
 595              	.L28:
 596 0006 00BF     		.align	2
 597              	.L27:
 598 0008 00000000 		.word	USBFS_configuration
 599              		.cfi_endproc
 600              	.LFE6:
 601              		.size	USBFS_GetConfiguration, .-USBFS_GetConfiguration
 602              		.section	.text.USBFS_IsConfigurationChanged,"ax",%progbits
 603              		.align	1
 604              		.global	USBFS_IsConfigurationChanged
 605              		.thumb
 606              		.thumb_func
 607              		.type	USBFS_IsConfigurationChanged, %function
 608              	USBFS_IsConfigurationChanged:
 609              	.LFB7:
 633:.\Generated_Source\PSoC5/USBFS.c **** 
 634:.\Generated_Source\PSoC5/USBFS.c **** 
 635:.\Generated_Source\PSoC5/USBFS.c **** /*******************************************************************************
 636:.\Generated_Source\PSoC5/USBFS.c **** * Function Name: USBFS_IsConfigurationChanged
 637:.\Generated_Source\PSoC5/USBFS.c **** ********************************************************************************
 638:.\Generated_Source\PSoC5/USBFS.c **** *
 639:.\Generated_Source\PSoC5/USBFS.c **** * Summary:
 640:.\Generated_Source\PSoC5/USBFS.c **** *  Returns the clear on read configuration state. It is usefull when PC send
 641:.\Generated_Source\PSoC5/USBFS.c **** *  double SET_CONFIGURATION request with same configuration number.
 642:.\Generated_Source\PSoC5/USBFS.c **** *
 643:.\Generated_Source\PSoC5/USBFS.c **** * Parameters:
 644:.\Generated_Source\PSoC5/USBFS.c **** *  None.
 645:.\Generated_Source\PSoC5/USBFS.c **** *
 646:.\Generated_Source\PSoC5/USBFS.c **** * Return:
ARM GAS  C:\Users\MICHA_~1\AppData\Local\Temp\ccbOK9oc.s 			page 24


 647:.\Generated_Source\PSoC5/USBFS.c **** *  Not zero value when new configuration has been changed, otherwise zero is
 648:.\Generated_Source\PSoC5/USBFS.c **** *  returned.
 649:.\Generated_Source\PSoC5/USBFS.c **** *
 650:.\Generated_Source\PSoC5/USBFS.c **** * Global variables:
 651:.\Generated_Source\PSoC5/USBFS.c **** *   USBFS_configurationChanged: This variable is set to one after
 652:.\Generated_Source\PSoC5/USBFS.c **** *       SET_CONFIGURATION request and cleared in this function.
 653:.\Generated_Source\PSoC5/USBFS.c **** *
 654:.\Generated_Source\PSoC5/USBFS.c **** *******************************************************************************/
 655:.\Generated_Source\PSoC5/USBFS.c **** uint8 USBFS_IsConfigurationChanged(void) 
 656:.\Generated_Source\PSoC5/USBFS.c **** {
 610              		.loc 1 656 0
 611              		.cfi_startproc
 612              		@ args = 0, pretend = 0, frame = 0
 613              		@ frame_needed = 0, uses_anonymous_args = 0
 614              		@ link register save eliminated.
 615              	.LVL31:
 657:.\Generated_Source\PSoC5/USBFS.c ****     uint8 res = 0u;
 658:.\Generated_Source\PSoC5/USBFS.c **** 
 659:.\Generated_Source\PSoC5/USBFS.c ****     if(USBFS_configurationChanged != 0u)
 616              		.loc 1 659 0
 617 0000 034B     		ldr	r3, .L32
 618 0002 1878     		ldrb	r0, [r3, #0]	@ zero_extendqisi2
 619 0004 10B1     		cbz	r0, .L30
 660:.\Generated_Source\PSoC5/USBFS.c ****     {
 661:.\Generated_Source\PSoC5/USBFS.c ****         res = USBFS_configurationChanged;
 662:.\Generated_Source\PSoC5/USBFS.c ****         USBFS_configurationChanged = 0u;
 620              		.loc 1 662 0
 621 0006 0022     		movs	r2, #0
 661:.\Generated_Source\PSoC5/USBFS.c ****         res = USBFS_configurationChanged;
 622              		.loc 1 661 0
 623 0008 1878     		ldrb	r0, [r3, #0]	@ zero_extendqisi2
 624              	.LVL32:
 625              		.loc 1 662 0
 626 000a 1A70     		strb	r2, [r3, #0]
 627              	.LVL33:
 628              	.L30:
 663:.\Generated_Source\PSoC5/USBFS.c ****     }
 664:.\Generated_Source\PSoC5/USBFS.c **** 
 665:.\Generated_Source\PSoC5/USBFS.c ****     return(res);
 666:.\Generated_Source\PSoC5/USBFS.c **** }
 629              		.loc 1 666 0
 630 000c 7047     		bx	lr
 631              	.L33:
 632 000e 00BF     		.align	2
 633              	.L32:
 634 0010 00000000 		.word	USBFS_configurationChanged
 635              		.cfi_endproc
 636              	.LFE7:
 637              		.size	USBFS_IsConfigurationChanged, .-USBFS_IsConfigurationChanged
 638              		.section	.text.USBFS_GetInterfaceSetting,"ax",%progbits
 639              		.align	1
 640              		.global	USBFS_GetInterfaceSetting
 641              		.thumb
 642              		.thumb_func
 643              		.type	USBFS_GetInterfaceSetting, %function
 644              	USBFS_GetInterfaceSetting:
 645              	.LFB8:
ARM GAS  C:\Users\MICHA_~1\AppData\Local\Temp\ccbOK9oc.s 			page 25


 667:.\Generated_Source\PSoC5/USBFS.c **** 
 668:.\Generated_Source\PSoC5/USBFS.c **** 
 669:.\Generated_Source\PSoC5/USBFS.c **** /*******************************************************************************
 670:.\Generated_Source\PSoC5/USBFS.c **** * Function Name: USBFS_GetInterfaceSetting
 671:.\Generated_Source\PSoC5/USBFS.c **** ********************************************************************************
 672:.\Generated_Source\PSoC5/USBFS.c **** *
 673:.\Generated_Source\PSoC5/USBFS.c **** * Summary:
 674:.\Generated_Source\PSoC5/USBFS.c **** *  Returns the alternate setting from current interface
 675:.\Generated_Source\PSoC5/USBFS.c **** *
 676:.\Generated_Source\PSoC5/USBFS.c **** * Parameters:
 677:.\Generated_Source\PSoC5/USBFS.c **** *  uint8 interfaceNumber, interface number
 678:.\Generated_Source\PSoC5/USBFS.c **** *
 679:.\Generated_Source\PSoC5/USBFS.c **** * Return:
 680:.\Generated_Source\PSoC5/USBFS.c **** *  Alternate setting.
 681:.\Generated_Source\PSoC5/USBFS.c **** *
 682:.\Generated_Source\PSoC5/USBFS.c **** *******************************************************************************/
 683:.\Generated_Source\PSoC5/USBFS.c **** uint8  USBFS_GetInterfaceSetting(uint8 interfaceNumber)
 684:.\Generated_Source\PSoC5/USBFS.c ****                                                     
 685:.\Generated_Source\PSoC5/USBFS.c **** {
 646              		.loc 1 685 0
 647              		.cfi_startproc
 648              		@ args = 0, pretend = 0, frame = 0
 649              		@ frame_needed = 0, uses_anonymous_args = 0
 650              		@ link register save eliminated.
 651              	.LVL34:
 686:.\Generated_Source\PSoC5/USBFS.c ****     return(USBFS_interfaceSetting[interfaceNumber]);
 652              		.loc 1 686 0
 653 0000 014B     		ldr	r3, .L35
 654 0002 185C     		ldrb	r0, [r3, r0]	@ zero_extendqisi2
 655              	.LVL35:
 687:.\Generated_Source\PSoC5/USBFS.c **** }
 656              		.loc 1 687 0
 657 0004 7047     		bx	lr
 658              	.L36:
 659 0006 00BF     		.align	2
 660              	.L35:
 661 0008 00000000 		.word	USBFS_interfaceSetting
 662              		.cfi_endproc
 663              	.LFE8:
 664              		.size	USBFS_GetInterfaceSetting, .-USBFS_GetInterfaceSetting
 665              		.section	.text.USBFS_GetEPState,"ax",%progbits
 666              		.align	1
 667              		.global	USBFS_GetEPState
 668              		.thumb
 669              		.thumb_func
 670              		.type	USBFS_GetEPState, %function
 671              	USBFS_GetEPState:
 672              	.LFB9:
 688:.\Generated_Source\PSoC5/USBFS.c **** 
 689:.\Generated_Source\PSoC5/USBFS.c **** 
 690:.\Generated_Source\PSoC5/USBFS.c **** /*******************************************************************************
 691:.\Generated_Source\PSoC5/USBFS.c **** * Function Name: USBFS_GetEPState
 692:.\Generated_Source\PSoC5/USBFS.c **** ********************************************************************************
 693:.\Generated_Source\PSoC5/USBFS.c **** *
 694:.\Generated_Source\PSoC5/USBFS.c **** * Summary:
 695:.\Generated_Source\PSoC5/USBFS.c **** *  Returned the state of the requested endpoint.
 696:.\Generated_Source\PSoC5/USBFS.c **** *
ARM GAS  C:\Users\MICHA_~1\AppData\Local\Temp\ccbOK9oc.s 			page 26


 697:.\Generated_Source\PSoC5/USBFS.c **** * Parameters:
 698:.\Generated_Source\PSoC5/USBFS.c **** *  epNumber: Endpoint Number
 699:.\Generated_Source\PSoC5/USBFS.c **** *
 700:.\Generated_Source\PSoC5/USBFS.c **** * Return:
 701:.\Generated_Source\PSoC5/USBFS.c **** *  State of the requested endpoint.
 702:.\Generated_Source\PSoC5/USBFS.c **** *
 703:.\Generated_Source\PSoC5/USBFS.c **** *******************************************************************************/
 704:.\Generated_Source\PSoC5/USBFS.c **** uint8 USBFS_GetEPState(uint8 epNumber) 
 705:.\Generated_Source\PSoC5/USBFS.c **** {
 673              		.loc 1 705 0
 674              		.cfi_startproc
 675              		@ args = 0, pretend = 0, frame = 0
 676              		@ frame_needed = 0, uses_anonymous_args = 0
 677              		@ link register save eliminated.
 678              	.LVL36:
 706:.\Generated_Source\PSoC5/USBFS.c ****     return(USBFS_EP[epNumber].apiEpState);
 679              		.loc 1 706 0
 680 0000 024B     		ldr	r3, .L38
 681 0002 0C22     		movs	r2, #12
 682 0004 02FB0030 		mla	r0, r2, r0, r3
 683              	.LVL37:
 684 0008 4078     		ldrb	r0, [r0, #1]	@ zero_extendqisi2
 707:.\Generated_Source\PSoC5/USBFS.c **** }
 685              		.loc 1 707 0
 686 000a 7047     		bx	lr
 687              	.L39:
 688              		.align	2
 689              	.L38:
 690 000c 00000000 		.word	USBFS_EP
 691              		.cfi_endproc
 692              	.LFE9:
 693              		.size	USBFS_GetEPState, .-USBFS_GetEPState
 694              		.section	.text.USBFS_GetEPCount,"ax",%progbits
 695              		.align	1
 696              		.global	USBFS_GetEPCount
 697              		.thumb
 698              		.thumb_func
 699              		.type	USBFS_GetEPCount, %function
 700              	USBFS_GetEPCount:
 701              	.LFB10:
 708:.\Generated_Source\PSoC5/USBFS.c **** 
 709:.\Generated_Source\PSoC5/USBFS.c **** 
 710:.\Generated_Source\PSoC5/USBFS.c **** /*******************************************************************************
 711:.\Generated_Source\PSoC5/USBFS.c **** * Function Name: USBFS_GetEPCount
 712:.\Generated_Source\PSoC5/USBFS.c **** ********************************************************************************
 713:.\Generated_Source\PSoC5/USBFS.c **** *
 714:.\Generated_Source\PSoC5/USBFS.c **** * Summary:
 715:.\Generated_Source\PSoC5/USBFS.c **** *  This function supports Data Endpoints only(EP1-EP8).
 716:.\Generated_Source\PSoC5/USBFS.c **** *  Returns the transfer count for the requested endpoint.  The value from
 717:.\Generated_Source\PSoC5/USBFS.c **** *  the count registers includes 2 counts for the two byte checksum of the
 718:.\Generated_Source\PSoC5/USBFS.c **** *  packet.  This function subtracts the two counts.
 719:.\Generated_Source\PSoC5/USBFS.c **** *
 720:.\Generated_Source\PSoC5/USBFS.c **** * Parameters:
 721:.\Generated_Source\PSoC5/USBFS.c **** *  epNumber: Data Endpoint Number.
 722:.\Generated_Source\PSoC5/USBFS.c **** *            Valid values are between 1 and 8.
 723:.\Generated_Source\PSoC5/USBFS.c **** *
 724:.\Generated_Source\PSoC5/USBFS.c **** * Return:
ARM GAS  C:\Users\MICHA_~1\AppData\Local\Temp\ccbOK9oc.s 			page 27


 725:.\Generated_Source\PSoC5/USBFS.c **** *  Returns the current byte count from the specified endpoint or 0 for an
 726:.\Generated_Source\PSoC5/USBFS.c **** *  invalid endpoint.
 727:.\Generated_Source\PSoC5/USBFS.c **** *
 728:.\Generated_Source\PSoC5/USBFS.c **** *******************************************************************************/
 729:.\Generated_Source\PSoC5/USBFS.c **** uint16 USBFS_GetEPCount(uint8 epNumber) 
 730:.\Generated_Source\PSoC5/USBFS.c **** {
 702              		.loc 1 730 0
 703              		.cfi_startproc
 704              		@ args = 0, pretend = 0, frame = 0
 705              		@ frame_needed = 0, uses_anonymous_args = 0
 706              		@ link register save eliminated.
 707              	.LVL38:
 731:.\Generated_Source\PSoC5/USBFS.c ****     uint8 ri;
 732:.\Generated_Source\PSoC5/USBFS.c ****     uint16 result = 0u;
 733:.\Generated_Source\PSoC5/USBFS.c **** 
 734:.\Generated_Source\PSoC5/USBFS.c ****     if((epNumber > USBFS_EP0) && (epNumber < USBFS_MAX_EP))
 708              		.loc 1 734 0
 709 0000 0138     		subs	r0, r0, #1
 710              	.LVL39:
 711 0002 C3B2     		uxtb	r3, r0
 712 0004 072B     		cmp	r3, #7
 713 0006 0CD8     		bhi	.L42
 714              	.LVL40:
 735:.\Generated_Source\PSoC5/USBFS.c ****     {
 736:.\Generated_Source\PSoC5/USBFS.c ****         ri = ((epNumber - USBFS_EP1) << USBFS_EPX_CNTX_ADDR_SHIFT);
 715              		.loc 1 736 0
 716 0008 1901     		lsls	r1, r3, #4
 737:.\Generated_Source\PSoC5/USBFS.c **** 
 738:.\Generated_Source\PSoC5/USBFS.c ****         result = (uint8)(CY_GET_REG8((reg8 *)(USBFS_SIE_EP1_CNT0_IND + ri)) &
 717              		.loc 1 738 0
 718 000a 074A     		ldr	r2, .L43
 719 000c CBB2     		uxtb	r3, r1
 720              	.LVL41:
 721 000e 985C     		ldrb	r0, [r3, r2]	@ zero_extendqisi2
 722              	.LVL42:
 739:.\Generated_Source\PSoC5/USBFS.c ****                           USBFS_EPX_CNT0_MASK);
 740:.\Generated_Source\PSoC5/USBFS.c ****         result = (result << 8u) | CY_GET_REG8((reg8 *)(USBFS_SIE_EP1_CNT1_IND + ri));
 723              		.loc 1 740 0
 724 0010 511C     		adds	r1, r2, #1
 725 0012 5B5C     		ldrb	r3, [r3, r1]	@ zero_extendqisi2
 726 0014 00F00F02 		and	r2, r0, #15
 727 0018 43EA0220 		orr	r0, r3, r2, lsl #8
 728              	.LVL43:
 741:.\Generated_Source\PSoC5/USBFS.c ****         result -= USBFS_EPX_CNTX_CRC_COUNT;
 729              		.loc 1 741 0
 730 001c 811E     		subs	r1, r0, #2
 731 001e 88B2     		uxth	r0, r1
 732              	.LVL44:
 733 0020 7047     		bx	lr
 734              	.LVL45:
 735              	.L42:
 732:.\Generated_Source\PSoC5/USBFS.c ****     uint16 result = 0u;
 736              		.loc 1 732 0
 737 0022 0020     		movs	r0, #0
 738              	.LVL46:
 742:.\Generated_Source\PSoC5/USBFS.c ****     }
 743:.\Generated_Source\PSoC5/USBFS.c ****     return(result);
ARM GAS  C:\Users\MICHA_~1\AppData\Local\Temp\ccbOK9oc.s 			page 28


 744:.\Generated_Source\PSoC5/USBFS.c **** }
 739              		.loc 1 744 0
 740 0024 7047     		bx	lr
 741              	.L44:
 742 0026 00BF     		.align	2
 743              	.L43:
 744 0028 0C600040 		.word	1073766412
 745              		.cfi_endproc
 746              	.LFE10:
 747              		.size	USBFS_GetEPCount, .-USBFS_GetEPCount
 748              		.section	.text.USBFS_LoadInEP,"ax",%progbits
 749              		.align	1
 750              		.global	USBFS_LoadInEP
 751              		.thumb
 752              		.thumb_func
 753              		.type	USBFS_LoadInEP, %function
 754              	USBFS_LoadInEP:
 755              	.LFB11:
 745:.\Generated_Source\PSoC5/USBFS.c **** 
 746:.\Generated_Source\PSoC5/USBFS.c **** 
 747:.\Generated_Source\PSoC5/USBFS.c **** #if(USBFS_EP_MM != USBFS__EP_MANUAL)
 748:.\Generated_Source\PSoC5/USBFS.c **** 
 749:.\Generated_Source\PSoC5/USBFS.c **** 
 750:.\Generated_Source\PSoC5/USBFS.c ****     /*******************************************************************************
 751:.\Generated_Source\PSoC5/USBFS.c ****     * Function Name: USBFS_InitEP_DMA
 752:.\Generated_Source\PSoC5/USBFS.c ****     ********************************************************************************
 753:.\Generated_Source\PSoC5/USBFS.c ****     *
 754:.\Generated_Source\PSoC5/USBFS.c ****     * Summary:
 755:.\Generated_Source\PSoC5/USBFS.c ****     *  This function allocates and initializes a DMA channel to be used by the
 756:.\Generated_Source\PSoC5/USBFS.c ****     *  USBFS_LoadInEP() or USBFS_ReadOutEP() APIs for data
 757:.\Generated_Source\PSoC5/USBFS.c ****     *  transfer.
 758:.\Generated_Source\PSoC5/USBFS.c ****     *
 759:.\Generated_Source\PSoC5/USBFS.c ****     * Parameters:
 760:.\Generated_Source\PSoC5/USBFS.c ****     *  epNumber: Contains the data endpoint number.
 761:.\Generated_Source\PSoC5/USBFS.c ****     *            Valid values are between 1 and 8.
 762:.\Generated_Source\PSoC5/USBFS.c ****     *  *pData: Pointer to a data array that is related to the EP transfers.
 763:.\Generated_Source\PSoC5/USBFS.c ****     *
 764:.\Generated_Source\PSoC5/USBFS.c ****     * Return:
 765:.\Generated_Source\PSoC5/USBFS.c ****     *  None.
 766:.\Generated_Source\PSoC5/USBFS.c ****     *
 767:.\Generated_Source\PSoC5/USBFS.c ****     * Reentrant:
 768:.\Generated_Source\PSoC5/USBFS.c ****     *  No.
 769:.\Generated_Source\PSoC5/USBFS.c ****     *
 770:.\Generated_Source\PSoC5/USBFS.c ****     *******************************************************************************/
 771:.\Generated_Source\PSoC5/USBFS.c ****     void USBFS_InitEP_DMA(uint8 epNumber, const uint8 *pData)
 772:.\Generated_Source\PSoC5/USBFS.c ****                                                                     
 773:.\Generated_Source\PSoC5/USBFS.c ****     {
 774:.\Generated_Source\PSoC5/USBFS.c ****         uint16 src;
 775:.\Generated_Source\PSoC5/USBFS.c ****         uint16 dst;
 776:.\Generated_Source\PSoC5/USBFS.c ****         #if (CY_PSOC3)                  /* PSoC 3 */
 777:.\Generated_Source\PSoC5/USBFS.c ****             src = HI16(CYDEV_SRAM_BASE);
 778:.\Generated_Source\PSoC5/USBFS.c ****             dst = HI16(CYDEV_PERIPH_BASE);
 779:.\Generated_Source\PSoC5/USBFS.c ****             pData = pData;
 780:.\Generated_Source\PSoC5/USBFS.c ****         #else                           /* PSoC 5 */
 781:.\Generated_Source\PSoC5/USBFS.c ****             if((USBFS_EP[epNumber].addr & USBFS_DIR_IN) != 0u )
 782:.\Generated_Source\PSoC5/USBFS.c ****             {   /* for the IN EP source is the SRAM memory buffer */
 783:.\Generated_Source\PSoC5/USBFS.c ****                 src = HI16(pData);
ARM GAS  C:\Users\MICHA_~1\AppData\Local\Temp\ccbOK9oc.s 			page 29


 784:.\Generated_Source\PSoC5/USBFS.c ****                 dst = HI16(CYDEV_PERIPH_BASE);
 785:.\Generated_Source\PSoC5/USBFS.c ****             }
 786:.\Generated_Source\PSoC5/USBFS.c ****             else
 787:.\Generated_Source\PSoC5/USBFS.c ****             {   /* for the OUT EP source is the SIE register */
 788:.\Generated_Source\PSoC5/USBFS.c ****                 src = HI16(CYDEV_PERIPH_BASE);
 789:.\Generated_Source\PSoC5/USBFS.c ****                 dst = HI16(pData);
 790:.\Generated_Source\PSoC5/USBFS.c ****             }
 791:.\Generated_Source\PSoC5/USBFS.c ****         #endif  /* End C51 */
 792:.\Generated_Source\PSoC5/USBFS.c ****         switch(epNumber)
 793:.\Generated_Source\PSoC5/USBFS.c ****         {
 794:.\Generated_Source\PSoC5/USBFS.c ****             case USBFS_EP1:
 795:.\Generated_Source\PSoC5/USBFS.c ****                 #if(USBFS_DMA1_REMOVE == 0u)
 796:.\Generated_Source\PSoC5/USBFS.c ****                     USBFS_DmaChan[epNumber] = USBFS_ep1_DmaInitialize(
 797:.\Generated_Source\PSoC5/USBFS.c ****                         USBFS_DMA_BYTES_PER_BURST, USBFS_DMA_REQUEST_PER_BURST, src, dst);
 798:.\Generated_Source\PSoC5/USBFS.c ****                 #endif   /* End USBFS_DMA1_REMOVE */
 799:.\Generated_Source\PSoC5/USBFS.c ****                 break;
 800:.\Generated_Source\PSoC5/USBFS.c ****             case USBFS_EP2:
 801:.\Generated_Source\PSoC5/USBFS.c ****                 #if(USBFS_DMA2_REMOVE == 0u)
 802:.\Generated_Source\PSoC5/USBFS.c ****                     USBFS_DmaChan[epNumber] = USBFS_ep2_DmaInitialize(
 803:.\Generated_Source\PSoC5/USBFS.c ****                         USBFS_DMA_BYTES_PER_BURST, USBFS_DMA_REQUEST_PER_BURST, src, dst);
 804:.\Generated_Source\PSoC5/USBFS.c ****                 #endif   /* End USBFS_DMA2_REMOVE */
 805:.\Generated_Source\PSoC5/USBFS.c ****                 break;
 806:.\Generated_Source\PSoC5/USBFS.c ****             case USBFS_EP3:
 807:.\Generated_Source\PSoC5/USBFS.c ****                 #if(USBFS_DMA3_REMOVE == 0u)
 808:.\Generated_Source\PSoC5/USBFS.c ****                     USBFS_DmaChan[epNumber] = USBFS_ep3_DmaInitialize(
 809:.\Generated_Source\PSoC5/USBFS.c ****                         USBFS_DMA_BYTES_PER_BURST, USBFS_DMA_REQUEST_PER_BURST, src, dst);
 810:.\Generated_Source\PSoC5/USBFS.c ****                 #endif   /* End USBFS_DMA3_REMOVE */
 811:.\Generated_Source\PSoC5/USBFS.c ****                 break;
 812:.\Generated_Source\PSoC5/USBFS.c ****             case USBFS_EP4:
 813:.\Generated_Source\PSoC5/USBFS.c ****                 #if(USBFS_DMA4_REMOVE == 0u)
 814:.\Generated_Source\PSoC5/USBFS.c ****                     USBFS_DmaChan[epNumber] = USBFS_ep4_DmaInitialize(
 815:.\Generated_Source\PSoC5/USBFS.c ****                         USBFS_DMA_BYTES_PER_BURST, USBFS_DMA_REQUEST_PER_BURST, src, dst);
 816:.\Generated_Source\PSoC5/USBFS.c ****                 #endif   /* End USBFS_DMA4_REMOVE */
 817:.\Generated_Source\PSoC5/USBFS.c ****                 break;
 818:.\Generated_Source\PSoC5/USBFS.c ****             case USBFS_EP5:
 819:.\Generated_Source\PSoC5/USBFS.c ****                 #if(USBFS_DMA5_REMOVE == 0u)
 820:.\Generated_Source\PSoC5/USBFS.c ****                     USBFS_DmaChan[epNumber] = USBFS_ep5_DmaInitialize(
 821:.\Generated_Source\PSoC5/USBFS.c ****                         USBFS_DMA_BYTES_PER_BURST, USBFS_DMA_REQUEST_PER_BURST, src, dst);
 822:.\Generated_Source\PSoC5/USBFS.c ****                 #endif   /* End USBFS_DMA5_REMOVE */
 823:.\Generated_Source\PSoC5/USBFS.c ****                 break;
 824:.\Generated_Source\PSoC5/USBFS.c ****             case USBFS_EP6:
 825:.\Generated_Source\PSoC5/USBFS.c ****                 #if(USBFS_DMA6_REMOVE == 0u)
 826:.\Generated_Source\PSoC5/USBFS.c ****                     USBFS_DmaChan[epNumber] = USBFS_ep6_DmaInitialize(
 827:.\Generated_Source\PSoC5/USBFS.c ****                         USBFS_DMA_BYTES_PER_BURST, USBFS_DMA_REQUEST_PER_BURST, src, dst);
 828:.\Generated_Source\PSoC5/USBFS.c ****                 #endif   /* End USBFS_DMA6_REMOVE */
 829:.\Generated_Source\PSoC5/USBFS.c ****                 break;
 830:.\Generated_Source\PSoC5/USBFS.c ****             case USBFS_EP7:
 831:.\Generated_Source\PSoC5/USBFS.c ****                 #if(USBFS_DMA7_REMOVE == 0u)
 832:.\Generated_Source\PSoC5/USBFS.c ****                     USBFS_DmaChan[epNumber] = USBFS_ep7_DmaInitialize(
 833:.\Generated_Source\PSoC5/USBFS.c ****                         USBFS_DMA_BYTES_PER_BURST, USBFS_DMA_REQUEST_PER_BURST, src, dst);
 834:.\Generated_Source\PSoC5/USBFS.c ****                 #endif   /* End USBFS_DMA7_REMOVE */
 835:.\Generated_Source\PSoC5/USBFS.c ****                 break;
 836:.\Generated_Source\PSoC5/USBFS.c ****             case USBFS_EP8:
 837:.\Generated_Source\PSoC5/USBFS.c ****                 #if(USBFS_DMA8_REMOVE == 0u)
 838:.\Generated_Source\PSoC5/USBFS.c ****                     USBFS_DmaChan[epNumber] = USBFS_ep8_DmaInitialize(
 839:.\Generated_Source\PSoC5/USBFS.c ****                         USBFS_DMA_BYTES_PER_BURST, USBFS_DMA_REQUEST_PER_BURST, src, dst);
 840:.\Generated_Source\PSoC5/USBFS.c ****                 #endif   /* End USBFS_DMA8_REMOVE */
ARM GAS  C:\Users\MICHA_~1\AppData\Local\Temp\ccbOK9oc.s 			page 30


 841:.\Generated_Source\PSoC5/USBFS.c ****                 break;
 842:.\Generated_Source\PSoC5/USBFS.c ****             default:
 843:.\Generated_Source\PSoC5/USBFS.c ****                 /* Do not support EP0 DMA transfers */
 844:.\Generated_Source\PSoC5/USBFS.c ****                 break;
 845:.\Generated_Source\PSoC5/USBFS.c ****         }
 846:.\Generated_Source\PSoC5/USBFS.c ****         if((epNumber > USBFS_EP0) && (epNumber < USBFS_MAX_EP))
 847:.\Generated_Source\PSoC5/USBFS.c ****         {
 848:.\Generated_Source\PSoC5/USBFS.c ****             USBFS_DmaTd[epNumber] = CyDmaTdAllocate();
 849:.\Generated_Source\PSoC5/USBFS.c ****         }
 850:.\Generated_Source\PSoC5/USBFS.c ****     }
 851:.\Generated_Source\PSoC5/USBFS.c **** 
 852:.\Generated_Source\PSoC5/USBFS.c **** 
 853:.\Generated_Source\PSoC5/USBFS.c ****     /*******************************************************************************
 854:.\Generated_Source\PSoC5/USBFS.c ****     * Function Name: USBFS_Stop_DMA
 855:.\Generated_Source\PSoC5/USBFS.c ****     ********************************************************************************
 856:.\Generated_Source\PSoC5/USBFS.c ****     *
 857:.\Generated_Source\PSoC5/USBFS.c ****     * Summary: Stops and free DMA
 858:.\Generated_Source\PSoC5/USBFS.c ****     *
 859:.\Generated_Source\PSoC5/USBFS.c ****     * Parameters:
 860:.\Generated_Source\PSoC5/USBFS.c ****     *  epNumber: Contains the data endpoint number or
 861:.\Generated_Source\PSoC5/USBFS.c ****     *           USBFS_MAX_EP to stop all DMAs
 862:.\Generated_Source\PSoC5/USBFS.c ****     *
 863:.\Generated_Source\PSoC5/USBFS.c ****     * Return:
 864:.\Generated_Source\PSoC5/USBFS.c ****     *  None.
 865:.\Generated_Source\PSoC5/USBFS.c ****     *
 866:.\Generated_Source\PSoC5/USBFS.c ****     * Reentrant:
 867:.\Generated_Source\PSoC5/USBFS.c ****     *  No.
 868:.\Generated_Source\PSoC5/USBFS.c ****     *
 869:.\Generated_Source\PSoC5/USBFS.c ****     *******************************************************************************/
 870:.\Generated_Source\PSoC5/USBFS.c ****     void USBFS_Stop_DMA(uint8 epNumber) 
 871:.\Generated_Source\PSoC5/USBFS.c ****     {
 872:.\Generated_Source\PSoC5/USBFS.c ****         uint8 i;
 873:.\Generated_Source\PSoC5/USBFS.c ****         i = (epNumber < USBFS_MAX_EP) ? epNumber : USBFS_EP1;
 874:.\Generated_Source\PSoC5/USBFS.c ****         do
 875:.\Generated_Source\PSoC5/USBFS.c ****         {
 876:.\Generated_Source\PSoC5/USBFS.c ****             if(USBFS_DmaTd[i] != DMA_INVALID_TD)
 877:.\Generated_Source\PSoC5/USBFS.c ****             {
 878:.\Generated_Source\PSoC5/USBFS.c ****                 (void) CyDmaChDisable(USBFS_DmaChan[i]);
 879:.\Generated_Source\PSoC5/USBFS.c ****                 CyDmaTdFree(USBFS_DmaTd[i]);
 880:.\Generated_Source\PSoC5/USBFS.c ****                 USBFS_DmaTd[i] = DMA_INVALID_TD;
 881:.\Generated_Source\PSoC5/USBFS.c ****             }
 882:.\Generated_Source\PSoC5/USBFS.c ****             i++;
 883:.\Generated_Source\PSoC5/USBFS.c ****         }while((i < USBFS_MAX_EP) && (epNumber == USBFS_MAX_EP));
 884:.\Generated_Source\PSoC5/USBFS.c ****     }
 885:.\Generated_Source\PSoC5/USBFS.c **** 
 886:.\Generated_Source\PSoC5/USBFS.c **** #endif /* End USBFS_EP_MM != USBFS__EP_MANUAL */
 887:.\Generated_Source\PSoC5/USBFS.c **** 
 888:.\Generated_Source\PSoC5/USBFS.c **** 
 889:.\Generated_Source\PSoC5/USBFS.c **** /*******************************************************************************
 890:.\Generated_Source\PSoC5/USBFS.c **** * Function Name: USBFS_LoadInEP
 891:.\Generated_Source\PSoC5/USBFS.c **** ********************************************************************************
 892:.\Generated_Source\PSoC5/USBFS.c **** *
 893:.\Generated_Source\PSoC5/USBFS.c **** * Summary:
 894:.\Generated_Source\PSoC5/USBFS.c **** *  Loads and enables the specified USB data endpoint for an IN interrupt or bulk
 895:.\Generated_Source\PSoC5/USBFS.c **** *  transfer.
 896:.\Generated_Source\PSoC5/USBFS.c **** *
 897:.\Generated_Source\PSoC5/USBFS.c **** * Parameters:
ARM GAS  C:\Users\MICHA_~1\AppData\Local\Temp\ccbOK9oc.s 			page 31


 898:.\Generated_Source\PSoC5/USBFS.c **** *  epNumber: Contains the data endpoint number.
 899:.\Generated_Source\PSoC5/USBFS.c **** *            Valid values are between 1 and 8.
 900:.\Generated_Source\PSoC5/USBFS.c **** *  *pData: A pointer to a data array from which the data for the endpoint space
 901:.\Generated_Source\PSoC5/USBFS.c **** *          is loaded.
 902:.\Generated_Source\PSoC5/USBFS.c **** *  length: The number of bytes to transfer from the array and then send as a
 903:.\Generated_Source\PSoC5/USBFS.c **** *          result of an IN request. Valid values are between 0 and 512.
 904:.\Generated_Source\PSoC5/USBFS.c **** *
 905:.\Generated_Source\PSoC5/USBFS.c **** * Return:
 906:.\Generated_Source\PSoC5/USBFS.c **** *  None.
 907:.\Generated_Source\PSoC5/USBFS.c **** *
 908:.\Generated_Source\PSoC5/USBFS.c **** * Reentrant:
 909:.\Generated_Source\PSoC5/USBFS.c **** *  No.
 910:.\Generated_Source\PSoC5/USBFS.c **** *
 911:.\Generated_Source\PSoC5/USBFS.c **** *******************************************************************************/
 912:.\Generated_Source\PSoC5/USBFS.c **** void USBFS_LoadInEP(uint8 epNumber, const uint8 pData[], uint16 length)
 913:.\Generated_Source\PSoC5/USBFS.c ****                                                                         
 914:.\Generated_Source\PSoC5/USBFS.c **** {
 756              		.loc 1 914 0
 757              		.cfi_startproc
 758              		@ args = 0, pretend = 0, frame = 0
 759              		@ frame_needed = 0, uses_anonymous_args = 0
 760              	.LVL47:
 915:.\Generated_Source\PSoC5/USBFS.c ****     uint8 ri;
 916:.\Generated_Source\PSoC5/USBFS.c ****     reg8 *p;
 917:.\Generated_Source\PSoC5/USBFS.c ****     #if(USBFS_EP_MM == USBFS__EP_MANUAL)
 918:.\Generated_Source\PSoC5/USBFS.c ****         uint16 i;
 919:.\Generated_Source\PSoC5/USBFS.c ****     #endif /* End USBFS_EP_MM == USBFS__EP_MANUAL */
 920:.\Generated_Source\PSoC5/USBFS.c **** 
 921:.\Generated_Source\PSoC5/USBFS.c ****     if((epNumber > USBFS_EP0) && (epNumber < USBFS_MAX_EP))
 761              		.loc 1 921 0
 762 0000 431E     		subs	r3, r0, #1
 763 0002 DBB2     		uxtb	r3, r3
 764 0004 072B     		cmp	r3, #7
 914:.\Generated_Source\PSoC5/USBFS.c **** {
 765              		.loc 1 914 0
 766 0006 F0B5     		push	{r4, r5, r6, r7, lr}
 767              	.LCFI3:
 768              		.cfi_def_cfa_offset 20
 769              		.cfi_offset 4, -20
 770              		.cfi_offset 5, -16
 771              		.cfi_offset 6, -12
 772              		.cfi_offset 7, -8
 773              		.cfi_offset 14, -4
 774              		.loc 1 921 0
 775 0008 2FD8     		bhi	.L45
 776              	.LVL48:
 922:.\Generated_Source\PSoC5/USBFS.c ****     {
 923:.\Generated_Source\PSoC5/USBFS.c ****         ri = ((epNumber - USBFS_EP1) << USBFS_EPX_CNTX_ADDR_SHIFT);
 924:.\Generated_Source\PSoC5/USBFS.c ****         p = (reg8 *)(USBFS_ARB_RW1_DR_IND + ri);
 925:.\Generated_Source\PSoC5/USBFS.c **** 
 926:.\Generated_Source\PSoC5/USBFS.c ****         #if(USBFS_EP_MM != USBFS__EP_DMAAUTO)
 927:.\Generated_Source\PSoC5/USBFS.c ****             /* Limits length to available buffer space, auto MM could send packets up to 1024 bytes
 928:.\Generated_Source\PSoC5/USBFS.c ****             if(length > (USBFS_EPX_DATA_BUF_MAX - USBFS_EP[epNumber].buffOffset))
 777              		.loc 1 928 0
 778 000a 184E     		ldr	r6, .L52
 923:.\Generated_Source\PSoC5/USBFS.c ****         ri = ((epNumber - USBFS_EP1) << USBFS_EPX_CNTX_ADDR_SHIFT);
 779              		.loc 1 923 0
ARM GAS  C:\Users\MICHA_~1\AppData\Local\Temp\ccbOK9oc.s 			page 32


 780 000c 1C01     		lsls	r4, r3, #4
 781              		.loc 1 928 0
 782 000e 0C27     		movs	r7, #12
 924:.\Generated_Source\PSoC5/USBFS.c ****         p = (reg8 *)(USBFS_ARB_RW1_DR_IND + ri);
 783              		.loc 1 924 0
 784 0010 E3B2     		uxtb	r3, r4
 785              	.LVL49:
 786              		.loc 1 928 0
 787 0012 07FB0064 		mla	r4, r7, r0, r6
 788 0016 E788     		ldrh	r7, [r4, #6]
 924:.\Generated_Source\PSoC5/USBFS.c ****         p = (reg8 *)(USBFS_ARB_RW1_DR_IND + ri);
 789              		.loc 1 924 0
 790 0018 154D     		ldr	r5, .L52+4
 791              		.loc 1 928 0
 792 001a BFB2     		uxth	r7, r7
 793 001c C7F50077 		rsb	r7, r7, #512
 794 0020 BA42     		cmp	r2, r7
 924:.\Generated_Source\PSoC5/USBFS.c ****         p = (reg8 *)(USBFS_ARB_RW1_DR_IND + ri);
 795              		.loc 1 924 0
 796 0022 1D44     		add	r5, r3, r5
 797              	.LVL50:
 798              		.loc 1 928 0
 799 0024 03D9     		bls	.L47
 929:.\Generated_Source\PSoC5/USBFS.c ****             {
 930:.\Generated_Source\PSoC5/USBFS.c ****                 length = USBFS_EPX_DATA_BUF_MAX - USBFS_EP[epNumber].buffOffset;
 800              		.loc 1 930 0
 801 0026 E288     		ldrh	r2, [r4, #6]
 802              	.LVL51:
 803 0028 C2F50074 		rsb	r4, r2, #512
 804 002c A2B2     		uxth	r2, r4
 805              	.LVL52:
 806              	.L47:
 931:.\Generated_Source\PSoC5/USBFS.c ****             }
 932:.\Generated_Source\PSoC5/USBFS.c ****         #endif /* End USBFS_EP_MM != USBFS__EP_DMAAUTO */
 933:.\Generated_Source\PSoC5/USBFS.c **** 
 934:.\Generated_Source\PSoC5/USBFS.c ****         /* Set the count and data toggle */
 935:.\Generated_Source\PSoC5/USBFS.c ****         CY_SET_REG8((reg8 *)(USBFS_SIE_EP1_CNT0_IND + ri),
 807              		.loc 1 935 0
 808 002e 0C24     		movs	r4, #12
 809 0030 04FB0066 		mla	r6, r4, r0, r6
 810 0034 F478     		ldrb	r4, [r6, #3]	@ zero_extendqisi2
 811 0036 44EA1226 		orr	r6, r4, r2, lsr #8
 812 003a 0E4C     		ldr	r4, .L52+8
 813 003c 1E55     		strb	r6, [r3, r4]
 936:.\Generated_Source\PSoC5/USBFS.c ****                             (length >> 8u) | (USBFS_EP[epNumber].epToggle));
 937:.\Generated_Source\PSoC5/USBFS.c ****         CY_SET_REG8((reg8 *)(USBFS_SIE_EP1_CNT1_IND + ri),  length & 0xFFu);
 814              		.loc 1 937 0
 815 003e D6B2     		uxtb	r6, r2
 816 0040 0134     		adds	r4, r4, #1
 817 0042 1E55     		strb	r6, [r3, r4]
 938:.\Generated_Source\PSoC5/USBFS.c **** 
 939:.\Generated_Source\PSoC5/USBFS.c ****         #if(USBFS_EP_MM == USBFS__EP_MANUAL)
 940:.\Generated_Source\PSoC5/USBFS.c ****             if(pData != NULL)
 818              		.loc 1 940 0
 819 0044 49B9     		cbnz	r1, .L51
 820              	.L50:
 941:.\Generated_Source\PSoC5/USBFS.c ****             {
ARM GAS  C:\Users\MICHA_~1\AppData\Local\Temp\ccbOK9oc.s 			page 33


 942:.\Generated_Source\PSoC5/USBFS.c ****                 /* Copy the data using the arbiter data register */
 943:.\Generated_Source\PSoC5/USBFS.c ****                 for (i = 0u; i < length; i++)
 944:.\Generated_Source\PSoC5/USBFS.c ****                 {
 945:.\Generated_Source\PSoC5/USBFS.c ****                     CY_SET_REG8(p, pData[i]);
 946:.\Generated_Source\PSoC5/USBFS.c ****                 }
 947:.\Generated_Source\PSoC5/USBFS.c ****             }
 948:.\Generated_Source\PSoC5/USBFS.c ****             USBFS_EP[epNumber].apiEpState = USBFS_NO_EVENT_PENDING;
 821              		.loc 1 948 0
 822 0046 094A     		ldr	r2, .L52
 823              	.LVL53:
 824 0048 0C21     		movs	r1, #12
 825              	.LVL54:
 826 004a 01FB0020 		mla	r0, r1, r0, r2
 827              	.LVL55:
 828 004e 0021     		movs	r1, #0
 829 0050 4170     		strb	r1, [r0, #1]
 949:.\Generated_Source\PSoC5/USBFS.c ****             /* Write the Mode register */
 950:.\Generated_Source\PSoC5/USBFS.c ****             CY_SET_REG8((reg8 *)(USBFS_SIE_EP1_CR0_IND + ri), USBFS_EP[epNumber].epMode);
 830              		.loc 1 950 0
 831 0052 4079     		ldrb	r0, [r0, #5]	@ zero_extendqisi2
 832 0054 084A     		ldr	r2, .L52+12
 833 0056 9854     		strb	r0, [r3, r2]
 834 0058 F0BD     		pop	{r4, r5, r6, r7, pc}
 835              	.LVL56:
 836              	.L51:
 940:.\Generated_Source\PSoC5/USBFS.c ****             if(pData != NULL)
 837              		.loc 1 940 0
 838 005a 0024     		movs	r4, #0
 839              	.L48:
 943:.\Generated_Source\PSoC5/USBFS.c ****                 for (i = 0u; i < length; i++)
 840              		.loc 1 943 0 discriminator 1
 841 005c A6B2     		uxth	r6, r4
 842 005e 9642     		cmp	r6, r2
 843 0060 F1D2     		bcs	.L50
 844              	.L49:
 945:.\Generated_Source\PSoC5/USBFS.c ****                     CY_SET_REG8(p, pData[i]);
 845              		.loc 1 945 0 discriminator 2
 846 0062 0E5D     		ldrb	r6, [r1, r4]	@ zero_extendqisi2
 847 0064 0134     		adds	r4, r4, #1
 848 0066 2E70     		strb	r6, [r5, #0]
 849 0068 F8E7     		b	.L48
 850              	.LVL57:
 851              	.L45:
 852 006a F0BD     		pop	{r4, r5, r6, r7, pc}
 853              	.L53:
 854              		.align	2
 855              	.L52:
 856 006c 00000000 		.word	USBFS_EP
 857 0070 88600040 		.word	1073766536
 858 0074 0C600040 		.word	1073766412
 859 0078 0E600040 		.word	1073766414
 860              		.cfi_endproc
 861              	.LFE11:
 862              		.size	USBFS_LoadInEP, .-USBFS_LoadInEP
 863              		.section	.text.USBFS_EnableOutEP,"ax",%progbits
 864              		.align	1
 865              		.global	USBFS_EnableOutEP
ARM GAS  C:\Users\MICHA_~1\AppData\Local\Temp\ccbOK9oc.s 			page 34


 866              		.thumb
 867              		.thumb_func
 868              		.type	USBFS_EnableOutEP, %function
 869              	USBFS_EnableOutEP:
 870              	.LFB13:
 951:.\Generated_Source\PSoC5/USBFS.c ****         #else
 952:.\Generated_Source\PSoC5/USBFS.c ****             /* Init DMA if it was not initialized */
 953:.\Generated_Source\PSoC5/USBFS.c ****             if(USBFS_DmaTd[epNumber] == DMA_INVALID_TD)
 954:.\Generated_Source\PSoC5/USBFS.c ****             {
 955:.\Generated_Source\PSoC5/USBFS.c ****                 USBFS_InitEP_DMA(epNumber, pData);
 956:.\Generated_Source\PSoC5/USBFS.c ****             }
 957:.\Generated_Source\PSoC5/USBFS.c ****         #endif /* End USBFS_EP_MM == USBFS__EP_MANUAL */
 958:.\Generated_Source\PSoC5/USBFS.c **** 
 959:.\Generated_Source\PSoC5/USBFS.c ****         #if(USBFS_EP_MM == USBFS__EP_DMAMANUAL)
 960:.\Generated_Source\PSoC5/USBFS.c ****             USBFS_EP[epNumber].apiEpState = USBFS_NO_EVENT_PENDING;
 961:.\Generated_Source\PSoC5/USBFS.c ****             if((pData != NULL) && (length > 0u))
 962:.\Generated_Source\PSoC5/USBFS.c ****             {
 963:.\Generated_Source\PSoC5/USBFS.c ****                 /* Enable DMA in mode2 for transferring data */
 964:.\Generated_Source\PSoC5/USBFS.c ****                 (void) CyDmaChDisable(USBFS_DmaChan[epNumber]);
 965:.\Generated_Source\PSoC5/USBFS.c ****                 (void) CyDmaTdSetConfiguration(USBFS_DmaTd[epNumber], length, CY_DMA_DISABLE_TD,
 966:.\Generated_Source\PSoC5/USBFS.c ****                                                                                  TD_TERMIN_EN | TD_
 967:.\Generated_Source\PSoC5/USBFS.c ****                 (void) CyDmaTdSetAddress(USBFS_DmaTd[epNumber],  LO16((uint32)pData), LO16((uint32)
 968:.\Generated_Source\PSoC5/USBFS.c ****                 /* Enable the DMA */
 969:.\Generated_Source\PSoC5/USBFS.c ****                 (void) CyDmaChSetInitialTd(USBFS_DmaChan[epNumber], USBFS_DmaTd[epNumber]);
 970:.\Generated_Source\PSoC5/USBFS.c ****                 (void) CyDmaChEnable(USBFS_DmaChan[epNumber], 1u);
 971:.\Generated_Source\PSoC5/USBFS.c ****                 /* Generate DMA request */
 972:.\Generated_Source\PSoC5/USBFS.c ****                 * (reg8 *)(USBFS_ARB_EP1_CFG_IND + ri) |= USBFS_ARB_EPX_CFG_DMA_REQ;
 973:.\Generated_Source\PSoC5/USBFS.c ****                 * (reg8 *)(USBFS_ARB_EP1_CFG_IND + ri) &= ((uint8)(~USBFS_ARB_EPX_CFG_DMA_REQ));
 974:.\Generated_Source\PSoC5/USBFS.c ****                 /* Mode register will be written in arb ISR after DMA transfer complete */
 975:.\Generated_Source\PSoC5/USBFS.c ****             }
 976:.\Generated_Source\PSoC5/USBFS.c ****             else
 977:.\Generated_Source\PSoC5/USBFS.c ****             {
 978:.\Generated_Source\PSoC5/USBFS.c ****                 /* When zero-length packet - write the Mode register directly */
 979:.\Generated_Source\PSoC5/USBFS.c ****                 CY_SET_REG8((reg8 *)(USBFS_SIE_EP1_CR0_IND + ri), USBFS_EP[epNumber].epMode);
 980:.\Generated_Source\PSoC5/USBFS.c ****             }
 981:.\Generated_Source\PSoC5/USBFS.c ****         #endif /* End USBFS_EP_MM == USBFS__EP_DMAMANUAL */
 982:.\Generated_Source\PSoC5/USBFS.c **** 
 983:.\Generated_Source\PSoC5/USBFS.c ****         #if(USBFS_EP_MM == USBFS__EP_DMAAUTO)
 984:.\Generated_Source\PSoC5/USBFS.c ****             if(pData != NULL)
 985:.\Generated_Source\PSoC5/USBFS.c ****             {
 986:.\Generated_Source\PSoC5/USBFS.c ****                 /* Enable DMA in mode3 for transferring data */
 987:.\Generated_Source\PSoC5/USBFS.c ****                 (void) CyDmaChDisable(USBFS_DmaChan[epNumber]);
 988:.\Generated_Source\PSoC5/USBFS.c ****                 (void) CyDmaTdSetConfiguration(USBFS_DmaTd[epNumber], length,
 989:.\Generated_Source\PSoC5/USBFS.c ****                                                USBFS_DmaTd[epNumber], TD_TERMIN_EN | TD_INC_SRC_ADR
 990:.\Generated_Source\PSoC5/USBFS.c ****                 (void) CyDmaTdSetAddress(USBFS_DmaTd[epNumber],  LO16((uint32)pData), LO16((uint32)
 991:.\Generated_Source\PSoC5/USBFS.c ****                 /* Clear Any potential pending DMA requests before starting the DMA channel to tran
 992:.\Generated_Source\PSoC5/USBFS.c ****                 (void) CyDmaClearPendingDrq(USBFS_DmaChan[epNumber]);
 993:.\Generated_Source\PSoC5/USBFS.c ****                 /* Enable the DMA */
 994:.\Generated_Source\PSoC5/USBFS.c ****                 (void) CyDmaChSetInitialTd(USBFS_DmaChan[epNumber], USBFS_DmaTd[epNumber]);
 995:.\Generated_Source\PSoC5/USBFS.c ****                 (void) CyDmaChEnable(USBFS_DmaChan[epNumber], 1u);
 996:.\Generated_Source\PSoC5/USBFS.c ****             }
 997:.\Generated_Source\PSoC5/USBFS.c ****             else
 998:.\Generated_Source\PSoC5/USBFS.c ****             {
 999:.\Generated_Source\PSoC5/USBFS.c ****                 USBFS_EP[epNumber].apiEpState = USBFS_NO_EVENT_PENDING;
1000:.\Generated_Source\PSoC5/USBFS.c ****                 if(length > 0u)
1001:.\Generated_Source\PSoC5/USBFS.c ****                 {
1002:.\Generated_Source\PSoC5/USBFS.c ****                     /* Set Data ready status, This will generate DMA request */
ARM GAS  C:\Users\MICHA_~1\AppData\Local\Temp\ccbOK9oc.s 			page 35


1003:.\Generated_Source\PSoC5/USBFS.c ****                     * (reg8 *)(USBFS_ARB_EP1_CFG_IND + ri) |= USBFS_ARB_EPX_CFG_IN_DATA_RDY;
1004:.\Generated_Source\PSoC5/USBFS.c ****                     /* Mode register will be written in arb ISR(In Buffer Full) after first DMA tra
1005:.\Generated_Source\PSoC5/USBFS.c ****                 }
1006:.\Generated_Source\PSoC5/USBFS.c ****                 else
1007:.\Generated_Source\PSoC5/USBFS.c ****                 {
1008:.\Generated_Source\PSoC5/USBFS.c ****                     /* When zero-length packet - write the Mode register directly */
1009:.\Generated_Source\PSoC5/USBFS.c ****                     CY_SET_REG8((reg8 *)(USBFS_SIE_EP1_CR0_IND + ri), USBFS_EP[epNumber].epMode);
1010:.\Generated_Source\PSoC5/USBFS.c ****                 }
1011:.\Generated_Source\PSoC5/USBFS.c ****             }
1012:.\Generated_Source\PSoC5/USBFS.c ****         #endif /* End USBFS_EP_MM == USBFS__EP_DMAAUTO */
1013:.\Generated_Source\PSoC5/USBFS.c **** 
1014:.\Generated_Source\PSoC5/USBFS.c ****     }
1015:.\Generated_Source\PSoC5/USBFS.c **** }
1016:.\Generated_Source\PSoC5/USBFS.c **** 
1017:.\Generated_Source\PSoC5/USBFS.c **** 
1018:.\Generated_Source\PSoC5/USBFS.c **** /*******************************************************************************
1019:.\Generated_Source\PSoC5/USBFS.c **** * Function Name: USBFS_ReadOutEP
1020:.\Generated_Source\PSoC5/USBFS.c **** ********************************************************************************
1021:.\Generated_Source\PSoC5/USBFS.c **** *
1022:.\Generated_Source\PSoC5/USBFS.c **** * Summary:
1023:.\Generated_Source\PSoC5/USBFS.c **** *  Read data from an endpoint.  The application must call
1024:.\Generated_Source\PSoC5/USBFS.c **** *  USBFS_GetEPState to see if an event is pending.
1025:.\Generated_Source\PSoC5/USBFS.c **** *
1026:.\Generated_Source\PSoC5/USBFS.c **** * Parameters:
1027:.\Generated_Source\PSoC5/USBFS.c **** *  epNumber: Contains the data endpoint number.
1028:.\Generated_Source\PSoC5/USBFS.c **** *            Valid values are between 1 and 8.
1029:.\Generated_Source\PSoC5/USBFS.c **** *  pData: A pointer to a data array from which the data for the endpoint space
1030:.\Generated_Source\PSoC5/USBFS.c **** *         is loaded.
1031:.\Generated_Source\PSoC5/USBFS.c **** *  length: The number of bytes to transfer from the USB Out endpoint and loads
1032:.\Generated_Source\PSoC5/USBFS.c **** *          it into data array. Valid values are between 0 and 1023. The function
1033:.\Generated_Source\PSoC5/USBFS.c **** *          moves fewer than the requested number of bytes if the host sends
1034:.\Generated_Source\PSoC5/USBFS.c **** *          fewer bytes than requested.
1035:.\Generated_Source\PSoC5/USBFS.c **** *
1036:.\Generated_Source\PSoC5/USBFS.c **** * Returns:
1037:.\Generated_Source\PSoC5/USBFS.c **** *  Number of bytes received, 0 for an invalid endpoint.
1038:.\Generated_Source\PSoC5/USBFS.c **** *
1039:.\Generated_Source\PSoC5/USBFS.c **** * Reentrant:
1040:.\Generated_Source\PSoC5/USBFS.c **** *  No.
1041:.\Generated_Source\PSoC5/USBFS.c **** *
1042:.\Generated_Source\PSoC5/USBFS.c **** *******************************************************************************/
1043:.\Generated_Source\PSoC5/USBFS.c **** uint16 USBFS_ReadOutEP(uint8 epNumber, uint8 pData[], uint16 length)
1044:.\Generated_Source\PSoC5/USBFS.c ****                                                                         
1045:.\Generated_Source\PSoC5/USBFS.c **** {
1046:.\Generated_Source\PSoC5/USBFS.c ****     uint8 ri;
1047:.\Generated_Source\PSoC5/USBFS.c ****     reg8 *p;
1048:.\Generated_Source\PSoC5/USBFS.c ****     #if(USBFS_EP_MM == USBFS__EP_MANUAL)
1049:.\Generated_Source\PSoC5/USBFS.c ****         uint16 i;
1050:.\Generated_Source\PSoC5/USBFS.c ****     #endif /* End USBFS_EP_MM == USBFS__EP_MANUAL */
1051:.\Generated_Source\PSoC5/USBFS.c ****     #if(USBFS_EP_MM != USBFS__EP_DMAAUTO)
1052:.\Generated_Source\PSoC5/USBFS.c ****         uint16 xferCount;
1053:.\Generated_Source\PSoC5/USBFS.c ****     #endif /* End USBFS_EP_MM != USBFS__EP_DMAAUTO */
1054:.\Generated_Source\PSoC5/USBFS.c **** 
1055:.\Generated_Source\PSoC5/USBFS.c ****     if((epNumber > USBFS_EP0) && (epNumber < USBFS_MAX_EP) && (pData != NULL))
1056:.\Generated_Source\PSoC5/USBFS.c ****     {
1057:.\Generated_Source\PSoC5/USBFS.c ****         ri = ((epNumber - USBFS_EP1) << USBFS_EPX_CNTX_ADDR_SHIFT);
1058:.\Generated_Source\PSoC5/USBFS.c ****         p = (reg8 *)(USBFS_ARB_RW1_DR_IND + ri);
1059:.\Generated_Source\PSoC5/USBFS.c **** 
ARM GAS  C:\Users\MICHA_~1\AppData\Local\Temp\ccbOK9oc.s 			page 36


1060:.\Generated_Source\PSoC5/USBFS.c ****         #if(USBFS_EP_MM != USBFS__EP_DMAAUTO)
1061:.\Generated_Source\PSoC5/USBFS.c ****             /* Determine which is smaller the requested data or the available data */
1062:.\Generated_Source\PSoC5/USBFS.c ****             xferCount = USBFS_GetEPCount(epNumber);
1063:.\Generated_Source\PSoC5/USBFS.c ****             if (length > xferCount)
1064:.\Generated_Source\PSoC5/USBFS.c ****             {
1065:.\Generated_Source\PSoC5/USBFS.c ****                 length = xferCount;
1066:.\Generated_Source\PSoC5/USBFS.c ****             }
1067:.\Generated_Source\PSoC5/USBFS.c ****         #endif /* End USBFS_EP_MM != USBFS__EP_DMAAUTO */
1068:.\Generated_Source\PSoC5/USBFS.c **** 
1069:.\Generated_Source\PSoC5/USBFS.c ****         #if(USBFS_EP_MM == USBFS__EP_MANUAL)
1070:.\Generated_Source\PSoC5/USBFS.c ****             /* Copy the data using the arbiter data register */
1071:.\Generated_Source\PSoC5/USBFS.c ****             for (i = 0u; i < length; i++)
1072:.\Generated_Source\PSoC5/USBFS.c ****             {
1073:.\Generated_Source\PSoC5/USBFS.c ****                 pData[i] = CY_GET_REG8(p);
1074:.\Generated_Source\PSoC5/USBFS.c ****             }
1075:.\Generated_Source\PSoC5/USBFS.c **** 
1076:.\Generated_Source\PSoC5/USBFS.c ****             /* (re)arming of OUT endpoint */
1077:.\Generated_Source\PSoC5/USBFS.c ****             USBFS_EnableOutEP(epNumber);
1078:.\Generated_Source\PSoC5/USBFS.c ****         #else
1079:.\Generated_Source\PSoC5/USBFS.c ****             /*Init DMA if it was not initialized */
1080:.\Generated_Source\PSoC5/USBFS.c ****             if(USBFS_DmaTd[epNumber] == DMA_INVALID_TD)
1081:.\Generated_Source\PSoC5/USBFS.c ****             {
1082:.\Generated_Source\PSoC5/USBFS.c ****                 USBFS_InitEP_DMA(epNumber, pData);
1083:.\Generated_Source\PSoC5/USBFS.c ****             }
1084:.\Generated_Source\PSoC5/USBFS.c ****         #endif /* End USBFS_EP_MM == USBFS__EP_MANUAL */
1085:.\Generated_Source\PSoC5/USBFS.c **** 
1086:.\Generated_Source\PSoC5/USBFS.c ****         #if(USBFS_EP_MM == USBFS__EP_DMAMANUAL)
1087:.\Generated_Source\PSoC5/USBFS.c ****             /* Enable DMA in mode2 for transferring data */
1088:.\Generated_Source\PSoC5/USBFS.c ****             (void) CyDmaChDisable(USBFS_DmaChan[epNumber]);
1089:.\Generated_Source\PSoC5/USBFS.c ****             (void) CyDmaTdSetConfiguration(USBFS_DmaTd[epNumber], length, CY_DMA_DISABLE_TD,
1090:.\Generated_Source\PSoC5/USBFS.c ****                                                                                 TD_TERMIN_EN | TD_I
1091:.\Generated_Source\PSoC5/USBFS.c ****             (void) CyDmaTdSetAddress(USBFS_DmaTd[epNumber],  LO16((uint32)p), LO16((uint32)pData));
1092:.\Generated_Source\PSoC5/USBFS.c ****             /* Enable the DMA */
1093:.\Generated_Source\PSoC5/USBFS.c ****             (void) CyDmaChSetInitialTd(USBFS_DmaChan[epNumber], USBFS_DmaTd[epNumber]);
1094:.\Generated_Source\PSoC5/USBFS.c ****             (void) CyDmaChEnable(USBFS_DmaChan[epNumber], 1u);
1095:.\Generated_Source\PSoC5/USBFS.c **** 
1096:.\Generated_Source\PSoC5/USBFS.c ****             /* Generate DMA request */
1097:.\Generated_Source\PSoC5/USBFS.c ****             * (reg8 *)(USBFS_ARB_EP1_CFG_IND + ri) |= USBFS_ARB_EPX_CFG_DMA_REQ;
1098:.\Generated_Source\PSoC5/USBFS.c ****             * (reg8 *)(USBFS_ARB_EP1_CFG_IND + ri) &= ((uint8)(~USBFS_ARB_EPX_CFG_DMA_REQ));
1099:.\Generated_Source\PSoC5/USBFS.c ****             /* Out EP will be (re)armed in arb ISR after transfer complete */
1100:.\Generated_Source\PSoC5/USBFS.c ****         #endif /* End USBFS_EP_MM == USBFS__EP_DMAMANUAL */
1101:.\Generated_Source\PSoC5/USBFS.c **** 
1102:.\Generated_Source\PSoC5/USBFS.c ****         #if(USBFS_EP_MM == USBFS__EP_DMAAUTO)
1103:.\Generated_Source\PSoC5/USBFS.c ****             /* Enable DMA in mode3 for transferring data */
1104:.\Generated_Source\PSoC5/USBFS.c ****             (void) CyDmaChDisable(USBFS_DmaChan[epNumber]);
1105:.\Generated_Source\PSoC5/USBFS.c ****             (void) CyDmaTdSetConfiguration(USBFS_DmaTd[epNumber], length, USBFS_DmaTd[epNumber],
1106:.\Generated_Source\PSoC5/USBFS.c ****                                                                                 TD_TERMIN_EN | TD_I
1107:.\Generated_Source\PSoC5/USBFS.c ****             (void) CyDmaTdSetAddress(USBFS_DmaTd[epNumber],  LO16((uint32)p), LO16((uint32)pData));
1108:.\Generated_Source\PSoC5/USBFS.c **** 
1109:.\Generated_Source\PSoC5/USBFS.c ****             /* Clear Any potential pending DMA requests before starting the DMA channel to transfer
1110:.\Generated_Source\PSoC5/USBFS.c ****             (void) CyDmaClearPendingDrq(USBFS_DmaChan[epNumber]);
1111:.\Generated_Source\PSoC5/USBFS.c ****             /* Enable the DMA */
1112:.\Generated_Source\PSoC5/USBFS.c ****             (void) CyDmaChSetInitialTd(USBFS_DmaChan[epNumber], USBFS_DmaTd[epNumber]);
1113:.\Generated_Source\PSoC5/USBFS.c ****             (void) CyDmaChEnable(USBFS_DmaChan[epNumber], 1u);
1114:.\Generated_Source\PSoC5/USBFS.c ****             /* Out EP will be (re)armed in arb ISR after transfer complete */
1115:.\Generated_Source\PSoC5/USBFS.c ****         #endif /* End USBFS_EP_MM == USBFS__EP_DMAAUTO */
1116:.\Generated_Source\PSoC5/USBFS.c **** 
ARM GAS  C:\Users\MICHA_~1\AppData\Local\Temp\ccbOK9oc.s 			page 37


1117:.\Generated_Source\PSoC5/USBFS.c ****     }
1118:.\Generated_Source\PSoC5/USBFS.c ****     else
1119:.\Generated_Source\PSoC5/USBFS.c ****     {
1120:.\Generated_Source\PSoC5/USBFS.c ****         length = 0u;
1121:.\Generated_Source\PSoC5/USBFS.c ****     }
1122:.\Generated_Source\PSoC5/USBFS.c **** 
1123:.\Generated_Source\PSoC5/USBFS.c ****     return(length);
1124:.\Generated_Source\PSoC5/USBFS.c **** }
1125:.\Generated_Source\PSoC5/USBFS.c **** 
1126:.\Generated_Source\PSoC5/USBFS.c **** 
1127:.\Generated_Source\PSoC5/USBFS.c **** /*******************************************************************************
1128:.\Generated_Source\PSoC5/USBFS.c **** * Function Name: USBFS_EnableOutEP
1129:.\Generated_Source\PSoC5/USBFS.c **** ********************************************************************************
1130:.\Generated_Source\PSoC5/USBFS.c **** *
1131:.\Generated_Source\PSoC5/USBFS.c **** * Summary:
1132:.\Generated_Source\PSoC5/USBFS.c **** *  This function enables an OUT endpoint.  It should not be
1133:.\Generated_Source\PSoC5/USBFS.c **** *  called for an IN endpoint.
1134:.\Generated_Source\PSoC5/USBFS.c **** *
1135:.\Generated_Source\PSoC5/USBFS.c **** * Parameters:
1136:.\Generated_Source\PSoC5/USBFS.c **** *  epNumber: Endpoint Number
1137:.\Generated_Source\PSoC5/USBFS.c **** *            Valid values are between 1 and 8.
1138:.\Generated_Source\PSoC5/USBFS.c **** *
1139:.\Generated_Source\PSoC5/USBFS.c **** * Return:
1140:.\Generated_Source\PSoC5/USBFS.c **** *   None.
1141:.\Generated_Source\PSoC5/USBFS.c **** *
1142:.\Generated_Source\PSoC5/USBFS.c **** * Global variables:
1143:.\Generated_Source\PSoC5/USBFS.c **** *  USBFS_EP[epNumber].apiEpState - set to NO_EVENT_PENDING
1144:.\Generated_Source\PSoC5/USBFS.c **** *
1145:.\Generated_Source\PSoC5/USBFS.c **** * Reentrant:
1146:.\Generated_Source\PSoC5/USBFS.c **** *  No.
1147:.\Generated_Source\PSoC5/USBFS.c **** *
1148:.\Generated_Source\PSoC5/USBFS.c **** *******************************************************************************/
1149:.\Generated_Source\PSoC5/USBFS.c **** void USBFS_EnableOutEP(uint8 epNumber) 
1150:.\Generated_Source\PSoC5/USBFS.c **** {
 871              		.loc 1 1150 0
 872              		.cfi_startproc
 873              		@ args = 0, pretend = 0, frame = 0
 874              		@ frame_needed = 0, uses_anonymous_args = 0
 875              		@ link register save eliminated.
 876              	.LVL58:
1151:.\Generated_Source\PSoC5/USBFS.c ****     uint8 ri;
1152:.\Generated_Source\PSoC5/USBFS.c **** 
1153:.\Generated_Source\PSoC5/USBFS.c ****     if((epNumber > USBFS_EP0) && (epNumber < USBFS_MAX_EP))
 877              		.loc 1 1153 0
 878 0000 431E     		subs	r3, r0, #1
 879 0002 DBB2     		uxtb	r3, r3
 880 0004 072B     		cmp	r3, #7
 881 0006 0AD8     		bhi	.L54
 882              	.LVL59:
1154:.\Generated_Source\PSoC5/USBFS.c ****     {
1155:.\Generated_Source\PSoC5/USBFS.c ****         ri = ((epNumber - USBFS_EP1) << USBFS_EPX_CNTX_ADDR_SHIFT);
1156:.\Generated_Source\PSoC5/USBFS.c ****         USBFS_EP[epNumber].apiEpState = USBFS_NO_EVENT_PENDING;
 883              		.loc 1 1156 0
 884 0008 054A     		ldr	r2, .L56
 885 000a 0C21     		movs	r1, #12
 886 000c 01FB0020 		mla	r0, r1, r0, r2
 887              	.LVL60:
ARM GAS  C:\Users\MICHA_~1\AppData\Local\Temp\ccbOK9oc.s 			page 38


 888 0010 0021     		movs	r1, #0
 889 0012 4170     		strb	r1, [r0, #1]
1155:.\Generated_Source\PSoC5/USBFS.c ****         ri = ((epNumber - USBFS_EP1) << USBFS_EPX_CNTX_ADDR_SHIFT);
 890              		.loc 1 1155 0
 891 0014 1B01     		lsls	r3, r3, #4
 892              	.LVL61:
1157:.\Generated_Source\PSoC5/USBFS.c ****         /* Write the Mode register */
1158:.\Generated_Source\PSoC5/USBFS.c ****         CY_SET_REG8((reg8 *)(USBFS_SIE_EP1_CR0_IND + ri), USBFS_EP[epNumber].epMode);
 893              		.loc 1 1158 0
 894 0016 4079     		ldrb	r0, [r0, #5]	@ zero_extendqisi2
 895 0018 024A     		ldr	r2, .L56+4
 896 001a DBB2     		uxtb	r3, r3
 897 001c 9854     		strb	r0, [r3, r2]
 898              	.L54:
 899 001e 7047     		bx	lr
 900              	.L57:
 901              		.align	2
 902              	.L56:
 903 0020 00000000 		.word	USBFS_EP
 904 0024 0E600040 		.word	1073766414
 905              		.cfi_endproc
 906              	.LFE13:
 907              		.size	USBFS_EnableOutEP, .-USBFS_EnableOutEP
 908              		.section	.text.USBFS_ReadOutEP,"ax",%progbits
 909              		.align	1
 910              		.global	USBFS_ReadOutEP
 911              		.thumb
 912              		.thumb_func
 913              		.type	USBFS_ReadOutEP, %function
 914              	USBFS_ReadOutEP:
 915              	.LFB12:
1045:.\Generated_Source\PSoC5/USBFS.c **** {
 916              		.loc 1 1045 0
 917              		.cfi_startproc
 918              		@ args = 0, pretend = 0, frame = 0
 919              		@ frame_needed = 0, uses_anonymous_args = 0
 920              	.LVL62:
 921 0000 F8B5     		push	{r3, r4, r5, r6, r7, lr}
 922              	.LCFI4:
 923              		.cfi_def_cfa_offset 24
 924              		.cfi_offset 3, -24
 925              		.cfi_offset 4, -20
 926              		.cfi_offset 5, -16
 927              		.cfi_offset 6, -12
 928              		.cfi_offset 7, -8
 929              		.cfi_offset 14, -4
1055:.\Generated_Source\PSoC5/USBFS.c ****     if((epNumber > USBFS_EP0) && (epNumber < USBFS_MAX_EP) && (pData != NULL))
 930              		.loc 1 1055 0
 931 0002 431E     		subs	r3, r0, #1
1045:.\Generated_Source\PSoC5/USBFS.c **** {
 932              		.loc 1 1045 0
 933 0004 0D46     		mov	r5, r1
1055:.\Generated_Source\PSoC5/USBFS.c ****     if((epNumber > USBFS_EP0) && (epNumber < USBFS_MAX_EP) && (pData != NULL))
 934              		.loc 1 1055 0
 935 0006 D9B2     		uxtb	r1, r3
 936              	.LVL63:
 937 0008 0729     		cmp	r1, #7
ARM GAS  C:\Users\MICHA_~1\AppData\Local\Temp\ccbOK9oc.s 			page 39


1045:.\Generated_Source\PSoC5/USBFS.c **** {
 938              		.loc 1 1045 0
 939 000a 0746     		mov	r7, r0
 940 000c 1446     		mov	r4, r2
1055:.\Generated_Source\PSoC5/USBFS.c ****     if((epNumber > USBFS_EP0) && (epNumber < USBFS_MAX_EP) && (pData != NULL))
 941              		.loc 1 1055 0
 942 000e 16D8     		bhi	.L62
1055:.\Generated_Source\PSoC5/USBFS.c ****     if((epNumber > USBFS_EP0) && (epNumber < USBFS_MAX_EP) && (pData != NULL))
 943              		.loc 1 1055 0 is_stmt 0 discriminator 1
 944 0010 BDB1     		cbz	r5, .L63
 945              	.LVL64:
1057:.\Generated_Source\PSoC5/USBFS.c ****         ri = ((epNumber - USBFS_EP1) << USBFS_EPX_CNTX_ADDR_SHIFT);
 946              		.loc 1 1057 0 is_stmt 1
 947 0012 0A01     		lsls	r2, r1, #4
 948              	.LVL65:
1058:.\Generated_Source\PSoC5/USBFS.c ****         p = (reg8 *)(USBFS_ARB_RW1_DR_IND + ri);
 949              		.loc 1 1058 0
 950 0014 0C4E     		ldr	r6, .L65
 951 0016 D3B2     		uxtb	r3, r2
 952 0018 9E19     		adds	r6, r3, r6
 953              	.LVL66:
1062:.\Generated_Source\PSoC5/USBFS.c ****             xferCount = USBFS_GetEPCount(epNumber);
 954              		.loc 1 1062 0
 955 001a FFF7FEFF 		bl	USBFS_GetEPCount
 956              	.LVL67:
 957 001e A042     		cmp	r0, r4
 958 0020 28BF     		it	cs
 959 0022 2046     		movcs	r0, r4
 960              	.LVL68:
 961 0024 84B2     		uxth	r4, r0
 962              	.LVL69:
1071:.\Generated_Source\PSoC5/USBFS.c ****             for (i = 0u; i < length; i++)
 963              		.loc 1 1071 0
 964 0026 0022     		movs	r2, #0
 965              	.LVL70:
 966              	.L60:
1071:.\Generated_Source\PSoC5/USBFS.c ****             for (i = 0u; i < length; i++)
 967              		.loc 1 1071 0 is_stmt 0 discriminator 1
 968 0028 90B2     		uxth	r0, r2
 969 002a A042     		cmp	r0, r4
 970 002c 03D2     		bcs	.L64
 971              	.L61:
1073:.\Generated_Source\PSoC5/USBFS.c ****                 pData[i] = CY_GET_REG8(p);
 972              		.loc 1 1073 0 is_stmt 1 discriminator 2
 973 002e 3178     		ldrb	r1, [r6, #0]	@ zero_extendqisi2
 974 0030 A954     		strb	r1, [r5, r2]
 975 0032 0132     		adds	r2, r2, #1
 976 0034 F8E7     		b	.L60
 977              	.L64:
1077:.\Generated_Source\PSoC5/USBFS.c ****             USBFS_EnableOutEP(epNumber);
 978              		.loc 1 1077 0
 979 0036 3846     		mov	r0, r7
 980 0038 FFF7FEFF 		bl	USBFS_EnableOutEP
 981              	.LVL71:
 982 003c 02E0     		b	.L59
 983              	.LVL72:
 984              	.L62:
ARM GAS  C:\Users\MICHA_~1\AppData\Local\Temp\ccbOK9oc.s 			page 40


1120:.\Generated_Source\PSoC5/USBFS.c ****         length = 0u;
 985              		.loc 1 1120 0
 986 003e 0024     		movs	r4, #0
 987 0040 00E0     		b	.L59
 988              	.L63:
 989 0042 2C46     		mov	r4, r5
 990              	.LVL73:
 991              	.L59:
1124:.\Generated_Source\PSoC5/USBFS.c **** }
 992              		.loc 1 1124 0
 993 0044 2046     		mov	r0, r4
 994 0046 F8BD     		pop	{r3, r4, r5, r6, r7, pc}
 995              	.L66:
 996              		.align	2
 997              	.L65:
 998 0048 88600040 		.word	1073766536
 999              		.cfi_endproc
 1000              	.LFE12:
 1001              		.size	USBFS_ReadOutEP, .-USBFS_ReadOutEP
 1002              		.section	.text.USBFS_DisableOutEP,"ax",%progbits
 1003              		.align	1
 1004              		.global	USBFS_DisableOutEP
 1005              		.thumb
 1006              		.thumb_func
 1007              		.type	USBFS_DisableOutEP, %function
 1008              	USBFS_DisableOutEP:
 1009              	.LFB14:
1159:.\Generated_Source\PSoC5/USBFS.c ****     }
1160:.\Generated_Source\PSoC5/USBFS.c **** }
1161:.\Generated_Source\PSoC5/USBFS.c **** 
1162:.\Generated_Source\PSoC5/USBFS.c **** 
1163:.\Generated_Source\PSoC5/USBFS.c **** /*******************************************************************************
1164:.\Generated_Source\PSoC5/USBFS.c **** * Function Name: USBFS_DisableOutEP
1165:.\Generated_Source\PSoC5/USBFS.c **** ********************************************************************************
1166:.\Generated_Source\PSoC5/USBFS.c **** *
1167:.\Generated_Source\PSoC5/USBFS.c **** * Summary:
1168:.\Generated_Source\PSoC5/USBFS.c **** *  This function disables an OUT endpoint.  It should not be
1169:.\Generated_Source\PSoC5/USBFS.c **** *  called for an IN endpoint.
1170:.\Generated_Source\PSoC5/USBFS.c **** *
1171:.\Generated_Source\PSoC5/USBFS.c **** * Parameters:
1172:.\Generated_Source\PSoC5/USBFS.c **** *  epNumber: Endpoint Number
1173:.\Generated_Source\PSoC5/USBFS.c **** *            Valid values are between 1 and 8.
1174:.\Generated_Source\PSoC5/USBFS.c **** *
1175:.\Generated_Source\PSoC5/USBFS.c **** * Return:
1176:.\Generated_Source\PSoC5/USBFS.c **** *  None.
1177:.\Generated_Source\PSoC5/USBFS.c **** *
1178:.\Generated_Source\PSoC5/USBFS.c **** *******************************************************************************/
1179:.\Generated_Source\PSoC5/USBFS.c **** void USBFS_DisableOutEP(uint8 epNumber) 
1180:.\Generated_Source\PSoC5/USBFS.c **** {
 1010              		.loc 1 1180 0
 1011              		.cfi_startproc
 1012              		@ args = 0, pretend = 0, frame = 0
 1013              		@ frame_needed = 0, uses_anonymous_args = 0
 1014              		@ link register save eliminated.
 1015              	.LVL74:
1181:.\Generated_Source\PSoC5/USBFS.c ****     uint8 ri ;
1182:.\Generated_Source\PSoC5/USBFS.c **** 
ARM GAS  C:\Users\MICHA_~1\AppData\Local\Temp\ccbOK9oc.s 			page 41


1183:.\Generated_Source\PSoC5/USBFS.c ****     if((epNumber > USBFS_EP0) && (epNumber < USBFS_MAX_EP))
 1016              		.loc 1 1183 0
 1017 0000 0138     		subs	r0, r0, #1
 1018              	.LVL75:
 1019 0002 C1B2     		uxtb	r1, r0
 1020 0004 0729     		cmp	r1, #7
 1021 0006 04D8     		bhi	.L67
 1022              	.LVL76:
1184:.\Generated_Source\PSoC5/USBFS.c ****     {
1185:.\Generated_Source\PSoC5/USBFS.c ****         ri = ((epNumber - USBFS_EP1) << USBFS_EPX_CNTX_ADDR_SHIFT);
 1023              		.loc 1 1185 0
 1024 0008 0A01     		lsls	r2, r1, #4
1186:.\Generated_Source\PSoC5/USBFS.c ****         /* Write the Mode register */
1187:.\Generated_Source\PSoC5/USBFS.c ****         CY_SET_REG8((reg8 *)(USBFS_SIE_EP1_CR0_IND + ri), USBFS_MODE_NAK_OUT);
 1025              		.loc 1 1187 0
 1026 000a 024B     		ldr	r3, .L69
 1027 000c D0B2     		uxtb	r0, r2
 1028 000e 0821     		movs	r1, #8
 1029              	.LVL77:
 1030 0010 C154     		strb	r1, [r0, r3]
 1031              	.L67:
 1032 0012 7047     		bx	lr
 1033              	.L70:
 1034              		.align	2
 1035              	.L69:
 1036 0014 0E600040 		.word	1073766414
 1037              		.cfi_endproc
 1038              	.LFE14:
 1039              		.size	USBFS_DisableOutEP, .-USBFS_DisableOutEP
 1040              		.section	.text.USBFS_Force,"ax",%progbits
 1041              		.align	1
 1042              		.global	USBFS_Force
 1043              		.thumb
 1044              		.thumb_func
 1045              		.type	USBFS_Force, %function
 1046              	USBFS_Force:
 1047              	.LFB15:
1188:.\Generated_Source\PSoC5/USBFS.c ****     }
1189:.\Generated_Source\PSoC5/USBFS.c **** }
1190:.\Generated_Source\PSoC5/USBFS.c **** 
1191:.\Generated_Source\PSoC5/USBFS.c **** 
1192:.\Generated_Source\PSoC5/USBFS.c **** /*******************************************************************************
1193:.\Generated_Source\PSoC5/USBFS.c **** * Function Name: USBFS_Force
1194:.\Generated_Source\PSoC5/USBFS.c **** ********************************************************************************
1195:.\Generated_Source\PSoC5/USBFS.c **** *
1196:.\Generated_Source\PSoC5/USBFS.c **** * Summary:
1197:.\Generated_Source\PSoC5/USBFS.c **** *  Forces the bus state
1198:.\Generated_Source\PSoC5/USBFS.c **** *
1199:.\Generated_Source\PSoC5/USBFS.c **** * Parameters:
1200:.\Generated_Source\PSoC5/USBFS.c **** *  bState
1201:.\Generated_Source\PSoC5/USBFS.c **** *    USBFS_FORCE_J
1202:.\Generated_Source\PSoC5/USBFS.c **** *    USBFS_FORCE_K
1203:.\Generated_Source\PSoC5/USBFS.c **** *    USBFS_FORCE_SE0
1204:.\Generated_Source\PSoC5/USBFS.c **** *    USBFS_FORCE_NONE
1205:.\Generated_Source\PSoC5/USBFS.c **** *
1206:.\Generated_Source\PSoC5/USBFS.c **** * Return:
1207:.\Generated_Source\PSoC5/USBFS.c **** *  None.
ARM GAS  C:\Users\MICHA_~1\AppData\Local\Temp\ccbOK9oc.s 			page 42


1208:.\Generated_Source\PSoC5/USBFS.c **** *
1209:.\Generated_Source\PSoC5/USBFS.c **** *******************************************************************************/
1210:.\Generated_Source\PSoC5/USBFS.c **** void USBFS_Force(uint8 bState) 
1211:.\Generated_Source\PSoC5/USBFS.c **** {
 1048              		.loc 1 1211 0
 1049              		.cfi_startproc
 1050              		@ args = 0, pretend = 0, frame = 0
 1051              		@ frame_needed = 0, uses_anonymous_args = 0
 1052              		@ link register save eliminated.
 1053              	.LVL78:
1212:.\Generated_Source\PSoC5/USBFS.c ****     CY_SET_REG8(USBFS_USBIO_CR0_PTR, bState);
 1054              		.loc 1 1212 0
 1055 0000 014B     		ldr	r3, .L72
 1056 0002 1870     		strb	r0, [r3, #0]
 1057 0004 7047     		bx	lr
 1058              	.L73:
 1059 0006 00BF     		.align	2
 1060              	.L72:
 1061 0008 10600040 		.word	1073766416
 1062              		.cfi_endproc
 1063              	.LFE15:
 1064              		.size	USBFS_Force, .-USBFS_Force
 1065              		.section	.text.USBFS_GetEPAckState,"ax",%progbits
 1066              		.align	1
 1067              		.global	USBFS_GetEPAckState
 1068              		.thumb
 1069              		.thumb_func
 1070              		.type	USBFS_GetEPAckState, %function
 1071              	USBFS_GetEPAckState:
 1072              	.LFB16:
1213:.\Generated_Source\PSoC5/USBFS.c **** }
1214:.\Generated_Source\PSoC5/USBFS.c **** 
1215:.\Generated_Source\PSoC5/USBFS.c **** 
1216:.\Generated_Source\PSoC5/USBFS.c **** /*******************************************************************************
1217:.\Generated_Source\PSoC5/USBFS.c **** * Function Name: USBFS_GetEPAckState
1218:.\Generated_Source\PSoC5/USBFS.c **** ********************************************************************************
1219:.\Generated_Source\PSoC5/USBFS.c **** *
1220:.\Generated_Source\PSoC5/USBFS.c **** * Summary:
1221:.\Generated_Source\PSoC5/USBFS.c **** *  Returns the ACK of the CR0 Register (ACKD)
1222:.\Generated_Source\PSoC5/USBFS.c **** *
1223:.\Generated_Source\PSoC5/USBFS.c **** * Parameters:
1224:.\Generated_Source\PSoC5/USBFS.c **** *  epNumber: Endpoint Number
1225:.\Generated_Source\PSoC5/USBFS.c **** *            Valid values are between 1 and 8.
1226:.\Generated_Source\PSoC5/USBFS.c **** *
1227:.\Generated_Source\PSoC5/USBFS.c **** * Returns
1228:.\Generated_Source\PSoC5/USBFS.c **** *  0 if nothing has been ACKD, non-=zero something has been ACKD
1229:.\Generated_Source\PSoC5/USBFS.c **** *
1230:.\Generated_Source\PSoC5/USBFS.c **** *******************************************************************************/
1231:.\Generated_Source\PSoC5/USBFS.c **** uint8 USBFS_GetEPAckState(uint8 epNumber) 
1232:.\Generated_Source\PSoC5/USBFS.c **** {
 1073              		.loc 1 1232 0
 1074              		.cfi_startproc
 1075              		@ args = 0, pretend = 0, frame = 0
 1076              		@ frame_needed = 0, uses_anonymous_args = 0
 1077              		@ link register save eliminated.
 1078              	.LVL79:
1233:.\Generated_Source\PSoC5/USBFS.c ****     uint8 ri;
ARM GAS  C:\Users\MICHA_~1\AppData\Local\Temp\ccbOK9oc.s 			page 43


1234:.\Generated_Source\PSoC5/USBFS.c ****     uint8 cr = 0u;
1235:.\Generated_Source\PSoC5/USBFS.c **** 
1236:.\Generated_Source\PSoC5/USBFS.c ****     if((epNumber > USBFS_EP0) && (epNumber < USBFS_MAX_EP))
 1079              		.loc 1 1236 0
 1080 0000 0138     		subs	r0, r0, #1
 1081              	.LVL80:
 1082 0002 C1B2     		uxtb	r1, r0
 1083 0004 0729     		cmp	r1, #7
 1084 0006 07D8     		bhi	.L76
 1085              	.LVL81:
1237:.\Generated_Source\PSoC5/USBFS.c ****     {
1238:.\Generated_Source\PSoC5/USBFS.c ****         ri = ((epNumber - USBFS_EP1) << USBFS_EPX_CNTX_ADDR_SHIFT);
 1086              		.loc 1 1238 0
 1087 0008 0A01     		lsls	r2, r1, #4
1239:.\Generated_Source\PSoC5/USBFS.c ****         cr = CY_GET_REG8((reg8 *)(USBFS_SIE_EP1_CR0_IND + ri)) & USBFS_MODE_ACKD;
 1088              		.loc 1 1239 0
 1089 000a 044B     		ldr	r3, .L77
 1090 000c D0B2     		uxtb	r0, r2
 1091 000e C15C     		ldrb	r1, [r0, r3]	@ zero_extendqisi2
 1092              	.LVL82:
 1093 0010 01F01002 		and	r2, r1, #16
 1094 0014 D0B2     		uxtb	r0, r2
 1095              	.LVL83:
 1096 0016 7047     		bx	lr
 1097              	.LVL84:
 1098              	.L76:
1234:.\Generated_Source\PSoC5/USBFS.c ****     uint8 cr = 0u;
 1099              		.loc 1 1234 0
 1100 0018 0020     		movs	r0, #0
 1101              	.LVL85:
1240:.\Generated_Source\PSoC5/USBFS.c ****     }
1241:.\Generated_Source\PSoC5/USBFS.c **** 
1242:.\Generated_Source\PSoC5/USBFS.c ****     return(cr);
1243:.\Generated_Source\PSoC5/USBFS.c **** }
 1102              		.loc 1 1243 0
 1103 001a 7047     		bx	lr
 1104              	.L78:
 1105              		.align	2
 1106              	.L77:
 1107 001c 0E600040 		.word	1073766414
 1108              		.cfi_endproc
 1109              	.LFE16:
 1110              		.size	USBFS_GetEPAckState, .-USBFS_GetEPAckState
 1111              		.section	.text.USBFS_SetPowerStatus,"ax",%progbits
 1112              		.align	1
 1113              		.global	USBFS_SetPowerStatus
 1114              		.thumb
 1115              		.thumb_func
 1116              		.type	USBFS_SetPowerStatus, %function
 1117              	USBFS_SetPowerStatus:
 1118              	.LFB17:
1244:.\Generated_Source\PSoC5/USBFS.c **** 
1245:.\Generated_Source\PSoC5/USBFS.c **** 
1246:.\Generated_Source\PSoC5/USBFS.c **** /*******************************************************************************
1247:.\Generated_Source\PSoC5/USBFS.c **** * Function Name: USBFS_SetPowerStatus
1248:.\Generated_Source\PSoC5/USBFS.c **** ********************************************************************************
1249:.\Generated_Source\PSoC5/USBFS.c **** *
ARM GAS  C:\Users\MICHA_~1\AppData\Local\Temp\ccbOK9oc.s 			page 44


1250:.\Generated_Source\PSoC5/USBFS.c **** * Summary:
1251:.\Generated_Source\PSoC5/USBFS.c **** *  Sets the device power status for reporting in the Get Device Status
1252:.\Generated_Source\PSoC5/USBFS.c **** *  request
1253:.\Generated_Source\PSoC5/USBFS.c **** *
1254:.\Generated_Source\PSoC5/USBFS.c **** * Parameters:
1255:.\Generated_Source\PSoC5/USBFS.c **** *  powerStatus: USBFS_DEVICE_STATUS_BUS_POWERED(0) - Bus Powered,
1256:.\Generated_Source\PSoC5/USBFS.c **** *               USBFS_DEVICE_STATUS_SELF_POWERED(1) - Self Powered
1257:.\Generated_Source\PSoC5/USBFS.c **** *
1258:.\Generated_Source\PSoC5/USBFS.c **** * Return:
1259:.\Generated_Source\PSoC5/USBFS.c **** *   None.
1260:.\Generated_Source\PSoC5/USBFS.c **** *
1261:.\Generated_Source\PSoC5/USBFS.c **** * Global variables:
1262:.\Generated_Source\PSoC5/USBFS.c **** *  USBFS_deviceStatus - set power status
1263:.\Generated_Source\PSoC5/USBFS.c **** *
1264:.\Generated_Source\PSoC5/USBFS.c **** * Reentrant:
1265:.\Generated_Source\PSoC5/USBFS.c **** *  No.
1266:.\Generated_Source\PSoC5/USBFS.c **** *
1267:.\Generated_Source\PSoC5/USBFS.c **** *******************************************************************************/
1268:.\Generated_Source\PSoC5/USBFS.c **** void USBFS_SetPowerStatus(uint8 powerStatus) 
1269:.\Generated_Source\PSoC5/USBFS.c **** {
 1119              		.loc 1 1269 0
 1120              		.cfi_startproc
 1121              		@ args = 0, pretend = 0, frame = 0
 1122              		@ frame_needed = 0, uses_anonymous_args = 0
 1123              		@ link register save eliminated.
 1124              	.LVL86:
 1125 0000 044B     		ldr	r3, .L83
1270:.\Generated_Source\PSoC5/USBFS.c ****     if (powerStatus != USBFS_DEVICE_STATUS_BUS_POWERED)
1271:.\Generated_Source\PSoC5/USBFS.c ****     {
1272:.\Generated_Source\PSoC5/USBFS.c ****         USBFS_deviceStatus |=  USBFS_DEVICE_STATUS_SELF_POWERED;
 1126              		.loc 1 1272 0
 1127 0002 1A78     		ldrb	r2, [r3, #0]	@ zero_extendqisi2
1270:.\Generated_Source\PSoC5/USBFS.c ****     if (powerStatus != USBFS_DEVICE_STATUS_BUS_POWERED)
 1128              		.loc 1 1270 0
 1129 0004 10B1     		cbz	r0, .L80
 1130              		.loc 1 1272 0
 1131 0006 42F00100 		orr	r0, r2, #1
 1132              	.LVL87:
 1133 000a 01E0     		b	.L82
 1134              	.LVL88:
 1135              	.L80:
1273:.\Generated_Source\PSoC5/USBFS.c ****     }
1274:.\Generated_Source\PSoC5/USBFS.c ****     else
1275:.\Generated_Source\PSoC5/USBFS.c ****     {
1276:.\Generated_Source\PSoC5/USBFS.c ****         USBFS_deviceStatus &=  ((uint8)(~USBFS_DEVICE_STATUS_SELF_POWERED));
 1136              		.loc 1 1276 0
 1137 000c 02F0FE00 		and	r0, r2, #254
 1138              	.LVL89:
 1139              	.L82:
 1140 0010 1870     		strb	r0, [r3, #0]
 1141 0012 7047     		bx	lr
 1142              	.L84:
 1143              		.align	2
 1144              	.L83:
 1145 0014 00000000 		.word	USBFS_deviceStatus
 1146              		.cfi_endproc
 1147              	.LFE17:
ARM GAS  C:\Users\MICHA_~1\AppData\Local\Temp\ccbOK9oc.s 			page 45


 1148              		.size	USBFS_SetPowerStatus, .-USBFS_SetPowerStatus
 1149              		.section	.text.USBFS_RWUEnabled,"ax",%progbits
 1150              		.align	1
 1151              		.global	USBFS_RWUEnabled
 1152              		.thumb
 1153              		.thumb_func
 1154              		.type	USBFS_RWUEnabled, %function
 1155              	USBFS_RWUEnabled:
 1156              	.LFB18:
1277:.\Generated_Source\PSoC5/USBFS.c ****     }
1278:.\Generated_Source\PSoC5/USBFS.c **** }
1279:.\Generated_Source\PSoC5/USBFS.c **** 
1280:.\Generated_Source\PSoC5/USBFS.c **** 
1281:.\Generated_Source\PSoC5/USBFS.c **** #if (USBFS_MON_VBUS == 1u)
1282:.\Generated_Source\PSoC5/USBFS.c **** 
1283:.\Generated_Source\PSoC5/USBFS.c ****     /*******************************************************************************
1284:.\Generated_Source\PSoC5/USBFS.c ****     * Function Name: USBFS_VBusPresent
1285:.\Generated_Source\PSoC5/USBFS.c ****     ********************************************************************************
1286:.\Generated_Source\PSoC5/USBFS.c ****     *
1287:.\Generated_Source\PSoC5/USBFS.c ****     * Summary:
1288:.\Generated_Source\PSoC5/USBFS.c ****     *  Determines VBUS presence for Self Powered Devices.
1289:.\Generated_Source\PSoC5/USBFS.c ****     *
1290:.\Generated_Source\PSoC5/USBFS.c ****     * Parameters:
1291:.\Generated_Source\PSoC5/USBFS.c ****     *  None.
1292:.\Generated_Source\PSoC5/USBFS.c ****     *
1293:.\Generated_Source\PSoC5/USBFS.c ****     * Return:
1294:.\Generated_Source\PSoC5/USBFS.c ****     *  1 if VBUS is present, otherwise 0.
1295:.\Generated_Source\PSoC5/USBFS.c ****     *
1296:.\Generated_Source\PSoC5/USBFS.c ****     *******************************************************************************/
1297:.\Generated_Source\PSoC5/USBFS.c ****     uint8 USBFS_VBusPresent(void) 
1298:.\Generated_Source\PSoC5/USBFS.c ****     {
1299:.\Generated_Source\PSoC5/USBFS.c ****         return((0u != (CY_GET_REG8(USBFS_VBUS_PS_PTR) & USBFS_VBUS_MASK)) ? 1u : 0u);
1300:.\Generated_Source\PSoC5/USBFS.c ****     }
1301:.\Generated_Source\PSoC5/USBFS.c **** 
1302:.\Generated_Source\PSoC5/USBFS.c **** #endif /* USBFS_MON_VBUS */
1303:.\Generated_Source\PSoC5/USBFS.c **** 
1304:.\Generated_Source\PSoC5/USBFS.c **** 
1305:.\Generated_Source\PSoC5/USBFS.c **** /*******************************************************************************
1306:.\Generated_Source\PSoC5/USBFS.c **** * Function Name: USBFS_RWUEnabled
1307:.\Generated_Source\PSoC5/USBFS.c **** ********************************************************************************
1308:.\Generated_Source\PSoC5/USBFS.c **** *
1309:.\Generated_Source\PSoC5/USBFS.c **** * Summary:
1310:.\Generated_Source\PSoC5/USBFS.c **** *  Returns TRUE if Remote Wake Up is enabled, otherwise FALSE
1311:.\Generated_Source\PSoC5/USBFS.c **** *
1312:.\Generated_Source\PSoC5/USBFS.c **** * Parameters:
1313:.\Generated_Source\PSoC5/USBFS.c **** *   None.
1314:.\Generated_Source\PSoC5/USBFS.c **** *
1315:.\Generated_Source\PSoC5/USBFS.c **** * Return:
1316:.\Generated_Source\PSoC5/USBFS.c **** *  TRUE -  Remote Wake Up Enabled
1317:.\Generated_Source\PSoC5/USBFS.c **** *  FALSE - Remote Wake Up Disabled
1318:.\Generated_Source\PSoC5/USBFS.c **** *
1319:.\Generated_Source\PSoC5/USBFS.c **** * Global variables:
1320:.\Generated_Source\PSoC5/USBFS.c **** *  USBFS_deviceStatus - checked to determine remote status
1321:.\Generated_Source\PSoC5/USBFS.c **** *
1322:.\Generated_Source\PSoC5/USBFS.c **** *******************************************************************************/
1323:.\Generated_Source\PSoC5/USBFS.c **** uint8 USBFS_RWUEnabled(void) 
1324:.\Generated_Source\PSoC5/USBFS.c **** {
ARM GAS  C:\Users\MICHA_~1\AppData\Local\Temp\ccbOK9oc.s 			page 46


 1157              		.loc 1 1324 0
 1158              		.cfi_startproc
 1159              		@ args = 0, pretend = 0, frame = 0
 1160              		@ frame_needed = 0, uses_anonymous_args = 0
 1161              		@ link register save eliminated.
 1162              	.LVL90:
1325:.\Generated_Source\PSoC5/USBFS.c ****     uint8 result = USBFS_FALSE;
1326:.\Generated_Source\PSoC5/USBFS.c ****     if((USBFS_deviceStatus & USBFS_DEVICE_STATUS_REMOTE_WAKEUP) != 0u)
 1163              		.loc 1 1326 0
 1164 0000 024B     		ldr	r3, .L86
 1165 0002 1878     		ldrb	r0, [r3, #0]	@ zero_extendqisi2
 1166              	.LVL91:
1327:.\Generated_Source\PSoC5/USBFS.c ****     {
1328:.\Generated_Source\PSoC5/USBFS.c ****         result = USBFS_TRUE;
1329:.\Generated_Source\PSoC5/USBFS.c ****     }
1330:.\Generated_Source\PSoC5/USBFS.c **** 
1331:.\Generated_Source\PSoC5/USBFS.c ****     return(result);
1332:.\Generated_Source\PSoC5/USBFS.c **** }
 1167              		.loc 1 1332 0
 1168 0004 C0F34000 		ubfx	r0, r0, #1, #1
 1169              	.LVL92:
 1170 0008 7047     		bx	lr
 1171              	.L87:
 1172 000a 00BF     		.align	2
 1173              	.L86:
 1174 000c 00000000 		.word	USBFS_deviceStatus
 1175              		.cfi_endproc
 1176              	.LFE18:
 1177              		.size	USBFS_RWUEnabled, .-USBFS_RWUEnabled
 1178              		.global	USBFS_initVar
 1179              		.bss
 1180              		.set	.LANCHOR0,. + 0
 1181              		.type	USBFS_initVar, %object
 1182              		.size	USBFS_initVar, 1
 1183              	USBFS_initVar:
 1184 0000 00       		.space	1
 1185              		.text
 1186              	.Letext0:
 1187              		.file 2 "./Generated_Source/PSoC5/cytypes.h"
 1188              		.file 3 ".\\Generated_Source\\PSoC5\\USBFS.h"
 1189              		.file 4 ".\\Generated_Source\\PSoC5\\USBFS_pvt.h"
 1190              		.file 5 "./Generated_Source/PSoC5/CyLib.h"