ARM GAS  C:\Users\MICHA_~1\AppData\Local\Temp\ccc12yfW.s 			page 1


   1              		.syntax unified
   2              		.cpu cortex-m3
   3              		.fpu softvfp
   4              		.eabi_attribute 20, 1
   5              		.eabi_attribute 21, 1
   6              		.eabi_attribute 23, 3
   7              		.eabi_attribute 24, 1
   8              		.eabi_attribute 25, 1
   9              		.eabi_attribute 26, 1
  10              		.eabi_attribute 30, 4
  11              		.eabi_attribute 34, 1
  12              		.eabi_attribute 18, 4
  13              		.thumb
  14              		.file	"USBFS_Dm.c"
  15              		.text
  16              	.Ltext0:
  17              		.cfi_sections	.debug_frame
  18              		.section	.text.USBFS_Dm_Write,"ax",%progbits
  19              		.align	1
  20              		.global	USBFS_Dm_Write
  21              		.thumb
  22              		.thumb_func
  23              		.type	USBFS_Dm_Write, %function
  24              	USBFS_Dm_Write:
  25              	.LFB0:
  26              		.file 1 ".\\Generated_Source\\PSoC5\\USBFS_Dm.c"
   1:.\Generated_Source\PSoC5/USBFS_Dm.c **** /*******************************************************************************
   2:.\Generated_Source\PSoC5/USBFS_Dm.c **** * File Name: USBFS_Dm.c  
   3:.\Generated_Source\PSoC5/USBFS_Dm.c **** * Version 1.90
   4:.\Generated_Source\PSoC5/USBFS_Dm.c **** *
   5:.\Generated_Source\PSoC5/USBFS_Dm.c **** * Description:
   6:.\Generated_Source\PSoC5/USBFS_Dm.c **** *  This file contains API to enable firmware control of a Pins component.
   7:.\Generated_Source\PSoC5/USBFS_Dm.c **** *
   8:.\Generated_Source\PSoC5/USBFS_Dm.c **** * Note:
   9:.\Generated_Source\PSoC5/USBFS_Dm.c **** *
  10:.\Generated_Source\PSoC5/USBFS_Dm.c **** ********************************************************************************
  11:.\Generated_Source\PSoC5/USBFS_Dm.c **** * Copyright 2008-2012, Cypress Semiconductor Corporation.  All rights reserved.
  12:.\Generated_Source\PSoC5/USBFS_Dm.c **** * You may use this file only in accordance with the license, terms, conditions, 
  13:.\Generated_Source\PSoC5/USBFS_Dm.c **** * disclaimers, and limitations in the end user license agreement accompanying 
  14:.\Generated_Source\PSoC5/USBFS_Dm.c **** * the software package with which this file was provided.
  15:.\Generated_Source\PSoC5/USBFS_Dm.c **** *******************************************************************************/
  16:.\Generated_Source\PSoC5/USBFS_Dm.c **** 
  17:.\Generated_Source\PSoC5/USBFS_Dm.c **** #include "cytypes.h"
  18:.\Generated_Source\PSoC5/USBFS_Dm.c **** #include "USBFS_Dm.h"
  19:.\Generated_Source\PSoC5/USBFS_Dm.c **** 
  20:.\Generated_Source\PSoC5/USBFS_Dm.c **** /* APIs are not generated for P15[7:6] on PSoC 5 */
  21:.\Generated_Source\PSoC5/USBFS_Dm.c **** #if !(CY_PSOC5A &&\
  22:.\Generated_Source\PSoC5/USBFS_Dm.c **** 	 USBFS_Dm__PORT == 15 && ((USBFS_Dm__MASK & 0xC0) != 0))
  23:.\Generated_Source\PSoC5/USBFS_Dm.c **** 
  24:.\Generated_Source\PSoC5/USBFS_Dm.c **** 
  25:.\Generated_Source\PSoC5/USBFS_Dm.c **** /*******************************************************************************
  26:.\Generated_Source\PSoC5/USBFS_Dm.c **** * Function Name: USBFS_Dm_Write
  27:.\Generated_Source\PSoC5/USBFS_Dm.c **** ********************************************************************************
  28:.\Generated_Source\PSoC5/USBFS_Dm.c **** *
  29:.\Generated_Source\PSoC5/USBFS_Dm.c **** * Summary:
  30:.\Generated_Source\PSoC5/USBFS_Dm.c **** *  Assign a new value to the digital port's data output register.  
  31:.\Generated_Source\PSoC5/USBFS_Dm.c **** *
ARM GAS  C:\Users\MICHA_~1\AppData\Local\Temp\ccc12yfW.s 			page 2


  32:.\Generated_Source\PSoC5/USBFS_Dm.c **** * Parameters:  
  33:.\Generated_Source\PSoC5/USBFS_Dm.c **** *  prtValue:  The value to be assigned to the Digital Port. 
  34:.\Generated_Source\PSoC5/USBFS_Dm.c **** *
  35:.\Generated_Source\PSoC5/USBFS_Dm.c **** * Return: 
  36:.\Generated_Source\PSoC5/USBFS_Dm.c **** *  None
  37:.\Generated_Source\PSoC5/USBFS_Dm.c **** *  
  38:.\Generated_Source\PSoC5/USBFS_Dm.c **** *******************************************************************************/
  39:.\Generated_Source\PSoC5/USBFS_Dm.c **** void USBFS_Dm_Write(uint8 value) 
  40:.\Generated_Source\PSoC5/USBFS_Dm.c **** {
  27              		.loc 1 40 0
  28              		.cfi_startproc
  29              		@ args = 0, pretend = 0, frame = 0
  30              		@ frame_needed = 0, uses_anonymous_args = 0
  31              		@ link register save eliminated.
  32              	.LVL0:
  41:.\Generated_Source\PSoC5/USBFS_Dm.c ****     uint8 staticBits = (USBFS_Dm_DR & (uint8)(~USBFS_Dm_MASK));
  33              		.loc 1 41 0
  34 0000 044B     		ldr	r3, .L2
  35 0002 1A78     		ldrb	r2, [r3, #0]	@ zero_extendqisi2
  36              	.LVL1:
  37 0004 02F07F01 		and	r1, r2, #127
  42:.\Generated_Source\PSoC5/USBFS_Dm.c ****     USBFS_Dm_DR = staticBits | ((uint8)(value << USBFS_Dm_SHIFT) & USBFS_Dm_MASK);
  38              		.loc 1 42 0
  39 0008 41EAC010 		orr	r0, r1, r0, lsl #7
  40              	.LVL2:
  41 000c C2B2     		uxtb	r2, r0
  42              	.LVL3:
  43 000e 1A70     		strb	r2, [r3, #0]
  44 0010 7047     		bx	lr
  45              	.L3:
  46 0012 00BF     		.align	2
  47              	.L2:
  48 0014 F0510040 		.word	1073762800
  49              		.cfi_endproc
  50              	.LFE0:
  51              		.size	USBFS_Dm_Write, .-USBFS_Dm_Write
  52              		.section	.text.USBFS_Dm_SetDriveMode,"ax",%progbits
  53              		.align	1
  54              		.global	USBFS_Dm_SetDriveMode
  55              		.thumb
  56              		.thumb_func
  57              		.type	USBFS_Dm_SetDriveMode, %function
  58              	USBFS_Dm_SetDriveMode:
  59              	.LFB1:
  43:.\Generated_Source\PSoC5/USBFS_Dm.c **** }
  44:.\Generated_Source\PSoC5/USBFS_Dm.c **** 
  45:.\Generated_Source\PSoC5/USBFS_Dm.c **** 
  46:.\Generated_Source\PSoC5/USBFS_Dm.c **** /*******************************************************************************
  47:.\Generated_Source\PSoC5/USBFS_Dm.c **** * Function Name: USBFS_Dm_SetDriveMode
  48:.\Generated_Source\PSoC5/USBFS_Dm.c **** ********************************************************************************
  49:.\Generated_Source\PSoC5/USBFS_Dm.c **** *
  50:.\Generated_Source\PSoC5/USBFS_Dm.c **** * Summary:
  51:.\Generated_Source\PSoC5/USBFS_Dm.c **** *  Change the drive mode on the pins of the port.
  52:.\Generated_Source\PSoC5/USBFS_Dm.c **** * 
  53:.\Generated_Source\PSoC5/USBFS_Dm.c **** * Parameters:  
  54:.\Generated_Source\PSoC5/USBFS_Dm.c **** *  mode:  Change the pins to this drive mode.
  55:.\Generated_Source\PSoC5/USBFS_Dm.c **** *
ARM GAS  C:\Users\MICHA_~1\AppData\Local\Temp\ccc12yfW.s 			page 3


  56:.\Generated_Source\PSoC5/USBFS_Dm.c **** * Return: 
  57:.\Generated_Source\PSoC5/USBFS_Dm.c **** *  None
  58:.\Generated_Source\PSoC5/USBFS_Dm.c **** *
  59:.\Generated_Source\PSoC5/USBFS_Dm.c **** *******************************************************************************/
  60:.\Generated_Source\PSoC5/USBFS_Dm.c **** void USBFS_Dm_SetDriveMode(uint8 mode) 
  61:.\Generated_Source\PSoC5/USBFS_Dm.c **** {
  60              		.loc 1 61 0
  61              		.cfi_startproc
  62              		@ args = 0, pretend = 0, frame = 0
  63              		@ frame_needed = 0, uses_anonymous_args = 0
  64              		@ link register save eliminated.
  65              	.LVL4:
  62:.\Generated_Source\PSoC5/USBFS_Dm.c **** 	CyPins_SetPinDriveMode(USBFS_Dm_0, mode);
  66              		.loc 1 62 0
  67 0000 044B     		ldr	r3, .L5
  68 0002 00F00E00 		and	r0, r0, #14
  69              	.LVL5:
  70 0006 1A78     		ldrb	r2, [r3, #0]	@ zero_extendqisi2
  71 0008 22F00E01 		bic	r1, r2, #14
  72 000c 40EA0102 		orr	r2, r0, r1
  73 0010 1A70     		strb	r2, [r3, #0]
  74 0012 7047     		bx	lr
  75              	.L6:
  76              		.align	2
  77              	.L5:
  78 0014 7F500040 		.word	1073762431
  79              		.cfi_endproc
  80              	.LFE1:
  81              		.size	USBFS_Dm_SetDriveMode, .-USBFS_Dm_SetDriveMode
  82              		.section	.text.USBFS_Dm_Read,"ax",%progbits
  83              		.align	1
  84              		.global	USBFS_Dm_Read
  85              		.thumb
  86              		.thumb_func
  87              		.type	USBFS_Dm_Read, %function
  88              	USBFS_Dm_Read:
  89              	.LFB2:
  63:.\Generated_Source\PSoC5/USBFS_Dm.c **** }
  64:.\Generated_Source\PSoC5/USBFS_Dm.c **** 
  65:.\Generated_Source\PSoC5/USBFS_Dm.c **** 
  66:.\Generated_Source\PSoC5/USBFS_Dm.c **** /*******************************************************************************
  67:.\Generated_Source\PSoC5/USBFS_Dm.c **** * Function Name: USBFS_Dm_Read
  68:.\Generated_Source\PSoC5/USBFS_Dm.c **** ********************************************************************************
  69:.\Generated_Source\PSoC5/USBFS_Dm.c **** *
  70:.\Generated_Source\PSoC5/USBFS_Dm.c **** * Summary:
  71:.\Generated_Source\PSoC5/USBFS_Dm.c **** *  Read the current value on the pins of the Digital Port in right justified 
  72:.\Generated_Source\PSoC5/USBFS_Dm.c **** *  form.
  73:.\Generated_Source\PSoC5/USBFS_Dm.c **** *
  74:.\Generated_Source\PSoC5/USBFS_Dm.c **** * Parameters:  
  75:.\Generated_Source\PSoC5/USBFS_Dm.c **** *  None
  76:.\Generated_Source\PSoC5/USBFS_Dm.c **** *
  77:.\Generated_Source\PSoC5/USBFS_Dm.c **** * Return: 
  78:.\Generated_Source\PSoC5/USBFS_Dm.c **** *  Returns the current value of the Digital Port as a right justified number
  79:.\Generated_Source\PSoC5/USBFS_Dm.c **** *  
  80:.\Generated_Source\PSoC5/USBFS_Dm.c **** * Note:
  81:.\Generated_Source\PSoC5/USBFS_Dm.c **** *  Macro USBFS_Dm_ReadPS calls this function. 
  82:.\Generated_Source\PSoC5/USBFS_Dm.c **** *  
ARM GAS  C:\Users\MICHA_~1\AppData\Local\Temp\ccc12yfW.s 			page 4


  83:.\Generated_Source\PSoC5/USBFS_Dm.c **** *******************************************************************************/
  84:.\Generated_Source\PSoC5/USBFS_Dm.c **** uint8 USBFS_Dm_Read(void) 
  85:.\Generated_Source\PSoC5/USBFS_Dm.c **** {
  90              		.loc 1 85 0
  91              		.cfi_startproc
  92              		@ args = 0, pretend = 0, frame = 0
  93              		@ frame_needed = 0, uses_anonymous_args = 0
  94              		@ link register save eliminated.
  86:.\Generated_Source\PSoC5/USBFS_Dm.c ****     return (USBFS_Dm_PS & USBFS_Dm_MASK) >> USBFS_Dm_SHIFT;
  95              		.loc 1 86 0
  96 0000 014B     		ldr	r3, .L8
  97 0002 1878     		ldrb	r0, [r3, #0]	@ zero_extendqisi2
  87:.\Generated_Source\PSoC5/USBFS_Dm.c **** }
  98              		.loc 1 87 0
  99 0004 C009     		lsrs	r0, r0, #7
 100 0006 7047     		bx	lr
 101              	.L9:
 102              		.align	2
 103              	.L8:
 104 0008 F1510040 		.word	1073762801
 105              		.cfi_endproc
 106              	.LFE2:
 107              		.size	USBFS_Dm_Read, .-USBFS_Dm_Read
 108              		.section	.text.USBFS_Dm_ReadDataReg,"ax",%progbits
 109              		.align	1
 110              		.global	USBFS_Dm_ReadDataReg
 111              		.thumb
 112              		.thumb_func
 113              		.type	USBFS_Dm_ReadDataReg, %function
 114              	USBFS_Dm_ReadDataReg:
 115              	.LFB3:
  88:.\Generated_Source\PSoC5/USBFS_Dm.c **** 
  89:.\Generated_Source\PSoC5/USBFS_Dm.c **** 
  90:.\Generated_Source\PSoC5/USBFS_Dm.c **** /*******************************************************************************
  91:.\Generated_Source\PSoC5/USBFS_Dm.c **** * Function Name: USBFS_Dm_ReadDataReg
  92:.\Generated_Source\PSoC5/USBFS_Dm.c **** ********************************************************************************
  93:.\Generated_Source\PSoC5/USBFS_Dm.c **** *
  94:.\Generated_Source\PSoC5/USBFS_Dm.c **** * Summary:
  95:.\Generated_Source\PSoC5/USBFS_Dm.c **** *  Read the current value assigned to a Digital Port's data output register
  96:.\Generated_Source\PSoC5/USBFS_Dm.c **** *
  97:.\Generated_Source\PSoC5/USBFS_Dm.c **** * Parameters:  
  98:.\Generated_Source\PSoC5/USBFS_Dm.c **** *  None 
  99:.\Generated_Source\PSoC5/USBFS_Dm.c **** *
 100:.\Generated_Source\PSoC5/USBFS_Dm.c **** * Return: 
 101:.\Generated_Source\PSoC5/USBFS_Dm.c **** *  Returns the current value assigned to the Digital Port's data output register
 102:.\Generated_Source\PSoC5/USBFS_Dm.c **** *  
 103:.\Generated_Source\PSoC5/USBFS_Dm.c **** *******************************************************************************/
 104:.\Generated_Source\PSoC5/USBFS_Dm.c **** uint8 USBFS_Dm_ReadDataReg(void) 
 105:.\Generated_Source\PSoC5/USBFS_Dm.c **** {
 116              		.loc 1 105 0
 117              		.cfi_startproc
 118              		@ args = 0, pretend = 0, frame = 0
 119              		@ frame_needed = 0, uses_anonymous_args = 0
 120              		@ link register save eliminated.
 106:.\Generated_Source\PSoC5/USBFS_Dm.c ****     return (USBFS_Dm_DR & USBFS_Dm_MASK) >> USBFS_Dm_SHIFT;
 121              		.loc 1 106 0
 122 0000 014B     		ldr	r3, .L11
ARM GAS  C:\Users\MICHA_~1\AppData\Local\Temp\ccc12yfW.s 			page 5


 123 0002 1878     		ldrb	r0, [r3, #0]	@ zero_extendqisi2
 107:.\Generated_Source\PSoC5/USBFS_Dm.c **** }
 124              		.loc 1 107 0
 125 0004 C009     		lsrs	r0, r0, #7
 126 0006 7047     		bx	lr
 127              	.L12:
 128              		.align	2
 129              	.L11:
 130 0008 F0510040 		.word	1073762800
 131              		.cfi_endproc
 132              	.LFE3:
 133              		.size	USBFS_Dm_ReadDataReg, .-USBFS_Dm_ReadDataReg
 134              		.text
 135              	.Letext0:
 136              		.file 2 ".\\Generated_Source\\PSoC5\\cytypes.h"