ARM GAS  C:\Users\MICHA_~1\AppData\Local\Temp\ccAt1N4e.s 			page 1


   1              		.syntax unified
   2              		.cpu cortex-m3
   3              		.fpu softvfp
   4              		.eabi_attribute 20, 1
   5              		.eabi_attribute 21, 1
   6              		.eabi_attribute 23, 3
   7              		.eabi_attribute 24, 1
   8              		.eabi_attribute 25, 1
   9              		.eabi_attribute 26, 1
  10              		.eabi_attribute 30, 4
  11              		.eabi_attribute 34, 1
  12              		.eabi_attribute 18, 4
  13              		.thumb
  14              		.file	"USBFS_hid.c"
  15              		.text
  16              	.Ltext0:
  17              		.cfi_sections	.debug_frame
  18              		.section	.text.USBFS_UpdateHIDTimer,"ax",%progbits
  19              		.align	1
  20              		.global	USBFS_UpdateHIDTimer
  21              		.thumb
  22              		.thumb_func
  23              		.type	USBFS_UpdateHIDTimer, %function
  24              	USBFS_UpdateHIDTimer:
  25              	.LFB0:
  26              		.file 1 ".\\Generated_Source\\PSoC5\\USBFS_hid.c"
   1:.\Generated_Source\PSoC5/USBFS_hid.c **** /*******************************************************************************
   2:.\Generated_Source\PSoC5/USBFS_hid.c **** * File Name: USBFS_hid.c
   3:.\Generated_Source\PSoC5/USBFS_hid.c **** * Version 2.60
   4:.\Generated_Source\PSoC5/USBFS_hid.c **** *
   5:.\Generated_Source\PSoC5/USBFS_hid.c **** * Description:
   6:.\Generated_Source\PSoC5/USBFS_hid.c **** *  USB HID Class request handler.
   7:.\Generated_Source\PSoC5/USBFS_hid.c **** *
   8:.\Generated_Source\PSoC5/USBFS_hid.c **** * Note:
   9:.\Generated_Source\PSoC5/USBFS_hid.c **** *
  10:.\Generated_Source\PSoC5/USBFS_hid.c **** ********************************************************************************
  11:.\Generated_Source\PSoC5/USBFS_hid.c **** * Copyright 2008-2013, Cypress Semiconductor Corporation.  All rights reserved.
  12:.\Generated_Source\PSoC5/USBFS_hid.c **** * You may use this file only in accordance with the license, terms, conditions,
  13:.\Generated_Source\PSoC5/USBFS_hid.c **** * disclaimers, and limitations in the end user license agreement accompanying
  14:.\Generated_Source\PSoC5/USBFS_hid.c **** * the software package with which this file was provided.
  15:.\Generated_Source\PSoC5/USBFS_hid.c **** *******************************************************************************/
  16:.\Generated_Source\PSoC5/USBFS_hid.c **** 
  17:.\Generated_Source\PSoC5/USBFS_hid.c **** #include "USBFS.h"
  18:.\Generated_Source\PSoC5/USBFS_hid.c **** 
  19:.\Generated_Source\PSoC5/USBFS_hid.c **** #if defined(USBFS_ENABLE_HID_CLASS)
  20:.\Generated_Source\PSoC5/USBFS_hid.c **** 
  21:.\Generated_Source\PSoC5/USBFS_hid.c **** #include "USBFS_pvt.h"
  22:.\Generated_Source\PSoC5/USBFS_hid.c **** #include "USBFS_hid.h"
  23:.\Generated_Source\PSoC5/USBFS_hid.c **** 
  24:.\Generated_Source\PSoC5/USBFS_hid.c **** 
  25:.\Generated_Source\PSoC5/USBFS_hid.c **** /***************************************
  26:.\Generated_Source\PSoC5/USBFS_hid.c **** *    HID Variables
  27:.\Generated_Source\PSoC5/USBFS_hid.c **** ***************************************/
  28:.\Generated_Source\PSoC5/USBFS_hid.c **** 
  29:.\Generated_Source\PSoC5/USBFS_hid.c **** volatile uint8 USBFS_hidProtocol[USBFS_MAX_INTERFACES_NUMBER];  /* HID device protocol status */
  30:.\Generated_Source\PSoC5/USBFS_hid.c **** volatile uint8 USBFS_hidIdleRate[USBFS_MAX_INTERFACES_NUMBER];  /* HID device idle reload value */
  31:.\Generated_Source\PSoC5/USBFS_hid.c **** volatile uint8 USBFS_hidIdleTimer[USBFS_MAX_INTERFACES_NUMBER]; /* HID device idle rate value */
ARM GAS  C:\Users\MICHA_~1\AppData\Local\Temp\ccAt1N4e.s 			page 2


  32:.\Generated_Source\PSoC5/USBFS_hid.c **** 
  33:.\Generated_Source\PSoC5/USBFS_hid.c **** 
  34:.\Generated_Source\PSoC5/USBFS_hid.c **** /***************************************
  35:.\Generated_Source\PSoC5/USBFS_hid.c **** * Custom Declarations
  36:.\Generated_Source\PSoC5/USBFS_hid.c **** ***************************************/
  37:.\Generated_Source\PSoC5/USBFS_hid.c **** 
  38:.\Generated_Source\PSoC5/USBFS_hid.c **** /* `#START HID_CUSTOM_DECLARATIONS` Place your declaration here */
  39:.\Generated_Source\PSoC5/USBFS_hid.c **** 
  40:.\Generated_Source\PSoC5/USBFS_hid.c **** /* `#END` */
  41:.\Generated_Source\PSoC5/USBFS_hid.c **** 
  42:.\Generated_Source\PSoC5/USBFS_hid.c **** 
  43:.\Generated_Source\PSoC5/USBFS_hid.c **** /*******************************************************************************
  44:.\Generated_Source\PSoC5/USBFS_hid.c **** * Function Name: USBFS_UpdateHIDTimer
  45:.\Generated_Source\PSoC5/USBFS_hid.c **** ********************************************************************************
  46:.\Generated_Source\PSoC5/USBFS_hid.c **** *
  47:.\Generated_Source\PSoC5/USBFS_hid.c **** * Summary:
  48:.\Generated_Source\PSoC5/USBFS_hid.c **** *  Updates the HID report timer and reloads it if expired
  49:.\Generated_Source\PSoC5/USBFS_hid.c **** *
  50:.\Generated_Source\PSoC5/USBFS_hid.c **** * Parameters:
  51:.\Generated_Source\PSoC5/USBFS_hid.c **** *  interface:  Interface Number.
  52:.\Generated_Source\PSoC5/USBFS_hid.c **** *
  53:.\Generated_Source\PSoC5/USBFS_hid.c **** * Return:
  54:.\Generated_Source\PSoC5/USBFS_hid.c **** *  status.
  55:.\Generated_Source\PSoC5/USBFS_hid.c **** *
  56:.\Generated_Source\PSoC5/USBFS_hid.c **** * Reentrant:
  57:.\Generated_Source\PSoC5/USBFS_hid.c **** *  No.
  58:.\Generated_Source\PSoC5/USBFS_hid.c **** *
  59:.\Generated_Source\PSoC5/USBFS_hid.c **** *******************************************************************************/
  60:.\Generated_Source\PSoC5/USBFS_hid.c **** uint8 USBFS_UpdateHIDTimer(uint8 interface) 
  61:.\Generated_Source\PSoC5/USBFS_hid.c **** {
  27              		.loc 1 61 0
  28              		.cfi_startproc
  29              		@ args = 0, pretend = 0, frame = 0
  30              		@ frame_needed = 0, uses_anonymous_args = 0
  31              		@ link register save eliminated.
  32              	.LVL0:
  62:.\Generated_Source\PSoC5/USBFS_hid.c ****     uint8 stat = USBFS_IDLE_TIMER_INDEFINITE;
  63:.\Generated_Source\PSoC5/USBFS_hid.c **** 
  64:.\Generated_Source\PSoC5/USBFS_hid.c ****     if(USBFS_hidIdleRate[interface] != 0u)
  33              		.loc 1 64 0
  34 0000 084A     		ldr	r2, .L6
  35 0002 135C     		ldrb	r3, [r2, r0]	@ zero_extendqisi2
  36 0004 63B1     		cbz	r3, .L4
  65:.\Generated_Source\PSoC5/USBFS_hid.c ****     {
  66:.\Generated_Source\PSoC5/USBFS_hid.c ****         if(USBFS_hidIdleTimer[interface] > 0u)
  37              		.loc 1 66 0
  38 0006 084B     		ldr	r3, .L6+4
  39 0008 195C     		ldrb	r1, [r3, r0]	@ zero_extendqisi2
  40 000a 29B1     		cbz	r1, .L3
  67:.\Generated_Source\PSoC5/USBFS_hid.c ****         {
  68:.\Generated_Source\PSoC5/USBFS_hid.c ****             USBFS_hidIdleTimer[interface]--;
  41              		.loc 1 68 0
  42 000c 195C     		ldrb	r1, [r3, r0]	@ zero_extendqisi2
  43 000e 4A1E     		subs	r2, r1, #1
  44 0010 D1B2     		uxtb	r1, r2
  45 0012 1954     		strb	r1, [r3, r0]
  46              	.LVL1:
ARM GAS  C:\Users\MICHA_~1\AppData\Local\Temp\ccAt1N4e.s 			page 3


  69:.\Generated_Source\PSoC5/USBFS_hid.c ****             stat = USBFS_IDLE_TIMER_RUNNING;
  47              		.loc 1 69 0
  48 0014 0220     		movs	r0, #2
  49              	.LVL2:
  50 0016 7047     		bx	lr
  51              	.LVL3:
  52              	.L3:
  70:.\Generated_Source\PSoC5/USBFS_hid.c ****         }
  71:.\Generated_Source\PSoC5/USBFS_hid.c ****         else
  72:.\Generated_Source\PSoC5/USBFS_hid.c ****         {
  73:.\Generated_Source\PSoC5/USBFS_hid.c ****             USBFS_hidIdleTimer[interface] = USBFS_hidIdleRate[interface];
  53              		.loc 1 73 0
  54 0018 125C     		ldrb	r2, [r2, r0]	@ zero_extendqisi2
  55 001a 1A54     		strb	r2, [r3, r0]
  56              	.LVL4:
  74:.\Generated_Source\PSoC5/USBFS_hid.c ****             stat = USBFS_IDLE_TIMER_EXPIRED;
  57              		.loc 1 74 0
  58 001c 0120     		movs	r0, #1
  59              	.LVL5:
  60 001e 7047     		bx	lr
  61              	.LVL6:
  62              	.L4:
  62:.\Generated_Source\PSoC5/USBFS_hid.c ****     uint8 stat = USBFS_IDLE_TIMER_INDEFINITE;
  63              		.loc 1 62 0
  64 0020 1846     		mov	r0, r3
  65              	.LVL7:
  75:.\Generated_Source\PSoC5/USBFS_hid.c ****         }
  76:.\Generated_Source\PSoC5/USBFS_hid.c ****     }
  77:.\Generated_Source\PSoC5/USBFS_hid.c **** 
  78:.\Generated_Source\PSoC5/USBFS_hid.c ****     return(stat);
  79:.\Generated_Source\PSoC5/USBFS_hid.c **** }
  66              		.loc 1 79 0
  67 0022 7047     		bx	lr
  68              	.L7:
  69              		.align	2
  70              	.L6:
  71 0024 00000000 		.word	USBFS_hidIdleRate
  72 0028 00000000 		.word	USBFS_hidIdleTimer
  73              		.cfi_endproc
  74              	.LFE0:
  75              		.size	USBFS_UpdateHIDTimer, .-USBFS_UpdateHIDTimer
  76              		.section	.text.USBFS_GetProtocol,"ax",%progbits
  77              		.align	1
  78              		.global	USBFS_GetProtocol
  79              		.thumb
  80              		.thumb_func
  81              		.type	USBFS_GetProtocol, %function
  82              	USBFS_GetProtocol:
  83              	.LFB1:
  80:.\Generated_Source\PSoC5/USBFS_hid.c **** 
  81:.\Generated_Source\PSoC5/USBFS_hid.c **** 
  82:.\Generated_Source\PSoC5/USBFS_hid.c **** /*******************************************************************************
  83:.\Generated_Source\PSoC5/USBFS_hid.c **** * Function Name: USBFS_GetProtocol
  84:.\Generated_Source\PSoC5/USBFS_hid.c **** ********************************************************************************
  85:.\Generated_Source\PSoC5/USBFS_hid.c **** *
  86:.\Generated_Source\PSoC5/USBFS_hid.c **** * Summary:
  87:.\Generated_Source\PSoC5/USBFS_hid.c **** *  Returns the selected protocol value to the application
ARM GAS  C:\Users\MICHA_~1\AppData\Local\Temp\ccAt1N4e.s 			page 4


  88:.\Generated_Source\PSoC5/USBFS_hid.c **** *
  89:.\Generated_Source\PSoC5/USBFS_hid.c **** * Parameters:
  90:.\Generated_Source\PSoC5/USBFS_hid.c **** *  interface:  Interface Number.
  91:.\Generated_Source\PSoC5/USBFS_hid.c **** *
  92:.\Generated_Source\PSoC5/USBFS_hid.c **** * Return:
  93:.\Generated_Source\PSoC5/USBFS_hid.c **** *  Interface protocol.
  94:.\Generated_Source\PSoC5/USBFS_hid.c **** *
  95:.\Generated_Source\PSoC5/USBFS_hid.c **** *******************************************************************************/
  96:.\Generated_Source\PSoC5/USBFS_hid.c **** uint8 USBFS_GetProtocol(uint8 interface) 
  97:.\Generated_Source\PSoC5/USBFS_hid.c **** {
  84              		.loc 1 97 0
  85              		.cfi_startproc
  86              		@ args = 0, pretend = 0, frame = 0
  87              		@ frame_needed = 0, uses_anonymous_args = 0
  88              		@ link register save eliminated.
  89              	.LVL8:
  98:.\Generated_Source\PSoC5/USBFS_hid.c ****     return(USBFS_hidProtocol[interface]);
  90              		.loc 1 98 0
  91 0000 014B     		ldr	r3, .L9
  92 0002 185C     		ldrb	r0, [r3, r0]	@ zero_extendqisi2
  93              	.LVL9:
  99:.\Generated_Source\PSoC5/USBFS_hid.c **** }
  94              		.loc 1 99 0
  95 0004 7047     		bx	lr
  96              	.L10:
  97 0006 00BF     		.align	2
  98              	.L9:
  99 0008 00000000 		.word	USBFS_hidProtocol
 100              		.cfi_endproc
 101              	.LFE1:
 102              		.size	USBFS_GetProtocol, .-USBFS_GetProtocol
 103              		.section	.text.USBFS_FindHidClassDecriptor,"ax",%progbits
 104              		.align	1
 105              		.global	USBFS_FindHidClassDecriptor
 106              		.thumb
 107              		.thumb_func
 108              		.type	USBFS_FindHidClassDecriptor, %function
 109              	USBFS_FindHidClassDecriptor:
 110              	.LFB3:
 100:.\Generated_Source\PSoC5/USBFS_hid.c **** 
 101:.\Generated_Source\PSoC5/USBFS_hid.c **** 
 102:.\Generated_Source\PSoC5/USBFS_hid.c **** /*******************************************************************************
 103:.\Generated_Source\PSoC5/USBFS_hid.c **** * Function Name: USBFS_DispatchHIDClassRqst
 104:.\Generated_Source\PSoC5/USBFS_hid.c **** ********************************************************************************
 105:.\Generated_Source\PSoC5/USBFS_hid.c **** *
 106:.\Generated_Source\PSoC5/USBFS_hid.c **** * Summary:
 107:.\Generated_Source\PSoC5/USBFS_hid.c **** *  This routine dispatches class requests
 108:.\Generated_Source\PSoC5/USBFS_hid.c **** *
 109:.\Generated_Source\PSoC5/USBFS_hid.c **** * Parameters:
 110:.\Generated_Source\PSoC5/USBFS_hid.c **** *  None.
 111:.\Generated_Source\PSoC5/USBFS_hid.c **** *
 112:.\Generated_Source\PSoC5/USBFS_hid.c **** * Return:
 113:.\Generated_Source\PSoC5/USBFS_hid.c **** *  requestHandled
 114:.\Generated_Source\PSoC5/USBFS_hid.c **** *
 115:.\Generated_Source\PSoC5/USBFS_hid.c **** * Reentrant:
 116:.\Generated_Source\PSoC5/USBFS_hid.c **** *  No.
 117:.\Generated_Source\PSoC5/USBFS_hid.c **** *
ARM GAS  C:\Users\MICHA_~1\AppData\Local\Temp\ccAt1N4e.s 			page 5


 118:.\Generated_Source\PSoC5/USBFS_hid.c **** *******************************************************************************/
 119:.\Generated_Source\PSoC5/USBFS_hid.c **** uint8 USBFS_DispatchHIDClassRqst(void) 
 120:.\Generated_Source\PSoC5/USBFS_hid.c **** {
 121:.\Generated_Source\PSoC5/USBFS_hid.c ****     uint8 requestHandled = USBFS_FALSE;
 122:.\Generated_Source\PSoC5/USBFS_hid.c ****     uint8 interfaceNumber;
 123:.\Generated_Source\PSoC5/USBFS_hid.c **** 
 124:.\Generated_Source\PSoC5/USBFS_hid.c ****     interfaceNumber = CY_GET_REG8(USBFS_wIndexLo);
 125:.\Generated_Source\PSoC5/USBFS_hid.c ****     if ((CY_GET_REG8(USBFS_bmRequestType) & USBFS_RQST_DIR_MASK) == USBFS_RQST_DIR_D2H)
 126:.\Generated_Source\PSoC5/USBFS_hid.c ****     {   /* Control Read */
 127:.\Generated_Source\PSoC5/USBFS_hid.c ****         switch (CY_GET_REG8(USBFS_bRequest))
 128:.\Generated_Source\PSoC5/USBFS_hid.c ****         {
 129:.\Generated_Source\PSoC5/USBFS_hid.c ****             case USBFS_GET_DESCRIPTOR:
 130:.\Generated_Source\PSoC5/USBFS_hid.c ****                 if (CY_GET_REG8(USBFS_wValueHi) == USBFS_DESCR_HID_CLASS)
 131:.\Generated_Source\PSoC5/USBFS_hid.c ****                 {
 132:.\Generated_Source\PSoC5/USBFS_hid.c ****                     USBFS_FindHidClassDecriptor();
 133:.\Generated_Source\PSoC5/USBFS_hid.c ****                     if (USBFS_currentTD.count != 0u)
 134:.\Generated_Source\PSoC5/USBFS_hid.c ****                     {
 135:.\Generated_Source\PSoC5/USBFS_hid.c ****                         requestHandled = USBFS_InitControlRead();
 136:.\Generated_Source\PSoC5/USBFS_hid.c ****                     }
 137:.\Generated_Source\PSoC5/USBFS_hid.c ****                 }
 138:.\Generated_Source\PSoC5/USBFS_hid.c ****                 else if (CY_GET_REG8(USBFS_wValueHi) == USBFS_DESCR_HID_REPORT)
 139:.\Generated_Source\PSoC5/USBFS_hid.c ****                 {
 140:.\Generated_Source\PSoC5/USBFS_hid.c ****                     USBFS_FindReportDescriptor();
 141:.\Generated_Source\PSoC5/USBFS_hid.c ****                     if (USBFS_currentTD.count != 0u)
 142:.\Generated_Source\PSoC5/USBFS_hid.c ****                     {
 143:.\Generated_Source\PSoC5/USBFS_hid.c ****                         requestHandled = USBFS_InitControlRead();
 144:.\Generated_Source\PSoC5/USBFS_hid.c ****                     }
 145:.\Generated_Source\PSoC5/USBFS_hid.c ****                 }
 146:.\Generated_Source\PSoC5/USBFS_hid.c ****                 else
 147:.\Generated_Source\PSoC5/USBFS_hid.c ****                 {   /* requestHandled is initialezed as FALSE by default */
 148:.\Generated_Source\PSoC5/USBFS_hid.c ****                 }
 149:.\Generated_Source\PSoC5/USBFS_hid.c ****                 break;
 150:.\Generated_Source\PSoC5/USBFS_hid.c ****             case USBFS_HID_GET_REPORT:
 151:.\Generated_Source\PSoC5/USBFS_hid.c ****                 USBFS_FindReport();
 152:.\Generated_Source\PSoC5/USBFS_hid.c ****                 if (USBFS_currentTD.count != 0u)
 153:.\Generated_Source\PSoC5/USBFS_hid.c ****                 {
 154:.\Generated_Source\PSoC5/USBFS_hid.c ****                     requestHandled = USBFS_InitControlRead();
 155:.\Generated_Source\PSoC5/USBFS_hid.c ****                 }
 156:.\Generated_Source\PSoC5/USBFS_hid.c ****                 break;
 157:.\Generated_Source\PSoC5/USBFS_hid.c **** 
 158:.\Generated_Source\PSoC5/USBFS_hid.c ****             case USBFS_HID_GET_IDLE:
 159:.\Generated_Source\PSoC5/USBFS_hid.c ****                 /* This function does not support multiple reports per interface*/
 160:.\Generated_Source\PSoC5/USBFS_hid.c ****                 /* Validate interfaceNumber and Report ID (should be 0) */
 161:.\Generated_Source\PSoC5/USBFS_hid.c ****                 if( (interfaceNumber < USBFS_MAX_INTERFACES_NUMBER) &&
 162:.\Generated_Source\PSoC5/USBFS_hid.c ****                     (CY_GET_REG8(USBFS_wValueLo) == 0u ) ) /* Do not support Idle per Report ID */
 163:.\Generated_Source\PSoC5/USBFS_hid.c ****                 {
 164:.\Generated_Source\PSoC5/USBFS_hid.c ****                     USBFS_currentTD.count = 1u;
 165:.\Generated_Source\PSoC5/USBFS_hid.c ****                     USBFS_currentTD.pData = &USBFS_hidIdleRate[interfaceNumber];
 166:.\Generated_Source\PSoC5/USBFS_hid.c ****                     requestHandled  = USBFS_InitControlRead();
 167:.\Generated_Source\PSoC5/USBFS_hid.c ****                 }
 168:.\Generated_Source\PSoC5/USBFS_hid.c ****                 break;
 169:.\Generated_Source\PSoC5/USBFS_hid.c ****             case USBFS_HID_GET_PROTOCOL:
 170:.\Generated_Source\PSoC5/USBFS_hid.c ****                 /* Validate interfaceNumber */
 171:.\Generated_Source\PSoC5/USBFS_hid.c ****                 if( interfaceNumber < USBFS_MAX_INTERFACES_NUMBER)
 172:.\Generated_Source\PSoC5/USBFS_hid.c ****                 {
 173:.\Generated_Source\PSoC5/USBFS_hid.c ****                     USBFS_currentTD.count = 1u;
 174:.\Generated_Source\PSoC5/USBFS_hid.c ****                     USBFS_currentTD.pData = &USBFS_hidProtocol[interfaceNumber];
ARM GAS  C:\Users\MICHA_~1\AppData\Local\Temp\ccAt1N4e.s 			page 6


 175:.\Generated_Source\PSoC5/USBFS_hid.c ****                     requestHandled  = USBFS_InitControlRead();
 176:.\Generated_Source\PSoC5/USBFS_hid.c ****                 }
 177:.\Generated_Source\PSoC5/USBFS_hid.c ****                 break;
 178:.\Generated_Source\PSoC5/USBFS_hid.c ****             default:    /* requestHandled is initialized as FALSE by default */
 179:.\Generated_Source\PSoC5/USBFS_hid.c ****                 break;
 180:.\Generated_Source\PSoC5/USBFS_hid.c ****         }
 181:.\Generated_Source\PSoC5/USBFS_hid.c ****     }
 182:.\Generated_Source\PSoC5/USBFS_hid.c ****     else if ((CY_GET_REG8(USBFS_bmRequestType) & USBFS_RQST_DIR_MASK) ==
 183:.\Generated_Source\PSoC5/USBFS_hid.c ****                                                                             USBFS_RQST_DIR_H2D)
 184:.\Generated_Source\PSoC5/USBFS_hid.c ****     {   /* Control Write */
 185:.\Generated_Source\PSoC5/USBFS_hid.c ****         switch (CY_GET_REG8(USBFS_bRequest))
 186:.\Generated_Source\PSoC5/USBFS_hid.c ****         {
 187:.\Generated_Source\PSoC5/USBFS_hid.c ****             case USBFS_HID_SET_REPORT:
 188:.\Generated_Source\PSoC5/USBFS_hid.c ****                 USBFS_FindReport();
 189:.\Generated_Source\PSoC5/USBFS_hid.c ****                 if (USBFS_currentTD.count != 0u)
 190:.\Generated_Source\PSoC5/USBFS_hid.c ****                 {
 191:.\Generated_Source\PSoC5/USBFS_hid.c ****                     requestHandled = USBFS_InitControlWrite();
 192:.\Generated_Source\PSoC5/USBFS_hid.c ****                 }
 193:.\Generated_Source\PSoC5/USBFS_hid.c ****                 break;
 194:.\Generated_Source\PSoC5/USBFS_hid.c ****             case USBFS_HID_SET_IDLE:
 195:.\Generated_Source\PSoC5/USBFS_hid.c ****                 /* This function does not support multiple reports per interface */
 196:.\Generated_Source\PSoC5/USBFS_hid.c ****                 /* Validate interfaceNumber and Report ID (should be 0) */
 197:.\Generated_Source\PSoC5/USBFS_hid.c ****                 if( (interfaceNumber < USBFS_MAX_INTERFACES_NUMBER) &&
 198:.\Generated_Source\PSoC5/USBFS_hid.c ****                     (CY_GET_REG8(USBFS_wValueLo) == 0u ) ) /* Do not support Idle per Report ID */
 199:.\Generated_Source\PSoC5/USBFS_hid.c ****                 {
 200:.\Generated_Source\PSoC5/USBFS_hid.c ****                     USBFS_hidIdleRate[interfaceNumber] = CY_GET_REG8(USBFS_wValueHi);
 201:.\Generated_Source\PSoC5/USBFS_hid.c ****                     /* With regards to HID spec: "7.2.4 Set_Idle Request"
 202:.\Generated_Source\PSoC5/USBFS_hid.c ****                     *  Latency. If the current period has gone past the
 203:.\Generated_Source\PSoC5/USBFS_hid.c ****                     *  newly proscribed time duration, then a report
 204:.\Generated_Source\PSoC5/USBFS_hid.c ****                     *  will be generated immediately.
 205:.\Generated_Source\PSoC5/USBFS_hid.c ****                     */
 206:.\Generated_Source\PSoC5/USBFS_hid.c ****                     if(USBFS_hidIdleRate[interfaceNumber] <
 207:.\Generated_Source\PSoC5/USBFS_hid.c ****                        USBFS_hidIdleTimer[interfaceNumber])
 208:.\Generated_Source\PSoC5/USBFS_hid.c ****                     {
 209:.\Generated_Source\PSoC5/USBFS_hid.c ****                         /* Set the timer to zero and let the UpdateHIDTimer() API return IDLE_TIMER
 210:.\Generated_Source\PSoC5/USBFS_hid.c ****                         USBFS_hidIdleTimer[interfaceNumber] = 0u;
 211:.\Generated_Source\PSoC5/USBFS_hid.c ****                     }
 212:.\Generated_Source\PSoC5/USBFS_hid.c ****                     /* If the new request is received within 4 milliseconds
 213:.\Generated_Source\PSoC5/USBFS_hid.c ****                     *  (1 count) of the end of the current period, then the
 214:.\Generated_Source\PSoC5/USBFS_hid.c ****                     *  new request will have no effect until after the report.
 215:.\Generated_Source\PSoC5/USBFS_hid.c ****                     */
 216:.\Generated_Source\PSoC5/USBFS_hid.c ****                     else if(USBFS_hidIdleTimer[interfaceNumber] <= 1u)
 217:.\Generated_Source\PSoC5/USBFS_hid.c ****                     {
 218:.\Generated_Source\PSoC5/USBFS_hid.c ****                         /* Do nothing.
 219:.\Generated_Source\PSoC5/USBFS_hid.c ****                         *  Let the UpdateHIDTimer() API continue to work and
 220:.\Generated_Source\PSoC5/USBFS_hid.c ****                         *  return IDLE_TIMER_EXPIRED status
 221:.\Generated_Source\PSoC5/USBFS_hid.c ****                         */
 222:.\Generated_Source\PSoC5/USBFS_hid.c ****                     }
 223:.\Generated_Source\PSoC5/USBFS_hid.c ****                     else
 224:.\Generated_Source\PSoC5/USBFS_hid.c ****                     {   /* Reload the timer*/
 225:.\Generated_Source\PSoC5/USBFS_hid.c ****                         USBFS_hidIdleTimer[interfaceNumber] =
 226:.\Generated_Source\PSoC5/USBFS_hid.c ****                         USBFS_hidIdleRate[interfaceNumber];
 227:.\Generated_Source\PSoC5/USBFS_hid.c ****                     }
 228:.\Generated_Source\PSoC5/USBFS_hid.c ****                     requestHandled = USBFS_InitNoDataControlTransfer();
 229:.\Generated_Source\PSoC5/USBFS_hid.c ****                 }
 230:.\Generated_Source\PSoC5/USBFS_hid.c ****                 break;
 231:.\Generated_Source\PSoC5/USBFS_hid.c **** 
ARM GAS  C:\Users\MICHA_~1\AppData\Local\Temp\ccAt1N4e.s 			page 7


 232:.\Generated_Source\PSoC5/USBFS_hid.c ****             case USBFS_HID_SET_PROTOCOL:
 233:.\Generated_Source\PSoC5/USBFS_hid.c ****                 /* Validate interfaceNumber and protocol (must be 0 or 1) */
 234:.\Generated_Source\PSoC5/USBFS_hid.c ****                 if( (interfaceNumber < USBFS_MAX_INTERFACES_NUMBER) &&
 235:.\Generated_Source\PSoC5/USBFS_hid.c ****                     (CY_GET_REG8(USBFS_wValueLo) <= 1u) )
 236:.\Generated_Source\PSoC5/USBFS_hid.c ****                 {
 237:.\Generated_Source\PSoC5/USBFS_hid.c ****                     USBFS_hidProtocol[interfaceNumber] = CY_GET_REG8(USBFS_wValueLo);
 238:.\Generated_Source\PSoC5/USBFS_hid.c ****                     requestHandled = USBFS_InitNoDataControlTransfer();
 239:.\Generated_Source\PSoC5/USBFS_hid.c ****                 }
 240:.\Generated_Source\PSoC5/USBFS_hid.c ****                 break;
 241:.\Generated_Source\PSoC5/USBFS_hid.c ****             default:    /* requestHandled is initialized as FALSE by default */
 242:.\Generated_Source\PSoC5/USBFS_hid.c ****                 break;
 243:.\Generated_Source\PSoC5/USBFS_hid.c ****         }
 244:.\Generated_Source\PSoC5/USBFS_hid.c ****     }
 245:.\Generated_Source\PSoC5/USBFS_hid.c ****     else
 246:.\Generated_Source\PSoC5/USBFS_hid.c ****     {   /* requestHandled is initialized as FALSE by default */
 247:.\Generated_Source\PSoC5/USBFS_hid.c ****     }
 248:.\Generated_Source\PSoC5/USBFS_hid.c **** 
 249:.\Generated_Source\PSoC5/USBFS_hid.c ****     return(requestHandled);
 250:.\Generated_Source\PSoC5/USBFS_hid.c **** }
 251:.\Generated_Source\PSoC5/USBFS_hid.c **** 
 252:.\Generated_Source\PSoC5/USBFS_hid.c **** 
 253:.\Generated_Source\PSoC5/USBFS_hid.c **** /*******************************************************************************
 254:.\Generated_Source\PSoC5/USBFS_hid.c **** * Function Name: USB_FindHidClassDescriptor
 255:.\Generated_Source\PSoC5/USBFS_hid.c **** ********************************************************************************
 256:.\Generated_Source\PSoC5/USBFS_hid.c **** *
 257:.\Generated_Source\PSoC5/USBFS_hid.c **** * Summary:
 258:.\Generated_Source\PSoC5/USBFS_hid.c **** *  This routine find Hid Class Descriptor pointer based on the Interface number
 259:.\Generated_Source\PSoC5/USBFS_hid.c **** *  and Alternate setting then loads the currentTD structure with the address of
 260:.\Generated_Source\PSoC5/USBFS_hid.c **** *  the buffer and the size.
 261:.\Generated_Source\PSoC5/USBFS_hid.c **** *  The HID Class Descriptor resides inside the config descriptor.
 262:.\Generated_Source\PSoC5/USBFS_hid.c **** *
 263:.\Generated_Source\PSoC5/USBFS_hid.c **** * Parameters:
 264:.\Generated_Source\PSoC5/USBFS_hid.c **** *  None.
 265:.\Generated_Source\PSoC5/USBFS_hid.c **** *
 266:.\Generated_Source\PSoC5/USBFS_hid.c **** * Return:
 267:.\Generated_Source\PSoC5/USBFS_hid.c **** *  currentTD
 268:.\Generated_Source\PSoC5/USBFS_hid.c **** *
 269:.\Generated_Source\PSoC5/USBFS_hid.c **** * Reentrant:
 270:.\Generated_Source\PSoC5/USBFS_hid.c **** *  No.
 271:.\Generated_Source\PSoC5/USBFS_hid.c **** *
 272:.\Generated_Source\PSoC5/USBFS_hid.c **** *******************************************************************************/
 273:.\Generated_Source\PSoC5/USBFS_hid.c **** void USBFS_FindHidClassDecriptor(void) 
 274:.\Generated_Source\PSoC5/USBFS_hid.c **** {
 111              		.loc 1 274 0
 112              		.cfi_startproc
 113              		@ args = 0, pretend = 0, frame = 0
 114              		@ frame_needed = 0, uses_anonymous_args = 0
 115 0000 08B5     		push	{r3, lr}
 116              	.LCFI0:
 117              		.cfi_def_cfa_offset 8
 118              		.cfi_offset 3, -8
 119              		.cfi_offset 14, -4
 275:.\Generated_Source\PSoC5/USBFS_hid.c ****     const T_USBFS_LUT CYCODE *pTmp;
 276:.\Generated_Source\PSoC5/USBFS_hid.c ****     volatile uint8 *pDescr;
 277:.\Generated_Source\PSoC5/USBFS_hid.c ****     uint8 interfaceN;
 278:.\Generated_Source\PSoC5/USBFS_hid.c **** 
 279:.\Generated_Source\PSoC5/USBFS_hid.c ****     pTmp = USBFS_GetConfigTablePtr(USBFS_configuration - 1u);
ARM GAS  C:\Users\MICHA_~1\AppData\Local\Temp\ccAt1N4e.s 			page 8


 120              		.loc 1 279 0
 121 0002 0B4B     		ldr	r3, .L12
 122 0004 1878     		ldrb	r0, [r3, #0]	@ zero_extendqisi2
 123 0006 411E     		subs	r1, r0, #1
 124 0008 C8B2     		uxtb	r0, r1
 125 000a FFF7FEFF 		bl	USBFS_GetConfigTablePtr
 126              	.LVL10:
 280:.\Generated_Source\PSoC5/USBFS_hid.c ****     interfaceN = CY_GET_REG8(USBFS_wIndexLo);
 127              		.loc 1 280 0
 128 000e 094A     		ldr	r2, .L12+4
 281:.\Generated_Source\PSoC5/USBFS_hid.c ****     /* Third entry in the LUT starts the Interface Table pointers */
 282:.\Generated_Source\PSoC5/USBFS_hid.c ****     /* Now use the request interface number*/
 283:.\Generated_Source\PSoC5/USBFS_hid.c ****     pTmp = &pTmp[interfaceN + 2u];
 284:.\Generated_Source\PSoC5/USBFS_hid.c ****     /* USB_DEVICEx_CONFIGURATIONy_INTERFACEz_TABLE */
 285:.\Generated_Source\PSoC5/USBFS_hid.c ****     pTmp = (const T_USBFS_LUT CYCODE *) pTmp->p_list;
 286:.\Generated_Source\PSoC5/USBFS_hid.c ****     /* Now use Alternate setting number */
 287:.\Generated_Source\PSoC5/USBFS_hid.c ****     pTmp = &pTmp[USBFS_interfaceSetting[interfaceN]];
 129              		.loc 1 287 0
 130 0010 0949     		ldr	r1, .L12+8
 280:.\Generated_Source\PSoC5/USBFS_hid.c ****     interfaceN = CY_GET_REG8(USBFS_wIndexLo);
 131              		.loc 1 280 0
 132 0012 1378     		ldrb	r3, [r2, #0]	@ zero_extendqisi2
 133              	.LVL11:
 283:.\Generated_Source\PSoC5/USBFS_hid.c ****     pTmp = &pTmp[interfaceN + 2u];
 134              		.loc 1 283 0
 135 0014 00EBC300 		add	r0, r0, r3, lsl #3
 136              	.LVL12:
 285:.\Generated_Source\PSoC5/USBFS_hid.c ****     pTmp = (const T_USBFS_LUT CYCODE *) pTmp->p_list;
 137              		.loc 1 285 0
 138 0018 4269     		ldr	r2, [r0, #20]
 139              	.LVL13:
 140              		.loc 1 287 0
 141 001a CB5C     		ldrb	r3, [r1, r3]	@ zero_extendqisi2
 142              	.LVL14:
 143 001c 02EBC300 		add	r0, r2, r3, lsl #3
 144              	.LVL15:
 288:.\Generated_Source\PSoC5/USBFS_hid.c ****     /* USB_DEVICEx_CONFIGURATIONy_INTERFACEz_ALTERNATEi_HID_TABLE */
 289:.\Generated_Source\PSoC5/USBFS_hid.c ****     pTmp = (const T_USBFS_LUT CYCODE *) pTmp->p_list;
 290:.\Generated_Source\PSoC5/USBFS_hid.c ****     /* Fifth entry in the LUT points to Hid Class Descriptor in Configuration Descriptor */
 291:.\Generated_Source\PSoC5/USBFS_hid.c ****     pTmp = &pTmp[4u];
 292:.\Generated_Source\PSoC5/USBFS_hid.c ****     pDescr = (volatile uint8 *)pTmp->p_list;
 145              		.loc 1 292 0
 146 0020 4268     		ldr	r2, [r0, #4]
 293:.\Generated_Source\PSoC5/USBFS_hid.c ****     /* The first byte contains the descriptor length */
 294:.\Generated_Source\PSoC5/USBFS_hid.c ****     USBFS_currentTD.count = *pDescr;
 147              		.loc 1 294 0
 148 0022 064B     		ldr	r3, .L12+12
 292:.\Generated_Source\PSoC5/USBFS_hid.c ****     pDescr = (volatile uint8 *)pTmp->p_list;
 149              		.loc 1 292 0
 150 0024 506A     		ldr	r0, [r2, #36]
 151              	.LVL16:
 152              		.loc 1 294 0
 153 0026 0178     		ldrb	r1, [r0, #0]	@ zero_extendqisi2
 154 0028 1980     		strh	r1, [r3, #0]	@ movhi
 295:.\Generated_Source\PSoC5/USBFS_hid.c ****     USBFS_currentTD.pData = pDescr;
 155              		.loc 1 295 0
 156 002a 5860     		str	r0, [r3, #4]
ARM GAS  C:\Users\MICHA_~1\AppData\Local\Temp\ccAt1N4e.s 			page 9


 157 002c 08BD     		pop	{r3, pc}
 158              	.L13:
 159 002e 00BF     		.align	2
 160              	.L12:
 161 0030 00000000 		.word	USBFS_configuration
 162 0034 04600040 		.word	1073766404
 163 0038 00000000 		.word	USBFS_interfaceSetting
 164 003c 00000000 		.word	USBFS_currentTD
 165              		.cfi_endproc
 166              	.LFE3:
 167              		.size	USBFS_FindHidClassDecriptor, .-USBFS_FindHidClassDecriptor
 168              		.section	.text.USBFS_FindReportDescriptor,"ax",%progbits
 169              		.align	1
 170              		.global	USBFS_FindReportDescriptor
 171              		.thumb
 172              		.thumb_func
 173              		.type	USBFS_FindReportDescriptor, %function
 174              	USBFS_FindReportDescriptor:
 175              	.LFB4:
 296:.\Generated_Source\PSoC5/USBFS_hid.c **** }
 297:.\Generated_Source\PSoC5/USBFS_hid.c **** 
 298:.\Generated_Source\PSoC5/USBFS_hid.c **** 
 299:.\Generated_Source\PSoC5/USBFS_hid.c **** /*******************************************************************************
 300:.\Generated_Source\PSoC5/USBFS_hid.c **** * Function Name: USB_FindReportDescriptor
 301:.\Generated_Source\PSoC5/USBFS_hid.c **** ********************************************************************************
 302:.\Generated_Source\PSoC5/USBFS_hid.c **** *
 303:.\Generated_Source\PSoC5/USBFS_hid.c **** * Summary:
 304:.\Generated_Source\PSoC5/USBFS_hid.c **** *  This routine find Hid Report Descriptor pointer based on the Interface
 305:.\Generated_Source\PSoC5/USBFS_hid.c **** *  number, then loads the currentTD structure with the address of the buffer
 306:.\Generated_Source\PSoC5/USBFS_hid.c **** *  and the size.
 307:.\Generated_Source\PSoC5/USBFS_hid.c **** *  Hid Report Descriptor is located after IN/OUT/FEATURE reports.
 308:.\Generated_Source\PSoC5/USBFS_hid.c **** *
 309:.\Generated_Source\PSoC5/USBFS_hid.c **** * Parameters:
 310:.\Generated_Source\PSoC5/USBFS_hid.c **** *   void
 311:.\Generated_Source\PSoC5/USBFS_hid.c **** *
 312:.\Generated_Source\PSoC5/USBFS_hid.c **** * Return:
 313:.\Generated_Source\PSoC5/USBFS_hid.c **** *  currentTD
 314:.\Generated_Source\PSoC5/USBFS_hid.c **** *
 315:.\Generated_Source\PSoC5/USBFS_hid.c **** * Reentrant:
 316:.\Generated_Source\PSoC5/USBFS_hid.c **** *  No.
 317:.\Generated_Source\PSoC5/USBFS_hid.c **** *
 318:.\Generated_Source\PSoC5/USBFS_hid.c **** *******************************************************************************/
 319:.\Generated_Source\PSoC5/USBFS_hid.c **** void USBFS_FindReportDescriptor(void) 
 320:.\Generated_Source\PSoC5/USBFS_hid.c **** {
 176              		.loc 1 320 0
 177              		.cfi_startproc
 178              		@ args = 0, pretend = 0, frame = 0
 179              		@ frame_needed = 0, uses_anonymous_args = 0
 180 0000 08B5     		push	{r3, lr}
 181              	.LCFI1:
 182              		.cfi_def_cfa_offset 8
 183              		.cfi_offset 3, -8
 184              		.cfi_offset 14, -4
 321:.\Generated_Source\PSoC5/USBFS_hid.c ****     const T_USBFS_LUT CYCODE *pTmp;
 322:.\Generated_Source\PSoC5/USBFS_hid.c ****     volatile uint8 *pDescr;
 323:.\Generated_Source\PSoC5/USBFS_hid.c ****     uint8 interfaceN;
 324:.\Generated_Source\PSoC5/USBFS_hid.c **** 
ARM GAS  C:\Users\MICHA_~1\AppData\Local\Temp\ccAt1N4e.s 			page 10


 325:.\Generated_Source\PSoC5/USBFS_hid.c ****     pTmp = USBFS_GetConfigTablePtr(USBFS_configuration - 1u);
 185              		.loc 1 325 0
 186 0002 0D4B     		ldr	r3, .L15
 187 0004 1878     		ldrb	r0, [r3, #0]	@ zero_extendqisi2
 188 0006 411E     		subs	r1, r0, #1
 189 0008 C8B2     		uxtb	r0, r1
 190 000a FFF7FEFF 		bl	USBFS_GetConfigTablePtr
 191              	.LVL17:
 326:.\Generated_Source\PSoC5/USBFS_hid.c ****     interfaceN = CY_GET_REG8(USBFS_wIndexLo);
 192              		.loc 1 326 0
 193 000e 0B4A     		ldr	r2, .L15+4
 327:.\Generated_Source\PSoC5/USBFS_hid.c ****     /* Third entry in the LUT starts the Interface Table pointers */
 328:.\Generated_Source\PSoC5/USBFS_hid.c ****     /* Now use the request interface number */
 329:.\Generated_Source\PSoC5/USBFS_hid.c ****     pTmp = &pTmp[interfaceN + 2u];
 330:.\Generated_Source\PSoC5/USBFS_hid.c ****     /* USB_DEVICEx_CONFIGURATIONy_INTERFACEz_TABLE */
 331:.\Generated_Source\PSoC5/USBFS_hid.c ****     pTmp = (const T_USBFS_LUT CYCODE *) pTmp->p_list;
 332:.\Generated_Source\PSoC5/USBFS_hid.c ****     /* Now use Alternate setting number */
 333:.\Generated_Source\PSoC5/USBFS_hid.c ****     pTmp = &pTmp[USBFS_interfaceSetting[interfaceN]];
 194              		.loc 1 333 0
 195 0010 0B49     		ldr	r1, .L15+8
 326:.\Generated_Source\PSoC5/USBFS_hid.c ****     interfaceN = CY_GET_REG8(USBFS_wIndexLo);
 196              		.loc 1 326 0
 197 0012 1378     		ldrb	r3, [r2, #0]	@ zero_extendqisi2
 198              	.LVL18:
 329:.\Generated_Source\PSoC5/USBFS_hid.c ****     pTmp = &pTmp[interfaceN + 2u];
 199              		.loc 1 329 0
 200 0014 00EBC300 		add	r0, r0, r3, lsl #3
 201              	.LVL19:
 331:.\Generated_Source\PSoC5/USBFS_hid.c ****     pTmp = (const T_USBFS_LUT CYCODE *) pTmp->p_list;
 202              		.loc 1 331 0
 203 0018 4269     		ldr	r2, [r0, #20]
 204              	.LVL20:
 205              		.loc 1 333 0
 206 001a CB5C     		ldrb	r3, [r1, r3]	@ zero_extendqisi2
 207              	.LVL21:
 208 001c 02EBC300 		add	r0, r2, r3, lsl #3
 209              	.LVL22:
 334:.\Generated_Source\PSoC5/USBFS_hid.c ****     /* USB_DEVICEx_CONFIGURATIONy_INTERFACEz_ALTERNATEi_HID_TABLE */
 335:.\Generated_Source\PSoC5/USBFS_hid.c ****     pTmp = (const T_USBFS_LUT CYCODE *) pTmp->p_list;
 336:.\Generated_Source\PSoC5/USBFS_hid.c ****     /* Fourth entry in the LUT starts the Hid Report Descriptor */
 337:.\Generated_Source\PSoC5/USBFS_hid.c ****     pTmp = &pTmp[3u];
 338:.\Generated_Source\PSoC5/USBFS_hid.c ****     pDescr = (volatile uint8 *)pTmp->p_list;
 210              		.loc 1 338 0
 211 0020 4268     		ldr	r2, [r0, #4]
 212 0022 D369     		ldr	r3, [r2, #28]
 213              	.LVL23:
 339:.\Generated_Source\PSoC5/USBFS_hid.c ****     /* The 1st and 2nd bytes of descriptor contain its length. LSB is 1st. */
 340:.\Generated_Source\PSoC5/USBFS_hid.c ****     USBFS_currentTD.count =  (((uint16)pDescr[1u] << 8u) | pDescr[0u]);
 214              		.loc 1 340 0
 215 0024 074A     		ldr	r2, .L15+12
 216 0026 5978     		ldrb	r1, [r3, #1]	@ zero_extendqisi2
 217 0028 13F8020B 		ldrb	r0, [r3], #2	@ zero_extendqisi2
 218              	.LVL24:
 219 002c 40EA0121 		orr	r1, r0, r1, lsl #8
 220 0030 1180     		strh	r1, [r2, #0]	@ movhi
 341:.\Generated_Source\PSoC5/USBFS_hid.c ****     USBFS_currentTD.pData = &pDescr[2u];
 221              		.loc 1 341 0
ARM GAS  C:\Users\MICHA_~1\AppData\Local\Temp\ccAt1N4e.s 			page 11


 222 0032 5360     		str	r3, [r2, #4]
 223 0034 08BD     		pop	{r3, pc}
 224              	.L16:
 225 0036 00BF     		.align	2
 226              	.L15:
 227 0038 00000000 		.word	USBFS_configuration
 228 003c 04600040 		.word	1073766404
 229 0040 00000000 		.word	USBFS_interfaceSetting
 230 0044 00000000 		.word	USBFS_currentTD
 231              		.cfi_endproc
 232              	.LFE4:
 233              		.size	USBFS_FindReportDescriptor, .-USBFS_FindReportDescriptor
 234              		.section	.text.USBFS_FindReport,"ax",%progbits
 235              		.align	1
 236              		.global	USBFS_FindReport
 237              		.thumb
 238              		.thumb_func
 239              		.type	USBFS_FindReport, %function
 240              	USBFS_FindReport:
 241              	.LFB5:
 342:.\Generated_Source\PSoC5/USBFS_hid.c **** }
 343:.\Generated_Source\PSoC5/USBFS_hid.c **** 
 344:.\Generated_Source\PSoC5/USBFS_hid.c **** 
 345:.\Generated_Source\PSoC5/USBFS_hid.c **** /*******************************************************************************
 346:.\Generated_Source\PSoC5/USBFS_hid.c **** * Function Name: USBFS_FindReport
 347:.\Generated_Source\PSoC5/USBFS_hid.c **** ********************************************************************************
 348:.\Generated_Source\PSoC5/USBFS_hid.c **** *
 349:.\Generated_Source\PSoC5/USBFS_hid.c **** * Summary:
 350:.\Generated_Source\PSoC5/USBFS_hid.c **** *  This routine sets up a transfer based on the Interface number, Report Type
 351:.\Generated_Source\PSoC5/USBFS_hid.c **** *  and Report ID, then loads the currentTD structure with the address of the
 352:.\Generated_Source\PSoC5/USBFS_hid.c **** *  buffer and the size.  The caller has to decide if it is a control read or
 353:.\Generated_Source\PSoC5/USBFS_hid.c **** *  control write.
 354:.\Generated_Source\PSoC5/USBFS_hid.c **** *
 355:.\Generated_Source\PSoC5/USBFS_hid.c **** * Parameters:
 356:.\Generated_Source\PSoC5/USBFS_hid.c **** *  None.
 357:.\Generated_Source\PSoC5/USBFS_hid.c **** *
 358:.\Generated_Source\PSoC5/USBFS_hid.c **** * Return:
 359:.\Generated_Source\PSoC5/USBFS_hid.c **** *  currentTD
 360:.\Generated_Source\PSoC5/USBFS_hid.c **** *
 361:.\Generated_Source\PSoC5/USBFS_hid.c **** * Reentrant:
 362:.\Generated_Source\PSoC5/USBFS_hid.c **** *  No.
 363:.\Generated_Source\PSoC5/USBFS_hid.c **** *
 364:.\Generated_Source\PSoC5/USBFS_hid.c **** *******************************************************************************/
 365:.\Generated_Source\PSoC5/USBFS_hid.c **** void USBFS_FindReport(void) 
 366:.\Generated_Source\PSoC5/USBFS_hid.c **** {
 242              		.loc 1 366 0
 243              		.cfi_startproc
 244              		@ args = 0, pretend = 0, frame = 0
 245              		@ frame_needed = 0, uses_anonymous_args = 0
 246 0000 10B5     		push	{r4, lr}
 247              	.LCFI2:
 248              		.cfi_def_cfa_offset 8
 249              		.cfi_offset 4, -8
 250              		.cfi_offset 14, -4
 367:.\Generated_Source\PSoC5/USBFS_hid.c ****     const T_USBFS_LUT CYCODE *pTmp;
 368:.\Generated_Source\PSoC5/USBFS_hid.c ****     T_USBFS_TD *pTD;
 369:.\Generated_Source\PSoC5/USBFS_hid.c ****     uint8 interfaceN;
ARM GAS  C:\Users\MICHA_~1\AppData\Local\Temp\ccAt1N4e.s 			page 12


 370:.\Generated_Source\PSoC5/USBFS_hid.c ****     uint8 reportType;
 371:.\Generated_Source\PSoC5/USBFS_hid.c **** 
 372:.\Generated_Source\PSoC5/USBFS_hid.c ****     /* `#START HID_FINDREPORT` Place custom handling here */
 373:.\Generated_Source\PSoC5/USBFS_hid.c **** 
 374:.\Generated_Source\PSoC5/USBFS_hid.c ****     /* `#END` */
 375:.\Generated_Source\PSoC5/USBFS_hid.c ****     USBFS_currentTD.count = 0u;   /* Init not supported condition */
 251              		.loc 1 375 0
 252 0002 164C     		ldr	r4, .L19
 253 0004 0023     		movs	r3, #0
 376:.\Generated_Source\PSoC5/USBFS_hid.c ****     pTmp = USBFS_GetConfigTablePtr(USBFS_configuration - 1u);
 254              		.loc 1 376 0
 255 0006 1648     		ldr	r0, .L19+4
 375:.\Generated_Source\PSoC5/USBFS_hid.c ****     USBFS_currentTD.count = 0u;   /* Init not supported condition */
 256              		.loc 1 375 0
 257 0008 2380     		strh	r3, [r4, #0]	@ movhi
 258              		.loc 1 376 0
 259 000a 0178     		ldrb	r1, [r0, #0]	@ zero_extendqisi2
 260 000c 4A1E     		subs	r2, r1, #1
 261 000e D0B2     		uxtb	r0, r2
 262 0010 FFF7FEFF 		bl	USBFS_GetConfigTablePtr
 263              	.LVL25:
 377:.\Generated_Source\PSoC5/USBFS_hid.c ****     reportType = CY_GET_REG8(USBFS_wValueHi);
 378:.\Generated_Source\PSoC5/USBFS_hid.c ****     interfaceN = CY_GET_REG8(USBFS_wIndexLo);
 264              		.loc 1 378 0
 265 0014 1349     		ldr	r1, .L19+8
 377:.\Generated_Source\PSoC5/USBFS_hid.c ****     reportType = CY_GET_REG8(USBFS_wValueHi);
 266              		.loc 1 377 0
 267 0016 144B     		ldr	r3, .L19+12
 268 0018 1B78     		ldrb	r3, [r3, #0]	@ zero_extendqisi2
 269              	.LVL26:
 270              		.loc 1 378 0
 271 001a 0A78     		ldrb	r2, [r1, #0]	@ zero_extendqisi2
 272              	.LVL27:
 379:.\Generated_Source\PSoC5/USBFS_hid.c ****     /* Third entry in the LUT COnfiguration Table starts the Interface Table pointers */
 380:.\Generated_Source\PSoC5/USBFS_hid.c ****     /* Now use the request interface number */
 381:.\Generated_Source\PSoC5/USBFS_hid.c ****     pTmp = &pTmp[interfaceN + 2u];
 273              		.loc 1 381 0
 274 001c 00EBC200 		add	r0, r0, r2, lsl #3
 275              	.LVL28:
 382:.\Generated_Source\PSoC5/USBFS_hid.c ****     /* USB_DEVICEx_CONFIGURATIONy_INTERFACEz_TABLE*/
 383:.\Generated_Source\PSoC5/USBFS_hid.c ****     pTmp = (const T_USBFS_LUT CYCODE *) pTmp->p_list;
 276              		.loc 1 383 0
 277 0020 4169     		ldr	r1, [r0, #20]
 278              	.LVL29:
 384:.\Generated_Source\PSoC5/USBFS_hid.c ****     if(interfaceN < USBFS_MAX_INTERFACES_NUMBER)
 279              		.loc 1 384 0
 280 0022 D2B9     		cbnz	r2, .L17
 385:.\Generated_Source\PSoC5/USBFS_hid.c ****     {
 386:.\Generated_Source\PSoC5/USBFS_hid.c ****         /* Now use Alternate setting number */
 387:.\Generated_Source\PSoC5/USBFS_hid.c ****         pTmp = &pTmp[USBFS_interfaceSetting[interfaceN]];
 281              		.loc 1 387 0
 282 0024 114A     		ldr	r2, .L19+16
 283              	.LVL30:
 388:.\Generated_Source\PSoC5/USBFS_hid.c ****         /* USB_DEVICEx_CONFIGURATIONy_INTERFACEz_ALTERNATEi_HID_TABLE */
 389:.\Generated_Source\PSoC5/USBFS_hid.c ****         pTmp = (const T_USBFS_LUT CYCODE *) pTmp->p_list;
 390:.\Generated_Source\PSoC5/USBFS_hid.c ****         /* Validate reportType to comply with "7.2.1 Get_Report Request" */
 391:.\Generated_Source\PSoC5/USBFS_hid.c ****         if((reportType >= USBFS_HID_GET_REPORT_INPUT) &&
ARM GAS  C:\Users\MICHA_~1\AppData\Local\Temp\ccAt1N4e.s 			page 13


 284              		.loc 1 391 0
 285 0026 013B     		subs	r3, r3, #1
 286              	.LVL31:
 387:.\Generated_Source\PSoC5/USBFS_hid.c ****         pTmp = &pTmp[USBFS_interfaceSetting[interfaceN]];
 287              		.loc 1 387 0
 288 0028 1078     		ldrb	r0, [r2, #0]	@ zero_extendqisi2
 289              		.loc 1 391 0
 290 002a DAB2     		uxtb	r2, r3
 387:.\Generated_Source\PSoC5/USBFS_hid.c ****         pTmp = &pTmp[USBFS_interfaceSetting[interfaceN]];
 291              		.loc 1 387 0
 292 002c 01EBC001 		add	r1, r1, r0, lsl #3
 293              	.LVL32:
 294              		.loc 1 391 0
 295 0030 022A     		cmp	r2, #2
 389:.\Generated_Source\PSoC5/USBFS_hid.c ****         pTmp = (const T_USBFS_LUT CYCODE *) pTmp->p_list;
 296              		.loc 1 389 0
 297 0032 4968     		ldr	r1, [r1, #4]
 298              	.LVL33:
 299              		.loc 1 391 0
 300 0034 11D8     		bhi	.L17
 392:.\Generated_Source\PSoC5/USBFS_hid.c ****            (reportType <= USBFS_HID_GET_REPORT_FEATURE))
 393:.\Generated_Source\PSoC5/USBFS_hid.c ****         {
 394:.\Generated_Source\PSoC5/USBFS_hid.c ****             /* Get the entry proper TD (IN, OUT or Feature Report Table)*/
 395:.\Generated_Source\PSoC5/USBFS_hid.c ****             pTmp = &pTmp[reportType - 1u];
 396:.\Generated_Source\PSoC5/USBFS_hid.c ****             reportType = CY_GET_REG8(USBFS_wValueLo);    /* Get reportID */
 301              		.loc 1 396 0
 302 0036 0E4A     		ldr	r2, .L19+20
 395:.\Generated_Source\PSoC5/USBFS_hid.c ****             pTmp = &pTmp[reportType - 1u];
 303              		.loc 1 395 0
 304 0038 01EBC300 		add	r0, r1, r3, lsl #3
 305              	.LVL34:
 306              		.loc 1 396 0
 307 003c 1278     		ldrb	r2, [r2, #0]	@ zero_extendqisi2
 308              	.LVL35:
 397:.\Generated_Source\PSoC5/USBFS_hid.c ****             /* Validate table support by the HID descriptor, compare table count with reportID */
 398:.\Generated_Source\PSoC5/USBFS_hid.c ****             if(pTmp->c >= reportType)
 309              		.loc 1 398 0
 310 003e 11F83310 		ldrb	r1, [r1, r3, lsl #3]	@ zero_extendqisi2
 311 0042 9142     		cmp	r1, r2
 312 0044 09D3     		bcc	.L17
 399:.\Generated_Source\PSoC5/USBFS_hid.c ****             {
 400:.\Generated_Source\PSoC5/USBFS_hid.c ****                 pTD = (T_USBFS_TD *) pTmp->p_list;
 401:.\Generated_Source\PSoC5/USBFS_hid.c ****                 pTD = &pTD[reportType];                          /* select entry depend on report I
 313              		.loc 1 401 0
 314 0046 0C23     		movs	r3, #12
 315 0048 5A43     		muls	r2, r3, r2
 316              	.LVL36:
 400:.\Generated_Source\PSoC5/USBFS_hid.c ****                 pTD = (T_USBFS_TD *) pTmp->p_list;
 317              		.loc 1 400 0
 318 004a 4168     		ldr	r1, [r0, #4]
 319              	.LVL37:
 320              		.loc 1 401 0
 321 004c 8B18     		adds	r3, r1, r2
 322              	.LVL38:
 402:.\Generated_Source\PSoC5/USBFS_hid.c ****                 USBFS_currentTD.pData = pTD->pData;   /* Buffer pointer */
 323              		.loc 1 402 0
 324 004e 5868     		ldr	r0, [r3, #4]
ARM GAS  C:\Users\MICHA_~1\AppData\Local\Temp\ccAt1N4e.s 			page 14


 325              	.LVL39:
 403:.\Generated_Source\PSoC5/USBFS_hid.c ****                 USBFS_currentTD.count = pTD->count;   /* Buffer Size */
 326              		.loc 1 403 0
 327 0050 8A5A     		ldrh	r2, [r1, r2]
 404:.\Generated_Source\PSoC5/USBFS_hid.c ****                 USBFS_currentTD.pStatusBlock = pTD->pStatusBlock;
 328              		.loc 1 404 0
 329 0052 9968     		ldr	r1, [r3, #8]
 402:.\Generated_Source\PSoC5/USBFS_hid.c ****                 USBFS_currentTD.pData = pTD->pData;   /* Buffer pointer */
 330              		.loc 1 402 0
 331 0054 6060     		str	r0, [r4, #4]
 403:.\Generated_Source\PSoC5/USBFS_hid.c ****                 USBFS_currentTD.count = pTD->count;   /* Buffer Size */
 332              		.loc 1 403 0
 333 0056 2280     		strh	r2, [r4, #0]	@ movhi
 334              		.loc 1 404 0
 335 0058 A160     		str	r1, [r4, #8]
 336              	.LVL40:
 337              	.L17:
 338 005a 10BD     		pop	{r4, pc}
 339              	.L20:
 340              		.align	2
 341              	.L19:
 342 005c 00000000 		.word	USBFS_currentTD
 343 0060 00000000 		.word	USBFS_configuration
 344 0064 04600040 		.word	1073766404
 345 0068 03600040 		.word	1073766403
 346 006c 00000000 		.word	USBFS_interfaceSetting
 347 0070 02600040 		.word	1073766402
 348              		.cfi_endproc
 349              	.LFE5:
 350              		.size	USBFS_FindReport, .-USBFS_FindReport
 351              		.section	.text.USBFS_DispatchHIDClassRqst,"ax",%progbits
 352              		.align	1
 353              		.global	USBFS_DispatchHIDClassRqst
 354              		.thumb
 355              		.thumb_func
 356              		.type	USBFS_DispatchHIDClassRqst, %function
 357              	USBFS_DispatchHIDClassRqst:
 358              	.LFB2:
 120:.\Generated_Source\PSoC5/USBFS_hid.c **** {
 359              		.loc 1 120 0
 360              		.cfi_startproc
 361              		@ args = 0, pretend = 0, frame = 0
 362              		@ frame_needed = 0, uses_anonymous_args = 0
 363              	.LVL41:
 364 0000 10B5     		push	{r4, lr}
 365              	.LCFI3:
 366              		.cfi_def_cfa_offset 8
 367              		.cfi_offset 4, -8
 368              		.cfi_offset 14, -4
 124:.\Generated_Source\PSoC5/USBFS_hid.c ****     interfaceNumber = CY_GET_REG8(USBFS_wIndexLo);
 369              		.loc 1 124 0
 370 0002 3A4B     		ldr	r3, .L57
 125:.\Generated_Source\PSoC5/USBFS_hid.c ****     if ((CY_GET_REG8(USBFS_bmRequestType) & USBFS_RQST_DIR_MASK) == USBFS_RQST_DIR_D2H)
 371              		.loc 1 125 0
 372 0004 3A4A     		ldr	r2, .L57+4
 124:.\Generated_Source\PSoC5/USBFS_hid.c ****     interfaceNumber = CY_GET_REG8(USBFS_wIndexLo);
 373              		.loc 1 124 0
ARM GAS  C:\Users\MICHA_~1\AppData\Local\Temp\ccAt1N4e.s 			page 15


 374 0006 1878     		ldrb	r0, [r3, #0]	@ zero_extendqisi2
 375              	.LVL42:
 125:.\Generated_Source\PSoC5/USBFS_hid.c ****     if ((CY_GET_REG8(USBFS_bmRequestType) & USBFS_RQST_DIR_MASK) == USBFS_RQST_DIR_D2H)
 376              		.loc 1 125 0
 377 0008 1178     		ldrb	r1, [r2, #0]	@ zero_extendqisi2
 378 000a 0906     		lsls	r1, r1, #24
 379 000c 34D5     		bpl	.L22
 127:.\Generated_Source\PSoC5/USBFS_hid.c ****         switch (CY_GET_REG8(USBFS_bRequest))
 380              		.loc 1 127 0
 381 000e 511C     		adds	r1, r2, #1
 382 0010 0B78     		ldrb	r3, [r1, #0]	@ zero_extendqisi2
 383 0012 5A1E     		subs	r2, r3, #1
 384 0014 052A     		cmp	r2, #5
 385 0016 67D8     		bhi	.L23
 386 0018 DFE802F0 		tbb	[pc, r2]
 387              	.L28:
 388 001c 10       		.byte	(.L24-.L28)/2
 389 001d 18       		.byte	(.L25-.L28)/2
 390 001e 27       		.byte	(.L26-.L28)/2
 391 001f 66       		.byte	(.L23-.L28)/2
 392 0020 66       		.byte	(.L23-.L28)/2
 393 0021 03       		.byte	(.L27-.L28)/2
 394              		.align	1
 395              	.L27:
 130:.\Generated_Source\PSoC5/USBFS_hid.c ****                 if (CY_GET_REG8(USBFS_wValueHi) == USBFS_DESCR_HID_CLASS)
 396              		.loc 1 130 0
 397 0022 3448     		ldr	r0, .L57+8
 398              	.LVL43:
 399 0024 0178     		ldrb	r1, [r0, #0]	@ zero_extendqisi2
 400 0026 2129     		cmp	r1, #33
 401 0028 02D1     		bne	.L29
 132:.\Generated_Source\PSoC5/USBFS_hid.c ****                     USBFS_FindHidClassDecriptor();
 402              		.loc 1 132 0
 403 002a FFF7FEFF 		bl	USBFS_FindHidClassDecriptor
 404              	.LVL44:
 405 002e 07E0     		b	.L54
 406              	.L29:
 138:.\Generated_Source\PSoC5/USBFS_hid.c ****                 else if (CY_GET_REG8(USBFS_wValueHi) == USBFS_DESCR_HID_REPORT)
 407              		.loc 1 138 0
 408 0030 0378     		ldrb	r3, [r0, #0]	@ zero_extendqisi2
 409 0032 222B     		cmp	r3, #34
 410 0034 58D1     		bne	.L23
 140:.\Generated_Source\PSoC5/USBFS_hid.c ****                     USBFS_FindReportDescriptor();
 411              		.loc 1 140 0
 412 0036 FFF7FEFF 		bl	USBFS_FindReportDescriptor
 413              	.LVL45:
 414 003a 01E0     		b	.L54
 415              	.LVL46:
 416              	.L24:
 151:.\Generated_Source\PSoC5/USBFS_hid.c ****                 USBFS_FindReport();
 417              		.loc 1 151 0
 418 003c FFF7FEFF 		bl	USBFS_FindReport
 419              	.LVL47:
 420              	.L54:
 152:.\Generated_Source\PSoC5/USBFS_hid.c ****                 if (USBFS_currentTD.count != 0u)
 421              		.loc 1 152 0
 422 0040 2D49     		ldr	r1, .L57+12
ARM GAS  C:\Users\MICHA_~1\AppData\Local\Temp\ccAt1N4e.s 			page 16


 423 0042 0B88     		ldrh	r3, [r1, #0]
 424 0044 98B2     		uxth	r0, r3
 425 0046 0028     		cmp	r0, #0
 426 0048 4ED0     		beq	.L23
 427 004a 0AE0     		b	.L51
 428              	.LVL48:
 429              	.L25:
 161:.\Generated_Source\PSoC5/USBFS_hid.c ****                 if( (interfaceNumber < USBFS_MAX_INTERFACES_NUMBER) &&
 430              		.loc 1 161 0
 431 004c 0028     		cmp	r0, #0
 432 004e 4BD1     		bne	.L23
 162:.\Generated_Source\PSoC5/USBFS_hid.c ****                     (CY_GET_REG8(USBFS_wValueLo) == 0u ) ) /* Do not support Idle per Report ID */
 433              		.loc 1 162 0 discriminator 1
 434 0050 2A4B     		ldr	r3, .L57+16
 435 0052 1878     		ldrb	r0, [r3, #0]	@ zero_extendqisi2
 436              	.LVL49:
 161:.\Generated_Source\PSoC5/USBFS_hid.c ****                 if( (interfaceNumber < USBFS_MAX_INTERFACES_NUMBER) &&
 437              		.loc 1 161 0 discriminator 1
 438 0054 0028     		cmp	r0, #0
 439 0056 47D1     		bne	.L23
 164:.\Generated_Source\PSoC5/USBFS_hid.c ****                     USBFS_currentTD.count = 1u;
 440              		.loc 1 164 0
 441 0058 2748     		ldr	r0, .L57+12
 442 005a 0122     		movs	r2, #1
 165:.\Generated_Source\PSoC5/USBFS_hid.c ****                     USBFS_currentTD.pData = &USBFS_hidIdleRate[interfaceNumber];
 443              		.loc 1 165 0
 444 005c 2849     		ldr	r1, .L57+20
 164:.\Generated_Source\PSoC5/USBFS_hid.c ****                     USBFS_currentTD.count = 1u;
 445              		.loc 1 164 0
 446 005e 0280     		strh	r2, [r0, #0]	@ movhi
 447              	.L52:
 165:.\Generated_Source\PSoC5/USBFS_hid.c ****                     USBFS_currentTD.pData = &USBFS_hidIdleRate[interfaceNumber];
 448              		.loc 1 165 0
 449 0060 4160     		str	r1, [r0, #4]
 450              	.L51:
 250:.\Generated_Source\PSoC5/USBFS_hid.c **** }
 451              		.loc 1 250 0
 452 0062 BDE81040 		pop	{r4, lr}
 166:.\Generated_Source\PSoC5/USBFS_hid.c ****                     requestHandled  = USBFS_InitControlRead();
 453              		.loc 1 166 0
 454 0066 FFF7FEBF 		b	USBFS_InitControlRead
 455              	.LVL50:
 456              	.L26:
 171:.\Generated_Source\PSoC5/USBFS_hid.c ****                 if( interfaceNumber < USBFS_MAX_INTERFACES_NUMBER)
 457              		.loc 1 171 0
 458 006a 0028     		cmp	r0, #0
 459 006c 3CD1     		bne	.L23
 173:.\Generated_Source\PSoC5/USBFS_hid.c ****                     USBFS_currentTD.count = 1u;
 460              		.loc 1 173 0
 461 006e 2248     		ldr	r0, .L57+12
 462              	.LVL51:
 463 0070 0122     		movs	r2, #1
 464 0072 0280     		strh	r2, [r0, #0]	@ movhi
 174:.\Generated_Source\PSoC5/USBFS_hid.c ****                     USBFS_currentTD.pData = &USBFS_hidProtocol[interfaceNumber];
 465              		.loc 1 174 0
 466 0074 2349     		ldr	r1, .L57+24
 467 0076 F3E7     		b	.L52
ARM GAS  C:\Users\MICHA_~1\AppData\Local\Temp\ccAt1N4e.s 			page 17


 468              	.LVL52:
 469              	.L22:
 182:.\Generated_Source\PSoC5/USBFS_hid.c ****     else if ((CY_GET_REG8(USBFS_bmRequestType) & USBFS_RQST_DIR_MASK) ==
 470              		.loc 1 182 0
 471 0078 1378     		ldrb	r3, [r2, #0]	@ zero_extendqisi2
 472 007a 1A06     		lsls	r2, r3, #24
 473 007c 34D4     		bmi	.L23
 185:.\Generated_Source\PSoC5/USBFS_hid.c ****         switch (CY_GET_REG8(USBFS_bRequest))
 474              		.loc 1 185 0
 475 007e 224A     		ldr	r2, .L57+28
 476 0080 1178     		ldrb	r1, [r2, #0]	@ zero_extendqisi2
 477 0082 0929     		cmp	r1, #9
 478 0084 05D0     		beq	.L32
 479 0086 2FD3     		bcc	.L23
 480 0088 0A29     		cmp	r1, #10
 481 008a 0DD0     		beq	.L33
 482 008c 0B29     		cmp	r1, #11
 483 008e 2BD1     		bne	.L23
 484 0090 22E0     		b	.L56
 485              	.L32:
 188:.\Generated_Source\PSoC5/USBFS_hid.c ****                 USBFS_FindReport();
 486              		.loc 1 188 0
 487 0092 FFF7FEFF 		bl	USBFS_FindReport
 488              	.LVL53:
 189:.\Generated_Source\PSoC5/USBFS_hid.c ****                 if (USBFS_currentTD.count != 0u)
 489              		.loc 1 189 0
 490 0096 184B     		ldr	r3, .L57+12
 491 0098 1A88     		ldrh	r2, [r3, #0]
 492 009a 90B2     		uxth	r0, r2
 493 009c 0028     		cmp	r0, #0
 494 009e 23D0     		beq	.L23
 250:.\Generated_Source\PSoC5/USBFS_hid.c **** }
 495              		.loc 1 250 0
 496 00a0 BDE81040 		pop	{r4, lr}
 191:.\Generated_Source\PSoC5/USBFS_hid.c ****                     requestHandled = USBFS_InitControlWrite();
 497              		.loc 1 191 0
 498 00a4 FFF7FEBF 		b	USBFS_InitControlWrite
 499              	.LVL54:
 500              	.L33:
 197:.\Generated_Source\PSoC5/USBFS_hid.c ****                 if( (interfaceNumber < USBFS_MAX_INTERFACES_NUMBER) &&
 501              		.loc 1 197 0
 502 00a8 F0B9     		cbnz	r0, .L23
 198:.\Generated_Source\PSoC5/USBFS_hid.c ****                     (CY_GET_REG8(USBFS_wValueLo) == 0u ) ) /* Do not support Idle per Report ID */
 503              		.loc 1 198 0 discriminator 1
 504 00aa 1448     		ldr	r0, .L57+16
 505              	.LVL55:
 506 00ac 0178     		ldrb	r1, [r0, #0]	@ zero_extendqisi2
 197:.\Generated_Source\PSoC5/USBFS_hid.c ****                 if( (interfaceNumber < USBFS_MAX_INTERFACES_NUMBER) &&
 507              		.loc 1 197 0 discriminator 1
 508 00ae D9B9     		cbnz	r1, .L23
 200:.\Generated_Source\PSoC5/USBFS_hid.c ****                     USBFS_hidIdleRate[interfaceNumber] = CY_GET_REG8(USBFS_wValueHi);
 509              		.loc 1 200 0
 510 00b0 441C     		adds	r4, r0, #1
 511 00b2 2378     		ldrb	r3, [r4, #0]	@ zero_extendqisi2
 512 00b4 124A     		ldr	r2, .L57+20
 513 00b6 1370     		strb	r3, [r2, #0]
 207:.\Generated_Source\PSoC5/USBFS_hid.c ****                        USBFS_hidIdleTimer[interfaceNumber])
ARM GAS  C:\Users\MICHA_~1\AppData\Local\Temp\ccAt1N4e.s 			page 18


 514              		.loc 1 207 0
 515 00b8 144B     		ldr	r3, .L57+32
 206:.\Generated_Source\PSoC5/USBFS_hid.c ****                     if(USBFS_hidIdleRate[interfaceNumber] <
 516              		.loc 1 206 0
 517 00ba 1478     		ldrb	r4, [r2, #0]	@ zero_extendqisi2
 207:.\Generated_Source\PSoC5/USBFS_hid.c ****                        USBFS_hidIdleTimer[interfaceNumber])
 518              		.loc 1 207 0
 519 00bc 1878     		ldrb	r0, [r3, #0]	@ zero_extendqisi2
 206:.\Generated_Source\PSoC5/USBFS_hid.c ****                     if(USBFS_hidIdleRate[interfaceNumber] <
 520              		.loc 1 206 0
 521 00be 8442     		cmp	r4, r0
 522 00c0 01D2     		bcs	.L35
 210:.\Generated_Source\PSoC5/USBFS_hid.c ****                         USBFS_hidIdleTimer[interfaceNumber] = 0u;
 523              		.loc 1 210 0
 524 00c2 1970     		strb	r1, [r3, #0]
 525 00c4 04E0     		b	.L36
 526              	.L35:
 216:.\Generated_Source\PSoC5/USBFS_hid.c ****                     else if(USBFS_hidIdleTimer[interfaceNumber] <= 1u)
 527              		.loc 1 216 0
 528 00c6 1978     		ldrb	r1, [r3, #0]	@ zero_extendqisi2
 529 00c8 0129     		cmp	r1, #1
 530 00ca 01D9     		bls	.L36
 226:.\Generated_Source\PSoC5/USBFS_hid.c ****                         USBFS_hidIdleRate[interfaceNumber];
 531              		.loc 1 226 0
 532 00cc 1278     		ldrb	r2, [r2, #0]	@ zero_extendqisi2
 533              	.L50:
 225:.\Generated_Source\PSoC5/USBFS_hid.c ****                         USBFS_hidIdleTimer[interfaceNumber] =
 534              		.loc 1 225 0
 535 00ce 1A70     		strb	r2, [r3, #0]
 536              	.L36:
 250:.\Generated_Source\PSoC5/USBFS_hid.c **** }
 537              		.loc 1 250 0
 538 00d0 BDE81040 		pop	{r4, lr}
 228:.\Generated_Source\PSoC5/USBFS_hid.c ****                     requestHandled = USBFS_InitNoDataControlTransfer();
 539              		.loc 1 228 0
 540 00d4 FFF7FEBF 		b	USBFS_InitNoDataControlTransfer
 541              	.LVL56:
 542              	.L56:
 234:.\Generated_Source\PSoC5/USBFS_hid.c ****                 if( (interfaceNumber < USBFS_MAX_INTERFACES_NUMBER) &&
 543              		.loc 1 234 0
 544 00d8 30B9     		cbnz	r0, .L23
 235:.\Generated_Source\PSoC5/USBFS_hid.c ****                     (CY_GET_REG8(USBFS_wValueLo) <= 1u) )
 545              		.loc 1 235 0 discriminator 1
 546 00da 0848     		ldr	r0, .L57+16
 547              	.LVL57:
 548 00dc 0378     		ldrb	r3, [r0, #0]	@ zero_extendqisi2
 234:.\Generated_Source\PSoC5/USBFS_hid.c ****                 if( (interfaceNumber < USBFS_MAX_INTERFACES_NUMBER) &&
 549              		.loc 1 234 0 discriminator 1
 550 00de 012B     		cmp	r3, #1
 551 00e0 02D8     		bhi	.L23
 237:.\Generated_Source\PSoC5/USBFS_hid.c ****                     USBFS_hidProtocol[interfaceNumber] = CY_GET_REG8(USBFS_wValueLo);
 552              		.loc 1 237 0
 553 00e2 0278     		ldrb	r2, [r0, #0]	@ zero_extendqisi2
 554 00e4 074B     		ldr	r3, .L57+24
 555 00e6 F2E7     		b	.L50
 556              	.L23:
 557              	.LVL58:
ARM GAS  C:\Users\MICHA_~1\AppData\Local\Temp\ccAt1N4e.s 			page 19


 250:.\Generated_Source\PSoC5/USBFS_hid.c **** }
 558              		.loc 1 250 0
 559 00e8 0020     		movs	r0, #0
 560 00ea 10BD     		pop	{r4, pc}
 561              	.L58:
 562              		.align	2
 563              	.L57:
 564 00ec 04600040 		.word	1073766404
 565 00f0 00600040 		.word	1073766400
 566 00f4 03600040 		.word	1073766403
 567 00f8 00000000 		.word	USBFS_currentTD
 568 00fc 02600040 		.word	1073766402
 569 0100 00000000 		.word	USBFS_hidIdleRate
 570 0104 00000000 		.word	USBFS_hidProtocol
 571 0108 01600040 		.word	1073766401
 572 010c 00000000 		.word	USBFS_hidIdleTimer
 573              		.cfi_endproc
 574              	.LFE2:
 575              		.size	USBFS_DispatchHIDClassRqst, .-USBFS_DispatchHIDClassRqst
 576              		.comm	USBFS_hidIdleTimer,1,1
 577              		.comm	USBFS_hidIdleRate,1,1
 578              		.comm	USBFS_hidProtocol,1,1
 579              		.text
 580              	.Letext0:
 581              		.file 2 ".\\Generated_Source\\PSoC5\\cytypes.h"
 582              		.file 3 ".\\Generated_Source\\PSoC5\\USBFS.h"
 583              		.file 4 ".\\Generated_Source\\PSoC5\\USBFS_pvt.h"