ARM GAS  C:\Users\MICHA_~1\AppData\Local\Temp\cc8co29w.s 			page 1


   1              		.syntax unified
   2              		.cpu cortex-m3
   3              		.fpu softvfp
   4              		.eabi_attribute 20, 1
   5              		.eabi_attribute 21, 1
   6              		.eabi_attribute 23, 3
   7              		.eabi_attribute 24, 1
   8              		.eabi_attribute 25, 1
   9              		.eabi_attribute 26, 1
  10              		.eabi_attribute 30, 4
  11              		.eabi_attribute 34, 1
  12              		.eabi_attribute 18, 4
  13              		.thumb
  14              		.file	"USBFS_boot.c"
  15              		.text
  16              	.Ltext0:
  17              		.cfi_sections	.debug_frame
  18              		.section	.text.USBFS_CyBtldrCommStart,"ax",%progbits
  19              		.align	1
  20              		.global	USBFS_CyBtldrCommStart
  21              		.thumb
  22              		.thumb_func
  23              		.type	USBFS_CyBtldrCommStart, %function
  24              	USBFS_CyBtldrCommStart:
  25              	.LFB0:
  26              		.file 1 ".\\Generated_Source\\PSoC5\\USBFS_boot.c"
   1:.\Generated_Source\PSoC5/USBFS_boot.c **** /*******************************************************************************
   2:.\Generated_Source\PSoC5/USBFS_boot.c **** * File Name: USBFS_boot.c
   3:.\Generated_Source\PSoC5/USBFS_boot.c **** * Version 2.60
   4:.\Generated_Source\PSoC5/USBFS_boot.c **** *
   5:.\Generated_Source\PSoC5/USBFS_boot.c **** * Description:
   6:.\Generated_Source\PSoC5/USBFS_boot.c **** *  Boot loader API for USBFS Component.
   7:.\Generated_Source\PSoC5/USBFS_boot.c **** *
   8:.\Generated_Source\PSoC5/USBFS_boot.c **** *  Note:
   9:.\Generated_Source\PSoC5/USBFS_boot.c **** *
  10:.\Generated_Source\PSoC5/USBFS_boot.c **** ********************************************************************************
  11:.\Generated_Source\PSoC5/USBFS_boot.c **** * Copyright 2008-2013, Cypress Semiconductor Corporation.  All rights reserved.
  12:.\Generated_Source\PSoC5/USBFS_boot.c **** * You may use this file only in accordance with the license, terms, conditions,
  13:.\Generated_Source\PSoC5/USBFS_boot.c **** * disclaimers, and limitations in the end user license agreement accompanying
  14:.\Generated_Source\PSoC5/USBFS_boot.c **** * the software package with which this file was provided.
  15:.\Generated_Source\PSoC5/USBFS_boot.c **** *******************************************************************************/
  16:.\Generated_Source\PSoC5/USBFS_boot.c **** 
  17:.\Generated_Source\PSoC5/USBFS_boot.c **** #include "USBFS.h"
  18:.\Generated_Source\PSoC5/USBFS_boot.c **** 
  19:.\Generated_Source\PSoC5/USBFS_boot.c **** #if defined(CYDEV_BOOTLOADER_IO_COMP) && ((CYDEV_BOOTLOADER_IO_COMP == CyBtldr_USBFS) || \
  20:.\Generated_Source\PSoC5/USBFS_boot.c ****                                           (CYDEV_BOOTLOADER_IO_COMP == CyBtldr_Custom_Interface))
  21:.\Generated_Source\PSoC5/USBFS_boot.c **** 
  22:.\Generated_Source\PSoC5/USBFS_boot.c **** 
  23:.\Generated_Source\PSoC5/USBFS_boot.c **** /***************************************
  24:.\Generated_Source\PSoC5/USBFS_boot.c **** *    Bootloader defines
  25:.\Generated_Source\PSoC5/USBFS_boot.c **** ***************************************/
  26:.\Generated_Source\PSoC5/USBFS_boot.c **** 
  27:.\Generated_Source\PSoC5/USBFS_boot.c **** #define USBFS_CyBtLdrStarttimer(X, T)         {USBFS_universalTime = T * 10; X = 0u;}
  28:.\Generated_Source\PSoC5/USBFS_boot.c **** #define USBFS_CyBtLdrChecktimer(X)            ((X++ < USBFS_universalTime) ? 1u : 0u)
  29:.\Generated_Source\PSoC5/USBFS_boot.c **** 
  30:.\Generated_Source\PSoC5/USBFS_boot.c **** #define USBFS_BTLDR_OUT_EP      (0x01u)
  31:.\Generated_Source\PSoC5/USBFS_boot.c **** #define USBFS_BTLDR_IN_EP       (0x02u)
ARM GAS  C:\Users\MICHA_~1\AppData\Local\Temp\cc8co29w.s 			page 2


  32:.\Generated_Source\PSoC5/USBFS_boot.c **** 
  33:.\Generated_Source\PSoC5/USBFS_boot.c **** 
  34:.\Generated_Source\PSoC5/USBFS_boot.c **** /***************************************
  35:.\Generated_Source\PSoC5/USBFS_boot.c **** *    Bootloader Variables
  36:.\Generated_Source\PSoC5/USBFS_boot.c **** ***************************************/
  37:.\Generated_Source\PSoC5/USBFS_boot.c **** 
  38:.\Generated_Source\PSoC5/USBFS_boot.c **** static uint16 USBFS_universalTime;
  39:.\Generated_Source\PSoC5/USBFS_boot.c **** static uint8 USBFS_started = 0u;
  40:.\Generated_Source\PSoC5/USBFS_boot.c **** 
  41:.\Generated_Source\PSoC5/USBFS_boot.c **** 
  42:.\Generated_Source\PSoC5/USBFS_boot.c **** /*******************************************************************************
  43:.\Generated_Source\PSoC5/USBFS_boot.c **** * Function Name: USBFS_CyBtldrCommStart
  44:.\Generated_Source\PSoC5/USBFS_boot.c **** ********************************************************************************
  45:.\Generated_Source\PSoC5/USBFS_boot.c **** *
  46:.\Generated_Source\PSoC5/USBFS_boot.c **** * Summary:
  47:.\Generated_Source\PSoC5/USBFS_boot.c **** *  Starts the component and enables the interrupt.
  48:.\Generated_Source\PSoC5/USBFS_boot.c **** *
  49:.\Generated_Source\PSoC5/USBFS_boot.c **** * Parameters:
  50:.\Generated_Source\PSoC5/USBFS_boot.c **** *  None.
  51:.\Generated_Source\PSoC5/USBFS_boot.c **** *
  52:.\Generated_Source\PSoC5/USBFS_boot.c **** * Return:
  53:.\Generated_Source\PSoC5/USBFS_boot.c **** *  None.
  54:.\Generated_Source\PSoC5/USBFS_boot.c **** *
  55:.\Generated_Source\PSoC5/USBFS_boot.c **** * Side Effects:
  56:.\Generated_Source\PSoC5/USBFS_boot.c **** *  This function starts the USB with 3V or 5V operation.
  57:.\Generated_Source\PSoC5/USBFS_boot.c **** *
  58:.\Generated_Source\PSoC5/USBFS_boot.c **** * Reentrant:
  59:.\Generated_Source\PSoC5/USBFS_boot.c **** *  No.
  60:.\Generated_Source\PSoC5/USBFS_boot.c **** *
  61:.\Generated_Source\PSoC5/USBFS_boot.c **** *******************************************************************************/
  62:.\Generated_Source\PSoC5/USBFS_boot.c **** void USBFS_CyBtldrCommStart(void) 
  63:.\Generated_Source\PSoC5/USBFS_boot.c **** {
  27              		.loc 1 63 0
  28              		.cfi_startproc
  29              		@ args = 0, pretend = 0, frame = 0
  30              		@ frame_needed = 0, uses_anonymous_args = 0
  31 0000 08B5     		push	{r3, lr}
  32              	.LCFI0:
  33              		.cfi_def_cfa_offset 8
  34              		.cfi_offset 3, -8
  35              		.cfi_offset 14, -4
  64:.\Generated_Source\PSoC5/USBFS_boot.c ****     CyGlobalIntEnable;      /* Enable Global Interrupts */
  36              		.loc 1 64 0
  37              	@ 64 ".\Generated_Source\PSoC5\USBFS_boot.c" 1
  38 0002 62B6     		CPSIE   i
  39              	@ 0 "" 2
  65:.\Generated_Source\PSoC5/USBFS_boot.c **** 
  66:.\Generated_Source\PSoC5/USBFS_boot.c ****     /*Start USBFS Operation/device 0 and with 5V or 3V operation depend on Voltage Configuration in
  67:.\Generated_Source\PSoC5/USBFS_boot.c ****     USBFS_Start(0u, USBFS_DWR_VDDD_OPERATION);
  40              		.loc 1 67 0
  41              		.thumb
  42 0004 0020     		movs	r0, #0
  43 0006 0221     		movs	r1, #2
  44 0008 FFF7FEFF 		bl	USBFS_Start
  45              	.LVL0:
  68:.\Generated_Source\PSoC5/USBFS_boot.c **** 
  69:.\Generated_Source\PSoC5/USBFS_boot.c ****     /* USB component started, the correct enumeration will be checked in first Read operation */
ARM GAS  C:\Users\MICHA_~1\AppData\Local\Temp\cc8co29w.s 			page 3


  70:.\Generated_Source\PSoC5/USBFS_boot.c ****     USBFS_started = 1u;
  46              		.loc 1 70 0
  47 000c 014B     		ldr	r3, .L2
  48 000e 0122     		movs	r2, #1
  49 0010 1A70     		strb	r2, [r3, #0]
  50 0012 08BD     		pop	{r3, pc}
  51              	.L3:
  52              		.align	2
  53              	.L2:
  54 0014 00000000 		.word	.LANCHOR0
  55              		.cfi_endproc
  56              	.LFE0:
  57              		.size	USBFS_CyBtldrCommStart, .-USBFS_CyBtldrCommStart
  58              		.section	.text.USBFS_CyBtldrCommStop,"ax",%progbits
  59              		.align	1
  60              		.global	USBFS_CyBtldrCommStop
  61              		.thumb
  62              		.thumb_func
  63              		.type	USBFS_CyBtldrCommStop, %function
  64              	USBFS_CyBtldrCommStop:
  65              	.LFB1:
  71:.\Generated_Source\PSoC5/USBFS_boot.c **** 
  72:.\Generated_Source\PSoC5/USBFS_boot.c **** }
  73:.\Generated_Source\PSoC5/USBFS_boot.c **** 
  74:.\Generated_Source\PSoC5/USBFS_boot.c **** 
  75:.\Generated_Source\PSoC5/USBFS_boot.c **** /*******************************************************************************
  76:.\Generated_Source\PSoC5/USBFS_boot.c **** * Function Name: USBFS_CyBtldrCommStop.
  77:.\Generated_Source\PSoC5/USBFS_boot.c **** ********************************************************************************
  78:.\Generated_Source\PSoC5/USBFS_boot.c **** *
  79:.\Generated_Source\PSoC5/USBFS_boot.c **** * Summary:
  80:.\Generated_Source\PSoC5/USBFS_boot.c **** *  Disable the component and disable the interrupt.
  81:.\Generated_Source\PSoC5/USBFS_boot.c **** *
  82:.\Generated_Source\PSoC5/USBFS_boot.c **** * Parameters:
  83:.\Generated_Source\PSoC5/USBFS_boot.c **** *  None.
  84:.\Generated_Source\PSoC5/USBFS_boot.c **** *
  85:.\Generated_Source\PSoC5/USBFS_boot.c **** * Return:
  86:.\Generated_Source\PSoC5/USBFS_boot.c **** *  None.
  87:.\Generated_Source\PSoC5/USBFS_boot.c **** *
  88:.\Generated_Source\PSoC5/USBFS_boot.c **** *******************************************************************************/
  89:.\Generated_Source\PSoC5/USBFS_boot.c **** void USBFS_CyBtldrCommStop(void) 
  90:.\Generated_Source\PSoC5/USBFS_boot.c **** {
  66              		.loc 1 90 0
  67              		.cfi_startproc
  68              		@ args = 0, pretend = 0, frame = 0
  69              		@ frame_needed = 0, uses_anonymous_args = 0
  70              		@ link register save eliminated.
  91:.\Generated_Source\PSoC5/USBFS_boot.c ****     USBFS_Stop();
  92:.\Generated_Source\PSoC5/USBFS_boot.c **** }
  71              		.loc 1 92 0
  91:.\Generated_Source\PSoC5/USBFS_boot.c ****     USBFS_Stop();
  72              		.loc 1 91 0
  73 0000 FFF7FEBF 		b	USBFS_Stop
  74              	.LVL1:
  75              		.cfi_endproc
  76              	.LFE1:
  77              		.size	USBFS_CyBtldrCommStop, .-USBFS_CyBtldrCommStop
  78              		.section	.text.USBFS_CyBtldrCommReset,"ax",%progbits
ARM GAS  C:\Users\MICHA_~1\AppData\Local\Temp\cc8co29w.s 			page 4


  79              		.align	1
  80              		.global	USBFS_CyBtldrCommReset
  81              		.thumb
  82              		.thumb_func
  83              		.type	USBFS_CyBtldrCommReset, %function
  84              	USBFS_CyBtldrCommReset:
  85              	.LFB2:
  93:.\Generated_Source\PSoC5/USBFS_boot.c **** 
  94:.\Generated_Source\PSoC5/USBFS_boot.c **** 
  95:.\Generated_Source\PSoC5/USBFS_boot.c **** /*******************************************************************************
  96:.\Generated_Source\PSoC5/USBFS_boot.c **** * Function Name: USBFS_CyBtldrCommReset.
  97:.\Generated_Source\PSoC5/USBFS_boot.c **** ********************************************************************************
  98:.\Generated_Source\PSoC5/USBFS_boot.c **** *
  99:.\Generated_Source\PSoC5/USBFS_boot.c **** * Summary:
 100:.\Generated_Source\PSoC5/USBFS_boot.c **** *  Resets the receive and transmit communication Buffers.
 101:.\Generated_Source\PSoC5/USBFS_boot.c **** *
 102:.\Generated_Source\PSoC5/USBFS_boot.c **** * Parameters:
 103:.\Generated_Source\PSoC5/USBFS_boot.c **** *  None.
 104:.\Generated_Source\PSoC5/USBFS_boot.c **** *
 105:.\Generated_Source\PSoC5/USBFS_boot.c **** * Return:
 106:.\Generated_Source\PSoC5/USBFS_boot.c **** *  None.
 107:.\Generated_Source\PSoC5/USBFS_boot.c **** *
 108:.\Generated_Source\PSoC5/USBFS_boot.c **** * Reentrant:
 109:.\Generated_Source\PSoC5/USBFS_boot.c **** *  No.
 110:.\Generated_Source\PSoC5/USBFS_boot.c **** *
 111:.\Generated_Source\PSoC5/USBFS_boot.c **** *******************************************************************************/
 112:.\Generated_Source\PSoC5/USBFS_boot.c **** void USBFS_CyBtldrCommReset(void) 
 113:.\Generated_Source\PSoC5/USBFS_boot.c **** {
  86              		.loc 1 113 0
  87              		.cfi_startproc
  88              		@ args = 0, pretend = 0, frame = 0
  89              		@ frame_needed = 0, uses_anonymous_args = 0
  90              		@ link register save eliminated.
 114:.\Generated_Source\PSoC5/USBFS_boot.c ****     USBFS_EnableOutEP(USBFS_BTLDR_OUT_EP);  /* Enable the OUT endpoint */
  91              		.loc 1 114 0
  92 0000 0120     		movs	r0, #1
 115:.\Generated_Source\PSoC5/USBFS_boot.c **** }
  93              		.loc 1 115 0
 114:.\Generated_Source\PSoC5/USBFS_boot.c ****     USBFS_EnableOutEP(USBFS_BTLDR_OUT_EP);  /* Enable the OUT endpoint */
  94              		.loc 1 114 0
  95 0002 FFF7FEBF 		b	USBFS_EnableOutEP
  96              	.LVL2:
  97              		.cfi_endproc
  98              	.LFE2:
  99              		.size	USBFS_CyBtldrCommReset, .-USBFS_CyBtldrCommReset
 100              		.section	.text.USBFS_CyBtldrCommWrite,"ax",%progbits
 101              		.align	1
 102              		.global	USBFS_CyBtldrCommWrite
 103              		.thumb
 104              		.thumb_func
 105              		.type	USBFS_CyBtldrCommWrite, %function
 106              	USBFS_CyBtldrCommWrite:
 107              	.LFB3:
 116:.\Generated_Source\PSoC5/USBFS_boot.c **** 
 117:.\Generated_Source\PSoC5/USBFS_boot.c **** 
 118:.\Generated_Source\PSoC5/USBFS_boot.c **** /*******************************************************************************
 119:.\Generated_Source\PSoC5/USBFS_boot.c **** * Function Name: USBFS_CyBtldrCommWrite.
ARM GAS  C:\Users\MICHA_~1\AppData\Local\Temp\cc8co29w.s 			page 5


 120:.\Generated_Source\PSoC5/USBFS_boot.c **** ********************************************************************************
 121:.\Generated_Source\PSoC5/USBFS_boot.c **** *
 122:.\Generated_Source\PSoC5/USBFS_boot.c **** * Summary:
 123:.\Generated_Source\PSoC5/USBFS_boot.c **** *  Allows the caller to write data to the boot loader host. The function will
 124:.\Generated_Source\PSoC5/USBFS_boot.c **** *  handle polling to allow a block of data to be completely sent to the host
 125:.\Generated_Source\PSoC5/USBFS_boot.c **** *  device.
 126:.\Generated_Source\PSoC5/USBFS_boot.c **** *
 127:.\Generated_Source\PSoC5/USBFS_boot.c **** * Parameters:
 128:.\Generated_Source\PSoC5/USBFS_boot.c **** *  pData:    A pointer to the block of data to send to the device
 129:.\Generated_Source\PSoC5/USBFS_boot.c **** *  size:     The number of bytes to write.
 130:.\Generated_Source\PSoC5/USBFS_boot.c **** *  count:    Pointer to an unsigned short variable to write the number of
 131:.\Generated_Source\PSoC5/USBFS_boot.c **** *             bytes actually written.
 132:.\Generated_Source\PSoC5/USBFS_boot.c **** *  timeOut:  Number of units to wait before returning because of a timeout.
 133:.\Generated_Source\PSoC5/USBFS_boot.c **** *
 134:.\Generated_Source\PSoC5/USBFS_boot.c **** * Return:
 135:.\Generated_Source\PSoC5/USBFS_boot.c **** *  Returns the value that best describes the problem.
 136:.\Generated_Source\PSoC5/USBFS_boot.c **** *
 137:.\Generated_Source\PSoC5/USBFS_boot.c **** * Reentrant:
 138:.\Generated_Source\PSoC5/USBFS_boot.c **** *  No.
 139:.\Generated_Source\PSoC5/USBFS_boot.c **** *
 140:.\Generated_Source\PSoC5/USBFS_boot.c **** *******************************************************************************/
 141:.\Generated_Source\PSoC5/USBFS_boot.c **** cystatus USBFS_CyBtldrCommWrite(uint8 *pData, uint16 size, uint16 *count, uint8 timeOut) CYSMALL
 142:.\Generated_Source\PSoC5/USBFS_boot.c ****                                                             
 143:.\Generated_Source\PSoC5/USBFS_boot.c **** {
 108              		.loc 1 143 0
 109              		.cfi_startproc
 110              		@ args = 0, pretend = 0, frame = 0
 111              		@ frame_needed = 0, uses_anonymous_args = 0
 112              	.LVL3:
 113 0000 F8B5     		push	{r3, r4, r5, r6, r7, lr}
 114              	.LCFI1:
 115              		.cfi_def_cfa_offset 24
 116              		.cfi_offset 3, -24
 117              		.cfi_offset 4, -20
 118              		.cfi_offset 5, -16
 119              		.cfi_offset 6, -12
 120              		.cfi_offset 7, -8
 121              		.cfi_offset 14, -4
 122              		.loc 1 143 0
 123 0002 0746     		mov	r7, r0
 124 0004 0E46     		mov	r6, r1
 144:.\Generated_Source\PSoC5/USBFS_boot.c ****     uint16 time;
 145:.\Generated_Source\PSoC5/USBFS_boot.c ****     cystatus status;
 146:.\Generated_Source\PSoC5/USBFS_boot.c **** 
 147:.\Generated_Source\PSoC5/USBFS_boot.c ****     /* Enable IN transfer */
 148:.\Generated_Source\PSoC5/USBFS_boot.c ****     USBFS_LoadInEP(USBFS_BTLDR_IN_EP, pData, USBFS_BTLDR_SIZEOF_READ_BUFFER);
 125              		.loc 1 148 0
 126 0006 0220     		movs	r0, #2
 127              	.LVL4:
 143:.\Generated_Source\PSoC5/USBFS_boot.c **** {
 128              		.loc 1 143 0
 129 0008 1546     		mov	r5, r2
 130              		.loc 1 148 0
 131 000a 3946     		mov	r1, r7
 132              	.LVL5:
 133 000c 4022     		movs	r2, #64
 134              	.LVL6:
ARM GAS  C:\Users\MICHA_~1\AppData\Local\Temp\cc8co29w.s 			page 6


 143:.\Generated_Source\PSoC5/USBFS_boot.c **** {
 135              		.loc 1 143 0
 136 000e 1C46     		mov	r4, r3
 137              		.loc 1 148 0
 138 0010 FFF7FEFF 		bl	USBFS_LoadInEP
 139              	.LVL7:
 149:.\Generated_Source\PSoC5/USBFS_boot.c **** 
 150:.\Generated_Source\PSoC5/USBFS_boot.c ****     /* Start a timer to wait on. */
 151:.\Generated_Source\PSoC5/USBFS_boot.c ****     USBFS_CyBtLdrStarttimer(time, timeOut);
 140              		.loc 1 151 0
 141 0014 0A23     		movs	r3, #10
 142 0016 5C43     		muls	r4, r3, r4
 143 0018 0D48     		ldr	r0, .L13
 144 001a 4480     		strh	r4, [r0, #2]	@ movhi
 145              	.LVL8:
 146 001c 0024     		movs	r4, #0
 147              	.LVL9:
 148              	.L7:
 152:.\Generated_Source\PSoC5/USBFS_boot.c **** 
 153:.\Generated_Source\PSoC5/USBFS_boot.c ****     /* Wait for the master to read it. */
 154:.\Generated_Source\PSoC5/USBFS_boot.c ****     while((USBFS_GetEPState(USBFS_BTLDR_IN_EP) == USBFS_IN_BUFFER_FULL) && \
 149              		.loc 1 154 0 discriminator 1
 150 001e 0220     		movs	r0, #2
 151 0020 FFF7FEFF 		bl	USBFS_GetEPState
 152              	.LVL10:
 153 0024 50B9     		cbnz	r0, .L8
 154              		.loc 1 154 0 is_stmt 0 discriminator 2
 155 0026 0A49     		ldr	r1, .L13
 155:.\Generated_Source\PSoC5/USBFS_boot.c ****            USBFS_CyBtLdrChecktimer(time))
 156              		.loc 1 155 0 is_stmt 1 discriminator 2
 157 0028 671C     		adds	r7, r4, #1
 154:.\Generated_Source\PSoC5/USBFS_boot.c ****     while((USBFS_GetEPState(USBFS_BTLDR_IN_EP) == USBFS_IN_BUFFER_FULL) && \
 158              		.loc 1 154 0 discriminator 2
 159 002a 4A88     		ldrh	r2, [r1, #2]
 160              		.loc 1 155 0 discriminator 2
 161 002c BFB2     		uxth	r7, r7
 162              	.LVL11:
 154:.\Generated_Source\PSoC5/USBFS_boot.c ****     while((USBFS_GetEPState(USBFS_BTLDR_IN_EP) == USBFS_IN_BUFFER_FULL) && \
 163              		.loc 1 154 0 discriminator 2
 164 002e A242     		cmp	r2, r4
 165 0030 04D9     		bls	.L8
 166              	.L9:
 156:.\Generated_Source\PSoC5/USBFS_boot.c ****     {
 157:.\Generated_Source\PSoC5/USBFS_boot.c ****         CyDelay(1u); /* 1ms delay */
 167              		.loc 1 157 0
 168 0032 0120     		movs	r0, #1
 169 0034 FFF7FEFF 		bl	CyDelay
 170              	.LVL12:
 155:.\Generated_Source\PSoC5/USBFS_boot.c ****            USBFS_CyBtLdrChecktimer(time))
 171              		.loc 1 155 0
 172 0038 3C46     		mov	r4, r7
 173 003a F0E7     		b	.L7
 174              	.LVL13:
 175              	.L8:
 158:.\Generated_Source\PSoC5/USBFS_boot.c ****     }
 159:.\Generated_Source\PSoC5/USBFS_boot.c **** 
 160:.\Generated_Source\PSoC5/USBFS_boot.c ****     if (USBFS_GetEPState(USBFS_BTLDR_IN_EP) == USBFS_IN_BUFFER_FULL)
ARM GAS  C:\Users\MICHA_~1\AppData\Local\Temp\cc8co29w.s 			page 7


 176              		.loc 1 160 0
 177 003c 0220     		movs	r0, #2
 178 003e FFF7FEFF 		bl	USBFS_GetEPState
 179              	.LVL14:
 180 0042 10B1     		cbz	r0, .L11
 161:.\Generated_Source\PSoC5/USBFS_boot.c ****     {
 162:.\Generated_Source\PSoC5/USBFS_boot.c ****         status = CYRET_TIMEOUT;
 163:.\Generated_Source\PSoC5/USBFS_boot.c ****     }
 164:.\Generated_Source\PSoC5/USBFS_boot.c ****     else
 165:.\Generated_Source\PSoC5/USBFS_boot.c ****     {
 166:.\Generated_Source\PSoC5/USBFS_boot.c ****         *count = size;
 181              		.loc 1 166 0
 182 0044 2E80     		strh	r6, [r5, #0]	@ movhi
 183              	.LVL15:
 167:.\Generated_Source\PSoC5/USBFS_boot.c ****         status = CYRET_SUCCESS;
 184              		.loc 1 167 0
 185 0046 0020     		movs	r0, #0
 186 0048 F8BD     		pop	{r3, r4, r5, r6, r7, pc}
 187              	.LVL16:
 188              	.L11:
 162:.\Generated_Source\PSoC5/USBFS_boot.c ****         status = CYRET_TIMEOUT;
 189              		.loc 1 162 0
 190 004a 1020     		movs	r0, #16
 191              	.LVL17:
 168:.\Generated_Source\PSoC5/USBFS_boot.c ****     }
 169:.\Generated_Source\PSoC5/USBFS_boot.c **** 
 170:.\Generated_Source\PSoC5/USBFS_boot.c ****     return(status);
 171:.\Generated_Source\PSoC5/USBFS_boot.c **** }
 192              		.loc 1 171 0
 193 004c F8BD     		pop	{r3, r4, r5, r6, r7, pc}
 194              	.L14:
 195 004e 00BF     		.align	2
 196              	.L13:
 197 0050 00000000 		.word	.LANCHOR0
 198              		.cfi_endproc
 199              	.LFE3:
 200              		.size	USBFS_CyBtldrCommWrite, .-USBFS_CyBtldrCommWrite
 201              		.section	.text.USBFS_CyBtldrCommRead,"ax",%progbits
 202              		.align	1
 203              		.global	USBFS_CyBtldrCommRead
 204              		.thumb
 205              		.thumb_func
 206              		.type	USBFS_CyBtldrCommRead, %function
 207              	USBFS_CyBtldrCommRead:
 208              	.LFB4:
 172:.\Generated_Source\PSoC5/USBFS_boot.c **** 
 173:.\Generated_Source\PSoC5/USBFS_boot.c **** 
 174:.\Generated_Source\PSoC5/USBFS_boot.c **** /*******************************************************************************
 175:.\Generated_Source\PSoC5/USBFS_boot.c **** * Function Name: USBFS_CyBtldrCommRead.
 176:.\Generated_Source\PSoC5/USBFS_boot.c **** ********************************************************************************
 177:.\Generated_Source\PSoC5/USBFS_boot.c **** *
 178:.\Generated_Source\PSoC5/USBFS_boot.c **** * Summary:
 179:.\Generated_Source\PSoC5/USBFS_boot.c **** *  Allows the caller to read data from the boot loader host. The function will
 180:.\Generated_Source\PSoC5/USBFS_boot.c **** *  handle polling to allow a block of data to be completely received from the
 181:.\Generated_Source\PSoC5/USBFS_boot.c **** *  host device.
 182:.\Generated_Source\PSoC5/USBFS_boot.c **** *
 183:.\Generated_Source\PSoC5/USBFS_boot.c **** * Parameters:
ARM GAS  C:\Users\MICHA_~1\AppData\Local\Temp\cc8co29w.s 			page 8


 184:.\Generated_Source\PSoC5/USBFS_boot.c **** *  pData:    A pointer to the area to store the block of data received
 185:.\Generated_Source\PSoC5/USBFS_boot.c **** *             from the device.
 186:.\Generated_Source\PSoC5/USBFS_boot.c **** *  size:     The number of bytes to read.
 187:.\Generated_Source\PSoC5/USBFS_boot.c **** *  count:    Pointer to an unsigned short variable to write the number
 188:.\Generated_Source\PSoC5/USBFS_boot.c **** *             of bytes actually read.
 189:.\Generated_Source\PSoC5/USBFS_boot.c **** *  timeOut:  Number of units to wait before returning because of a timeOut.
 190:.\Generated_Source\PSoC5/USBFS_boot.c **** *            Timeout is measured in 10s of ms.
 191:.\Generated_Source\PSoC5/USBFS_boot.c **** *
 192:.\Generated_Source\PSoC5/USBFS_boot.c **** * Return:
 193:.\Generated_Source\PSoC5/USBFS_boot.c **** *  Returns the value that best describes the problem.
 194:.\Generated_Source\PSoC5/USBFS_boot.c **** *
 195:.\Generated_Source\PSoC5/USBFS_boot.c **** * Reentrant:
 196:.\Generated_Source\PSoC5/USBFS_boot.c **** *  No.
 197:.\Generated_Source\PSoC5/USBFS_boot.c **** *
 198:.\Generated_Source\PSoC5/USBFS_boot.c **** *******************************************************************************/
 199:.\Generated_Source\PSoC5/USBFS_boot.c **** cystatus USBFS_CyBtldrCommRead(uint8 *pData, uint16 size, uint16 *count, uint8 timeOut) CYSMALL
 200:.\Generated_Source\PSoC5/USBFS_boot.c ****                                                             
 201:.\Generated_Source\PSoC5/USBFS_boot.c **** {
 209              		.loc 1 201 0
 210              		.cfi_startproc
 211              		@ args = 0, pretend = 0, frame = 0
 212              		@ frame_needed = 0, uses_anonymous_args = 0
 213              	.LVL18:
 214 0000 2DE9F041 		push	{r4, r5, r6, r7, r8, lr}
 215              	.LCFI2:
 216              		.cfi_def_cfa_offset 24
 217              		.cfi_offset 4, -24
 218              		.cfi_offset 5, -20
 219              		.cfi_offset 6, -16
 220              		.cfi_offset 7, -12
 221              		.cfi_offset 8, -8
 222              		.cfi_offset 14, -4
 223              		.loc 1 201 0
 224 0004 1546     		mov	r5, r2
 202:.\Generated_Source\PSoC5/USBFS_boot.c ****     cystatus status;
 203:.\Generated_Source\PSoC5/USBFS_boot.c ****     uint16 time;
 204:.\Generated_Source\PSoC5/USBFS_boot.c **** 
 205:.\Generated_Source\PSoC5/USBFS_boot.c ****     if(size > USBFS_BTLDR_SIZEOF_WRITE_BUFFER)
 206:.\Generated_Source\PSoC5/USBFS_boot.c ****     {
 207:.\Generated_Source\PSoC5/USBFS_boot.c ****         size = USBFS_BTLDR_SIZEOF_WRITE_BUFFER;
 208:.\Generated_Source\PSoC5/USBFS_boot.c ****     }
 209:.\Generated_Source\PSoC5/USBFS_boot.c ****     /* Start a timer to wait on. */
 210:.\Generated_Source\PSoC5/USBFS_boot.c ****     USBFS_CyBtLdrStarttimer(time, timeOut);
 225              		.loc 1 210 0
 226 0006 0A22     		movs	r2, #10
 227              	.LVL19:
 228 0008 5343     		muls	r3, r2, r3
 229              	.LVL20:
 230 000a 284C     		ldr	r4, .L43
 201:.\Generated_Source\PSoC5/USBFS_boot.c **** {
 231              		.loc 1 201 0
 232 000c 8046     		mov	r8, r0
 233              		.loc 1 210 0
 234 000e 6380     		strh	r3, [r4, #2]	@ movhi
 211:.\Generated_Source\PSoC5/USBFS_boot.c **** 
 212:.\Generated_Source\PSoC5/USBFS_boot.c ****     /* Wait on enumeration in first time */
 213:.\Generated_Source\PSoC5/USBFS_boot.c ****     if(USBFS_started)
ARM GAS  C:\Users\MICHA_~1\AppData\Local\Temp\cc8co29w.s 			page 9


 235              		.loc 1 213 0
 236 0010 2478     		ldrb	r4, [r4, #0]	@ zero_extendqisi2
 201:.\Generated_Source\PSoC5/USBFS_boot.c **** {
 237              		.loc 1 201 0
 238 0012 0F46     		mov	r7, r1
 239              	.LVL21:
 240              		.loc 1 213 0
 241 0014 D4B1     		cbz	r4, .L40
 242              	.L28:
 243 0016 0024     		movs	r4, #0
 244              	.LVL22:
 245              	.L16:
 214:.\Generated_Source\PSoC5/USBFS_boot.c ****     {
 215:.\Generated_Source\PSoC5/USBFS_boot.c ****         /* Wait for Device to enumerate */
 216:.\Generated_Source\PSoC5/USBFS_boot.c ****         while(!USBFS_GetConfiguration() && USBFS_CyBtLdrChecktimer(time))
 246              		.loc 1 216 0 discriminator 1
 247 0018 FFF7FEFF 		bl	USBFS_GetConfiguration
 248              	.LVL23:
 249 001c 58B9     		cbnz	r0, .L18
 250              		.loc 1 216 0 is_stmt 0 discriminator 2
 251 001e 234B     		ldr	r3, .L43
 252 0020 661C     		adds	r6, r4, #1
 253 0022 5888     		ldrh	r0, [r3, #2]
 254 0024 B6B2     		uxth	r6, r6
 255              	.LVL24:
 256 0026 A042     		cmp	r0, r4
 257 0028 04D9     		bls	.L41
 258              	.L19:
 217:.\Generated_Source\PSoC5/USBFS_boot.c ****         {
 218:.\Generated_Source\PSoC5/USBFS_boot.c ****             CyDelay(1u); /* 1ms delay */
 259              		.loc 1 218 0 is_stmt 1
 260 002a 0120     		movs	r0, #1
 261 002c FFF7FEFF 		bl	CyDelay
 262              	.LVL25:
 216:.\Generated_Source\PSoC5/USBFS_boot.c ****         while(!USBFS_GetConfiguration() && USBFS_CyBtLdrChecktimer(time))
 263              		.loc 1 216 0
 264 0030 3446     		mov	r4, r6
 265 0032 F1E7     		b	.L16
 266              	.L41:
 267 0034 3446     		mov	r4, r6
 268              	.LVL26:
 269              	.L18:
 219:.\Generated_Source\PSoC5/USBFS_boot.c ****         }
 220:.\Generated_Source\PSoC5/USBFS_boot.c ****         /* Enable first OUT, if enumeration complete */
 221:.\Generated_Source\PSoC5/USBFS_boot.c ****         if(USBFS_GetConfiguration())
 270              		.loc 1 221 0
 271 0036 FFF7FEFF 		bl	USBFS_GetConfiguration
 272              	.LVL27:
 273 003a E0B1     		cbz	r0, .L35
 222:.\Generated_Source\PSoC5/USBFS_boot.c ****         {
 223:.\Generated_Source\PSoC5/USBFS_boot.c ****             USBFS_IsConfigurationChanged();  /* Clear configuration changes state status */
 274              		.loc 1 223 0
 275 003c FFF7FEFF 		bl	USBFS_IsConfigurationChanged
 276              	.LVL28:
 224:.\Generated_Source\PSoC5/USBFS_boot.c ****             USBFS_CyBtldrCommReset();
 277              		.loc 1 224 0
 278 0040 FFF7FEFF 		bl	USBFS_CyBtldrCommReset
ARM GAS  C:\Users\MICHA_~1\AppData\Local\Temp\cc8co29w.s 			page 10


 279              	.LVL29:
 225:.\Generated_Source\PSoC5/USBFS_boot.c ****             USBFS_started = 0u;
 280              		.loc 1 225 0
 281 0044 194A     		ldr	r2, .L43
 282 0046 0021     		movs	r1, #0
 283 0048 1170     		strb	r1, [r2, #0]
 284 004a 14E0     		b	.L35
 285              	.LVL30:
 286              	.L40:
 226:.\Generated_Source\PSoC5/USBFS_boot.c ****         }
 227:.\Generated_Source\PSoC5/USBFS_boot.c ****     }
 228:.\Generated_Source\PSoC5/USBFS_boot.c ****     else /* Check for configuration changes, has been done by Host */
 229:.\Generated_Source\PSoC5/USBFS_boot.c ****     {
 230:.\Generated_Source\PSoC5/USBFS_boot.c ****         if(USBFS_IsConfigurationChanged() != 0u) /* Host could send double SET_INTERFACE request or
 287              		.loc 1 230 0
 288 004c FFF7FEFF 		bl	USBFS_IsConfigurationChanged
 289              	.LVL31:
 290 0050 08B9     		cbnz	r0, .L22
 291              	.L23:
 210:.\Generated_Source\PSoC5/USBFS_boot.c ****     USBFS_CyBtLdrStarttimer(time, timeOut);
 292              		.loc 1 210 0
 293 0052 0024     		movs	r4, #0
 294 0054 0FE0     		b	.L35
 295              	.L22:
 231:.\Generated_Source\PSoC5/USBFS_boot.c ****         {
 232:.\Generated_Source\PSoC5/USBFS_boot.c ****             if(USBFS_GetConfiguration() != 0u)   /* Init OUT endpoints when device reconfigured */
 296              		.loc 1 232 0
 297 0056 FFF7FEFF 		bl	USBFS_GetConfiguration
 298              	.LVL32:
 299 005a 0028     		cmp	r0, #0
 300 005c F9D0     		beq	.L23
 233:.\Generated_Source\PSoC5/USBFS_boot.c ****             {
 234:.\Generated_Source\PSoC5/USBFS_boot.c ****                 USBFS_CyBtldrCommReset();
 301              		.loc 1 234 0
 302 005e FFF7FEFF 		bl	USBFS_CyBtldrCommReset
 303              	.LVL33:
 304 0062 08E0     		b	.L35
 305              	.LVL34:
 306              	.L42:
 235:.\Generated_Source\PSoC5/USBFS_boot.c ****             }
 236:.\Generated_Source\PSoC5/USBFS_boot.c ****         }
 237:.\Generated_Source\PSoC5/USBFS_boot.c ****     }
 238:.\Generated_Source\PSoC5/USBFS_boot.c ****     /* Wait on next packet */
 239:.\Generated_Source\PSoC5/USBFS_boot.c ****     while((USBFS_GetEPState(USBFS_BTLDR_OUT_EP) != USBFS_OUT_BUFFER_FULL) && \
 307              		.loc 1 239 0 discriminator 2
 308 0064 114B     		ldr	r3, .L43
 240:.\Generated_Source\PSoC5/USBFS_boot.c ****            USBFS_CyBtLdrChecktimer(time))
 309              		.loc 1 240 0 discriminator 2
 310 0066 661C     		adds	r6, r4, #1
 239:.\Generated_Source\PSoC5/USBFS_boot.c ****     while((USBFS_GetEPState(USBFS_BTLDR_OUT_EP) != USBFS_OUT_BUFFER_FULL) && \
 311              		.loc 1 239 0 discriminator 2
 312 0068 5988     		ldrh	r1, [r3, #2]
 313              		.loc 1 240 0 discriminator 2
 314 006a B6B2     		uxth	r6, r6
 315              	.LVL35:
 239:.\Generated_Source\PSoC5/USBFS_boot.c ****     while((USBFS_GetEPState(USBFS_BTLDR_OUT_EP) != USBFS_OUT_BUFFER_FULL) && \
 316              		.loc 1 239 0 discriminator 2
ARM GAS  C:\Users\MICHA_~1\AppData\Local\Temp\cc8co29w.s 			page 11


 317 006c A142     		cmp	r1, r4
 318 006e 09D9     		bls	.L24
 319              	.L25:
 241:.\Generated_Source\PSoC5/USBFS_boot.c ****     {
 242:.\Generated_Source\PSoC5/USBFS_boot.c ****         CyDelay(1u); /* 1ms delay */
 320              		.loc 1 242 0
 321 0070 FFF7FEFF 		bl	CyDelay
 322              	.LVL36:
 240:.\Generated_Source\PSoC5/USBFS_boot.c ****            USBFS_CyBtLdrChecktimer(time))
 323              		.loc 1 240 0
 324 0074 3446     		mov	r4, r6
 325              	.LVL37:
 326              	.L35:
 239:.\Generated_Source\PSoC5/USBFS_boot.c ****     while((USBFS_GetEPState(USBFS_BTLDR_OUT_EP) != USBFS_OUT_BUFFER_FULL) && \
 327              		.loc 1 239 0 discriminator 1
 328 0076 0120     		movs	r0, #1
 329 0078 FFF7FEFF 		bl	USBFS_GetEPState
 330              	.LVL38:
 331 007c 0128     		cmp	r0, #1
 332              		.loc 1 242 0 discriminator 1
 333 007e 4FF00100 		mov	r0, #1
 239:.\Generated_Source\PSoC5/USBFS_boot.c ****     while((USBFS_GetEPState(USBFS_BTLDR_OUT_EP) != USBFS_OUT_BUFFER_FULL) && \
 334              		.loc 1 239 0 discriminator 1
 335 0082 EFD1     		bne	.L42
 336              	.LVL39:
 337              	.L24:
 243:.\Generated_Source\PSoC5/USBFS_boot.c ****     }
 244:.\Generated_Source\PSoC5/USBFS_boot.c **** 
 245:.\Generated_Source\PSoC5/USBFS_boot.c ****     /* OUT EP has completed */
 246:.\Generated_Source\PSoC5/USBFS_boot.c ****     if (USBFS_GetEPState(USBFS_BTLDR_OUT_EP) == USBFS_OUT_BUFFER_FULL)
 338              		.loc 1 246 0
 339 0084 FFF7FEFF 		bl	USBFS_GetEPState
 340              	.LVL40:
 341 0088 0128     		cmp	r0, #1
 342 008a 0AD1     		bne	.L26
 247:.\Generated_Source\PSoC5/USBFS_boot.c ****     {
 248:.\Generated_Source\PSoC5/USBFS_boot.c ****         *count = USBFS_ReadOutEP(USBFS_BTLDR_OUT_EP, pData, size);
 343              		.loc 1 248 0
 344 008c 4146     		mov	r1, r8
 345 008e 402F     		cmp	r7, #64
 346 0090 34BF     		ite	cc
 347 0092 3A46     		movcc	r2, r7
 348 0094 4022     		movcs	r2, #64
 349 0096 FFF7FEFF 		bl	USBFS_ReadOutEP
 350              	.LVL41:
 351 009a 2880     		strh	r0, [r5, #0]	@ movhi
 352              	.LVL42:
 249:.\Generated_Source\PSoC5/USBFS_boot.c ****         status = CYRET_SUCCESS;
 353              		.loc 1 249 0
 354 009c 0020     		movs	r0, #0
 355 009e BDE8F081 		pop	{r4, r5, r6, r7, r8, pc}
 356              	.LVL43:
 357              	.L26:
 250:.\Generated_Source\PSoC5/USBFS_boot.c ****     }
 251:.\Generated_Source\PSoC5/USBFS_boot.c ****     else
 252:.\Generated_Source\PSoC5/USBFS_boot.c ****     {
 253:.\Generated_Source\PSoC5/USBFS_boot.c ****         *count = 0u;
ARM GAS  C:\Users\MICHA_~1\AppData\Local\Temp\cc8co29w.s 			page 12


 358              		.loc 1 253 0
 359 00a2 0020     		movs	r0, #0
 360 00a4 2880     		strh	r0, [r5, #0]	@ movhi
 361              	.LVL44:
 254:.\Generated_Source\PSoC5/USBFS_boot.c ****         status = CYRET_TIMEOUT;
 362              		.loc 1 254 0
 363 00a6 1020     		movs	r0, #16
 364              	.LVL45:
 255:.\Generated_Source\PSoC5/USBFS_boot.c ****     }
 256:.\Generated_Source\PSoC5/USBFS_boot.c ****     return(status);
 257:.\Generated_Source\PSoC5/USBFS_boot.c **** }
 365              		.loc 1 257 0
 366 00a8 BDE8F081 		pop	{r4, r5, r6, r7, r8, pc}
 367              	.L44:
 368              		.align	2
 369              	.L43:
 370 00ac 00000000 		.word	.LANCHOR0
 371              		.cfi_endproc
 372              	.LFE4:
 373              		.size	USBFS_CyBtldrCommRead, .-USBFS_CyBtldrCommRead
 374              		.bss
 375              		.align	1
 376              		.set	.LANCHOR0,. + 0
 377              		.type	USBFS_started, %object
 378              		.size	USBFS_started, 1
 379              	USBFS_started:
 380 0000 00       		.space	1
 381 0001 00       		.space	1
 382              		.type	USBFS_universalTime, %object
 383              		.size	USBFS_universalTime, 2
 384              	USBFS_universalTime:
 385 0002 0000     		.space	2
 386              		.text
 387              	.Letext0:
 388              		.file 2 ".\\Generated_Source\\PSoC5\\cytypes.h"
 389              		.file 3 ".\\Generated_Source\\PSoC5\\USBFS.h"
 390              		.file 4 ".\\Generated_Source\\PSoC5\\CyLib.h"