ARM GAS  C:\Users\MICHA_~1\AppData\Local\Temp\ccTOK9dp.s 			page 1


   1              		.syntax unified
   2              		.cpu cortex-m3
   3              		.fpu softvfp
   4              		.eabi_attribute 20, 1
   5              		.eabi_attribute 21, 1
   6              		.eabi_attribute 23, 3
   7              		.eabi_attribute 24, 1
   8              		.eabi_attribute 25, 1
   9              		.eabi_attribute 26, 1
  10              		.eabi_attribute 30, 4
  11              		.eabi_attribute 34, 1
  12              		.eabi_attribute 18, 4
  13              		.thumb
  14              		.file	"USBFS_pm.c"
  15              		.text
  16              	.Ltext0:
  17              		.cfi_sections	.debug_frame
  18              		.section	.text.USBFS_DP_ISR,"ax",%progbits
  19              		.align	1
  20              		.global	USBFS_DP_ISR
  21              		.thumb
  22              		.thumb_func
  23              		.type	USBFS_DP_ISR, %function
  24              	USBFS_DP_ISR:
  25              	.LFB56:
  26              		.file 1 ".\\Generated_Source\\PSoC5\\USBFS_pm.c"
   1:.\Generated_Source\PSoC5/USBFS_pm.c **** /*******************************************************************************
   2:.\Generated_Source\PSoC5/USBFS_pm.c **** * File Name: USBFS_pm.c
   3:.\Generated_Source\PSoC5/USBFS_pm.c **** * Version 2.60
   4:.\Generated_Source\PSoC5/USBFS_pm.c **** *
   5:.\Generated_Source\PSoC5/USBFS_pm.c **** * Description:
   6:.\Generated_Source\PSoC5/USBFS_pm.c **** *  This file provides Suspend/Resume APIs functionality.
   7:.\Generated_Source\PSoC5/USBFS_pm.c **** *
   8:.\Generated_Source\PSoC5/USBFS_pm.c **** * Note:
   9:.\Generated_Source\PSoC5/USBFS_pm.c **** *
  10:.\Generated_Source\PSoC5/USBFS_pm.c **** ********************************************************************************
  11:.\Generated_Source\PSoC5/USBFS_pm.c **** * Copyright 2008-2013, Cypress Semiconductor Corporation.  All rights reserved.
  12:.\Generated_Source\PSoC5/USBFS_pm.c **** * You may use this file only in accordance with the license, terms, conditions,
  13:.\Generated_Source\PSoC5/USBFS_pm.c **** * disclaimers, and limitations in the end user license agreement accompanying
  14:.\Generated_Source\PSoC5/USBFS_pm.c **** * the software package with which this file was provided.
  15:.\Generated_Source\PSoC5/USBFS_pm.c **** *******************************************************************************/
  16:.\Generated_Source\PSoC5/USBFS_pm.c **** 
  17:.\Generated_Source\PSoC5/USBFS_pm.c **** #include "project.h"
  18:.\Generated_Source\PSoC5/USBFS_pm.c **** #include "USBFS.h"
  19:.\Generated_Source\PSoC5/USBFS_pm.c **** #include "USBFS_pvt.h"
  20:.\Generated_Source\PSoC5/USBFS_pm.c **** 
  21:.\Generated_Source\PSoC5/USBFS_pm.c **** 
  22:.\Generated_Source\PSoC5/USBFS_pm.c **** /***************************************
  23:.\Generated_Source\PSoC5/USBFS_pm.c **** * Custom Declarations
  24:.\Generated_Source\PSoC5/USBFS_pm.c **** ***************************************/
  25:.\Generated_Source\PSoC5/USBFS_pm.c **** /* `#START PM_CUSTOM_DECLARATIONS` Place your declaration here */
  26:.\Generated_Source\PSoC5/USBFS_pm.c **** 
  27:.\Generated_Source\PSoC5/USBFS_pm.c **** /* `#END` */
  28:.\Generated_Source\PSoC5/USBFS_pm.c **** 
  29:.\Generated_Source\PSoC5/USBFS_pm.c **** 
  30:.\Generated_Source\PSoC5/USBFS_pm.c **** /***************************************
  31:.\Generated_Source\PSoC5/USBFS_pm.c **** * Local data allocation
ARM GAS  C:\Users\MICHA_~1\AppData\Local\Temp\ccTOK9dp.s 			page 2


  32:.\Generated_Source\PSoC5/USBFS_pm.c **** ***************************************/
  33:.\Generated_Source\PSoC5/USBFS_pm.c **** 
  34:.\Generated_Source\PSoC5/USBFS_pm.c **** static USBFS_BACKUP_STRUCT  USBFS_backup;
  35:.\Generated_Source\PSoC5/USBFS_pm.c **** 
  36:.\Generated_Source\PSoC5/USBFS_pm.c **** 
  37:.\Generated_Source\PSoC5/USBFS_pm.c **** #if(USBFS_DP_ISR_REMOVE == 0u)
  38:.\Generated_Source\PSoC5/USBFS_pm.c **** 
  39:.\Generated_Source\PSoC5/USBFS_pm.c **** 
  40:.\Generated_Source\PSoC5/USBFS_pm.c ****     /*******************************************************************************
  41:.\Generated_Source\PSoC5/USBFS_pm.c ****     * Function Name: USBFS_DP_Interrupt
  42:.\Generated_Source\PSoC5/USBFS_pm.c ****     ********************************************************************************
  43:.\Generated_Source\PSoC5/USBFS_pm.c ****     *
  44:.\Generated_Source\PSoC5/USBFS_pm.c ****     * Summary:
  45:.\Generated_Source\PSoC5/USBFS_pm.c ****     *  This Interrupt Service Routine handles DP pin changes for wake-up from
  46:.\Generated_Source\PSoC5/USBFS_pm.c ****     *  the sleep mode.
  47:.\Generated_Source\PSoC5/USBFS_pm.c ****     *
  48:.\Generated_Source\PSoC5/USBFS_pm.c ****     * Parameters:
  49:.\Generated_Source\PSoC5/USBFS_pm.c ****     *  None.
  50:.\Generated_Source\PSoC5/USBFS_pm.c ****     *
  51:.\Generated_Source\PSoC5/USBFS_pm.c ****     * Return:
  52:.\Generated_Source\PSoC5/USBFS_pm.c ****     *  None.
  53:.\Generated_Source\PSoC5/USBFS_pm.c ****     *
  54:.\Generated_Source\PSoC5/USBFS_pm.c ****     *******************************************************************************/
  55:.\Generated_Source\PSoC5/USBFS_pm.c ****     CY_ISR(USBFS_DP_ISR)
  56:.\Generated_Source\PSoC5/USBFS_pm.c ****     {
  27              		.loc 1 56 0
  28              		.cfi_startproc
  29              		@ args = 0, pretend = 0, frame = 0
  30              		@ frame_needed = 0, uses_anonymous_args = 0
  31              		@ link register save eliminated.
  57:.\Generated_Source\PSoC5/USBFS_pm.c ****         /* `#START DP_USER_CODE` Place your code here */
  58:.\Generated_Source\PSoC5/USBFS_pm.c **** 
  59:.\Generated_Source\PSoC5/USBFS_pm.c ****         /* `#END` */
  60:.\Generated_Source\PSoC5/USBFS_pm.c **** 
  61:.\Generated_Source\PSoC5/USBFS_pm.c ****         /* Clears active interrupt */
  62:.\Generated_Source\PSoC5/USBFS_pm.c ****         CY_GET_REG8(USBFS_DP_INTSTAT_PTR);
  32              		.loc 1 62 0
  33 0000 014B     		ldr	r3, .L2
  34 0002 1B78     		ldrb	r3, [r3, #0]	@ zero_extendqisi2
  35 0004 7047     		bx	lr
  36              	.L3:
  37 0006 00BF     		.align	2
  38              	.L2:
  39 0008 8F450040 		.word	1073759631
  40              		.cfi_endproc
  41              	.LFE56:
  42              		.size	USBFS_DP_ISR, .-USBFS_DP_ISR
  43              		.section	.text.USBFS_SaveConfig,"ax",%progbits
  44              		.align	1
  45              		.global	USBFS_SaveConfig
  46              		.thumb
  47              		.thumb_func
  48              		.type	USBFS_SaveConfig, %function
  49              	USBFS_SaveConfig:
  50              	.LFB57:
  63:.\Generated_Source\PSoC5/USBFS_pm.c ****     }
  64:.\Generated_Source\PSoC5/USBFS_pm.c **** 
ARM GAS  C:\Users\MICHA_~1\AppData\Local\Temp\ccTOK9dp.s 			page 3


  65:.\Generated_Source\PSoC5/USBFS_pm.c **** #endif /* (USBFS_DP_ISR_REMOVE == 0u) */
  66:.\Generated_Source\PSoC5/USBFS_pm.c **** 
  67:.\Generated_Source\PSoC5/USBFS_pm.c **** 
  68:.\Generated_Source\PSoC5/USBFS_pm.c **** /*******************************************************************************
  69:.\Generated_Source\PSoC5/USBFS_pm.c **** * Function Name: USBFS_SaveConfig
  70:.\Generated_Source\PSoC5/USBFS_pm.c **** ********************************************************************************
  71:.\Generated_Source\PSoC5/USBFS_pm.c **** *
  72:.\Generated_Source\PSoC5/USBFS_pm.c **** * Summary:
  73:.\Generated_Source\PSoC5/USBFS_pm.c **** *  Saves the current user configuration.
  74:.\Generated_Source\PSoC5/USBFS_pm.c **** *
  75:.\Generated_Source\PSoC5/USBFS_pm.c **** * Parameters:
  76:.\Generated_Source\PSoC5/USBFS_pm.c **** *  None.
  77:.\Generated_Source\PSoC5/USBFS_pm.c **** *
  78:.\Generated_Source\PSoC5/USBFS_pm.c **** * Return:
  79:.\Generated_Source\PSoC5/USBFS_pm.c **** *  None.
  80:.\Generated_Source\PSoC5/USBFS_pm.c **** *
  81:.\Generated_Source\PSoC5/USBFS_pm.c **** * Reentrant:
  82:.\Generated_Source\PSoC5/USBFS_pm.c **** *  No.
  83:.\Generated_Source\PSoC5/USBFS_pm.c **** *
  84:.\Generated_Source\PSoC5/USBFS_pm.c **** *******************************************************************************/
  85:.\Generated_Source\PSoC5/USBFS_pm.c **** void USBFS_SaveConfig(void) 
  86:.\Generated_Source\PSoC5/USBFS_pm.c **** {
  51              		.loc 1 86 0
  52              		.cfi_startproc
  53              		@ args = 0, pretend = 0, frame = 0
  54              		@ frame_needed = 0, uses_anonymous_args = 0
  55              		@ link register save eliminated.
  56 0000 7047     		bx	lr
  57              		.cfi_endproc
  58              	.LFE57:
  59              		.size	USBFS_SaveConfig, .-USBFS_SaveConfig
  60              		.section	.text.USBFS_RestoreConfig,"ax",%progbits
  61              		.align	1
  62              		.global	USBFS_RestoreConfig
  63              		.thumb
  64              		.thumb_func
  65              		.type	USBFS_RestoreConfig, %function
  66              	USBFS_RestoreConfig:
  67              	.LFB58:
  87:.\Generated_Source\PSoC5/USBFS_pm.c **** 
  88:.\Generated_Source\PSoC5/USBFS_pm.c **** }
  89:.\Generated_Source\PSoC5/USBFS_pm.c **** 
  90:.\Generated_Source\PSoC5/USBFS_pm.c **** 
  91:.\Generated_Source\PSoC5/USBFS_pm.c **** /*******************************************************************************
  92:.\Generated_Source\PSoC5/USBFS_pm.c **** * Function Name: USBFS_RestoreConfig
  93:.\Generated_Source\PSoC5/USBFS_pm.c **** ********************************************************************************
  94:.\Generated_Source\PSoC5/USBFS_pm.c **** *
  95:.\Generated_Source\PSoC5/USBFS_pm.c **** * Summary:
  96:.\Generated_Source\PSoC5/USBFS_pm.c **** *  Restores the current user configuration.
  97:.\Generated_Source\PSoC5/USBFS_pm.c **** *
  98:.\Generated_Source\PSoC5/USBFS_pm.c **** * Parameters:
  99:.\Generated_Source\PSoC5/USBFS_pm.c **** *  None.
 100:.\Generated_Source\PSoC5/USBFS_pm.c **** *
 101:.\Generated_Source\PSoC5/USBFS_pm.c **** * Return:
 102:.\Generated_Source\PSoC5/USBFS_pm.c **** *  None.
 103:.\Generated_Source\PSoC5/USBFS_pm.c **** *
 104:.\Generated_Source\PSoC5/USBFS_pm.c **** * Reentrant:
ARM GAS  C:\Users\MICHA_~1\AppData\Local\Temp\ccTOK9dp.s 			page 4


 105:.\Generated_Source\PSoC5/USBFS_pm.c **** *  No.
 106:.\Generated_Source\PSoC5/USBFS_pm.c **** *
 107:.\Generated_Source\PSoC5/USBFS_pm.c **** *******************************************************************************/
 108:.\Generated_Source\PSoC5/USBFS_pm.c **** void USBFS_RestoreConfig(void) 
 109:.\Generated_Source\PSoC5/USBFS_pm.c **** {
  68              		.loc 1 109 0
  69              		.cfi_startproc
  70              		@ args = 0, pretend = 0, frame = 0
  71              		@ frame_needed = 0, uses_anonymous_args = 0
  72              		@ link register save eliminated.
 110:.\Generated_Source\PSoC5/USBFS_pm.c ****     if(USBFS_configuration != 0u)
  73              		.loc 1 110 0
  74 0000 024B     		ldr	r3, .L8
  75 0002 1878     		ldrb	r0, [r3, #0]	@ zero_extendqisi2
  76 0004 08B1     		cbz	r0, .L5
 111:.\Generated_Source\PSoC5/USBFS_pm.c ****     {
 112:.\Generated_Source\PSoC5/USBFS_pm.c ****         USBFS_ConfigReg();
 113:.\Generated_Source\PSoC5/USBFS_pm.c ****     }
 114:.\Generated_Source\PSoC5/USBFS_pm.c **** }
  77              		.loc 1 114 0
 112:.\Generated_Source\PSoC5/USBFS_pm.c ****         USBFS_ConfigReg();
  78              		.loc 1 112 0
  79 0006 FFF7FEBF 		b	USBFS_ConfigReg
  80              	.LVL0:
  81              	.L5:
  82 000a 7047     		bx	lr
  83              	.L9:
  84              		.align	2
  85              	.L8:
  86 000c 00000000 		.word	USBFS_configuration
  87              		.cfi_endproc
  88              	.LFE58:
  89              		.size	USBFS_RestoreConfig, .-USBFS_RestoreConfig
  90              		.section	.text.USBFS_Suspend,"ax",%progbits
  91              		.align	1
  92              		.global	USBFS_Suspend
  93              		.thumb
  94              		.thumb_func
  95              		.type	USBFS_Suspend, %function
  96              	USBFS_Suspend:
  97              	.LFB59:
 115:.\Generated_Source\PSoC5/USBFS_pm.c **** 
 116:.\Generated_Source\PSoC5/USBFS_pm.c **** 
 117:.\Generated_Source\PSoC5/USBFS_pm.c **** /*******************************************************************************
 118:.\Generated_Source\PSoC5/USBFS_pm.c **** * Function Name: USBFS_Suspend
 119:.\Generated_Source\PSoC5/USBFS_pm.c **** ********************************************************************************
 120:.\Generated_Source\PSoC5/USBFS_pm.c **** *
 121:.\Generated_Source\PSoC5/USBFS_pm.c **** * Summary:
 122:.\Generated_Source\PSoC5/USBFS_pm.c **** *  This function disables the USBFS block and prepares for power donwn mode.
 123:.\Generated_Source\PSoC5/USBFS_pm.c **** *
 124:.\Generated_Source\PSoC5/USBFS_pm.c **** * Parameters:
 125:.\Generated_Source\PSoC5/USBFS_pm.c **** *  None.
 126:.\Generated_Source\PSoC5/USBFS_pm.c **** *
 127:.\Generated_Source\PSoC5/USBFS_pm.c **** * Return:
 128:.\Generated_Source\PSoC5/USBFS_pm.c **** *   None.
 129:.\Generated_Source\PSoC5/USBFS_pm.c **** *
 130:.\Generated_Source\PSoC5/USBFS_pm.c **** * Global variables:
ARM GAS  C:\Users\MICHA_~1\AppData\Local\Temp\ccTOK9dp.s 			page 5


 131:.\Generated_Source\PSoC5/USBFS_pm.c **** *  USBFS_backup.enable:  modified.
 132:.\Generated_Source\PSoC5/USBFS_pm.c **** *
 133:.\Generated_Source\PSoC5/USBFS_pm.c **** * Reentrant:
 134:.\Generated_Source\PSoC5/USBFS_pm.c **** *  No.
 135:.\Generated_Source\PSoC5/USBFS_pm.c **** *
 136:.\Generated_Source\PSoC5/USBFS_pm.c **** *******************************************************************************/
 137:.\Generated_Source\PSoC5/USBFS_pm.c **** void USBFS_Suspend(void) 
 138:.\Generated_Source\PSoC5/USBFS_pm.c **** {
  98              		.loc 1 138 0
  99              		.cfi_startproc
 100              		@ args = 0, pretend = 0, frame = 0
 101              		@ frame_needed = 0, uses_anonymous_args = 0
 102 0000 2DE9F041 		push	{r4, r5, r6, r7, r8, lr}
 103              	.LCFI0:
 104              		.cfi_def_cfa_offset 24
 105              		.cfi_offset 4, -24
 106              		.cfi_offset 5, -20
 107              		.cfi_offset 6, -16
 108              		.cfi_offset 7, -12
 109              		.cfi_offset 8, -8
 110              		.cfi_offset 14, -4
 139:.\Generated_Source\PSoC5/USBFS_pm.c ****     uint8 enableInterrupts;
 140:.\Generated_Source\PSoC5/USBFS_pm.c ****     enableInterrupts = CyEnterCriticalSection();
 111              		.loc 1 140 0
 112 0004 FFF7FEFF 		bl	CyEnterCriticalSection
 113              	.LVL1:
 141:.\Generated_Source\PSoC5/USBFS_pm.c **** 
 142:.\Generated_Source\PSoC5/USBFS_pm.c ****     if((CY_GET_REG8(USBFS_CR0_PTR) & USBFS_CR0_ENABLE) != 0u)
 114              		.loc 1 142 0
 115 0008 294F     		ldr	r7, .L13
 140:.\Generated_Source\PSoC5/USBFS_pm.c ****     enableInterrupts = CyEnterCriticalSection();
 116              		.loc 1 140 0
 117 000a 8046     		mov	r8, r0
 118              	.LVL2:
 119              		.loc 1 142 0
 120 000c 3B78     		ldrb	r3, [r7, #0]	@ zero_extendqisi2
 121 000e 294D     		ldr	r5, .L13+4
 122 0010 13F0800F 		tst	r3, #128
 123 0014 36D0     		beq	.L11
 143:.\Generated_Source\PSoC5/USBFS_pm.c ****     {   /* USB block is enabled */
 144:.\Generated_Source\PSoC5/USBFS_pm.c ****         USBFS_backup.enableState = 1u;
 124              		.loc 1 144 0
 125 0016 0126     		movs	r6, #1
 145:.\Generated_Source\PSoC5/USBFS_pm.c **** 
 146:.\Generated_Source\PSoC5/USBFS_pm.c ****         #if(USBFS_EP_MM != USBFS__EP_MANUAL)
 147:.\Generated_Source\PSoC5/USBFS_pm.c ****             USBFS_Stop_DMA(USBFS_MAX_EP);     /* Stop all DMAs */
 148:.\Generated_Source\PSoC5/USBFS_pm.c ****         #endif   /* End USBFS_EP_MM != USBFS__EP_MANUAL */
 149:.\Generated_Source\PSoC5/USBFS_pm.c **** 
 150:.\Generated_Source\PSoC5/USBFS_pm.c ****         /* Ensure USB transmit enable is low (USB_USBIO_CR0.ten). - Manual Transmission - Disabled 
 151:.\Generated_Source\PSoC5/USBFS_pm.c ****         USBFS_USBIO_CR0_REG &= (uint8)~USBFS_USBIO_CR0_TEN;
 126              		.loc 1 151 0
 127 0018 2749     		ldr	r1, .L13+8
 144:.\Generated_Source\PSoC5/USBFS_pm.c ****         USBFS_backup.enableState = 1u;
 128              		.loc 1 144 0
 129 001a 2E70     		strb	r6, [r5, #0]
 130              		.loc 1 151 0
 131 001c 0A78     		ldrb	r2, [r1, #0]	@ zero_extendqisi2
ARM GAS  C:\Users\MICHA_~1\AppData\Local\Temp\ccTOK9dp.s 			page 6


 152:.\Generated_Source\PSoC5/USBFS_pm.c ****         CyDelayUs(0u);  /*~50ns delay */
 132              		.loc 1 152 0
 133 001e 0020     		movs	r0, #0
 134              	.LVL3:
 151:.\Generated_Source\PSoC5/USBFS_pm.c ****         USBFS_USBIO_CR0_REG &= (uint8)~USBFS_USBIO_CR0_TEN;
 135              		.loc 1 151 0
 136 0020 02F07F04 		and	r4, r2, #127
 137 0024 0C70     		strb	r4, [r1, #0]
 153:.\Generated_Source\PSoC5/USBFS_pm.c **** 
 154:.\Generated_Source\PSoC5/USBFS_pm.c ****         /* Disable the USBIO by asserting PM.USB_CR0.fsusbio_pd_n(Inverted) and pd_pullup_hv(Invert
 155:.\Generated_Source\PSoC5/USBFS_pm.c ****         USBFS_PM_USB_CR0_REG &=
 138              		.loc 1 155 0
 139 0026 254C     		ldr	r4, .L13+12
 152:.\Generated_Source\PSoC5/USBFS_pm.c ****         CyDelayUs(0u);  /*~50ns delay */
 140              		.loc 1 152 0
 141 0028 FFF7FEFF 		bl	CyDelayUs
 142              	.LVL4:
 143              		.loc 1 155 0
 144 002c 2378     		ldrb	r3, [r4, #0]	@ zero_extendqisi2
 145 002e 03F0F900 		and	r0, r3, #249
 146 0032 2070     		strb	r0, [r4, #0]
 156:.\Generated_Source\PSoC5/USBFS_pm.c ****                                 (uint8)~(USBFS_PM_USB_CR0_PD_N | USBFS_PM_USB_CR0_PD_PULLUP_N);
 157:.\Generated_Source\PSoC5/USBFS_pm.c **** 
 158:.\Generated_Source\PSoC5/USBFS_pm.c ****         /* Disable the SIE */
 159:.\Generated_Source\PSoC5/USBFS_pm.c ****         USBFS_CR0_REG &= (uint8)~USBFS_CR0_ENABLE;
 147              		.loc 1 159 0
 148 0034 3978     		ldrb	r1, [r7, #0]	@ zero_extendqisi2
 160:.\Generated_Source\PSoC5/USBFS_pm.c **** 
 161:.\Generated_Source\PSoC5/USBFS_pm.c ****         CyDelayUs(0u);  /*~50ns delay */
 149              		.loc 1 161 0
 150 0036 0020     		movs	r0, #0
 159:.\Generated_Source\PSoC5/USBFS_pm.c ****         USBFS_CR0_REG &= (uint8)~USBFS_CR0_ENABLE;
 151              		.loc 1 159 0
 152 0038 01F07F02 		and	r2, r1, #127
 153 003c 3A70     		strb	r2, [r7, #0]
 154              		.loc 1 161 0
 155 003e FFF7FEFF 		bl	CyDelayUs
 156              	.LVL5:
 162:.\Generated_Source\PSoC5/USBFS_pm.c ****         /* Store mode and Disable VRegulator*/
 163:.\Generated_Source\PSoC5/USBFS_pm.c ****         USBFS_backup.mode = USBFS_CR1_REG & USBFS_CR1_REG_ENABLE;
 157              		.loc 1 163 0
 158 0042 1F4B     		ldr	r3, .L13+16
 159 0044 1878     		ldrb	r0, [r3, #0]	@ zero_extendqisi2
 160 0046 3040     		ands	r0, r0, r6
 161 0048 6870     		strb	r0, [r5, #1]
 164:.\Generated_Source\PSoC5/USBFS_pm.c ****         USBFS_CR1_REG &= (uint8)~USBFS_CR1_REG_ENABLE;
 162              		.loc 1 164 0
 163 004a 1978     		ldrb	r1, [r3, #0]	@ zero_extendqisi2
 165:.\Generated_Source\PSoC5/USBFS_pm.c **** 
 166:.\Generated_Source\PSoC5/USBFS_pm.c ****         CyDelayUs(1u);  /* 0.5 us min delay */
 164              		.loc 1 166 0
 165 004c 3046     		mov	r0, r6
 164:.\Generated_Source\PSoC5/USBFS_pm.c ****         USBFS_CR1_REG &= (uint8)~USBFS_CR1_REG_ENABLE;
 166              		.loc 1 164 0
 167 004e 01F0FE02 		and	r2, r1, #254
 168 0052 1A70     		strb	r2, [r3, #0]
 169              		.loc 1 166 0
ARM GAS  C:\Users\MICHA_~1\AppData\Local\Temp\ccTOK9dp.s 			page 7


 170 0054 FFF7FEFF 		bl	CyDelayUs
 171              	.LVL6:
 167:.\Generated_Source\PSoC5/USBFS_pm.c ****         /* Disable the USBIO reference by setting PM.USB_CR0.fsusbio_ref_en.*/
 168:.\Generated_Source\PSoC5/USBFS_pm.c ****         USBFS_PM_USB_CR0_REG &= (uint8)~USBFS_PM_USB_CR0_REF_EN;
 172              		.loc 1 168 0
 173 0058 2378     		ldrb	r3, [r4, #0]	@ zero_extendqisi2
 169:.\Generated_Source\PSoC5/USBFS_pm.c **** 
 170:.\Generated_Source\PSoC5/USBFS_pm.c ****         /* Switch DP and DM terminals to GPIO mode and disconnect 1.5k pullup*/
 171:.\Generated_Source\PSoC5/USBFS_pm.c ****         USBFS_USBIO_CR1_REG |= USBFS_USBIO_CR1_IOMODE;
 174              		.loc 1 171 0
 175 005a 1A49     		ldr	r1, .L13+20
 168:.\Generated_Source\PSoC5/USBFS_pm.c ****         USBFS_PM_USB_CR0_REG &= (uint8)~USBFS_PM_USB_CR0_REF_EN;
 176              		.loc 1 168 0
 177 005c 03F0FE00 		and	r0, r3, #254
 178 0060 2070     		strb	r0, [r4, #0]
 179              		.loc 1 171 0
 180 0062 0A78     		ldrb	r2, [r1, #0]	@ zero_extendqisi2
 172:.\Generated_Source\PSoC5/USBFS_pm.c **** 
 173:.\Generated_Source\PSoC5/USBFS_pm.c ****         /* Disable USB in ACT PM */
 174:.\Generated_Source\PSoC5/USBFS_pm.c ****         USBFS_PM_ACT_CFG_REG &= (uint8)~USBFS_PM_ACT_EN_FSUSB;
 181              		.loc 1 174 0
 182 0064 1848     		ldr	r0, .L13+24
 171:.\Generated_Source\PSoC5/USBFS_pm.c ****         USBFS_USBIO_CR1_REG |= USBFS_USBIO_CR1_IOMODE;
 183              		.loc 1 171 0
 184 0066 42F02003 		orr	r3, r2, #32
 185 006a 0B70     		strb	r3, [r1, #0]
 186              		.loc 1 174 0
 187 006c 0178     		ldrb	r1, [r0, #0]	@ zero_extendqisi2
 188 006e 01F0FE02 		and	r2, r1, #254
 189 0072 0270     		strb	r2, [r0, #0]
 175:.\Generated_Source\PSoC5/USBFS_pm.c ****         /* Disable USB block for Standby Power Mode */
 176:.\Generated_Source\PSoC5/USBFS_pm.c ****         USBFS_PM_STBY_CFG_REG &= (uint8)~USBFS_PM_STBY_EN_FSUSB;
 190              		.loc 1 176 0
 191 0074 037C     		ldrb	r3, [r0, #16]	@ zero_extendqisi2
 192 0076 03F0FE01 		and	r1, r3, #254
 193 007a 0174     		strb	r1, [r0, #16]
 177:.\Generated_Source\PSoC5/USBFS_pm.c ****         CyDelayUs(1u); /* min  0.5us delay required */
 194              		.loc 1 177 0
 195 007c 3046     		mov	r0, r6
 196 007e FFF7FEFF 		bl	CyDelayUs
 197              	.LVL7:
 198 0082 01E0     		b	.L12
 199              	.LVL8:
 200              	.L11:
 178:.\Generated_Source\PSoC5/USBFS_pm.c **** 
 179:.\Generated_Source\PSoC5/USBFS_pm.c ****     }
 180:.\Generated_Source\PSoC5/USBFS_pm.c ****     else
 181:.\Generated_Source\PSoC5/USBFS_pm.c ****     {
 182:.\Generated_Source\PSoC5/USBFS_pm.c ****         USBFS_backup.enableState = 0u;
 201              		.loc 1 182 0
 202 0084 0020     		movs	r0, #0
 203              	.LVL9:
 204 0086 2870     		strb	r0, [r5, #0]
 205              	.L12:
 183:.\Generated_Source\PSoC5/USBFS_pm.c ****     }
 184:.\Generated_Source\PSoC5/USBFS_pm.c ****     CyExitCriticalSection(enableInterrupts);
 206              		.loc 1 184 0
ARM GAS  C:\Users\MICHA_~1\AppData\Local\Temp\ccTOK9dp.s 			page 8


 207 0088 4046     		mov	r0, r8
 208 008a FFF7FEFF 		bl	CyExitCriticalSection
 209              	.LVL10:
 185:.\Generated_Source\PSoC5/USBFS_pm.c **** 
 186:.\Generated_Source\PSoC5/USBFS_pm.c ****     /* Set the DP Interrupt for wake-up from sleep mode. */
 187:.\Generated_Source\PSoC5/USBFS_pm.c ****     #if(USBFS_DP_ISR_REMOVE == 0u)
 188:.\Generated_Source\PSoC5/USBFS_pm.c ****         (void) CyIntSetVector(USBFS_DP_INTC_VECT_NUM,   &USBFS_DP_ISR);
 210              		.loc 1 188 0
 211 008e 0F49     		ldr	r1, .L13+28
 212 0090 0C20     		movs	r0, #12
 213 0092 FFF7FEFF 		bl	CyIntSetVector
 214              	.LVL11:
 189:.\Generated_Source\PSoC5/USBFS_pm.c ****         CyIntSetPriority(USBFS_DP_INTC_VECT_NUM, USBFS_DP_INTC_PRIOR);
 215              		.loc 1 189 0
 216 0096 0C20     		movs	r0, #12
 217 0098 0721     		movs	r1, #7
 218 009a FFF7FEFF 		bl	CyIntSetPriority
 219              	.LVL12:
 190:.\Generated_Source\PSoC5/USBFS_pm.c ****         CyIntClearPending(USBFS_DP_INTC_VECT_NUM);
 220              		.loc 1 190 0
 221 009e 0C4A     		ldr	r2, .L13+32
 222 00a0 4FF48050 		mov	r0, #4096
 191:.\Generated_Source\PSoC5/USBFS_pm.c ****         CyIntEnable(USBFS_DP_INTC_VECT_NUM);
 223              		.loc 1 191 0
 224 00a4 A2F5C073 		sub	r3, r2, #384
 190:.\Generated_Source\PSoC5/USBFS_pm.c ****         CyIntClearPending(USBFS_DP_INTC_VECT_NUM);
 225              		.loc 1 190 0
 226 00a8 1060     		str	r0, [r2, #0]
 227              		.loc 1 191 0
 228 00aa 1860     		str	r0, [r3, #0]
 229 00ac BDE8F081 		pop	{r4, r5, r6, r7, r8, pc}
 230              	.L14:
 231              		.align	2
 232              	.L13:
 233 00b0 08600040 		.word	1073766408
 234 00b4 00000000 		.word	.LANCHOR0
 235 00b8 10600040 		.word	1073766416
 236 00bc 94430040 		.word	1073759124
 237 00c0 09600040 		.word	1073766409
 238 00c4 12600040 		.word	1073766418
 239 00c8 A5430040 		.word	1073759141
 240 00cc 00000000 		.word	USBFS_DP_ISR
 241 00d0 80E200E0 		.word	-536812928
 242              		.cfi_endproc
 243              	.LFE59:
 244              		.size	USBFS_Suspend, .-USBFS_Suspend
 245              		.section	.text.USBFS_Resume,"ax",%progbits
 246              		.align	1
 247              		.global	USBFS_Resume
 248              		.thumb
 249              		.thumb_func
 250              		.type	USBFS_Resume, %function
 251              	USBFS_Resume:
 252              	.LFB60:
 192:.\Generated_Source\PSoC5/USBFS_pm.c ****     #endif /* (USBFS_DP_ISR_REMOVE == 0u) */
 193:.\Generated_Source\PSoC5/USBFS_pm.c **** 
 194:.\Generated_Source\PSoC5/USBFS_pm.c **** }
ARM GAS  C:\Users\MICHA_~1\AppData\Local\Temp\ccTOK9dp.s 			page 9


 195:.\Generated_Source\PSoC5/USBFS_pm.c **** 
 196:.\Generated_Source\PSoC5/USBFS_pm.c **** 
 197:.\Generated_Source\PSoC5/USBFS_pm.c **** /*******************************************************************************
 198:.\Generated_Source\PSoC5/USBFS_pm.c **** * Function Name: USBFS_Resume
 199:.\Generated_Source\PSoC5/USBFS_pm.c **** ********************************************************************************
 200:.\Generated_Source\PSoC5/USBFS_pm.c **** *
 201:.\Generated_Source\PSoC5/USBFS_pm.c **** * Summary:
 202:.\Generated_Source\PSoC5/USBFS_pm.c **** *  This function enables the USBFS block after power down mode.
 203:.\Generated_Source\PSoC5/USBFS_pm.c **** *
 204:.\Generated_Source\PSoC5/USBFS_pm.c **** * Parameters:
 205:.\Generated_Source\PSoC5/USBFS_pm.c **** *  None.
 206:.\Generated_Source\PSoC5/USBFS_pm.c **** *
 207:.\Generated_Source\PSoC5/USBFS_pm.c **** * Return:
 208:.\Generated_Source\PSoC5/USBFS_pm.c **** *  None.
 209:.\Generated_Source\PSoC5/USBFS_pm.c **** *
 210:.\Generated_Source\PSoC5/USBFS_pm.c **** * Global variables:
 211:.\Generated_Source\PSoC5/USBFS_pm.c **** *  USBFS_backup - checked.
 212:.\Generated_Source\PSoC5/USBFS_pm.c **** *
 213:.\Generated_Source\PSoC5/USBFS_pm.c **** * Reentrant:
 214:.\Generated_Source\PSoC5/USBFS_pm.c **** *  No.
 215:.\Generated_Source\PSoC5/USBFS_pm.c **** *
 216:.\Generated_Source\PSoC5/USBFS_pm.c **** *******************************************************************************/
 217:.\Generated_Source\PSoC5/USBFS_pm.c **** void USBFS_Resume(void) 
 218:.\Generated_Source\PSoC5/USBFS_pm.c **** {
 253              		.loc 1 218 0
 254              		.cfi_startproc
 255              		@ args = 0, pretend = 0, frame = 0
 256              		@ frame_needed = 0, uses_anonymous_args = 0
 257 0000 70B5     		push	{r4, r5, r6, lr}
 258              	.LCFI1:
 259              		.cfi_def_cfa_offset 16
 260              		.cfi_offset 4, -16
 261              		.cfi_offset 5, -12
 262              		.cfi_offset 6, -8
 263              		.cfi_offset 14, -4
 219:.\Generated_Source\PSoC5/USBFS_pm.c ****     uint8 enableInterrupts;
 220:.\Generated_Source\PSoC5/USBFS_pm.c ****     enableInterrupts = CyEnterCriticalSection();
 264              		.loc 1 220 0
 265 0002 FFF7FEFF 		bl	CyEnterCriticalSection
 266              	.LVL13:
 221:.\Generated_Source\PSoC5/USBFS_pm.c **** 
 222:.\Generated_Source\PSoC5/USBFS_pm.c ****     if(USBFS_backup.enableState != 0u)
 267              		.loc 1 222 0
 268 0006 244D     		ldr	r5, .L20
 220:.\Generated_Source\PSoC5/USBFS_pm.c ****     enableInterrupts = CyEnterCriticalSection();
 269              		.loc 1 220 0
 270 0008 0646     		mov	r6, r0
 271              	.LVL14:
 272              		.loc 1 222 0
 273 000a 2B78     		ldrb	r3, [r5, #0]	@ zero_extendqisi2
 274 000c 002B     		cmp	r3, #0
 275 000e 3ED0     		beq	.L16
 223:.\Generated_Source\PSoC5/USBFS_pm.c ****     {
 224:.\Generated_Source\PSoC5/USBFS_pm.c ****         #if(USBFS_DP_ISR_REMOVE == 0u)
 225:.\Generated_Source\PSoC5/USBFS_pm.c ****             CyIntDisable(USBFS_DP_INTC_VECT_NUM);
 276              		.loc 1 225 0
 277 0010 2248     		ldr	r0, .L20+4
ARM GAS  C:\Users\MICHA_~1\AppData\Local\Temp\ccTOK9dp.s 			page 10


 278              	.LVL15:
 226:.\Generated_Source\PSoC5/USBFS_pm.c ****         #endif /* End USBFS_DP_ISR_REMOVE */
 227:.\Generated_Source\PSoC5/USBFS_pm.c **** 
 228:.\Generated_Source\PSoC5/USBFS_pm.c ****         /* Enable USB block */
 229:.\Generated_Source\PSoC5/USBFS_pm.c ****         USBFS_PM_ACT_CFG_REG |= USBFS_PM_ACT_EN_FSUSB;
 279              		.loc 1 229 0
 280 0012 2349     		ldr	r1, .L20+8
 225:.\Generated_Source\PSoC5/USBFS_pm.c ****             CyIntDisable(USBFS_DP_INTC_VECT_NUM);
 281              		.loc 1 225 0
 282 0014 4FF48052 		mov	r2, #4096
 283 0018 0260     		str	r2, [r0, #0]
 284              		.loc 1 229 0
 285 001a 0C78     		ldrb	r4, [r1, #0]	@ zero_extendqisi2
 286 001c 44F00103 		orr	r3, r4, #1
 287 0020 0B70     		strb	r3, [r1, #0]
 230:.\Generated_Source\PSoC5/USBFS_pm.c ****         /* Enable USB block for Standby Power Mode */
 231:.\Generated_Source\PSoC5/USBFS_pm.c ****         USBFS_PM_STBY_CFG_REG |= USBFS_PM_STBY_EN_FSUSB;
 288              		.loc 1 231 0
 289 0022 0A7C     		ldrb	r2, [r1, #16]	@ zero_extendqisi2
 290 0024 42F00100 		orr	r0, r2, #1
 291 0028 0874     		strb	r0, [r1, #16]
 232:.\Generated_Source\PSoC5/USBFS_pm.c ****         /* Enable core clock */
 233:.\Generated_Source\PSoC5/USBFS_pm.c ****         USBFS_USB_CLK_EN_REG |= USBFS_USB_CLK_ENABLE;
 292              		.loc 1 233 0
 293 002a 1E49     		ldr	r1, .L20+12
 294 002c 0C78     		ldrb	r4, [r1, #0]	@ zero_extendqisi2
 295 002e 44F00103 		orr	r3, r4, #1
 234:.\Generated_Source\PSoC5/USBFS_pm.c **** 
 235:.\Generated_Source\PSoC5/USBFS_pm.c ****         /* Enable the USBIO reference by setting PM.USB_CR0.fsusbio_ref_en.*/
 236:.\Generated_Source\PSoC5/USBFS_pm.c ****         USBFS_PM_USB_CR0_REG |= USBFS_PM_USB_CR0_REF_EN;
 296              		.loc 1 236 0
 297 0032 1D4C     		ldr	r4, .L20+16
 233:.\Generated_Source\PSoC5/USBFS_pm.c ****         USBFS_USB_CLK_EN_REG |= USBFS_USB_CLK_ENABLE;
 298              		.loc 1 233 0
 299 0034 0B70     		strb	r3, [r1, #0]
 300              		.loc 1 236 0
 301 0036 2278     		ldrb	r2, [r4, #0]	@ zero_extendqisi2
 302 0038 42F00100 		orr	r0, r2, #1
 303 003c 2070     		strb	r0, [r4, #0]
 237:.\Generated_Source\PSoC5/USBFS_pm.c ****         /* The reference will be available ~40us after power restored */
 238:.\Generated_Source\PSoC5/USBFS_pm.c ****         CyDelayUs(40u);
 304              		.loc 1 238 0
 305 003e 2820     		movs	r0, #40
 306 0040 FFF7FEFF 		bl	CyDelayUs
 307              	.LVL16:
 239:.\Generated_Source\PSoC5/USBFS_pm.c ****         /* Return VRegulator*/
 240:.\Generated_Source\PSoC5/USBFS_pm.c ****         USBFS_CR1_REG |= USBFS_backup.mode;
 308              		.loc 1 240 0
 309 0044 194B     		ldr	r3, .L20+20
 310 0046 6A78     		ldrb	r2, [r5, #1]	@ zero_extendqisi2
 311 0048 1978     		ldrb	r1, [r3, #0]	@ zero_extendqisi2
 312 004a 41EA0200 		orr	r0, r1, r2
 313 004e 1870     		strb	r0, [r3, #0]
 241:.\Generated_Source\PSoC5/USBFS_pm.c ****         CyDelayUs(0u);  /*~50ns delay */
 314              		.loc 1 241 0
 315 0050 0020     		movs	r0, #0
 316 0052 FFF7FEFF 		bl	CyDelayUs
ARM GAS  C:\Users\MICHA_~1\AppData\Local\Temp\ccTOK9dp.s 			page 11


 317              	.LVL17:
 242:.\Generated_Source\PSoC5/USBFS_pm.c ****         /* Enable USBIO */
 243:.\Generated_Source\PSoC5/USBFS_pm.c ****         USBFS_PM_USB_CR0_REG |= USBFS_PM_USB_CR0_PD_N;
 318              		.loc 1 243 0
 319 0056 2378     		ldrb	r3, [r4, #0]	@ zero_extendqisi2
 244:.\Generated_Source\PSoC5/USBFS_pm.c ****         CyDelayUs(2u);
 320              		.loc 1 244 0
 321 0058 0220     		movs	r0, #2
 243:.\Generated_Source\PSoC5/USBFS_pm.c ****         USBFS_PM_USB_CR0_REG |= USBFS_PM_USB_CR0_PD_N;
 322              		.loc 1 243 0
 323 005a 43F00201 		orr	r1, r3, #2
 324 005e 2170     		strb	r1, [r4, #0]
 325              		.loc 1 244 0
 326 0060 FFF7FEFF 		bl	CyDelayUs
 327              	.LVL18:
 245:.\Generated_Source\PSoC5/USBFS_pm.c ****         /* Set the USBIO pull-up enable */
 246:.\Generated_Source\PSoC5/USBFS_pm.c ****         USBFS_PM_USB_CR0_REG |= USBFS_PM_USB_CR0_PD_PULLUP_N;
 328              		.loc 1 246 0
 329 0064 2278     		ldrb	r2, [r4, #0]	@ zero_extendqisi2
 247:.\Generated_Source\PSoC5/USBFS_pm.c **** 
 248:.\Generated_Source\PSoC5/USBFS_pm.c ****         /* Reinit Arbiter configuration for DMA transfers */
 249:.\Generated_Source\PSoC5/USBFS_pm.c ****         #if(USBFS_EP_MM != USBFS__EP_MANUAL)
 250:.\Generated_Source\PSoC5/USBFS_pm.c ****             /* usb arb interrupt enable */
 251:.\Generated_Source\PSoC5/USBFS_pm.c ****             USBFS_ARB_INT_EN_REG = USBFS_ARB_INT_MASK;
 252:.\Generated_Source\PSoC5/USBFS_pm.c ****             #if(USBFS_EP_MM == USBFS__EP_DMAMANUAL)
 253:.\Generated_Source\PSoC5/USBFS_pm.c ****                 USBFS_ARB_CFG_REG = USBFS_ARB_CFG_MANUAL_DMA;
 254:.\Generated_Source\PSoC5/USBFS_pm.c ****             #endif   /* End USBFS_EP_MM == USBFS__EP_DMAMANUAL */
 255:.\Generated_Source\PSoC5/USBFS_pm.c ****             #if(USBFS_EP_MM == USBFS__EP_DMAAUTO)
 256:.\Generated_Source\PSoC5/USBFS_pm.c ****                 /*Set cfg cmplt this rises DMA request when the full configuration is done */
 257:.\Generated_Source\PSoC5/USBFS_pm.c ****                 USBFS_ARB_CFG_REG = USBFS_ARB_CFG_AUTO_DMA | USBFS_ARB_CFG_AUTO_MEM;
 258:.\Generated_Source\PSoC5/USBFS_pm.c ****             #endif   /* End USBFS_EP_MM == USBFS__EP_DMAAUTO */
 259:.\Generated_Source\PSoC5/USBFS_pm.c ****         #endif   /* End USBFS_EP_MM != USBFS__EP_MANUAL */
 260:.\Generated_Source\PSoC5/USBFS_pm.c **** 
 261:.\Generated_Source\PSoC5/USBFS_pm.c ****         /* STALL_IN_OUT */
 262:.\Generated_Source\PSoC5/USBFS_pm.c ****         CY_SET_REG8(USBFS_EP0_CR_PTR, USBFS_MODE_STALL_IN_OUT);
 330              		.loc 1 262 0
 331 0066 124B     		ldr	r3, .L20+24
 246:.\Generated_Source\PSoC5/USBFS_pm.c ****         USBFS_PM_USB_CR0_REG |= USBFS_PM_USB_CR0_PD_PULLUP_N;
 332              		.loc 1 246 0
 333 0068 42F00400 		orr	r0, r2, #4
 334              		.loc 1 262 0
 335 006c 0321     		movs	r1, #3
 246:.\Generated_Source\PSoC5/USBFS_pm.c ****         USBFS_PM_USB_CR0_REG |= USBFS_PM_USB_CR0_PD_PULLUP_N;
 336              		.loc 1 246 0
 337 006e 2070     		strb	r0, [r4, #0]
 338              		.loc 1 262 0
 339 0070 1970     		strb	r1, [r3, #0]
 263:.\Generated_Source\PSoC5/USBFS_pm.c ****         /* Enable the SIE with a last address */
 264:.\Generated_Source\PSoC5/USBFS_pm.c ****         USBFS_CR0_REG |= USBFS_CR0_ENABLE;
 340              		.loc 1 264 0
 341 0072 13F8202C 		ldrb	r2, [r3, #-32]	@ zero_extendqisi2
 342 0076 42F08000 		orr	r0, r2, #128
 343 007a 03F8200C 		strb	r0, [r3, #-32]
 265:.\Generated_Source\PSoC5/USBFS_pm.c ****         CyDelayCycles(1u);
 344              		.loc 1 265 0
 345 007e 0120     		movs	r0, #1
 346 0080 FFF7FEFF 		bl	CyDelayCycles
ARM GAS  C:\Users\MICHA_~1\AppData\Local\Temp\ccTOK9dp.s 			page 12


 347              	.LVL19:
 266:.\Generated_Source\PSoC5/USBFS_pm.c ****         /* Finally, Enable d+ pullup and select iomode to USB mode*/
 267:.\Generated_Source\PSoC5/USBFS_pm.c ****         CY_SET_REG8(USBFS_USBIO_CR1_PTR, USBFS_USBIO_CR1_USBPUEN);
 348              		.loc 1 267 0
 349 0084 0B4B     		ldr	r3, .L20+28
 350 0086 0421     		movs	r1, #4
 351 0088 1970     		strb	r1, [r3, #0]
 268:.\Generated_Source\PSoC5/USBFS_pm.c **** 
 269:.\Generated_Source\PSoC5/USBFS_pm.c ****         /* Restore USB register settings */
 270:.\Generated_Source\PSoC5/USBFS_pm.c ****         USBFS_RestoreConfig();
 352              		.loc 1 270 0
 353 008a FFF7FEFF 		bl	USBFS_RestoreConfig
 354              	.LVL20:
 355              	.L16:
 271:.\Generated_Source\PSoC5/USBFS_pm.c **** 
 272:.\Generated_Source\PSoC5/USBFS_pm.c ****     }
 273:.\Generated_Source\PSoC5/USBFS_pm.c ****     CyExitCriticalSection(enableInterrupts);
 356              		.loc 1 273 0
 357 008e 3046     		mov	r0, r6
 274:.\Generated_Source\PSoC5/USBFS_pm.c **** }
 358              		.loc 1 274 0
 359 0090 BDE87040 		pop	{r4, r5, r6, lr}
 273:.\Generated_Source\PSoC5/USBFS_pm.c ****     CyExitCriticalSection(enableInterrupts);
 360              		.loc 1 273 0
 361 0094 FFF7FEBF 		b	CyExitCriticalSection
 362              	.LVL21:
 363              	.L21:
 364              		.align	2
 365              	.L20:
 366 0098 00000000 		.word	.LANCHOR0
 367 009c 80E100E0 		.word	-536813184
 368 00a0 A5430040 		.word	1073759141
 369 00a4 9D600040 		.word	1073766557
 370 00a8 94430040 		.word	1073759124
 371 00ac 09600040 		.word	1073766409
 372 00b0 28600040 		.word	1073766440
 373 00b4 12600040 		.word	1073766418
 374              		.cfi_endproc
 375              	.LFE60:
 376              		.size	USBFS_Resume, .-USBFS_Resume
 377              		.bss
 378              		.set	.LANCHOR0,. + 0
 379              		.type	USBFS_backup, %object
 380              		.size	USBFS_backup, 2
 381              	USBFS_backup:
 382 0000 0000     		.space	2
 383              		.text
 384              	.Letext0:
 385              		.file 2 "c:\\program files (x86)\\cypress\\psoc creator\\3.0\\psoc creator\\import\\gnu_cs\\arm\\4
 386              		.file 3 "./Generated_Source/PSoC5/cytypes.h"
 387              		.file 4 "./Generated_Source/PSoC5/USBFS.h"
 388              		.file 5 "./Generated_Source/PSoC5/core_cm3.h"
 389              		.file 6 "./Generated_Source/PSoC5/CyLib.h"
 390              		.file 7 "./Generated_Source/PSoC5/USBFS_pvt.h"